
g29-MB-Replacement.elf:     file format elf32-littlearm

Sections:
Idx Name          Size      VMA       LMA       File off  Algn
  0 .isr_vector   0000010c  08000000  08000000  00001000  2**0
                  CONTENTS, ALLOC, LOAD, READONLY, DATA
  1 .text         00006918  0800010c  0800010c  0000110c  2**2
                  CONTENTS, ALLOC, LOAD, READONLY, CODE
  2 .rodata       000001a4  08006a24  08006a24  00007a24  2**2
                  CONTENTS, ALLOC, LOAD, READONLY, DATA
  3 .ARM.extab    00000000  08006bc8  08006bc8  000085e8  2**0
                  CONTENTS, READONLY
  4 .ARM          00000008  08006bc8  08006bc8  00007bc8  2**2
                  CONTENTS, ALLOC, LOAD, READONLY, DATA
  5 .preinit_array 00000000  08006bd0  08006bd0  000085e8  2**0
                  CONTENTS, ALLOC, LOAD, DATA
  6 .init_array   00000004  08006bd0  08006bd0  00007bd0  2**2
                  CONTENTS, ALLOC, LOAD, READONLY, DATA
  7 .fini_array   00000004  08006bd4  08006bd4  00007bd4  2**2
                  CONTENTS, ALLOC, LOAD, READONLY, DATA
  8 .data         000005e8  20000000  08006bd8  00008000  2**2
                  CONTENTS, ALLOC, LOAD, DATA
  9 .bss          000009fc  200005e8  080071c0  000085e8  2**3
                  ALLOC
 10 ._user_heap_stack 00000604  20000fe4  080071c0  00008fe4  2**0
                  ALLOC
 11 .ARM.attributes 00000029  00000000  00000000  000085e8  2**0
                  CONTENTS, READONLY
 12 .debug_info   00022cee  00000000  00000000  00008611  2**0
                  CONTENTS, READONLY, DEBUGGING, OCTETS
 13 .debug_abbrev 000059a5  00000000  00000000  0002b2ff  2**0
                  CONTENTS, READONLY, DEBUGGING, OCTETS
 14 .debug_aranges 000013e0  00000000  00000000  00030ca8  2**3
                  CONTENTS, READONLY, DEBUGGING, OCTETS
 15 .debug_rnglists 00001ec0  00000000  00000000  00032088  2**0
                  CONTENTS, READONLY, DEBUGGING, OCTETS
 16 .debug_macro  0001c75a  00000000  00000000  00033f48  2**0
                  CONTENTS, READONLY, DEBUGGING, OCTETS
 17 .debug_line   0002636d  00000000  00000000  000506a2  2**0
                  CONTENTS, READONLY, DEBUGGING, OCTETS
 18 .debug_str    00094a9b  00000000  00000000  00076a0f  2**0
                  CONTENTS, READONLY, DEBUGGING, OCTETS
 19 .comment      00000043  00000000  00000000  0010b4aa  2**0
                  CONTENTS, READONLY
 20 .debug_frame  00003590  00000000  00000000  0010b4f0  2**2
                  CONTENTS, READONLY, DEBUGGING, OCTETS
 21 .debug_loclists 00010ced  00000000  00000000  0010ea80  2**0
                  CONTENTS, READONLY, DEBUGGING, OCTETS
 22 .debug_line_str 0000006e  00000000  00000000  0011f76d  2**0
                  CONTENTS, READONLY, DEBUGGING, OCTETS

Disassembly of section .text:

0800010c <__do_global_dtors_aux>:
 800010c:	b510      	push	{r4, lr}
 800010e:	4c05      	ldr	r4, [pc, #20]	@ (8000124 <__do_global_dtors_aux+0x18>)
 8000110:	7823      	ldrb	r3, [r4, #0]
 8000112:	b933      	cbnz	r3, 8000122 <__do_global_dtors_aux+0x16>
 8000114:	4b04      	ldr	r3, [pc, #16]	@ (8000128 <__do_global_dtors_aux+0x1c>)
 8000116:	b113      	cbz	r3, 800011e <__do_global_dtors_aux+0x12>
 8000118:	4804      	ldr	r0, [pc, #16]	@ (800012c <__do_global_dtors_aux+0x20>)
 800011a:	f3af 8000 	nop.w
 800011e:	2301      	movs	r3, #1
 8000120:	7023      	strb	r3, [r4, #0]
 8000122:	bd10      	pop	{r4, pc}
 8000124:	200005e8 	.word	0x200005e8
 8000128:	00000000 	.word	0x00000000
 800012c:	08006a0c 	.word	0x08006a0c

08000130 <frame_dummy>:
 8000130:	b508      	push	{r3, lr}
 8000132:	4b03      	ldr	r3, [pc, #12]	@ (8000140 <frame_dummy+0x10>)
 8000134:	b11b      	cbz	r3, 800013e <frame_dummy+0xe>
 8000136:	4903      	ldr	r1, [pc, #12]	@ (8000144 <frame_dummy+0x14>)
 8000138:	4803      	ldr	r0, [pc, #12]	@ (8000148 <frame_dummy+0x18>)
 800013a:	f3af 8000 	nop.w
 800013e:	bd08      	pop	{r3, pc}
 8000140:	00000000 	.word	0x00000000
 8000144:	200005ec 	.word	0x200005ec
 8000148:	08006a0c 	.word	0x08006a0c

0800014c <strlen>:
 800014c:	4603      	mov	r3, r0
 800014e:	f813 2b01 	ldrb.w	r2, [r3], #1
 8000152:	2a00      	cmp	r2, #0
 8000154:	d1fb      	bne.n	800014e <strlen+0x2>
 8000156:	1a18      	subs	r0, r3, r0
 8000158:	3801      	subs	r0, #1
 800015a:	4770      	bx	lr

0800015c <__aeabi_frsub>:
 800015c:	f080 4000 	eor.w	r0, r0, #2147483648	@ 0x80000000
 8000160:	e002      	b.n	8000168 <__addsf3>
 8000162:	bf00      	nop

08000164 <__aeabi_fsub>:
 8000164:	f081 4100 	eor.w	r1, r1, #2147483648	@ 0x80000000

08000168 <__addsf3>:
 8000168:	0042      	lsls	r2, r0, #1
 800016a:	bf1f      	itttt	ne
 800016c:	ea5f 0341 	movsne.w	r3, r1, lsl #1
 8000170:	ea92 0f03 	teqne	r2, r3
 8000174:	ea7f 6c22 	mvnsne.w	ip, r2, asr #24
 8000178:	ea7f 6c23 	mvnsne.w	ip, r3, asr #24
 800017c:	d06a      	beq.n	8000254 <__addsf3+0xec>
 800017e:	ea4f 6212 	mov.w	r2, r2, lsr #24
 8000182:	ebd2 6313 	rsbs	r3, r2, r3, lsr #24
 8000186:	bfc1      	itttt	gt
 8000188:	18d2      	addgt	r2, r2, r3
 800018a:	4041      	eorgt	r1, r0
 800018c:	4048      	eorgt	r0, r1
 800018e:	4041      	eorgt	r1, r0
 8000190:	bfb8      	it	lt
 8000192:	425b      	neglt	r3, r3
 8000194:	2b19      	cmp	r3, #25
 8000196:	bf88      	it	hi
 8000198:	4770      	bxhi	lr
 800019a:	f010 4f00 	tst.w	r0, #2147483648	@ 0x80000000
 800019e:	f440 0000 	orr.w	r0, r0, #8388608	@ 0x800000
 80001a2:	f020 407f 	bic.w	r0, r0, #4278190080	@ 0xff000000
 80001a6:	bf18      	it	ne
 80001a8:	4240      	negne	r0, r0
 80001aa:	f011 4f00 	tst.w	r1, #2147483648	@ 0x80000000
 80001ae:	f441 0100 	orr.w	r1, r1, #8388608	@ 0x800000
 80001b2:	f021 417f 	bic.w	r1, r1, #4278190080	@ 0xff000000
 80001b6:	bf18      	it	ne
 80001b8:	4249      	negne	r1, r1
 80001ba:	ea92 0f03 	teq	r2, r3
 80001be:	d03f      	beq.n	8000240 <__addsf3+0xd8>
 80001c0:	f1a2 0201 	sub.w	r2, r2, #1
 80001c4:	fa41 fc03 	asr.w	ip, r1, r3
 80001c8:	eb10 000c 	adds.w	r0, r0, ip
 80001cc:	f1c3 0320 	rsb	r3, r3, #32
 80001d0:	fa01 f103 	lsl.w	r1, r1, r3
 80001d4:	f000 4300 	and.w	r3, r0, #2147483648	@ 0x80000000
 80001d8:	d502      	bpl.n	80001e0 <__addsf3+0x78>
 80001da:	4249      	negs	r1, r1
 80001dc:	eb60 0040 	sbc.w	r0, r0, r0, lsl #1
 80001e0:	f5b0 0f00 	cmp.w	r0, #8388608	@ 0x800000
 80001e4:	d313      	bcc.n	800020e <__addsf3+0xa6>
 80001e6:	f1b0 7f80 	cmp.w	r0, #16777216	@ 0x1000000
 80001ea:	d306      	bcc.n	80001fa <__addsf3+0x92>
 80001ec:	0840      	lsrs	r0, r0, #1
 80001ee:	ea4f 0131 	mov.w	r1, r1, rrx
 80001f2:	f102 0201 	add.w	r2, r2, #1
 80001f6:	2afe      	cmp	r2, #254	@ 0xfe
 80001f8:	d251      	bcs.n	800029e <__addsf3+0x136>
 80001fa:	f1b1 4f00 	cmp.w	r1, #2147483648	@ 0x80000000
 80001fe:	eb40 50c2 	adc.w	r0, r0, r2, lsl #23
 8000202:	bf08      	it	eq
 8000204:	f020 0001 	biceq.w	r0, r0, #1
 8000208:	ea40 0003 	orr.w	r0, r0, r3
 800020c:	4770      	bx	lr
 800020e:	0049      	lsls	r1, r1, #1
 8000210:	eb40 0000 	adc.w	r0, r0, r0
 8000214:	3a01      	subs	r2, #1
 8000216:	bf28      	it	cs
 8000218:	f5b0 0f00 	cmpcs.w	r0, #8388608	@ 0x800000
 800021c:	d2ed      	bcs.n	80001fa <__addsf3+0x92>
 800021e:	fab0 fc80 	clz	ip, r0
 8000222:	f1ac 0c08 	sub.w	ip, ip, #8
 8000226:	ebb2 020c 	subs.w	r2, r2, ip
 800022a:	fa00 f00c 	lsl.w	r0, r0, ip
 800022e:	bfaa      	itet	ge
 8000230:	eb00 50c2 	addge.w	r0, r0, r2, lsl #23
 8000234:	4252      	neglt	r2, r2
 8000236:	4318      	orrge	r0, r3
 8000238:	bfbc      	itt	lt
 800023a:	40d0      	lsrlt	r0, r2
 800023c:	4318      	orrlt	r0, r3
 800023e:	4770      	bx	lr
 8000240:	f092 0f00 	teq	r2, #0
 8000244:	f481 0100 	eor.w	r1, r1, #8388608	@ 0x800000
 8000248:	bf06      	itte	eq
 800024a:	f480 0000 	eoreq.w	r0, r0, #8388608	@ 0x800000
 800024e:	3201      	addeq	r2, #1
 8000250:	3b01      	subne	r3, #1
 8000252:	e7b5      	b.n	80001c0 <__addsf3+0x58>
 8000254:	ea4f 0341 	mov.w	r3, r1, lsl #1
 8000258:	ea7f 6c22 	mvns.w	ip, r2, asr #24
 800025c:	bf18      	it	ne
 800025e:	ea7f 6c23 	mvnsne.w	ip, r3, asr #24
 8000262:	d021      	beq.n	80002a8 <__addsf3+0x140>
 8000264:	ea92 0f03 	teq	r2, r3
 8000268:	d004      	beq.n	8000274 <__addsf3+0x10c>
 800026a:	f092 0f00 	teq	r2, #0
 800026e:	bf08      	it	eq
 8000270:	4608      	moveq	r0, r1
 8000272:	4770      	bx	lr
 8000274:	ea90 0f01 	teq	r0, r1
 8000278:	bf1c      	itt	ne
 800027a:	2000      	movne	r0, #0
 800027c:	4770      	bxne	lr
 800027e:	f012 4f7f 	tst.w	r2, #4278190080	@ 0xff000000
 8000282:	d104      	bne.n	800028e <__addsf3+0x126>
 8000284:	0040      	lsls	r0, r0, #1
 8000286:	bf28      	it	cs
 8000288:	f040 4000 	orrcs.w	r0, r0, #2147483648	@ 0x80000000
 800028c:	4770      	bx	lr
 800028e:	f112 7200 	adds.w	r2, r2, #33554432	@ 0x2000000
 8000292:	bf3c      	itt	cc
 8000294:	f500 0000 	addcc.w	r0, r0, #8388608	@ 0x800000
 8000298:	4770      	bxcc	lr
 800029a:	f000 4300 	and.w	r3, r0, #2147483648	@ 0x80000000
 800029e:	f043 40fe 	orr.w	r0, r3, #2130706432	@ 0x7f000000
 80002a2:	f440 0000 	orr.w	r0, r0, #8388608	@ 0x800000
 80002a6:	4770      	bx	lr
 80002a8:	ea7f 6222 	mvns.w	r2, r2, asr #24
 80002ac:	bf16      	itet	ne
 80002ae:	4608      	movne	r0, r1
 80002b0:	ea7f 6323 	mvnseq.w	r3, r3, asr #24
 80002b4:	4601      	movne	r1, r0
 80002b6:	0242      	lsls	r2, r0, #9
 80002b8:	bf06      	itte	eq
 80002ba:	ea5f 2341 	movseq.w	r3, r1, lsl #9
 80002be:	ea90 0f01 	teqeq	r0, r1
 80002c2:	f440 0080 	orrne.w	r0, r0, #4194304	@ 0x400000
 80002c6:	4770      	bx	lr

080002c8 <__aeabi_ui2f>:
 80002c8:	f04f 0300 	mov.w	r3, #0
 80002cc:	e004      	b.n	80002d8 <__aeabi_i2f+0x8>
 80002ce:	bf00      	nop

080002d0 <__aeabi_i2f>:
 80002d0:	f010 4300 	ands.w	r3, r0, #2147483648	@ 0x80000000
 80002d4:	bf48      	it	mi
 80002d6:	4240      	negmi	r0, r0
 80002d8:	ea5f 0c00 	movs.w	ip, r0
 80002dc:	bf08      	it	eq
 80002de:	4770      	bxeq	lr
 80002e0:	f043 4396 	orr.w	r3, r3, #1258291200	@ 0x4b000000
 80002e4:	4601      	mov	r1, r0
 80002e6:	f04f 0000 	mov.w	r0, #0
 80002ea:	e01c      	b.n	8000326 <__aeabi_l2f+0x2a>

080002ec <__aeabi_ul2f>:
 80002ec:	ea50 0201 	orrs.w	r2, r0, r1
 80002f0:	bf08      	it	eq
 80002f2:	4770      	bxeq	lr
 80002f4:	f04f 0300 	mov.w	r3, #0
 80002f8:	e00a      	b.n	8000310 <__aeabi_l2f+0x14>
 80002fa:	bf00      	nop

080002fc <__aeabi_l2f>:
 80002fc:	ea50 0201 	orrs.w	r2, r0, r1
 8000300:	bf08      	it	eq
 8000302:	4770      	bxeq	lr
 8000304:	f011 4300 	ands.w	r3, r1, #2147483648	@ 0x80000000
 8000308:	d502      	bpl.n	8000310 <__aeabi_l2f+0x14>
 800030a:	4240      	negs	r0, r0
 800030c:	eb61 0141 	sbc.w	r1, r1, r1, lsl #1
 8000310:	ea5f 0c01 	movs.w	ip, r1
 8000314:	bf02      	ittt	eq
 8000316:	4684      	moveq	ip, r0
 8000318:	4601      	moveq	r1, r0
 800031a:	2000      	moveq	r0, #0
 800031c:	f043 43b6 	orr.w	r3, r3, #1526726656	@ 0x5b000000
 8000320:	bf08      	it	eq
 8000322:	f1a3 5380 	subeq.w	r3, r3, #268435456	@ 0x10000000
 8000326:	f5a3 0300 	sub.w	r3, r3, #8388608	@ 0x800000
 800032a:	fabc f28c 	clz	r2, ip
 800032e:	3a08      	subs	r2, #8
 8000330:	eba3 53c2 	sub.w	r3, r3, r2, lsl #23
 8000334:	db10      	blt.n	8000358 <__aeabi_l2f+0x5c>
 8000336:	fa01 fc02 	lsl.w	ip, r1, r2
 800033a:	4463      	add	r3, ip
 800033c:	fa00 fc02 	lsl.w	ip, r0, r2
 8000340:	f1c2 0220 	rsb	r2, r2, #32
 8000344:	f1bc 4f00 	cmp.w	ip, #2147483648	@ 0x80000000
 8000348:	fa20 f202 	lsr.w	r2, r0, r2
 800034c:	eb43 0002 	adc.w	r0, r3, r2
 8000350:	bf08      	it	eq
 8000352:	f020 0001 	biceq.w	r0, r0, #1
 8000356:	4770      	bx	lr
 8000358:	f102 0220 	add.w	r2, r2, #32
 800035c:	fa01 fc02 	lsl.w	ip, r1, r2
 8000360:	f1c2 0220 	rsb	r2, r2, #32
 8000364:	ea50 004c 	orrs.w	r0, r0, ip, lsl #1
 8000368:	fa21 f202 	lsr.w	r2, r1, r2
 800036c:	eb43 0002 	adc.w	r0, r3, r2
 8000370:	bf08      	it	eq
 8000372:	ea20 70dc 	biceq.w	r0, r0, ip, lsr #31
 8000376:	4770      	bx	lr

08000378 <__aeabi_fmul>:
 8000378:	f04f 0cff 	mov.w	ip, #255	@ 0xff
 800037c:	ea1c 52d0 	ands.w	r2, ip, r0, lsr #23
 8000380:	bf1e      	ittt	ne
 8000382:	ea1c 53d1 	andsne.w	r3, ip, r1, lsr #23
 8000386:	ea92 0f0c 	teqne	r2, ip
 800038a:	ea93 0f0c 	teqne	r3, ip
 800038e:	d06f      	beq.n	8000470 <__aeabi_fmul+0xf8>
 8000390:	441a      	add	r2, r3
 8000392:	ea80 0c01 	eor.w	ip, r0, r1
 8000396:	0240      	lsls	r0, r0, #9
 8000398:	bf18      	it	ne
 800039a:	ea5f 2141 	movsne.w	r1, r1, lsl #9
 800039e:	d01e      	beq.n	80003de <__aeabi_fmul+0x66>
 80003a0:	f04f 6300 	mov.w	r3, #134217728	@ 0x8000000
 80003a4:	ea43 1050 	orr.w	r0, r3, r0, lsr #5
 80003a8:	ea43 1151 	orr.w	r1, r3, r1, lsr #5
 80003ac:	fba0 3101 	umull	r3, r1, r0, r1
 80003b0:	f00c 4000 	and.w	r0, ip, #2147483648	@ 0x80000000
 80003b4:	f5b1 0f00 	cmp.w	r1, #8388608	@ 0x800000
 80003b8:	bf3e      	ittt	cc
 80003ba:	0049      	lslcc	r1, r1, #1
 80003bc:	ea41 71d3 	orrcc.w	r1, r1, r3, lsr #31
 80003c0:	005b      	lslcc	r3, r3, #1
 80003c2:	ea40 0001 	orr.w	r0, r0, r1
 80003c6:	f162 027f 	sbc.w	r2, r2, #127	@ 0x7f
 80003ca:	2afd      	cmp	r2, #253	@ 0xfd
 80003cc:	d81d      	bhi.n	800040a <__aeabi_fmul+0x92>
 80003ce:	f1b3 4f00 	cmp.w	r3, #2147483648	@ 0x80000000
 80003d2:	eb40 50c2 	adc.w	r0, r0, r2, lsl #23
 80003d6:	bf08      	it	eq
 80003d8:	f020 0001 	biceq.w	r0, r0, #1
 80003dc:	4770      	bx	lr
 80003de:	f090 0f00 	teq	r0, #0
 80003e2:	f00c 4c00 	and.w	ip, ip, #2147483648	@ 0x80000000
 80003e6:	bf08      	it	eq
 80003e8:	0249      	lsleq	r1, r1, #9
 80003ea:	ea4c 2050 	orr.w	r0, ip, r0, lsr #9
 80003ee:	ea40 2051 	orr.w	r0, r0, r1, lsr #9
 80003f2:	3a7f      	subs	r2, #127	@ 0x7f
 80003f4:	bfc2      	ittt	gt
 80003f6:	f1d2 03ff 	rsbsgt	r3, r2, #255	@ 0xff
 80003fa:	ea40 50c2 	orrgt.w	r0, r0, r2, lsl #23
 80003fe:	4770      	bxgt	lr
 8000400:	f440 0000 	orr.w	r0, r0, #8388608	@ 0x800000
 8000404:	f04f 0300 	mov.w	r3, #0
 8000408:	3a01      	subs	r2, #1
 800040a:	dc5d      	bgt.n	80004c8 <__aeabi_fmul+0x150>
 800040c:	f112 0f19 	cmn.w	r2, #25
 8000410:	bfdc      	itt	le
 8000412:	f000 4000 	andle.w	r0, r0, #2147483648	@ 0x80000000
 8000416:	4770      	bxle	lr
 8000418:	f1c2 0200 	rsb	r2, r2, #0
 800041c:	0041      	lsls	r1, r0, #1
 800041e:	fa21 f102 	lsr.w	r1, r1, r2
 8000422:	f1c2 0220 	rsb	r2, r2, #32
 8000426:	fa00 fc02 	lsl.w	ip, r0, r2
 800042a:	ea5f 0031 	movs.w	r0, r1, rrx
 800042e:	f140 0000 	adc.w	r0, r0, #0
 8000432:	ea53 034c 	orrs.w	r3, r3, ip, lsl #1
 8000436:	bf08      	it	eq
 8000438:	ea20 70dc 	biceq.w	r0, r0, ip, lsr #31
 800043c:	4770      	bx	lr
 800043e:	f092 0f00 	teq	r2, #0
 8000442:	f000 4c00 	and.w	ip, r0, #2147483648	@ 0x80000000
 8000446:	bf02      	ittt	eq
 8000448:	0040      	lsleq	r0, r0, #1
 800044a:	f410 0f00 	tsteq.w	r0, #8388608	@ 0x800000
 800044e:	3a01      	subeq	r2, #1
 8000450:	d0f9      	beq.n	8000446 <__aeabi_fmul+0xce>
 8000452:	ea40 000c 	orr.w	r0, r0, ip
 8000456:	f093 0f00 	teq	r3, #0
 800045a:	f001 4c00 	and.w	ip, r1, #2147483648	@ 0x80000000
 800045e:	bf02      	ittt	eq
 8000460:	0049      	lsleq	r1, r1, #1
 8000462:	f411 0f00 	tsteq.w	r1, #8388608	@ 0x800000
 8000466:	3b01      	subeq	r3, #1
 8000468:	d0f9      	beq.n	800045e <__aeabi_fmul+0xe6>
 800046a:	ea41 010c 	orr.w	r1, r1, ip
 800046e:	e78f      	b.n	8000390 <__aeabi_fmul+0x18>
 8000470:	ea0c 53d1 	and.w	r3, ip, r1, lsr #23
 8000474:	ea92 0f0c 	teq	r2, ip
 8000478:	bf18      	it	ne
 800047a:	ea93 0f0c 	teqne	r3, ip
 800047e:	d00a      	beq.n	8000496 <__aeabi_fmul+0x11e>
 8000480:	f030 4c00 	bics.w	ip, r0, #2147483648	@ 0x80000000
 8000484:	bf18      	it	ne
 8000486:	f031 4c00 	bicsne.w	ip, r1, #2147483648	@ 0x80000000
 800048a:	d1d8      	bne.n	800043e <__aeabi_fmul+0xc6>
 800048c:	ea80 0001 	eor.w	r0, r0, r1
 8000490:	f000 4000 	and.w	r0, r0, #2147483648	@ 0x80000000
 8000494:	4770      	bx	lr
 8000496:	f090 0f00 	teq	r0, #0
 800049a:	bf17      	itett	ne
 800049c:	f090 4f00 	teqne	r0, #2147483648	@ 0x80000000
 80004a0:	4608      	moveq	r0, r1
 80004a2:	f091 0f00 	teqne	r1, #0
 80004a6:	f091 4f00 	teqne	r1, #2147483648	@ 0x80000000
 80004aa:	d014      	beq.n	80004d6 <__aeabi_fmul+0x15e>
 80004ac:	ea92 0f0c 	teq	r2, ip
 80004b0:	d101      	bne.n	80004b6 <__aeabi_fmul+0x13e>
 80004b2:	0242      	lsls	r2, r0, #9
 80004b4:	d10f      	bne.n	80004d6 <__aeabi_fmul+0x15e>
 80004b6:	ea93 0f0c 	teq	r3, ip
 80004ba:	d103      	bne.n	80004c4 <__aeabi_fmul+0x14c>
 80004bc:	024b      	lsls	r3, r1, #9
 80004be:	bf18      	it	ne
 80004c0:	4608      	movne	r0, r1
 80004c2:	d108      	bne.n	80004d6 <__aeabi_fmul+0x15e>
 80004c4:	ea80 0001 	eor.w	r0, r0, r1
 80004c8:	f000 4000 	and.w	r0, r0, #2147483648	@ 0x80000000
 80004cc:	f040 40fe 	orr.w	r0, r0, #2130706432	@ 0x7f000000
 80004d0:	f440 0000 	orr.w	r0, r0, #8388608	@ 0x800000
 80004d4:	4770      	bx	lr
 80004d6:	f040 40fe 	orr.w	r0, r0, #2130706432	@ 0x7f000000
 80004da:	f440 0040 	orr.w	r0, r0, #12582912	@ 0xc00000
 80004de:	4770      	bx	lr

080004e0 <__aeabi_fdiv>:
 80004e0:	f04f 0cff 	mov.w	ip, #255	@ 0xff
 80004e4:	ea1c 52d0 	ands.w	r2, ip, r0, lsr #23
 80004e8:	bf1e      	ittt	ne
 80004ea:	ea1c 53d1 	andsne.w	r3, ip, r1, lsr #23
 80004ee:	ea92 0f0c 	teqne	r2, ip
 80004f2:	ea93 0f0c 	teqne	r3, ip
 80004f6:	d069      	beq.n	80005cc <__aeabi_fdiv+0xec>
 80004f8:	eba2 0203 	sub.w	r2, r2, r3
 80004fc:	ea80 0c01 	eor.w	ip, r0, r1
 8000500:	0249      	lsls	r1, r1, #9
 8000502:	ea4f 2040 	mov.w	r0, r0, lsl #9
 8000506:	d037      	beq.n	8000578 <__aeabi_fdiv+0x98>
 8000508:	f04f 5380 	mov.w	r3, #268435456	@ 0x10000000
 800050c:	ea43 1111 	orr.w	r1, r3, r1, lsr #4
 8000510:	ea43 1310 	orr.w	r3, r3, r0, lsr #4
 8000514:	f00c 4000 	and.w	r0, ip, #2147483648	@ 0x80000000
 8000518:	428b      	cmp	r3, r1
 800051a:	bf38      	it	cc
 800051c:	005b      	lslcc	r3, r3, #1
 800051e:	f142 027d 	adc.w	r2, r2, #125	@ 0x7d
 8000522:	f44f 0c00 	mov.w	ip, #8388608	@ 0x800000
 8000526:	428b      	cmp	r3, r1
 8000528:	bf24      	itt	cs
 800052a:	1a5b      	subcs	r3, r3, r1
 800052c:	ea40 000c 	orrcs.w	r0, r0, ip
 8000530:	ebb3 0f51 	cmp.w	r3, r1, lsr #1
 8000534:	bf24      	itt	cs
 8000536:	eba3 0351 	subcs.w	r3, r3, r1, lsr #1
 800053a:	ea40 005c 	orrcs.w	r0, r0, ip, lsr #1
 800053e:	ebb3 0f91 	cmp.w	r3, r1, lsr #2
 8000542:	bf24      	itt	cs
 8000544:	eba3 0391 	subcs.w	r3, r3, r1, lsr #2
 8000548:	ea40 009c 	orrcs.w	r0, r0, ip, lsr #2
 800054c:	ebb3 0fd1 	cmp.w	r3, r1, lsr #3
 8000550:	bf24      	itt	cs
 8000552:	eba3 03d1 	subcs.w	r3, r3, r1, lsr #3
 8000556:	ea40 00dc 	orrcs.w	r0, r0, ip, lsr #3
 800055a:	011b      	lsls	r3, r3, #4
 800055c:	bf18      	it	ne
 800055e:	ea5f 1c1c 	movsne.w	ip, ip, lsr #4
 8000562:	d1e0      	bne.n	8000526 <__aeabi_fdiv+0x46>
 8000564:	2afd      	cmp	r2, #253	@ 0xfd
 8000566:	f63f af50 	bhi.w	800040a <__aeabi_fmul+0x92>
 800056a:	428b      	cmp	r3, r1
 800056c:	eb40 50c2 	adc.w	r0, r0, r2, lsl #23
 8000570:	bf08      	it	eq
 8000572:	f020 0001 	biceq.w	r0, r0, #1
 8000576:	4770      	bx	lr
 8000578:	f00c 4c00 	and.w	ip, ip, #2147483648	@ 0x80000000
 800057c:	ea4c 2050 	orr.w	r0, ip, r0, lsr #9
 8000580:	327f      	adds	r2, #127	@ 0x7f
 8000582:	bfc2      	ittt	gt
 8000584:	f1d2 03ff 	rsbsgt	r3, r2, #255	@ 0xff
 8000588:	ea40 50c2 	orrgt.w	r0, r0, r2, lsl #23
 800058c:	4770      	bxgt	lr
 800058e:	f440 0000 	orr.w	r0, r0, #8388608	@ 0x800000
 8000592:	f04f 0300 	mov.w	r3, #0
 8000596:	3a01      	subs	r2, #1
 8000598:	e737      	b.n	800040a <__aeabi_fmul+0x92>
 800059a:	f092 0f00 	teq	r2, #0
 800059e:	f000 4c00 	and.w	ip, r0, #2147483648	@ 0x80000000
 80005a2:	bf02      	ittt	eq
 80005a4:	0040      	lsleq	r0, r0, #1
 80005a6:	f410 0f00 	tsteq.w	r0, #8388608	@ 0x800000
 80005aa:	3a01      	subeq	r2, #1
 80005ac:	d0f9      	beq.n	80005a2 <__aeabi_fdiv+0xc2>
 80005ae:	ea40 000c 	orr.w	r0, r0, ip
 80005b2:	f093 0f00 	teq	r3, #0
 80005b6:	f001 4c00 	and.w	ip, r1, #2147483648	@ 0x80000000
 80005ba:	bf02      	ittt	eq
 80005bc:	0049      	lsleq	r1, r1, #1
 80005be:	f411 0f00 	tsteq.w	r1, #8388608	@ 0x800000
 80005c2:	3b01      	subeq	r3, #1
 80005c4:	d0f9      	beq.n	80005ba <__aeabi_fdiv+0xda>
 80005c6:	ea41 010c 	orr.w	r1, r1, ip
 80005ca:	e795      	b.n	80004f8 <__aeabi_fdiv+0x18>
 80005cc:	ea0c 53d1 	and.w	r3, ip, r1, lsr #23
 80005d0:	ea92 0f0c 	teq	r2, ip
 80005d4:	d108      	bne.n	80005e8 <__aeabi_fdiv+0x108>
 80005d6:	0242      	lsls	r2, r0, #9
 80005d8:	f47f af7d 	bne.w	80004d6 <__aeabi_fmul+0x15e>
 80005dc:	ea93 0f0c 	teq	r3, ip
 80005e0:	f47f af70 	bne.w	80004c4 <__aeabi_fmul+0x14c>
 80005e4:	4608      	mov	r0, r1
 80005e6:	e776      	b.n	80004d6 <__aeabi_fmul+0x15e>
 80005e8:	ea93 0f0c 	teq	r3, ip
 80005ec:	d104      	bne.n	80005f8 <__aeabi_fdiv+0x118>
 80005ee:	024b      	lsls	r3, r1, #9
 80005f0:	f43f af4c 	beq.w	800048c <__aeabi_fmul+0x114>
 80005f4:	4608      	mov	r0, r1
 80005f6:	e76e      	b.n	80004d6 <__aeabi_fmul+0x15e>
 80005f8:	f030 4c00 	bics.w	ip, r0, #2147483648	@ 0x80000000
 80005fc:	bf18      	it	ne
 80005fe:	f031 4c00 	bicsne.w	ip, r1, #2147483648	@ 0x80000000
 8000602:	d1ca      	bne.n	800059a <__aeabi_fdiv+0xba>
 8000604:	f030 4200 	bics.w	r2, r0, #2147483648	@ 0x80000000
 8000608:	f47f af5c 	bne.w	80004c4 <__aeabi_fmul+0x14c>
 800060c:	f031 4300 	bics.w	r3, r1, #2147483648	@ 0x80000000
 8000610:	f47f af3c 	bne.w	800048c <__aeabi_fmul+0x114>
 8000614:	e75f      	b.n	80004d6 <__aeabi_fmul+0x15e>
 8000616:	bf00      	nop

08000618 <__gesf2>:
 8000618:	f04f 3cff 	mov.w	ip, #4294967295
 800061c:	e006      	b.n	800062c <__cmpsf2+0x4>
 800061e:	bf00      	nop

08000620 <__lesf2>:
 8000620:	f04f 0c01 	mov.w	ip, #1
 8000624:	e002      	b.n	800062c <__cmpsf2+0x4>
 8000626:	bf00      	nop

08000628 <__cmpsf2>:
 8000628:	f04f 0c01 	mov.w	ip, #1
 800062c:	f84d cd04 	str.w	ip, [sp, #-4]!
 8000630:	ea4f 0240 	mov.w	r2, r0, lsl #1
 8000634:	ea4f 0341 	mov.w	r3, r1, lsl #1
 8000638:	ea7f 6c22 	mvns.w	ip, r2, asr #24
 800063c:	bf18      	it	ne
 800063e:	ea7f 6c23 	mvnsne.w	ip, r3, asr #24
 8000642:	d011      	beq.n	8000668 <__cmpsf2+0x40>
 8000644:	b001      	add	sp, #4
 8000646:	ea52 0c53 	orrs.w	ip, r2, r3, lsr #1
 800064a:	bf18      	it	ne
 800064c:	ea90 0f01 	teqne	r0, r1
 8000650:	bf58      	it	pl
 8000652:	ebb2 0003 	subspl.w	r0, r2, r3
 8000656:	bf88      	it	hi
 8000658:	17c8      	asrhi	r0, r1, #31
 800065a:	bf38      	it	cc
 800065c:	ea6f 70e1 	mvncc.w	r0, r1, asr #31
 8000660:	bf18      	it	ne
 8000662:	f040 0001 	orrne.w	r0, r0, #1
 8000666:	4770      	bx	lr
 8000668:	ea7f 6c22 	mvns.w	ip, r2, asr #24
 800066c:	d102      	bne.n	8000674 <__cmpsf2+0x4c>
 800066e:	ea5f 2c40 	movs.w	ip, r0, lsl #9
 8000672:	d105      	bne.n	8000680 <__cmpsf2+0x58>
 8000674:	ea7f 6c23 	mvns.w	ip, r3, asr #24
 8000678:	d1e4      	bne.n	8000644 <__cmpsf2+0x1c>
 800067a:	ea5f 2c41 	movs.w	ip, r1, lsl #9
 800067e:	d0e1      	beq.n	8000644 <__cmpsf2+0x1c>
 8000680:	f85d 0b04 	ldr.w	r0, [sp], #4
 8000684:	4770      	bx	lr
 8000686:	bf00      	nop

08000688 <__aeabi_cfrcmple>:
 8000688:	4684      	mov	ip, r0
 800068a:	4608      	mov	r0, r1
 800068c:	4661      	mov	r1, ip
 800068e:	e7ff      	b.n	8000690 <__aeabi_cfcmpeq>

08000690 <__aeabi_cfcmpeq>:
 8000690:	b50f      	push	{r0, r1, r2, r3, lr}
 8000692:	f7ff ffc9 	bl	8000628 <__cmpsf2>
 8000696:	2800      	cmp	r0, #0
 8000698:	bf48      	it	mi
 800069a:	f110 0f00 	cmnmi.w	r0, #0
 800069e:	bd0f      	pop	{r0, r1, r2, r3, pc}

080006a0 <__aeabi_fcmpeq>:
 80006a0:	f84d ed08 	str.w	lr, [sp, #-8]!
 80006a4:	f7ff fff4 	bl	8000690 <__aeabi_cfcmpeq>
 80006a8:	bf0c      	ite	eq
 80006aa:	2001      	moveq	r0, #1
 80006ac:	2000      	movne	r0, #0
 80006ae:	f85d fb08 	ldr.w	pc, [sp], #8
 80006b2:	bf00      	nop

080006b4 <__aeabi_fcmplt>:
 80006b4:	f84d ed08 	str.w	lr, [sp, #-8]!
 80006b8:	f7ff ffea 	bl	8000690 <__aeabi_cfcmpeq>
 80006bc:	bf34      	ite	cc
 80006be:	2001      	movcc	r0, #1
 80006c0:	2000      	movcs	r0, #0
 80006c2:	f85d fb08 	ldr.w	pc, [sp], #8
 80006c6:	bf00      	nop

080006c8 <__aeabi_fcmple>:
 80006c8:	f84d ed08 	str.w	lr, [sp, #-8]!
 80006cc:	f7ff ffe0 	bl	8000690 <__aeabi_cfcmpeq>
 80006d0:	bf94      	ite	ls
 80006d2:	2001      	movls	r0, #1
 80006d4:	2000      	movhi	r0, #0
 80006d6:	f85d fb08 	ldr.w	pc, [sp], #8
 80006da:	bf00      	nop

080006dc <__aeabi_fcmpge>:
 80006dc:	f84d ed08 	str.w	lr, [sp, #-8]!
 80006e0:	f7ff ffd2 	bl	8000688 <__aeabi_cfrcmple>
 80006e4:	bf94      	ite	ls
 80006e6:	2001      	movls	r0, #1
 80006e8:	2000      	movhi	r0, #0
 80006ea:	f85d fb08 	ldr.w	pc, [sp], #8
 80006ee:	bf00      	nop

080006f0 <__aeabi_fcmpgt>:
 80006f0:	f84d ed08 	str.w	lr, [sp, #-8]!
 80006f4:	f7ff ffc8 	bl	8000688 <__aeabi_cfrcmple>
 80006f8:	bf34      	ite	cc
 80006fa:	2001      	movcc	r0, #1
 80006fc:	2000      	movcs	r0, #0
 80006fe:	f85d fb08 	ldr.w	pc, [sp], #8
 8000702:	bf00      	nop

08000704 <__aeabi_f2iz>:
 8000704:	ea4f 0240 	mov.w	r2, r0, lsl #1
 8000708:	f1b2 4ffe 	cmp.w	r2, #2130706432	@ 0x7f000000
 800070c:	d30f      	bcc.n	800072e <__aeabi_f2iz+0x2a>
 800070e:	f04f 039e 	mov.w	r3, #158	@ 0x9e
 8000712:	ebb3 6212 	subs.w	r2, r3, r2, lsr #24
 8000716:	d90d      	bls.n	8000734 <__aeabi_f2iz+0x30>
 8000718:	ea4f 2300 	mov.w	r3, r0, lsl #8
 800071c:	f043 4300 	orr.w	r3, r3, #2147483648	@ 0x80000000
 8000720:	f010 4f00 	tst.w	r0, #2147483648	@ 0x80000000
 8000724:	fa23 f002 	lsr.w	r0, r3, r2
 8000728:	bf18      	it	ne
 800072a:	4240      	negne	r0, r0
 800072c:	4770      	bx	lr
 800072e:	f04f 0000 	mov.w	r0, #0
 8000732:	4770      	bx	lr
 8000734:	f112 0f61 	cmn.w	r2, #97	@ 0x61
 8000738:	d101      	bne.n	800073e <__aeabi_f2iz+0x3a>
 800073a:	0242      	lsls	r2, r0, #9
 800073c:	d105      	bne.n	800074a <__aeabi_f2iz+0x46>
 800073e:	f010 4000 	ands.w	r0, r0, #2147483648	@ 0x80000000
 8000742:	bf08      	it	eq
 8000744:	f06f 4000 	mvneq.w	r0, #2147483648	@ 0x80000000
 8000748:	4770      	bx	lr
 800074a:	f04f 0000 	mov.w	r0, #0
 800074e:	4770      	bx	lr

08000750 <SystemClock_Config>:
  * @brief System Clock Configuration
  * @retval None
  */
void SystemClock_Config(void)
{
  RCC_OscInitTypeDef RCC_OscInitStruct = {0};
 8000750:	2300      	movs	r3, #0
{
 8000752:	b5d0      	push	{r4, r6, r7, lr}
 8000754:	b094      	sub	sp, #80	@ 0x50
  RCC_PeriphCLKInitTypeDef PeriphClkInit = {0};

  /** Initializes the RCC Oscillators according to the specified parameters
  * in the RCC_OscInitTypeDef structure.
  */
  RCC_OscInitStruct.OscillatorType = RCC_OSCILLATORTYPE_HSE;
 8000756:	2601      	movs	r6, #1
 8000758:	f44f 3780 	mov.w	r7, #65536	@ 0x10000
  RCC_OscInitStruct.HSEState = RCC_HSE_ON;
  RCC_OscInitStruct.HSEPredivValue = RCC_HSE_PREDIV_DIV1;
  RCC_OscInitStruct.HSIState = RCC_HSI_ON;
 800075c:	2101      	movs	r1, #1
  RCC_OscInitStruct.PLL.PLLState = RCC_PLL_ON;
 800075e:	2402      	movs	r4, #2
 8000760:	f44f 3280 	mov.w	r2, #65536	@ 0x10000
  RCC_OscInitTypeDef RCC_OscInitStruct = {0};
 8000764:	e9cd 330f 	strd	r3, r3, [sp, #60]	@ 0x3c
  RCC_ClkInitTypeDef RCC_ClkInitStruct = {0};
 8000768:	e9cd 3306 	strd	r3, r3, [sp, #24]
 800076c:	e9cd 3308 	strd	r3, r3, [sp, #32]
  RCC_PeriphCLKInitTypeDef PeriphClkInit = {0};
 8000770:	e9cd 3301 	strd	r3, r3, [sp, #4]
  RCC_OscInitTypeDef RCC_OscInitStruct = {0};
 8000774:	930c      	str	r3, [sp, #48]	@ 0x30
  RCC_ClkInitTypeDef RCC_ClkInitStruct = {0};
 8000776:	9305      	str	r3, [sp, #20]
  RCC_PeriphCLKInitTypeDef PeriphClkInit = {0};
 8000778:	9300      	str	r3, [sp, #0]
  RCC_OscInitTypeDef RCC_OscInitStruct = {0};
 800077a:	930d      	str	r3, [sp, #52]	@ 0x34
  RCC_PeriphCLKInitTypeDef PeriphClkInit = {0};
 800077c:	9303      	str	r3, [sp, #12]
  RCC_OscInitStruct.PLL.PLLSource = RCC_PLLSOURCE_HSE;
  RCC_OscInitStruct.PLL.PLLMUL = RCC_PLL_MUL9;
 800077e:	f44f 13e0 	mov.w	r3, #1835008	@ 0x1c0000
  if (HAL_RCC_OscConfig(&RCC_OscInitStruct) != HAL_OK)
 8000782:	a80a      	add	r0, sp, #40	@ 0x28
  RCC_OscInitStruct.OscillatorType = RCC_OSCILLATORTYPE_HSE;
 8000784:	e9cd 670a 	strd	r6, r7, [sp, #40]	@ 0x28
  RCC_OscInitStruct.HSIState = RCC_HSI_ON;
 8000788:	910e      	str	r1, [sp, #56]	@ 0x38
  RCC_OscInitStruct.PLL.PLLState = RCC_PLL_ON;
 800078a:	9411      	str	r4, [sp, #68]	@ 0x44
 800078c:	9212      	str	r2, [sp, #72]	@ 0x48
  RCC_OscInitStruct.PLL.PLLMUL = RCC_PLL_MUL9;
 800078e:	9313      	str	r3, [sp, #76]	@ 0x4c
  if (HAL_RCC_OscConfig(&RCC_OscInitStruct) != HAL_OK)
 8000790:	f002 fabc 	bl	8002d0c <HAL_RCC_OscConfig>
 8000794:	b108      	cbz	r0, 800079a <SystemClock_Config+0x4a>
  \details Disables IRQ interrupts by setting the I-bit in the CPSR.
           Can only be executed in Privileged modes.
 */
__STATIC_FORCEINLINE void __disable_irq(void)
{
  __ASM volatile ("cpsid i" : : : "memory");
 8000796:	b672      	cpsid	i
void Error_Handler(void)
{
  /* USER CODE BEGIN Error_Handler_Debug */
	/* User can add his own implementation to report the HAL error return state */
	__disable_irq();
	while (1) {
 8000798:	e7fe      	b.n	8000798 <SystemClock_Config+0x48>
  RCC_ClkInitStruct.ClockType = RCC_CLOCKTYPE_HCLK|RCC_CLOCKTYPE_SYSCLK
 800079a:	4603      	mov	r3, r0
 800079c:	220f      	movs	r2, #15
  RCC_ClkInitStruct.AHBCLKDivider = RCC_SYSCLK_DIV1;
 800079e:	9307      	str	r3, [sp, #28]
  RCC_ClkInitStruct.APB2CLKDivider = RCC_HCLK_DIV1;
 80007a0:	9309      	str	r3, [sp, #36]	@ 0x24
  RCC_ClkInitStruct.APB1CLKDivider = RCC_HCLK_DIV2;
 80007a2:	f44f 6380 	mov.w	r3, #1024	@ 0x400
  if (HAL_RCC_ClockConfig(&RCC_ClkInitStruct, FLASH_LATENCY_2) != HAL_OK)
 80007a6:	4621      	mov	r1, r4
 80007a8:	a805      	add	r0, sp, #20
  RCC_ClkInitStruct.SYSCLKSource = RCC_SYSCLKSOURCE_PLLCLK;
 80007aa:	9406      	str	r4, [sp, #24]
  RCC_ClkInitStruct.ClockType = RCC_CLOCKTYPE_HCLK|RCC_CLOCKTYPE_SYSCLK
 80007ac:	9205      	str	r2, [sp, #20]
  RCC_ClkInitStruct.APB1CLKDivider = RCC_HCLK_DIV2;
 80007ae:	9308      	str	r3, [sp, #32]
  if (HAL_RCC_ClockConfig(&RCC_ClkInitStruct, FLASH_LATENCY_2) != HAL_OK)
 80007b0:	f002 fcdc 	bl	800316c <HAL_RCC_ClockConfig>
 80007b4:	b108      	cbz	r0, 80007ba <SystemClock_Config+0x6a>
 80007b6:	b672      	cpsid	i
	while (1) {
 80007b8:	e7fe      	b.n	80007b8 <SystemClock_Config+0x68>
  PeriphClkInit.PeriphClockSelection = RCC_PERIPHCLK_ADC|RCC_PERIPHCLK_USB;
 80007ba:	2112      	movs	r1, #18
  PeriphClkInit.AdcClockSelection = RCC_ADCPCLK2_DIV6;
 80007bc:	f44f 4200 	mov.w	r2, #32768	@ 0x8000
 80007c0:	2300      	movs	r3, #0
  if (HAL_RCCEx_PeriphCLKConfig(&PeriphClkInit) != HAL_OK)
 80007c2:	4668      	mov	r0, sp
  PeriphClkInit.AdcClockSelection = RCC_ADCPCLK2_DIV6;
 80007c4:	e9cd 2302 	strd	r2, r3, [sp, #8]
  PeriphClkInit.PeriphClockSelection = RCC_PERIPHCLK_ADC|RCC_PERIPHCLK_USB;
 80007c8:	9100      	str	r1, [sp, #0]
  if (HAL_RCCEx_PeriphCLKConfig(&PeriphClkInit) != HAL_OK)
 80007ca:	f002 fdbd 	bl	8003348 <HAL_RCCEx_PeriphCLKConfig>
 80007ce:	b108      	cbz	r0, 80007d4 <SystemClock_Config+0x84>
 80007d0:	b672      	cpsid	i
	while (1) {
 80007d2:	e7fe      	b.n	80007d2 <SystemClock_Config+0x82>
}
 80007d4:	b014      	add	sp, #80	@ 0x50
 80007d6:	bdd0      	pop	{r4, r6, r7, pc}

080007d8 <main>:
  GPIO_InitTypeDef GPIO_InitStruct = {0};
 80007d8:	2400      	movs	r4, #0
  __HAL_RCC_GPIOC_CLK_ENABLE();
 80007da:	f44f 5580 	mov.w	r5, #4096	@ 0x1000
{
 80007de:	b580      	push	{r7, lr}
 80007e0:	b08c      	sub	sp, #48	@ 0x30
  HAL_Init();
 80007e2:	f000 fb83 	bl	8000eec <HAL_Init>
  SystemClock_Config();
 80007e6:	f7ff ffb3 	bl	8000750 <SystemClock_Config>
  GPIO_InitTypeDef GPIO_InitStruct = {0};
 80007ea:	e9cd 4409 	strd	r4, r4, [sp, #36]	@ 0x24
 80007ee:	9408      	str	r4, [sp, #32]
 80007f0:	940b      	str	r4, [sp, #44]	@ 0x2c
  HAL_GPIO_WritePin(GPIOC, BUTTON_CLK_Pin|BUTTON_LOCK_Pin, GPIO_PIN_RESET);
 80007f2:	4628      	mov	r0, r5
  __HAL_RCC_GPIOC_CLK_ENABLE();
 80007f4:	f2c4 0502 	movt	r5, #16386	@ 0x4002
 80007f8:	69ab      	ldr	r3, [r5, #24]
  HAL_GPIO_WritePin(GPIOC, BUTTON_CLK_Pin|BUTTON_LOCK_Pin, GPIO_PIN_RESET);
 80007fa:	f44f 41c0 	mov.w	r1, #24576	@ 0x6000
  __HAL_RCC_GPIOC_CLK_ENABLE();
 80007fe:	f043 0310 	orr.w	r3, r3, #16
 8000802:	61ab      	str	r3, [r5, #24]
 8000804:	69ab      	ldr	r3, [r5, #24]
  HAL_GPIO_WritePin(GPIOC, BUTTON_CLK_Pin|BUTTON_LOCK_Pin, GPIO_PIN_RESET);
 8000806:	4622      	mov	r2, r4
  __HAL_RCC_GPIOC_CLK_ENABLE();
 8000808:	f003 0310 	and.w	r3, r3, #16
 800080c:	9302      	str	r3, [sp, #8]
 800080e:	9b02      	ldr	r3, [sp, #8]
  __HAL_RCC_GPIOD_CLK_ENABLE();
 8000810:	69ab      	ldr	r3, [r5, #24]
  HAL_GPIO_WritePin(GPIOC, BUTTON_CLK_Pin|BUTTON_LOCK_Pin, GPIO_PIN_RESET);
 8000812:	f2c4 0001 	movt	r0, #16385	@ 0x4001
  __HAL_RCC_GPIOD_CLK_ENABLE();
 8000816:	f043 0320 	orr.w	r3, r3, #32
 800081a:	61ab      	str	r3, [r5, #24]
 800081c:	69ab      	ldr	r3, [r5, #24]
  GPIO_InitStruct.Mode = GPIO_MODE_OUTPUT_PP;
 800081e:	2601      	movs	r6, #1
  __HAL_RCC_GPIOD_CLK_ENABLE();
 8000820:	f003 0320 	and.w	r3, r3, #32
 8000824:	9303      	str	r3, [sp, #12]
 8000826:	9b03      	ldr	r3, [sp, #12]
  __HAL_RCC_GPIOA_CLK_ENABLE();
 8000828:	69ab      	ldr	r3, [r5, #24]
  GPIO_InitStruct.Speed = GPIO_SPEED_FREQ_LOW;
 800082a:	f04f 0a02 	mov.w	sl, #2
  __HAL_RCC_GPIOA_CLK_ENABLE();
 800082e:	f043 0304 	orr.w	r3, r3, #4
 8000832:	61ab      	str	r3, [r5, #24]
 8000834:	69ab      	ldr	r3, [r5, #24]
  GPIO_InitStruct.Pin = SPI2_SS_Pin;
 8000836:	f44f 5780 	mov.w	r7, #4096	@ 0x1000
  __HAL_RCC_GPIOA_CLK_ENABLE();
 800083a:	f003 0304 	and.w	r3, r3, #4
 800083e:	9304      	str	r3, [sp, #16]
 8000840:	9b04      	ldr	r3, [sp, #16]
  __HAL_RCC_GPIOB_CLK_ENABLE();
 8000842:	69ab      	ldr	r3, [r5, #24]
  GPIO_InitStruct.Pin = test_Pin;
 8000844:	f04f 0920 	mov.w	r9, #32
  __HAL_RCC_GPIOB_CLK_ENABLE();
 8000848:	f043 0308 	orr.w	r3, r3, #8
 800084c:	61ab      	str	r3, [r5, #24]
 800084e:	69ab      	ldr	r3, [r5, #24]
  GPIO_InitStruct.Speed = GPIO_SPEED_FREQ_HIGH;
 8000850:	f04f 0803 	mov.w	r8, #3
  __HAL_RCC_GPIOB_CLK_ENABLE();
 8000854:	f003 0308 	and.w	r3, r3, #8
 8000858:	9305      	str	r3, [sp, #20]
 800085a:	9b05      	ldr	r3, [sp, #20]
  HAL_GPIO_WritePin(GPIOC, BUTTON_CLK_Pin|BUTTON_LOCK_Pin, GPIO_PIN_RESET);
 800085c:	f001 fa50 	bl	8001d00 <HAL_GPIO_WritePin>
  HAL_GPIO_WritePin(GPIOB, SPI2_SS_Pin|test_Pin, GPIO_PIN_RESET);
 8000860:	f44f 6040 	mov.w	r0, #3072	@ 0xc00
 8000864:	4622      	mov	r2, r4
 8000866:	f44f 5181 	mov.w	r1, #4128	@ 0x1020
 800086a:	f2c4 0001 	movt	r0, #16385	@ 0x4001
 800086e:	f001 fa47 	bl	8001d00 <HAL_GPIO_WritePin>
  HAL_GPIO_Init(GPIOC, &GPIO_InitStruct);
 8000872:	f44f 5080 	mov.w	r0, #4096	@ 0x1000
  GPIO_InitStruct.Pin = BUTTON_CLK_Pin|BUTTON_LOCK_Pin;
 8000876:	f44f 43c0 	mov.w	r3, #24576	@ 0x6000
  HAL_GPIO_Init(GPIOC, &GPIO_InitStruct);
 800087a:	f2c4 0001 	movt	r0, #16385	@ 0x4001
 800087e:	a908      	add	r1, sp, #32
  GPIO_InitStruct.Mode = GPIO_MODE_OUTPUT_PP;
 8000880:	e9cd 3608 	strd	r3, r6, [sp, #32]
  GPIO_InitStruct.Pull = GPIO_NOPULL;
 8000884:	940a      	str	r4, [sp, #40]	@ 0x28
  GPIO_InitStruct.Speed = GPIO_SPEED_FREQ_LOW;
 8000886:	f8cd a02c 	str.w	sl, [sp, #44]	@ 0x2c
  HAL_GPIO_Init(GPIOC, &GPIO_InitStruct);
 800088a:	f000 fff7 	bl	800187c <HAL_GPIO_Init>
  HAL_GPIO_Init(BUTTON_IN_GPIO_Port, &GPIO_InitStruct);
 800088e:	f44f 5080 	mov.w	r0, #4096	@ 0x1000
  GPIO_InitStruct.Pin = BUTTON_IN_Pin;
 8000892:	f44f 4200 	mov.w	r2, #32768	@ 0x8000
 8000896:	2300      	movs	r3, #0
  HAL_GPIO_Init(BUTTON_IN_GPIO_Port, &GPIO_InitStruct);
 8000898:	f2c4 0001 	movt	r0, #16385	@ 0x4001
 800089c:	a908      	add	r1, sp, #32
  GPIO_InitStruct.Pin = BUTTON_IN_Pin;
 800089e:	e9cd 2308 	strd	r2, r3, [sp, #32]
  GPIO_InitStruct.Pull = GPIO_PULLDOWN;
 80008a2:	f8cd a028 	str.w	sl, [sp, #40]	@ 0x28
  HAL_GPIO_Init(BUTTON_IN_GPIO_Port, &GPIO_InitStruct);
 80008a6:	f000 ffe9 	bl	800187c <HAL_GPIO_Init>
  HAL_GPIO_Init(GPIOA, &GPIO_InitStruct);
 80008aa:	f44f 6000 	mov.w	r0, #2048	@ 0x800
  GPIO_InitStruct.Pin = SWIT_0_Pin|SWIT_1_Pin;
 80008ae:	2300      	movs	r3, #0
 80008b0:	2203      	movs	r2, #3
 80008b2:	f2c1 0311 	movt	r3, #4113	@ 0x1011
  HAL_GPIO_Init(GPIOA, &GPIO_InitStruct);
 80008b6:	f2c4 0001 	movt	r0, #16385	@ 0x4001
 80008ba:	a908      	add	r1, sp, #32
  GPIO_InitStruct.Pin = SWIT_0_Pin|SWIT_1_Pin;
 80008bc:	e9cd 2308 	strd	r2, r3, [sp, #32]
  GPIO_InitStruct.Pull = GPIO_NOPULL;
 80008c0:	940a      	str	r4, [sp, #40]	@ 0x28
  HAL_GPIO_Init(GPIOA, &GPIO_InitStruct);
 80008c2:	f000 ffdb 	bl	800187c <HAL_GPIO_Init>
  HAL_GPIO_Init(SPI2_SS_GPIO_Port, &GPIO_InitStruct);
 80008c6:	f44f 6040 	mov.w	r0, #3072	@ 0xc00
 80008ca:	a908      	add	r1, sp, #32
 80008cc:	f2c4 0001 	movt	r0, #16385	@ 0x4001
  GPIO_InitStruct.Speed = GPIO_SPEED_FREQ_LOW;
 80008d0:	e9cd 4a0a 	strd	r4, sl, [sp, #40]	@ 0x28
  GPIO_InitStruct.Mode = GPIO_MODE_OUTPUT_PP;
 80008d4:	9609      	str	r6, [sp, #36]	@ 0x24
  GPIO_InitStruct.Pin = SPI2_SS_Pin;
 80008d6:	9708      	str	r7, [sp, #32]
  HAL_GPIO_Init(SPI2_SS_GPIO_Port, &GPIO_InitStruct);
 80008d8:	f000 ffd0 	bl	800187c <HAL_GPIO_Init>
  HAL_GPIO_Init(test_GPIO_Port, &GPIO_InitStruct);
 80008dc:	f44f 6040 	mov.w	r0, #3072	@ 0xc00
 80008e0:	eb0d 0109 	add.w	r1, sp, r9
 80008e4:	f2c4 0001 	movt	r0, #16385	@ 0x4001
  GPIO_InitStruct.Speed = GPIO_SPEED_FREQ_HIGH;
 80008e8:	e9cd 480a 	strd	r4, r8, [sp, #40]	@ 0x28
  GPIO_InitStruct.Mode = GPIO_MODE_OUTPUT_PP;
 80008ec:	9609      	str	r6, [sp, #36]	@ 0x24
  GPIO_InitStruct.Pin = test_Pin;
 80008ee:	f8cd 9020 	str.w	r9, [sp, #32]
  HAL_GPIO_Init(test_GPIO_Port, &GPIO_InitStruct);
 80008f2:	f000 ffc3 	bl	800187c <HAL_GPIO_Init>
  HAL_GPIO_Init(SHIFTER_MODIFIER_GPIO_Port, &GPIO_InitStruct);
 80008f6:	f44f 6040 	mov.w	r0, #3072	@ 0xc00
  GPIO_InitStruct.Pin = SHIFTER_MODIFIER_Pin;
 80008fa:	2300      	movs	r3, #0
 80008fc:	f44f 7200 	mov.w	r2, #512	@ 0x200
  HAL_GPIO_Init(SHIFTER_MODIFIER_GPIO_Port, &GPIO_InitStruct);
 8000900:	eb0d 0109 	add.w	r1, sp, r9
 8000904:	f2c4 0001 	movt	r0, #16385	@ 0x4001
  GPIO_InitStruct.Pin = SHIFTER_MODIFIER_Pin;
 8000908:	e9cd 2308 	strd	r2, r3, [sp, #32]
  GPIO_InitStruct.Pull = GPIO_PULLDOWN;
 800090c:	f8cd a028 	str.w	sl, [sp, #40]	@ 0x28
  HAL_GPIO_Init(SHIFTER_MODIFIER_GPIO_Port, &GPIO_InitStruct);
 8000910:	f000 ffb4 	bl	800187c <HAL_GPIO_Init>
  HAL_NVIC_SetPriority(EXTI0_IRQn, 1, 0);
 8000914:	4622      	mov	r2, r4
 8000916:	4631      	mov	r1, r6
 8000918:	2006      	movs	r0, #6
 800091a:	f000 fdf7 	bl	800150c <HAL_NVIC_SetPriority>
  HAL_NVIC_EnableIRQ(EXTI0_IRQn);
 800091e:	2006      	movs	r0, #6
 8000920:	f000 fe32 	bl	8001588 <HAL_NVIC_EnableIRQ>
  HAL_NVIC_SetPriority(EXTI1_IRQn, 4, 0);
 8000924:	4622      	mov	r2, r4
 8000926:	2104      	movs	r1, #4
 8000928:	2007      	movs	r0, #7
 800092a:	f000 fdef 	bl	800150c <HAL_NVIC_SetPriority>
  HAL_NVIC_EnableIRQ(EXTI1_IRQn);
 800092e:	2007      	movs	r0, #7
 8000930:	f000 fe2a 	bl	8001588 <HAL_NVIC_EnableIRQ>
  __HAL_RCC_DMA1_CLK_ENABLE();
 8000934:	696b      	ldr	r3, [r5, #20]
  HAL_NVIC_SetPriority(DMA1_Channel1_IRQn, 10, 0);
 8000936:	210a      	movs	r1, #10
  __HAL_RCC_DMA1_CLK_ENABLE();
 8000938:	4333      	orrs	r3, r6
 800093a:	616b      	str	r3, [r5, #20]
 800093c:	696b      	ldr	r3, [r5, #20]
  HAL_NVIC_SetPriority(DMA1_Channel1_IRQn, 10, 0);
 800093e:	4622      	mov	r2, r4
  __HAL_RCC_DMA1_CLK_ENABLE();
 8000940:	4033      	ands	r3, r6
  HAL_NVIC_SetPriority(DMA1_Channel1_IRQn, 10, 0);
 8000942:	200b      	movs	r0, #11
  __HAL_RCC_DMA1_CLK_ENABLE();
 8000944:	9301      	str	r3, [sp, #4]
 8000946:	9b01      	ldr	r3, [sp, #4]
  HAL_NVIC_SetPriority(DMA1_Channel1_IRQn, 10, 0);
 8000948:	f000 fde0 	bl	800150c <HAL_NVIC_SetPriority>
  HAL_NVIC_EnableIRQ(DMA1_Channel1_IRQn);
 800094c:	200b      	movs	r0, #11
 800094e:	f000 fe1b 	bl	8001588 <HAL_NVIC_EnableIRQ>
  HAL_NVIC_SetPriority(DMA1_Channel4_IRQn, 3, 0);
 8000952:	4622      	mov	r2, r4
 8000954:	4641      	mov	r1, r8
 8000956:	200e      	movs	r0, #14
 8000958:	f000 fdd8 	bl	800150c <HAL_NVIC_SetPriority>
  HAL_NVIC_EnableIRQ(DMA1_Channel4_IRQn);
 800095c:	200e      	movs	r0, #14
 800095e:	f000 fe13 	bl	8001588 <HAL_NVIC_EnableIRQ>
  HAL_NVIC_SetPriority(DMA1_Channel5_IRQn, 3, 0);
 8000962:	4622      	mov	r2, r4
 8000964:	4641      	mov	r1, r8
 8000966:	200f      	movs	r0, #15
 8000968:	f000 fdd0 	bl	800150c <HAL_NVIC_SetPriority>
  HAL_NVIC_EnableIRQ(DMA1_Channel5_IRQn);
 800096c:	200f      	movs	r0, #15
 800096e:	f000 fe0b 	bl	8001588 <HAL_NVIC_EnableIRQ>
  MX_USB_DEVICE_Init();
 8000972:	f004 fec5 	bl	8005700 <MX_USB_DEVICE_Init>
  hspi2.Instance = SPI2;
 8000976:	f240 7020 	movw	r0, #1824	@ 0x720
 800097a:	f44f 5360 	mov.w	r3, #14336	@ 0x3800
  hspi2.Init.Mode = SPI_MODE_MASTER;
 800097e:	f44f 7582 	mov.w	r5, #260	@ 0x104
  hspi2.Init.NSS = SPI_NSS_SOFT;
 8000982:	f44f 7100 	mov.w	r1, #512	@ 0x200
  hspi2.Init.CRCPolynomial = 10;
 8000986:	220a      	movs	r2, #10
  hspi2.Instance = SPI2;
 8000988:	f2c2 0000 	movt	r0, #8192	@ 0x2000
 800098c:	f2c4 0300 	movt	r3, #16384	@ 0x4000
  hspi2.Init.DataSize = SPI_DATASIZE_8BIT;
 8000990:	e9c0 4402 	strd	r4, r4, [r0, #8]
  hspi2.Init.CLKPhase = SPI_PHASE_2EDGE;
 8000994:	e9c0 4604 	strd	r4, r6, [r0, #16]
  hspi2.Init.TIMode = SPI_TIMODE_DISABLE;
 8000998:	e9c0 4408 	strd	r4, r4, [r0, #32]
  hspi2.Init.BaudRatePrescaler = SPI_BAUDRATEPRESCALER_32;
 800099c:	f8c0 901c 	str.w	r9, [r0, #28]
  hspi2.Init.Mode = SPI_MODE_MASTER;
 80009a0:	6045      	str	r5, [r0, #4]
  hspi2.Init.NSS = SPI_NSS_SOFT;
 80009a2:	6181      	str	r1, [r0, #24]
  hspi2.Init.CRCPolynomial = 10;
 80009a4:	62c2      	str	r2, [r0, #44]	@ 0x2c
  hspi2.Instance = SPI2;
 80009a6:	6003      	str	r3, [r0, #0]
  hspi2.Init.TIMode = SPI_TIMODE_DISABLE;
 80009a8:	6284      	str	r4, [r0, #40]	@ 0x28
  if (HAL_SPI_Init(&hspi2) != HAL_OK)
 80009aa:	f002 fe2f 	bl	800360c <HAL_SPI_Init>
 80009ae:	b108      	cbz	r0, 80009b4 <main+0x1dc>
 80009b0:	b672      	cpsid	i
	while (1) {
 80009b2:	e7fe      	b.n	80009b2 <main+0x1da>
  htim4.Instance = TIM4;
 80009b4:	f240 6404 	movw	r4, #1540	@ 0x604
 80009b8:	f44f 6300 	mov.w	r3, #2048	@ 0x800
  htim4.Init.Prescaler = 72-1;
 80009bc:	2147      	movs	r1, #71	@ 0x47
  htim4.Init.Period = 1300;
 80009be:	f240 5214 	movw	r2, #1300	@ 0x514
  htim4.Instance = TIM4;
 80009c2:	f2c2 0400 	movt	r4, #8192	@ 0x2000
  TIM_ClockConfigTypeDef sClockSourceConfig = {0};
 80009c6:	e9cd 0008 	strd	r0, r0, [sp, #32]
 80009ca:	e9cd 000a 	strd	r0, r0, [sp, #40]	@ 0x28
  TIM_MasterConfigTypeDef sMasterConfig = {0};
 80009ce:	e9cd 0006 	strd	r0, r0, [sp, #24]
  htim4.Instance = TIM4;
 80009d2:	f2c4 0300 	movt	r3, #16384	@ 0x4000
  htim4.Init.CounterMode = TIM_COUNTERMODE_UP;
 80009d6:	60a0      	str	r0, [r4, #8]
  htim4.Init.ClockDivision = TIM_CLOCKDIVISION_DIV1;
 80009d8:	6120      	str	r0, [r4, #16]
  htim4.Init.AutoReloadPreload = TIM_AUTORELOAD_PRELOAD_DISABLE;
 80009da:	61a0      	str	r0, [r4, #24]
  if (HAL_TIM_Base_Init(&htim4) != HAL_OK)
 80009dc:	4620      	mov	r0, r4
  htim4.Init.Prescaler = 72-1;
 80009de:	6061      	str	r1, [r4, #4]
  htim4.Init.Period = 1300;
 80009e0:	60e2      	str	r2, [r4, #12]
  htim4.Instance = TIM4;
 80009e2:	6023      	str	r3, [r4, #0]
  if (HAL_TIM_Base_Init(&htim4) != HAL_OK)
 80009e4:	f003 f8d2 	bl	8003b8c <HAL_TIM_Base_Init>
 80009e8:	b108      	cbz	r0, 80009ee <main+0x216>
 80009ea:	b672      	cpsid	i
	while (1) {
 80009ec:	e7fe      	b.n	80009ec <main+0x214>
  if (HAL_TIM_ConfigClockSource(&htim4, &sClockSourceConfig) != HAL_OK)
 80009ee:	4620      	mov	r0, r4
 80009f0:	a908      	add	r1, sp, #32
  sClockSourceConfig.ClockSource = TIM_CLOCKSOURCE_INTERNAL;
 80009f2:	9708      	str	r7, [sp, #32]
  if (HAL_TIM_ConfigClockSource(&htim4, &sClockSourceConfig) != HAL_OK)
 80009f4:	f003 f988 	bl	8003d08 <HAL_TIM_ConfigClockSource>
 80009f8:	b108      	cbz	r0, 80009fe <main+0x226>
 80009fa:	b672      	cpsid	i
	while (1) {
 80009fc:	e7fe      	b.n	80009fc <main+0x224>
  sMasterConfig.MasterOutputTrigger = TIM_TRGO_RESET;
 80009fe:	2300      	movs	r3, #0
 8000a00:	2200      	movs	r2, #0
  if (HAL_TIMEx_MasterConfigSynchronization(&htim4, &sMasterConfig) != HAL_OK)
 8000a02:	4620      	mov	r0, r4
 8000a04:	a906      	add	r1, sp, #24
  sMasterConfig.MasterOutputTrigger = TIM_TRGO_RESET;
 8000a06:	e9cd 2306 	strd	r2, r3, [sp, #24]
  if (HAL_TIMEx_MasterConfigSynchronization(&htim4, &sMasterConfig) != HAL_OK)
 8000a0a:	f003 facb 	bl	8003fa4 <HAL_TIMEx_MasterConfigSynchronization>
 8000a0e:	4603      	mov	r3, r0
 8000a10:	b9f0      	cbnz	r0, 8000a50 <main+0x278>
  hadc1.Instance = ADC1;
 8000a12:	f240 74c0 	movw	r4, #1984	@ 0x7c0
 8000a16:	f44f 5210 	mov.w	r2, #9216	@ 0x2400
  hadc1.Init.DataAlign = ADC_DATAALIGN_LEFT;
 8000a1a:	f44f 6500 	mov.w	r5, #2048	@ 0x800
  ADC_ChannelConfTypeDef sConfig = {0};
 8000a1e:	e9cd 0008 	strd	r0, r0, [sp, #32]
 8000a22:	900a      	str	r0, [sp, #40]	@ 0x28
  hadc1.Init.DataAlign = ADC_DATAALIGN_LEFT;
 8000a24:	f44f 7080 	mov.w	r0, #256	@ 0x100
  hadc1.Init.ExternalTrigConv = ADC_SOFTWARE_START;
 8000a28:	f44f 2760 	mov.w	r7, #917504	@ 0xe0000
  hadc1.Init.NbrOfConversion = 5;
 8000a2c:	2105      	movs	r1, #5
  hadc1.Instance = ADC1;
 8000a2e:	f2c2 0400 	movt	r4, #8192	@ 0x2000
  hadc1.Init.DataAlign = ADC_DATAALIGN_LEFT;
 8000a32:	e9c4 5001 	strd	r5, r0, [r4, #4]
  hadc1.Instance = ADC1;
 8000a36:	f2c4 0201 	movt	r2, #16385	@ 0x4001
  if (HAL_ADC_Init(&hadc1) != HAL_OK)
 8000a3a:	4620      	mov	r0, r4
  hadc1.Init.ContinuousConvMode = ENABLE;
 8000a3c:	7326      	strb	r6, [r4, #12]
  hadc1.Init.DiscontinuousConvMode = DISABLE;
 8000a3e:	7523      	strb	r3, [r4, #20]
  hadc1.Init.ExternalTrigConv = ADC_SOFTWARE_START;
 8000a40:	61e7      	str	r7, [r4, #28]
  hadc1.Instance = ADC1;
 8000a42:	6022      	str	r2, [r4, #0]
  hadc1.Init.NbrOfConversion = 5;
 8000a44:	6121      	str	r1, [r4, #16]
  if (HAL_ADC_Init(&hadc1) != HAL_OK)
 8000a46:	f000 fa8d 	bl	8000f64 <HAL_ADC_Init>
 8000a4a:	b118      	cbz	r0, 8000a54 <main+0x27c>
 8000a4c:	b672      	cpsid	i
	while (1) {
 8000a4e:	e7fe      	b.n	8000a4e <main+0x276>
 8000a50:	b672      	cpsid	i
 8000a52:	e7fe      	b.n	8000a52 <main+0x27a>
  sConfig.SamplingTime = ADC_SAMPLETIME_239CYCLES_5;
 8000a54:	2107      	movs	r1, #7
  sConfig.Channel = ADC_CHANNEL_7;
 8000a56:	2207      	movs	r2, #7
 8000a58:	2301      	movs	r3, #1
  sConfig.SamplingTime = ADC_SAMPLETIME_239CYCLES_5;
 8000a5a:	910a      	str	r1, [sp, #40]	@ 0x28
  if (HAL_ADC_ConfigChannel(&hadc1, &sConfig) != HAL_OK)
 8000a5c:	4620      	mov	r0, r4
 8000a5e:	a908      	add	r1, sp, #32
  sConfig.Channel = ADC_CHANNEL_7;
 8000a60:	e9cd 2308 	strd	r2, r3, [sp, #32]
  if (HAL_ADC_ConfigChannel(&hadc1, &sConfig) != HAL_OK)
 8000a64:	f000 fbca 	bl	80011fc <HAL_ADC_ConfigChannel>
 8000a68:	b108      	cbz	r0, 8000a6e <main+0x296>
 8000a6a:	b672      	cpsid	i
	while (1) {
 8000a6c:	e7fe      	b.n	8000a6c <main+0x294>
  sConfig.Channel = ADC_CHANNEL_8;
 8000a6e:	2208      	movs	r2, #8
 8000a70:	2302      	movs	r3, #2
  if (HAL_ADC_ConfigChannel(&hadc1, &sConfig) != HAL_OK)
 8000a72:	4620      	mov	r0, r4
 8000a74:	a908      	add	r1, sp, #32
  sConfig.Channel = ADC_CHANNEL_8;
 8000a76:	e9cd 2308 	strd	r2, r3, [sp, #32]
  if (HAL_ADC_ConfigChannel(&hadc1, &sConfig) != HAL_OK)
 8000a7a:	f000 fbbf 	bl	80011fc <HAL_ADC_ConfigChannel>
 8000a7e:	b108      	cbz	r0, 8000a84 <main+0x2ac>
 8000a80:	b672      	cpsid	i
	while (1) {
 8000a82:	e7fe      	b.n	8000a82 <main+0x2aa>
  sConfig.Channel = ADC_CHANNEL_9;
 8000a84:	2209      	movs	r2, #9
 8000a86:	2303      	movs	r3, #3
  if (HAL_ADC_ConfigChannel(&hadc1, &sConfig) != HAL_OK)
 8000a88:	4620      	mov	r0, r4
 8000a8a:	a908      	add	r1, sp, #32
  sConfig.Channel = ADC_CHANNEL_9;
 8000a8c:	e9cd 2308 	strd	r2, r3, [sp, #32]
  if (HAL_ADC_ConfigChannel(&hadc1, &sConfig) != HAL_OK)
 8000a90:	f000 fbb4 	bl	80011fc <HAL_ADC_ConfigChannel>
 8000a94:	b108      	cbz	r0, 8000a9a <main+0x2c2>
 8000a96:	b672      	cpsid	i
	while (1) {
 8000a98:	e7fe      	b.n	8000a98 <main+0x2c0>
  sConfig.Channel = ADC_CHANNEL_4;
 8000a9a:	2204      	movs	r2, #4
 8000a9c:	2304      	movs	r3, #4
  if (HAL_ADC_ConfigChannel(&hadc1, &sConfig) != HAL_OK)
 8000a9e:	4620      	mov	r0, r4
 8000aa0:	a908      	add	r1, sp, #32
  sConfig.Channel = ADC_CHANNEL_4;
 8000aa2:	e9cd 2308 	strd	r2, r3, [sp, #32]
  if (HAL_ADC_ConfigChannel(&hadc1, &sConfig) != HAL_OK)
 8000aa6:	f000 fba9 	bl	80011fc <HAL_ADC_ConfigChannel>
 8000aaa:	b108      	cbz	r0, 8000ab0 <main+0x2d8>
 8000aac:	b672      	cpsid	i
	while (1) {
 8000aae:	e7fe      	b.n	8000aae <main+0x2d6>
  sConfig.Channel = ADC_CHANNEL_5;
 8000ab0:	2205      	movs	r2, #5
 8000ab2:	2305      	movs	r3, #5
  if (HAL_ADC_ConfigChannel(&hadc1, &sConfig) != HAL_OK)
 8000ab4:	4620      	mov	r0, r4
 8000ab6:	a908      	add	r1, sp, #32
  sConfig.Channel = ADC_CHANNEL_5;
 8000ab8:	e9cd 2308 	strd	r2, r3, [sp, #32]
  if (HAL_ADC_ConfigChannel(&hadc1, &sConfig) != HAL_OK)
 8000abc:	f000 fb9e 	bl	80011fc <HAL_ADC_ConfigChannel>
 8000ac0:	b108      	cbz	r0, 8000ac6 <main+0x2ee>
 8000ac2:	b672      	cpsid	i
	while (1) {
 8000ac4:	e7fe      	b.n	8000ac4 <main+0x2ec>
  htim3.Instance = TIM3;
 8000ac6:	f240 644c 	movw	r4, #1612	@ 0x64c
 8000aca:	f44f 6280 	mov.w	r2, #1024	@ 0x400
  TIM_ClockConfigTypeDef sClockSourceConfig = {0};
 8000ace:	2300      	movs	r3, #0
  htim3.Init.Prescaler = 72-1;
 8000ad0:	2147      	movs	r1, #71	@ 0x47
  htim3.Init.Period = 1000;
 8000ad2:	f44f 757a 	mov.w	r5, #1000	@ 0x3e8
  htim3.Instance = TIM3;
 8000ad6:	f2c2 0400 	movt	r4, #8192	@ 0x2000
 8000ada:	f2c4 0200 	movt	r2, #16384	@ 0x4000
  if (HAL_TIM_Base_Init(&htim3) != HAL_OK)
 8000ade:	4620      	mov	r0, r4
  TIM_ClockConfigTypeDef sClockSourceConfig = {0};
 8000ae0:	e9cd 3308 	strd	r3, r3, [sp, #32]
 8000ae4:	e9cd 330a 	strd	r3, r3, [sp, #40]	@ 0x28
  TIM_MasterConfigTypeDef sMasterConfig = {0};
 8000ae8:	e9cd 3306 	strd	r3, r3, [sp, #24]
  htim3.Init.Period = 1000;
 8000aec:	e9c4 3502 	strd	r3, r5, [r4, #8]
  htim3.Init.Prescaler = 72-1;
 8000af0:	6061      	str	r1, [r4, #4]
  htim3.Instance = TIM3;
 8000af2:	6022      	str	r2, [r4, #0]
  htim3.Init.ClockDivision = TIM_CLOCKDIVISION_DIV1;
 8000af4:	6123      	str	r3, [r4, #16]
  htim3.Init.AutoReloadPreload = TIM_AUTORELOAD_PRELOAD_DISABLE;
 8000af6:	61a3      	str	r3, [r4, #24]
  if (HAL_TIM_Base_Init(&htim3) != HAL_OK)
 8000af8:	f003 f848 	bl	8003b8c <HAL_TIM_Base_Init>
 8000afc:	b108      	cbz	r0, 8000b02 <main+0x32a>
 8000afe:	b672      	cpsid	i
	while (1) {
 8000b00:	e7fe      	b.n	8000b00 <main+0x328>
  sClockSourceConfig.ClockSource = TIM_CLOCKSOURCE_INTERNAL;
 8000b02:	f44f 5380 	mov.w	r3, #4096	@ 0x1000
  if (HAL_TIM_ConfigClockSource(&htim3, &sClockSourceConfig) != HAL_OK)
 8000b06:	4620      	mov	r0, r4
 8000b08:	a908      	add	r1, sp, #32
  sClockSourceConfig.ClockSource = TIM_CLOCKSOURCE_INTERNAL;
 8000b0a:	9308      	str	r3, [sp, #32]
  if (HAL_TIM_ConfigClockSource(&htim3, &sClockSourceConfig) != HAL_OK)
 8000b0c:	f003 f8fc 	bl	8003d08 <HAL_TIM_ConfigClockSource>
 8000b10:	b108      	cbz	r0, 8000b16 <main+0x33e>
 8000b12:	b672      	cpsid	i
	while (1) {
 8000b14:	e7fe      	b.n	8000b14 <main+0x33c>
  sMasterConfig.MasterOutputTrigger = TIM_TRGO_RESET;
 8000b16:	2200      	movs	r2, #0
 8000b18:	2300      	movs	r3, #0
  if (HAL_TIMEx_MasterConfigSynchronization(&htim3, &sMasterConfig) != HAL_OK)
 8000b1a:	4620      	mov	r0, r4
 8000b1c:	a906      	add	r1, sp, #24
  sMasterConfig.MasterOutputTrigger = TIM_TRGO_RESET;
 8000b1e:	e9cd 2306 	strd	r2, r3, [sp, #24]
  if (HAL_TIMEx_MasterConfigSynchronization(&htim3, &sMasterConfig) != HAL_OK)
 8000b22:	f003 fa3f 	bl	8003fa4 <HAL_TIMEx_MasterConfigSynchronization>
 8000b26:	b108      	cbz	r0, 8000b2c <main+0x354>
 8000b28:	b672      	cpsid	i
	while (1) {
 8000b2a:	e7fe      	b.n	8000b2a <main+0x352>
	if (HAL_TIM_Base_Init(&htim3) != HAL_OK) {
 8000b2c:	4620      	mov	r0, r4
	htim3.Init.Period = SAMPLE_TIME_US;
 8000b2e:	60e5      	str	r5, [r4, #12]
	if (HAL_TIM_Base_Init(&htim3) != HAL_OK) {
 8000b30:	f003 f82c 	bl	8003b8c <HAL_TIM_Base_Init>
 8000b34:	b108      	cbz	r0, 8000b3a <main+0x362>
 8000b36:	b672      	cpsid	i
	while (1) {
 8000b38:	e7fe      	b.n	8000b38 <main+0x360>
	wheel_startup();
 8000b3a:	f005 fab7 	bl	80060ac <wheel_startup>
	while (1) {
 8000b3e:	e7fe      	b.n	8000b3e <main+0x366>

08000b40 <Error_Handler>:
 8000b40:	b672      	cpsid	i
	while (1) {
 8000b42:	e7fe      	b.n	8000b42 <Error_Handler+0x2>

08000b44 <HAL_MspInit>:

  /* USER CODE BEGIN MspInit 0 */

  /* USER CODE END MspInit 0 */

  __HAL_RCC_AFIO_CLK_ENABLE();
 8000b44:	f44f 5380 	mov.w	r3, #4096	@ 0x1000

  /* System interrupt init*/

  /** NOJTAG: JTAG-DP Disabled and SW-DP Enabled
  */
  __HAL_AFIO_REMAP_SWJ_NOJTAG();
 8000b48:	2200      	movs	r2, #0
  __HAL_RCC_AFIO_CLK_ENABLE();
 8000b4a:	f2c4 0302 	movt	r3, #16386	@ 0x4002
 8000b4e:	6999      	ldr	r1, [r3, #24]
{
 8000b50:	b082      	sub	sp, #8
  __HAL_RCC_AFIO_CLK_ENABLE();
 8000b52:	f041 0101 	orr.w	r1, r1, #1
 8000b56:	6199      	str	r1, [r3, #24]
 8000b58:	6999      	ldr	r1, [r3, #24]
  __HAL_AFIO_REMAP_SWJ_NOJTAG();
 8000b5a:	f2c4 0201 	movt	r2, #16385	@ 0x4001
  __HAL_RCC_AFIO_CLK_ENABLE();
 8000b5e:	f001 0101 	and.w	r1, r1, #1
 8000b62:	9100      	str	r1, [sp, #0]
 8000b64:	9900      	ldr	r1, [sp, #0]
  __HAL_RCC_PWR_CLK_ENABLE();
 8000b66:	69d9      	ldr	r1, [r3, #28]
 8000b68:	f041 5180 	orr.w	r1, r1, #268435456	@ 0x10000000
 8000b6c:	61d9      	str	r1, [r3, #28]
 8000b6e:	69db      	ldr	r3, [r3, #28]
 8000b70:	f003 5380 	and.w	r3, r3, #268435456	@ 0x10000000
 8000b74:	9301      	str	r3, [sp, #4]
 8000b76:	9b01      	ldr	r3, [sp, #4]
  __HAL_AFIO_REMAP_SWJ_NOJTAG();
 8000b78:	6853      	ldr	r3, [r2, #4]
 8000b7a:	f023 63e0 	bic.w	r3, r3, #117440512	@ 0x7000000
 8000b7e:	f043 7300 	orr.w	r3, r3, #33554432	@ 0x2000000
 8000b82:	6053      	str	r3, [r2, #4]

  /* USER CODE BEGIN MspInit 1 */

  /* USER CODE END MspInit 1 */
}
 8000b84:	b002      	add	sp, #8
 8000b86:	4770      	bx	lr

08000b88 <HAL_ADC_MspInit>:
  * @retval None
  */
void HAL_ADC_MspInit(ADC_HandleTypeDef* hadc)
{
  GPIO_InitTypeDef GPIO_InitStruct = {0};
  if(hadc->Instance==ADC1)
 8000b88:	f44f 5310 	mov.w	r3, #9216	@ 0x2400
{
 8000b8c:	b5f0      	push	{r4, r5, r6, r7, lr}
  GPIO_InitTypeDef GPIO_InitStruct = {0};
 8000b8e:	2400      	movs	r4, #0
  if(hadc->Instance==ADC1)
 8000b90:	6802      	ldr	r2, [r0, #0]
 8000b92:	f2c4 0301 	movt	r3, #16385	@ 0x4001
{
 8000b96:	b089      	sub	sp, #36	@ 0x24
  if(hadc->Instance==ADC1)
 8000b98:	429a      	cmp	r2, r3
  GPIO_InitTypeDef GPIO_InitStruct = {0};
 8000b9a:	e9cd 4404 	strd	r4, r4, [sp, #16]
 8000b9e:	e9cd 4406 	strd	r4, r4, [sp, #24]
  if(hadc->Instance==ADC1)
 8000ba2:	d001      	beq.n	8000ba8 <HAL_ADC_MspInit+0x20>

    /* USER CODE END ADC1_MspInit 1 */

  }

}
 8000ba4:	b009      	add	sp, #36	@ 0x24
 8000ba6:	bdf0      	pop	{r4, r5, r6, r7, pc}
    __HAL_RCC_ADC1_CLK_ENABLE();
 8000ba8:	f44f 5380 	mov.w	r3, #4096	@ 0x1000
 8000bac:	f2c4 0302 	movt	r3, #16386	@ 0x4002
 8000bb0:	699a      	ldr	r2, [r3, #24]
 8000bb2:	4605      	mov	r5, r0
 8000bb4:	f442 7200 	orr.w	r2, r2, #512	@ 0x200
 8000bb8:	619a      	str	r2, [r3, #24]
 8000bba:	699a      	ldr	r2, [r3, #24]
    HAL_GPIO_Init(GPIOA, &GPIO_InitStruct);
 8000bbc:	f44f 6000 	mov.w	r0, #2048	@ 0x800
    __HAL_RCC_ADC1_CLK_ENABLE();
 8000bc0:	f402 7200 	and.w	r2, r2, #512	@ 0x200
 8000bc4:	9201      	str	r2, [sp, #4]
 8000bc6:	9a01      	ldr	r2, [sp, #4]
    __HAL_RCC_GPIOA_CLK_ENABLE();
 8000bc8:	699a      	ldr	r2, [r3, #24]
    HAL_GPIO_Init(GPIOA, &GPIO_InitStruct);
 8000bca:	a904      	add	r1, sp, #16
    __HAL_RCC_GPIOA_CLK_ENABLE();
 8000bcc:	f042 0204 	orr.w	r2, r2, #4
 8000bd0:	619a      	str	r2, [r3, #24]
 8000bd2:	699a      	ldr	r2, [r3, #24]
    HAL_GPIO_Init(GPIOA, &GPIO_InitStruct);
 8000bd4:	f2c4 0001 	movt	r0, #16385	@ 0x4001
    __HAL_RCC_GPIOA_CLK_ENABLE();
 8000bd8:	f002 0204 	and.w	r2, r2, #4
 8000bdc:	9202      	str	r2, [sp, #8]
 8000bde:	9a02      	ldr	r2, [sp, #8]
    __HAL_RCC_GPIOB_CLK_ENABLE();
 8000be0:	699a      	ldr	r2, [r3, #24]
    hdma_adc1.Instance = DMA1_Channel1;
 8000be2:	f240 7678 	movw	r6, #1912	@ 0x778
    __HAL_RCC_GPIOB_CLK_ENABLE();
 8000be6:	f042 0208 	orr.w	r2, r2, #8
 8000bea:	619a      	str	r2, [r3, #24]
 8000bec:	699b      	ldr	r3, [r3, #24]
    GPIO_InitStruct.Pin = GPIO_PIN_4|GPIO_PIN_5|GPIO_PIN_7;
 8000bee:	22b0      	movs	r2, #176	@ 0xb0
    __HAL_RCC_GPIOB_CLK_ENABLE();
 8000bf0:	f003 0308 	and.w	r3, r3, #8
 8000bf4:	9303      	str	r3, [sp, #12]
 8000bf6:	9b03      	ldr	r3, [sp, #12]
    GPIO_InitStruct.Pin = GPIO_PIN_4|GPIO_PIN_5|GPIO_PIN_7;
 8000bf8:	2303      	movs	r3, #3
 8000bfa:	e9cd 2304 	strd	r2, r3, [sp, #16]
    HAL_GPIO_Init(GPIOA, &GPIO_InitStruct);
 8000bfe:	f000 fe3d 	bl	800187c <HAL_GPIO_Init>
    HAL_GPIO_Init(GPIOB, &GPIO_InitStruct);
 8000c02:	f44f 6040 	mov.w	r0, #3072	@ 0xc00
    GPIO_InitStruct.Pin = GPIO_PIN_0|GPIO_PIN_1;
 8000c06:	2203      	movs	r2, #3
 8000c08:	2303      	movs	r3, #3
    HAL_GPIO_Init(GPIOB, &GPIO_InitStruct);
 8000c0a:	a904      	add	r1, sp, #16
 8000c0c:	f2c4 0001 	movt	r0, #16385	@ 0x4001
    GPIO_InitStruct.Pin = GPIO_PIN_0|GPIO_PIN_1;
 8000c10:	e9cd 2304 	strd	r2, r3, [sp, #16]
    hdma_adc1.Init.PeriphDataAlignment = DMA_PDATAALIGN_WORD;
 8000c14:	f44f 7700 	mov.w	r7, #512	@ 0x200
    HAL_GPIO_Init(GPIOB, &GPIO_InitStruct);
 8000c18:	f000 fe30 	bl	800187c <HAL_GPIO_Init>
    hdma_adc1.Init.MemDataAlignment = DMA_MDATAALIGN_WORD;
 8000c1c:	f44f 6000 	mov.w	r0, #2048	@ 0x800
    hdma_adc1.Instance = DMA1_Channel1;
 8000c20:	2308      	movs	r3, #8
    hdma_adc1.Init.MemInc = DMA_MINC_ENABLE;
 8000c22:	2280      	movs	r2, #128	@ 0x80
    hdma_adc1.Init.MemDataAlignment = DMA_MDATAALIGN_WORD;
 8000c24:	2120      	movs	r1, #32
    hdma_adc1.Instance = DMA1_Channel1;
 8000c26:	f2c2 0600 	movt	r6, #8192	@ 0x2000
    hdma_adc1.Init.MemDataAlignment = DMA_MDATAALIGN_WORD;
 8000c2a:	e9c6 7004 	strd	r7, r0, [r6, #16]
    hdma_adc1.Instance = DMA1_Channel1;
 8000c2e:	f2c4 0302 	movt	r3, #16386	@ 0x4002
    if (HAL_DMA_Init(&hdma_adc1) != HAL_OK)
 8000c32:	4630      	mov	r0, r6
    hdma_adc1.Init.Direction = DMA_PERIPH_TO_MEMORY;
 8000c34:	e9c6 3400 	strd	r3, r4, [r6]
    hdma_adc1.Init.MemInc = DMA_MINC_ENABLE;
 8000c38:	e9c6 4202 	strd	r4, r2, [r6, #8]
    hdma_adc1.Init.MemDataAlignment = DMA_MDATAALIGN_WORD;
 8000c3c:	61b1      	str	r1, [r6, #24]
    hdma_adc1.Init.Priority = DMA_PRIORITY_LOW;
 8000c3e:	61f4      	str	r4, [r6, #28]
    if (HAL_DMA_Init(&hdma_adc1) != HAL_OK)
 8000c40:	f000 fcca 	bl	80015d8 <HAL_DMA_Init>
 8000c44:	b918      	cbnz	r0, 8000c4e <HAL_ADC_MspInit+0xc6>
    __HAL_LINKDMA(hadc,DMA_Handle,hdma_adc1);
 8000c46:	622e      	str	r6, [r5, #32]
 8000c48:	6275      	str	r5, [r6, #36]	@ 0x24
}
 8000c4a:	b009      	add	sp, #36	@ 0x24
 8000c4c:	bdf0      	pop	{r4, r5, r6, r7, pc}
      Error_Handler();
 8000c4e:	f7ff ff77 	bl	8000b40 <Error_Handler>
 8000c52:	e7f8      	b.n	8000c46 <HAL_ADC_MspInit+0xbe>

08000c54 <HAL_SPI_MspInit>:
  * @retval None
  */
void HAL_SPI_MspInit(SPI_HandleTypeDef* hspi)
{
  GPIO_InitTypeDef GPIO_InitStruct = {0};
  if(hspi->Instance==SPI2)
 8000c54:	f44f 5360 	mov.w	r3, #14336	@ 0x3800
{
 8000c58:	b570      	push	{r4, r5, r6, lr}
  GPIO_InitTypeDef GPIO_InitStruct = {0};
 8000c5a:	2400      	movs	r4, #0
  if(hspi->Instance==SPI2)
 8000c5c:	6802      	ldr	r2, [r0, #0]
 8000c5e:	f2c4 0300 	movt	r3, #16384	@ 0x4000
{
 8000c62:	b086      	sub	sp, #24
  if(hspi->Instance==SPI2)
 8000c64:	429a      	cmp	r2, r3
  GPIO_InitTypeDef GPIO_InitStruct = {0};
 8000c66:	e9cd 4402 	strd	r4, r4, [sp, #8]
 8000c6a:	e9cd 4404 	strd	r4, r4, [sp, #16]
  if(hspi->Instance==SPI2)
 8000c6e:	d001      	beq.n	8000c74 <HAL_SPI_MspInit+0x20>

    /* USER CODE END SPI2_MspInit 1 */

  }

}
 8000c70:	b006      	add	sp, #24
 8000c72:	bd70      	pop	{r4, r5, r6, pc}
    __HAL_RCC_SPI2_CLK_ENABLE();
 8000c74:	f44f 5380 	mov.w	r3, #4096	@ 0x1000
 8000c78:	f2c4 0302 	movt	r3, #16386	@ 0x4002
 8000c7c:	69da      	ldr	r2, [r3, #28]
 8000c7e:	4605      	mov	r5, r0
 8000c80:	f442 4280 	orr.w	r2, r2, #16384	@ 0x4000
 8000c84:	61da      	str	r2, [r3, #28]
 8000c86:	69da      	ldr	r2, [r3, #28]
    HAL_GPIO_Init(GPIOB, &GPIO_InitStruct);
 8000c88:	f44f 6040 	mov.w	r0, #3072	@ 0xc00
    __HAL_RCC_SPI2_CLK_ENABLE();
 8000c8c:	f402 4280 	and.w	r2, r2, #16384	@ 0x4000
 8000c90:	9200      	str	r2, [sp, #0]
 8000c92:	9a00      	ldr	r2, [sp, #0]
    __HAL_RCC_GPIOB_CLK_ENABLE();
 8000c94:	699a      	ldr	r2, [r3, #24]
    GPIO_InitStruct.Speed = GPIO_SPEED_FREQ_HIGH;
 8000c96:	2603      	movs	r6, #3
    __HAL_RCC_GPIOB_CLK_ENABLE();
 8000c98:	f042 0208 	orr.w	r2, r2, #8
 8000c9c:	619a      	str	r2, [r3, #24]
 8000c9e:	699b      	ldr	r3, [r3, #24]
    GPIO_InitStruct.Pin = GPIO_PIN_13|GPIO_PIN_15;
 8000ca0:	f44f 4220 	mov.w	r2, #40960	@ 0xa000
    __HAL_RCC_GPIOB_CLK_ENABLE();
 8000ca4:	f003 0308 	and.w	r3, r3, #8
 8000ca8:	9301      	str	r3, [sp, #4]
 8000caa:	9b01      	ldr	r3, [sp, #4]
    GPIO_InitStruct.Pin = GPIO_PIN_13|GPIO_PIN_15;
 8000cac:	2302      	movs	r3, #2
    HAL_GPIO_Init(GPIOB, &GPIO_InitStruct);
 8000cae:	a902      	add	r1, sp, #8
 8000cb0:	f2c4 0001 	movt	r0, #16385	@ 0x4001
    GPIO_InitStruct.Pin = GPIO_PIN_13|GPIO_PIN_15;
 8000cb4:	e9cd 2302 	strd	r2, r3, [sp, #8]
    GPIO_InitStruct.Speed = GPIO_SPEED_FREQ_HIGH;
 8000cb8:	9605      	str	r6, [sp, #20]
    HAL_GPIO_Init(GPIOB, &GPIO_InitStruct);
 8000cba:	f000 fddf 	bl	800187c <HAL_GPIO_Init>
    HAL_GPIO_Init(GPIOB, &GPIO_InitStruct);
 8000cbe:	f44f 6040 	mov.w	r0, #3072	@ 0xc00
    GPIO_InitStruct.Pin = GPIO_PIN_14;
 8000cc2:	f44f 4280 	mov.w	r2, #16384	@ 0x4000
 8000cc6:	2300      	movs	r3, #0
    HAL_GPIO_Init(GPIOB, &GPIO_InitStruct);
 8000cc8:	a902      	add	r1, sp, #8
 8000cca:	f2c4 0001 	movt	r0, #16385	@ 0x4001
    hdma_spi2_rx.Instance = DMA1_Channel4;
 8000cce:	f240 66d8 	movw	r6, #1752	@ 0x6d8
    GPIO_InitStruct.Pin = GPIO_PIN_14;
 8000cd2:	e9cd 2302 	strd	r2, r3, [sp, #8]
    GPIO_InitStruct.Pull = GPIO_NOPULL;
 8000cd6:	9404      	str	r4, [sp, #16]
    HAL_GPIO_Init(GPIOB, &GPIO_InitStruct);
 8000cd8:	f000 fdd0 	bl	800187c <HAL_GPIO_Init>
    hdma_spi2_rx.Instance = DMA1_Channel4;
 8000cdc:	2344      	movs	r3, #68	@ 0x44
    hdma_spi2_rx.Init.MemInc = DMA_MINC_ENABLE;
 8000cde:	2280      	movs	r2, #128	@ 0x80
    hdma_spi2_rx.Init.Priority = DMA_PRIORITY_HIGH;
 8000ce0:	f44f 5100 	mov.w	r1, #8192	@ 0x2000
    hdma_spi2_rx.Instance = DMA1_Channel4;
 8000ce4:	f2c2 0600 	movt	r6, #8192	@ 0x2000
 8000ce8:	f2c4 0302 	movt	r3, #16386	@ 0x4002
    if (HAL_DMA_Init(&hdma_spi2_rx) != HAL_OK)
 8000cec:	4630      	mov	r0, r6
    hdma_spi2_rx.Init.Direction = DMA_PERIPH_TO_MEMORY;
 8000cee:	e9c6 3400 	strd	r3, r4, [r6]
    hdma_spi2_rx.Init.MemInc = DMA_MINC_ENABLE;
 8000cf2:	e9c6 4202 	strd	r4, r2, [r6, #8]
    hdma_spi2_rx.Init.MemDataAlignment = DMA_MDATAALIGN_BYTE;
 8000cf6:	e9c6 4404 	strd	r4, r4, [r6, #16]
    hdma_spi2_rx.Init.Priority = DMA_PRIORITY_HIGH;
 8000cfa:	61f1      	str	r1, [r6, #28]
    hdma_spi2_rx.Init.MemDataAlignment = DMA_MDATAALIGN_BYTE;
 8000cfc:	61b4      	str	r4, [r6, #24]
    if (HAL_DMA_Init(&hdma_spi2_rx) != HAL_OK)
 8000cfe:	f000 fc6b 	bl	80015d8 <HAL_DMA_Init>
 8000d02:	b9e8      	cbnz	r0, 8000d40 <HAL_SPI_MspInit+0xec>
    hdma_spi2_tx.Instance = DMA1_Channel5;
 8000d04:	f240 6494 	movw	r4, #1684	@ 0x694
    hdma_spi2_tx.Init.Priority = DMA_PRIORITY_HIGH;
 8000d08:	f44f 5000 	mov.w	r0, #8192	@ 0x2000
    hdma_spi2_tx.Instance = DMA1_Channel5;
 8000d0c:	2258      	movs	r2, #88	@ 0x58
    hdma_spi2_tx.Init.PeriphInc = DMA_PINC_DISABLE;
 8000d0e:	2300      	movs	r3, #0
    hdma_spi2_tx.Init.Direction = DMA_MEMORY_TO_PERIPH;
 8000d10:	2110      	movs	r1, #16
    __HAL_LINKDMA(hspi,hdmarx,hdma_spi2_rx);
 8000d12:	64ee      	str	r6, [r5, #76]	@ 0x4c
 8000d14:	6275      	str	r5, [r6, #36]	@ 0x24
    hdma_spi2_tx.Init.MemInc = DMA_MINC_ENABLE;
 8000d16:	2680      	movs	r6, #128	@ 0x80
    hdma_spi2_tx.Instance = DMA1_Channel5;
 8000d18:	f2c2 0400 	movt	r4, #8192	@ 0x2000
    hdma_spi2_tx.Init.Priority = DMA_PRIORITY_HIGH;
 8000d1c:	61e0      	str	r0, [r4, #28]
    hdma_spi2_tx.Instance = DMA1_Channel5;
 8000d1e:	f2c4 0202 	movt	r2, #16386	@ 0x4002
    if (HAL_DMA_Init(&hdma_spi2_tx) != HAL_OK)
 8000d22:	4620      	mov	r0, r4
    hdma_spi2_tx.Init.PeriphInc = DMA_PINC_DISABLE;
 8000d24:	e9c4 1301 	strd	r1, r3, [r4, #4]
    hdma_spi2_tx.Init.MemDataAlignment = DMA_MDATAALIGN_BYTE;
 8000d28:	e9c4 3304 	strd	r3, r3, [r4, #16]
    hdma_spi2_tx.Init.MemInc = DMA_MINC_ENABLE;
 8000d2c:	60e6      	str	r6, [r4, #12]
    hdma_spi2_tx.Instance = DMA1_Channel5;
 8000d2e:	6022      	str	r2, [r4, #0]
    hdma_spi2_tx.Init.MemDataAlignment = DMA_MDATAALIGN_BYTE;
 8000d30:	61a3      	str	r3, [r4, #24]
    if (HAL_DMA_Init(&hdma_spi2_tx) != HAL_OK)
 8000d32:	f000 fc51 	bl	80015d8 <HAL_DMA_Init>
 8000d36:	b930      	cbnz	r0, 8000d46 <HAL_SPI_MspInit+0xf2>
    __HAL_LINKDMA(hspi,hdmatx,hdma_spi2_tx);
 8000d38:	64ac      	str	r4, [r5, #72]	@ 0x48
 8000d3a:	6265      	str	r5, [r4, #36]	@ 0x24
}
 8000d3c:	b006      	add	sp, #24
 8000d3e:	bd70      	pop	{r4, r5, r6, pc}
      Error_Handler();
 8000d40:	f7ff fefe 	bl	8000b40 <Error_Handler>
 8000d44:	e7de      	b.n	8000d04 <HAL_SPI_MspInit+0xb0>
      Error_Handler();
 8000d46:	f7ff fefb 	bl	8000b40 <Error_Handler>
 8000d4a:	e7f5      	b.n	8000d38 <HAL_SPI_MspInit+0xe4>

08000d4c <HAL_TIM_Base_MspInit>:
  * @param htim_base: TIM_Base handle pointer
  * @retval None
  */
void HAL_TIM_Base_MspInit(TIM_HandleTypeDef* htim_base)
{
  if(htim_base->Instance==TIM3)
 8000d4c:	f44f 6380 	mov.w	r3, #1024	@ 0x400
{
 8000d50:	b510      	push	{r4, lr}
  if(htim_base->Instance==TIM3)
 8000d52:	6802      	ldr	r2, [r0, #0]
 8000d54:	f2c4 0300 	movt	r3, #16384	@ 0x4000
 8000d58:	429a      	cmp	r2, r3
{
 8000d5a:	b082      	sub	sp, #8
  if(htim_base->Instance==TIM3)
 8000d5c:	d007      	beq.n	8000d6e <HAL_TIM_Base_MspInit+0x22>
    HAL_NVIC_EnableIRQ(TIM3_IRQn);
    /* USER CODE BEGIN TIM3_MspInit 1 */

    /* USER CODE END TIM3_MspInit 1 */
  }
  else if(htim_base->Instance==TIM4)
 8000d5e:	f44f 6300 	mov.w	r3, #2048	@ 0x800
 8000d62:	f2c4 0300 	movt	r3, #16384	@ 0x4000
 8000d66:	429a      	cmp	r2, r3
 8000d68:	d019      	beq.n	8000d9e <HAL_TIM_Base_MspInit+0x52>
    /* USER CODE BEGIN TIM4_MspInit 1 */

    /* USER CODE END TIM4_MspInit 1 */
  }

}
 8000d6a:	b002      	add	sp, #8
 8000d6c:	bd10      	pop	{r4, pc}
    __HAL_RCC_TIM3_CLK_ENABLE();
 8000d6e:	f44f 5380 	mov.w	r3, #4096	@ 0x1000
 8000d72:	f2c4 0302 	movt	r3, #16386	@ 0x4002
 8000d76:	69dc      	ldr	r4, [r3, #28]
    HAL_NVIC_SetPriority(TIM3_IRQn, 6, 0);
 8000d78:	2200      	movs	r2, #0
    __HAL_RCC_TIM3_CLK_ENABLE();
 8000d7a:	f044 0402 	orr.w	r4, r4, #2
 8000d7e:	61dc      	str	r4, [r3, #28]
 8000d80:	69db      	ldr	r3, [r3, #28]
    HAL_NVIC_SetPriority(TIM3_IRQn, 6, 0);
 8000d82:	2106      	movs	r1, #6
    __HAL_RCC_TIM3_CLK_ENABLE();
 8000d84:	f003 0302 	and.w	r3, r3, #2
 8000d88:	9300      	str	r3, [sp, #0]
    HAL_NVIC_SetPriority(TIM3_IRQn, 6, 0);
 8000d8a:	201d      	movs	r0, #29
    __HAL_RCC_TIM3_CLK_ENABLE();
 8000d8c:	9b00      	ldr	r3, [sp, #0]
    HAL_NVIC_SetPriority(TIM3_IRQn, 6, 0);
 8000d8e:	f000 fbbd 	bl	800150c <HAL_NVIC_SetPriority>
    HAL_NVIC_EnableIRQ(TIM3_IRQn);
 8000d92:	201d      	movs	r0, #29
}
 8000d94:	b002      	add	sp, #8
 8000d96:	e8bd 4010 	ldmia.w	sp!, {r4, lr}
    HAL_NVIC_EnableIRQ(TIM4_IRQn);
 8000d9a:	f000 bbf5 	b.w	8001588 <HAL_NVIC_EnableIRQ>
    __HAL_RCC_TIM4_CLK_ENABLE();
 8000d9e:	f44f 5380 	mov.w	r3, #4096	@ 0x1000
 8000da2:	f2c4 0302 	movt	r3, #16386	@ 0x4002
 8000da6:	69dc      	ldr	r4, [r3, #28]
    HAL_NVIC_SetPriority(TIM4_IRQn, 3, 0);
 8000da8:	2200      	movs	r2, #0
    __HAL_RCC_TIM4_CLK_ENABLE();
 8000daa:	f044 0404 	orr.w	r4, r4, #4
 8000dae:	61dc      	str	r4, [r3, #28]
 8000db0:	69db      	ldr	r3, [r3, #28]
    HAL_NVIC_SetPriority(TIM4_IRQn, 3, 0);
 8000db2:	2103      	movs	r1, #3
    __HAL_RCC_TIM4_CLK_ENABLE();
 8000db4:	f003 0304 	and.w	r3, r3, #4
 8000db8:	9301      	str	r3, [sp, #4]
    HAL_NVIC_SetPriority(TIM4_IRQn, 3, 0);
 8000dba:	201e      	movs	r0, #30
    __HAL_RCC_TIM4_CLK_ENABLE();
 8000dbc:	9b01      	ldr	r3, [sp, #4]
    HAL_NVIC_SetPriority(TIM4_IRQn, 3, 0);
 8000dbe:	f000 fba5 	bl	800150c <HAL_NVIC_SetPriority>
    HAL_NVIC_EnableIRQ(TIM4_IRQn);
 8000dc2:	201e      	movs	r0, #30
}
 8000dc4:	b002      	add	sp, #8
 8000dc6:	e8bd 4010 	ldmia.w	sp!, {r4, lr}
    HAL_NVIC_EnableIRQ(TIM4_IRQn);
 8000dca:	f000 bbdd 	b.w	8001588 <HAL_NVIC_EnableIRQ>
 8000dce:	bf00      	nop

08000dd0 <NMI_Handler>:
{
  /* USER CODE BEGIN NonMaskableInt_IRQn 0 */

  /* USER CODE END NonMaskableInt_IRQn 0 */
  /* USER CODE BEGIN NonMaskableInt_IRQn 1 */
   while (1)
 8000dd0:	e7fe      	b.n	8000dd0 <NMI_Handler>
 8000dd2:	bf00      	nop

08000dd4 <HardFault_Handler>:
void HardFault_Handler(void)
{
  /* USER CODE BEGIN HardFault_IRQn 0 */

  /* USER CODE END HardFault_IRQn 0 */
  while (1)
 8000dd4:	e7fe      	b.n	8000dd4 <HardFault_Handler>
 8000dd6:	bf00      	nop

08000dd8 <MemManage_Handler>:
void MemManage_Handler(void)
{
  /* USER CODE BEGIN MemoryManagement_IRQn 0 */

  /* USER CODE END MemoryManagement_IRQn 0 */
  while (1)
 8000dd8:	e7fe      	b.n	8000dd8 <MemManage_Handler>
 8000dda:	bf00      	nop

08000ddc <BusFault_Handler>:
void BusFault_Handler(void)
{
  /* USER CODE BEGIN BusFault_IRQn 0 */

  /* USER CODE END BusFault_IRQn 0 */
  while (1)
 8000ddc:	e7fe      	b.n	8000ddc <BusFault_Handler>
 8000dde:	bf00      	nop

08000de0 <UsageFault_Handler>:
void UsageFault_Handler(void)
{
  /* USER CODE BEGIN UsageFault_IRQn 0 */

  /* USER CODE END UsageFault_IRQn 0 */
  while (1)
 8000de0:	e7fe      	b.n	8000de0 <UsageFault_Handler>
 8000de2:	bf00      	nop

08000de4 <SVC_Handler>:

  /* USER CODE END SVCall_IRQn 0 */
  /* USER CODE BEGIN SVCall_IRQn 1 */

  /* USER CODE END SVCall_IRQn 1 */
}
 8000de4:	4770      	bx	lr
 8000de6:	bf00      	nop

08000de8 <DebugMon_Handler>:

/**
  * @brief This function handles Debug monitor.
  */
void DebugMon_Handler(void)
 8000de8:	4770      	bx	lr
 8000dea:	bf00      	nop

08000dec <PendSV_Handler>:
}

/**
  * @brief This function handles Pendable request for system service.
  */
void PendSV_Handler(void)
 8000dec:	4770      	bx	lr
 8000dee:	bf00      	nop

08000df0 <SysTick_Handler>:
void SysTick_Handler(void)
{
  /* USER CODE BEGIN SysTick_IRQn 0 */

  /* USER CODE END SysTick_IRQn 0 */
  HAL_IncTick();
 8000df0:	f000 b890 	b.w	8000f14 <HAL_IncTick>

08000df4 <EXTI0_IRQHandler>:
void EXTI0_IRQHandler(void)
{
  /* USER CODE BEGIN EXTI0_IRQn 0 */

  /* USER CODE END EXTI0_IRQn 0 */
  HAL_GPIO_EXTI_IRQHandler(SWIT_0_Pin);
 8000df4:	2001      	movs	r0, #1
 8000df6:	f000 bf87 	b.w	8001d08 <HAL_GPIO_EXTI_IRQHandler>
 8000dfa:	bf00      	nop

08000dfc <EXTI1_IRQHandler>:
void EXTI1_IRQHandler(void)
{
  /* USER CODE BEGIN EXTI1_IRQn 0 */

  /* USER CODE END EXTI1_IRQn 0 */
  HAL_GPIO_EXTI_IRQHandler(SWIT_1_Pin);
 8000dfc:	2002      	movs	r0, #2
 8000dfe:	f000 bf83 	b.w	8001d08 <HAL_GPIO_EXTI_IRQHandler>
 8000e02:	bf00      	nop

08000e04 <DMA1_Channel1_IRQHandler>:
void DMA1_Channel1_IRQHandler(void)
{
  /* USER CODE BEGIN DMA1_Channel1_IRQn 0 */

  /* USER CODE END DMA1_Channel1_IRQn 0 */
  HAL_DMA_IRQHandler(&hdma_adc1);
 8000e04:	f240 7078 	movw	r0, #1912	@ 0x778
 8000e08:	f2c2 0000 	movt	r0, #8192	@ 0x2000
 8000e0c:	f000 bc86 	b.w	800171c <HAL_DMA_IRQHandler>

08000e10 <DMA1_Channel4_IRQHandler>:
void DMA1_Channel4_IRQHandler(void)
{
  /* USER CODE BEGIN DMA1_Channel4_IRQn 0 */

  /* USER CODE END DMA1_Channel4_IRQn 0 */
  HAL_DMA_IRQHandler(&hdma_spi2_rx);
 8000e10:	f240 60d8 	movw	r0, #1752	@ 0x6d8
 8000e14:	f2c2 0000 	movt	r0, #8192	@ 0x2000
 8000e18:	f000 bc80 	b.w	800171c <HAL_DMA_IRQHandler>

08000e1c <DMA1_Channel5_IRQHandler>:
void DMA1_Channel5_IRQHandler(void)
{
  /* USER CODE BEGIN DMA1_Channel5_IRQn 0 */

  /* USER CODE END DMA1_Channel5_IRQn 0 */
  HAL_DMA_IRQHandler(&hdma_spi2_tx);
 8000e1c:	f240 6094 	movw	r0, #1684	@ 0x694
 8000e20:	f2c2 0000 	movt	r0, #8192	@ 0x2000
 8000e24:	f000 bc7a 	b.w	800171c <HAL_DMA_IRQHandler>

08000e28 <USB_LP_CAN1_RX0_IRQHandler>:
void USB_LP_CAN1_RX0_IRQHandler(void)
{
  /* USER CODE BEGIN USB_LP_CAN1_RX0_IRQn 0 */

  /* USER CODE END USB_LP_CAN1_RX0_IRQn 0 */
  HAL_PCD_IRQHandler(&hpcd_USB_FS);
 8000e28:	f640 40d8 	movw	r0, #3288	@ 0xcd8
 8000e2c:	f2c2 0000 	movt	r0, #8192	@ 0x2000
 8000e30:	f001 b88a 	b.w	8001f48 <HAL_PCD_IRQHandler>

08000e34 <TIM3_IRQHandler>:
void TIM3_IRQHandler(void)
{
  /* USER CODE BEGIN TIM3_IRQn 0 */

  /* USER CODE END TIM3_IRQn 0 */
  HAL_TIM_IRQHandler(&htim3);
 8000e34:	f240 604c 	movw	r0, #1612	@ 0x64c
 8000e38:	f2c2 0000 	movt	r0, #8192	@ 0x2000
 8000e3c:	f003 b816 	b.w	8003e6c <HAL_TIM_IRQHandler>

08000e40 <TIM4_IRQHandler>:
void TIM4_IRQHandler(void)
{
  /* USER CODE BEGIN TIM4_IRQn 0 */

  /* USER CODE END TIM4_IRQn 0 */
  HAL_TIM_IRQHandler(&htim4);
 8000e40:	f240 6004 	movw	r0, #1540	@ 0x604
 8000e44:	f2c2 0000 	movt	r0, #8192	@ 0x2000
 8000e48:	f003 b810 	b.w	8003e6c <HAL_TIM_IRQHandler>

08000e4c <SystemInit>:

  /* Configure the Vector Table location -------------------------------------*/
#if defined(USER_VECT_TAB_ADDRESS)
  SCB->VTOR = VECT_TAB_BASE_ADDRESS | VECT_TAB_OFFSET; /* Vector Table Relocation in Internal SRAM. */
#endif /* USER_VECT_TAB_ADDRESS */
}
 8000e4c:	4770      	bx	lr
 8000e4e:	bf00      	nop

08000e50 <Reset_Handler>:
  .weak Reset_Handler
  .type Reset_Handler, %function
Reset_Handler:

/* Call the clock system initialization function.*/
    bl  SystemInit
 8000e50:	f7ff fffc 	bl	8000e4c <SystemInit>

/* Copy the data segment initializers from flash to SRAM */
  ldr r0, =_sdata
 8000e54:	480b      	ldr	r0, [pc, #44]	@ (8000e84 <LoopFillZerobss+0xe>)
  ldr r1, =_edata
 8000e56:	490c      	ldr	r1, [pc, #48]	@ (8000e88 <LoopFillZerobss+0x12>)
  ldr r2, =_sidata
 8000e58:	4a0c      	ldr	r2, [pc, #48]	@ (8000e8c <LoopFillZerobss+0x16>)
  movs r3, #0
 8000e5a:	2300      	movs	r3, #0
  b LoopCopyDataInit
 8000e5c:	e002      	b.n	8000e64 <LoopCopyDataInit>

08000e5e <CopyDataInit>:

CopyDataInit:
  ldr r4, [r2, r3]
 8000e5e:	58d4      	ldr	r4, [r2, r3]
  str r4, [r0, r3]
 8000e60:	50c4      	str	r4, [r0, r3]
  adds r3, r3, #4
 8000e62:	3304      	adds	r3, #4

08000e64 <LoopCopyDataInit>:

LoopCopyDataInit:
  adds r4, r0, r3
 8000e64:	18c4      	adds	r4, r0, r3
  cmp r4, r1
 8000e66:	428c      	cmp	r4, r1
  bcc CopyDataInit
 8000e68:	d3f9      	bcc.n	8000e5e <CopyDataInit>
  
/* Zero fill the bss segment. */
  ldr r2, =_sbss
 8000e6a:	4a09      	ldr	r2, [pc, #36]	@ (8000e90 <LoopFillZerobss+0x1a>)
  ldr r4, =_ebss
 8000e6c:	4c09      	ldr	r4, [pc, #36]	@ (8000e94 <LoopFillZerobss+0x1e>)
  movs r3, #0
 8000e6e:	2300      	movs	r3, #0
  b LoopFillZerobss
 8000e70:	e001      	b.n	8000e76 <LoopFillZerobss>

08000e72 <FillZerobss>:

FillZerobss:
  str  r3, [r2]
 8000e72:	6013      	str	r3, [r2, #0]
  adds r2, r2, #4
 8000e74:	3204      	adds	r2, #4

08000e76 <LoopFillZerobss>:

LoopFillZerobss:
  cmp r2, r4
 8000e76:	42a2      	cmp	r2, r4
  bcc FillZerobss
 8000e78:	d3fb      	bcc.n	8000e72 <FillZerobss>

/* Call static constructors */
    bl __libc_init_array
 8000e7a:	f005 fda3 	bl	80069c4 <__libc_init_array>
/* Call the application's entry point.*/
  bl main
 8000e7e:	f7ff fcab 	bl	80007d8 <main>
  bx lr
 8000e82:	4770      	bx	lr
  ldr r0, =_sdata
 8000e84:	20000000 	.word	0x20000000
  ldr r1, =_edata
 8000e88:	200005e8 	.word	0x200005e8
  ldr r2, =_sidata
 8000e8c:	08006bd8 	.word	0x08006bd8
  ldr r2, =_sbss
 8000e90:	200005e8 	.word	0x200005e8
  ldr r4, =_ebss
 8000e94:	20000fe4 	.word	0x20000fe4

08000e98 <ADC1_2_IRQHandler>:
 * @retval : None
*/
    .section .text.Default_Handler,"ax",%progbits
Default_Handler:
Infinite_Loop:
  b Infinite_Loop
 8000e98:	e7fe      	b.n	8000e98 <ADC1_2_IRQHandler>
	...

08000e9c <HAL_InitTick>:
  * @retval HAL status
  */
__weak HAL_StatusTypeDef HAL_InitTick(uint32_t TickPriority)
{
  /* Configure the SysTick to have interrupt in 1ms time basis*/
  if (HAL_SYSTICK_Config(SystemCoreClock / (1000U / uwTickFreq)) > 0U)
 8000e9c:	f240 0104 	movw	r1, #4
{
 8000ea0:	b538      	push	{r3, r4, r5, lr}
  if (HAL_SYSTICK_Config(SystemCoreClock / (1000U / uwTickFreq)) > 0U)
 8000ea2:	f44f 737a 	mov.w	r3, #1000	@ 0x3e8
 8000ea6:	f240 0200 	movw	r2, #0
 8000eaa:	f2c2 0100 	movt	r1, #8192	@ 0x2000
 8000eae:	7809      	ldrb	r1, [r1, #0]
 8000eb0:	f2c2 0200 	movt	r2, #8192	@ 0x2000
 8000eb4:	fbb3 f3f1 	udiv	r3, r3, r1
 8000eb8:	6812      	ldr	r2, [r2, #0]
{
 8000eba:	4605      	mov	r5, r0
  if (HAL_SYSTICK_Config(SystemCoreClock / (1000U / uwTickFreq)) > 0U)
 8000ebc:	fbb2 f0f3 	udiv	r0, r2, r3
 8000ec0:	f000 fb70 	bl	80015a4 <HAL_SYSTICK_Config>
 8000ec4:	b908      	cbnz	r0, 8000eca <HAL_InitTick+0x2e>
  {
    return HAL_ERROR;
  }

  /* Configure the SysTick IRQ priority */
  if (TickPriority < (1UL << __NVIC_PRIO_BITS))
 8000ec6:	2d0f      	cmp	r5, #15
 8000ec8:	d901      	bls.n	8000ece <HAL_InitTick+0x32>
    return HAL_ERROR;
 8000eca:	2001      	movs	r0, #1
    return HAL_ERROR;
  }

  /* Return function status */
  return HAL_OK;
}
 8000ecc:	bd38      	pop	{r3, r4, r5, pc}
 8000ece:	4604      	mov	r4, r0
    HAL_NVIC_SetPriority(SysTick_IRQn, TickPriority, 0U);
 8000ed0:	4602      	mov	r2, r0
 8000ed2:	4629      	mov	r1, r5
 8000ed4:	f04f 30ff 	mov.w	r0, #4294967295
 8000ed8:	f000 fb18 	bl	800150c <HAL_NVIC_SetPriority>
    uwTickPrio = TickPriority;
 8000edc:	f240 0308 	movw	r3, #8
 8000ee0:	f2c2 0300 	movt	r3, #8192	@ 0x2000
 8000ee4:	4620      	mov	r0, r4
 8000ee6:	601d      	str	r5, [r3, #0]
}
 8000ee8:	bd38      	pop	{r3, r4, r5, pc}
 8000eea:	bf00      	nop

08000eec <HAL_Init>:
{
 8000eec:	b508      	push	{r3, lr}
  __HAL_FLASH_PREFETCH_BUFFER_ENABLE();
 8000eee:	f44f 5300 	mov.w	r3, #8192	@ 0x2000
 8000ef2:	f2c4 0302 	movt	r3, #16386	@ 0x4002
 8000ef6:	681a      	ldr	r2, [r3, #0]
  HAL_NVIC_SetPriorityGrouping(NVIC_PRIORITYGROUP_4);
 8000ef8:	2003      	movs	r0, #3
  __HAL_FLASH_PREFETCH_BUFFER_ENABLE();
 8000efa:	f042 0210 	orr.w	r2, r2, #16
 8000efe:	601a      	str	r2, [r3, #0]
  HAL_NVIC_SetPriorityGrouping(NVIC_PRIORITYGROUP_4);
 8000f00:	f000 faf0 	bl	80014e4 <HAL_NVIC_SetPriorityGrouping>
  HAL_InitTick(TICK_INT_PRIORITY);
 8000f04:	200f      	movs	r0, #15
 8000f06:	f7ff ffc9 	bl	8000e9c <HAL_InitTick>
  HAL_MspInit();
 8000f0a:	f7ff fe1b 	bl	8000b44 <HAL_MspInit>
}
 8000f0e:	2000      	movs	r0, #0
 8000f10:	bd08      	pop	{r3, pc}
 8000f12:	bf00      	nop

08000f14 <HAL_IncTick>:
  *      implementations in user file.
  * @retval None
  */
__weak void HAL_IncTick(void)
{
  uwTick += uwTickFreq;
 8000f14:	f240 73f0 	movw	r3, #2032	@ 0x7f0
 8000f18:	f240 0204 	movw	r2, #4
 8000f1c:	f2c2 0300 	movt	r3, #8192	@ 0x2000
 8000f20:	f2c2 0200 	movt	r2, #8192	@ 0x2000
 8000f24:	6819      	ldr	r1, [r3, #0]
 8000f26:	7812      	ldrb	r2, [r2, #0]
 8000f28:	440a      	add	r2, r1
 8000f2a:	601a      	str	r2, [r3, #0]
}
 8000f2c:	4770      	bx	lr
 8000f2e:	bf00      	nop

08000f30 <HAL_GetTick>:
  *       implementations in user file.
  * @retval tick value
  */
__weak uint32_t HAL_GetTick(void)
{
  return uwTick;
 8000f30:	f240 73f0 	movw	r3, #2032	@ 0x7f0
 8000f34:	f2c2 0300 	movt	r3, #8192	@ 0x2000
 8000f38:	6818      	ldr	r0, [r3, #0]
}
 8000f3a:	4770      	bx	lr

08000f3c <HAL_Delay>:
  *       implementations in user file.
  * @param Delay specifies the delay time length, in milliseconds.
  * @retval None
  */
__weak void HAL_Delay(uint32_t Delay)
{
 8000f3c:	b538      	push	{r3, r4, r5, lr}
 8000f3e:	4604      	mov	r4, r0
  uint32_t tickstart = HAL_GetTick();
 8000f40:	f7ff fff6 	bl	8000f30 <HAL_GetTick>
  uint32_t wait = Delay;

  /* Add a freq to guarantee minimum wait */
  if (wait < HAL_MAX_DELAY)
 8000f44:	1c63      	adds	r3, r4, #1
  uint32_t tickstart = HAL_GetTick();
 8000f46:	4605      	mov	r5, r0
  if (wait < HAL_MAX_DELAY)
 8000f48:	d005      	beq.n	8000f56 <HAL_Delay+0x1a>
  {
    wait += (uint32_t)(uwTickFreq);
 8000f4a:	f240 0304 	movw	r3, #4
 8000f4e:	f2c2 0300 	movt	r3, #8192	@ 0x2000
 8000f52:	781b      	ldrb	r3, [r3, #0]
 8000f54:	441c      	add	r4, r3
  }

  while ((HAL_GetTick() - tickstart) < wait)
 8000f56:	f7ff ffeb 	bl	8000f30 <HAL_GetTick>
 8000f5a:	1b40      	subs	r0, r0, r5
 8000f5c:	42a0      	cmp	r0, r4
 8000f5e:	d3fa      	bcc.n	8000f56 <HAL_Delay+0x1a>
  {
  }
}
 8000f60:	bd38      	pop	{r3, r4, r5, pc}
 8000f62:	bf00      	nop

08000f64 <HAL_ADC_Init>:
  uint32_t tmp_cr1 = 0U;
  uint32_t tmp_cr2 = 0U;
  uint32_t tmp_sqr1 = 0U;
  
  /* Check ADC handle */
  if(hadc == NULL)
 8000f64:	2800      	cmp	r0, #0
 8000f66:	f000 8090 	beq.w	800108a <HAL_ADC_Init+0x126>
  /* Refer to header of this file for more details on clock enabling          */
  /* procedure.                                                               */

  /* Actions performed only if ADC is coming from state reset:                */
  /* - Initialization of ADC MSP                                              */
  if (hadc->State == HAL_ADC_STATE_RESET)
 8000f6a:	6a83      	ldr	r3, [r0, #40]	@ 0x28
{
 8000f6c:	b570      	push	{r4, r5, r6, lr}
 8000f6e:	4604      	mov	r4, r0
  if (hadc->State == HAL_ADC_STATE_RESET)
 8000f70:	2b00      	cmp	r3, #0
 8000f72:	d070      	beq.n	8001056 <HAL_ADC_Init+0xf2>
HAL_StatusTypeDef ADC_ConversionStop_Disable(ADC_HandleTypeDef* hadc)
{
  uint32_t tickstart = 0U;
  
  /* Verification if ADC is not already disabled */
  if (ADC_IS_ENABLE(hadc) != RESET)
 8000f74:	6823      	ldr	r3, [r4, #0]
 8000f76:	689a      	ldr	r2, [r3, #8]
 8000f78:	07d5      	lsls	r5, r2, #31
 8000f7a:	d44e      	bmi.n	800101a <HAL_ADC_Init+0xb6>
  if (HAL_IS_BIT_CLR(hadc->State, HAL_ADC_STATE_ERROR_INTERNAL) &&
 8000f7c:	6aa2      	ldr	r2, [r4, #40]	@ 0x28
 8000f7e:	06d2      	lsls	r2, r2, #27
 8000f80:	d505      	bpl.n	8000f8e <HAL_ADC_Init+0x2a>
    SET_BIT(hadc->State, HAL_ADC_STATE_ERROR_INTERNAL);
 8000f82:	6aa3      	ldr	r3, [r4, #40]	@ 0x28
 8000f84:	f043 0310 	orr.w	r3, r3, #16
 8000f88:	62a3      	str	r3, [r4, #40]	@ 0x28
    return HAL_ERROR;
 8000f8a:	2001      	movs	r0, #1
}
 8000f8c:	bd70      	pop	{r4, r5, r6, pc}
    ADC_STATE_CLR_SET(hadc->State,
 8000f8e:	6aa2      	ldr	r2, [r4, #40]	@ 0x28
    tmp_cr2 |= (hadc->Init.DataAlign                                          |
 8000f90:	6861      	ldr	r1, [r4, #4]
 8000f92:	69e0      	ldr	r0, [r4, #28]
    ADC_STATE_CLR_SET(hadc->State,
 8000f94:	f422 5288 	bic.w	r2, r2, #4352	@ 0x1100
                ADC_CR2_CONTINUOUS((uint32_t)hadc->Init.ContinuousConvMode)   );
 8000f98:	7b25      	ldrb	r5, [r4, #12]
    ADC_STATE_CLR_SET(hadc->State,
 8000f9a:	f022 0202 	bic.w	r2, r2, #2
    tmp_cr2 |= (hadc->Init.DataAlign                                          |
 8000f9e:	4301      	orrs	r1, r0
    ADC_STATE_CLR_SET(hadc->State,
 8000fa0:	f042 0202 	orr.w	r2, r2, #2
 8000fa4:	62a2      	str	r2, [r4, #40]	@ 0x28
                ADC_CFGR_EXTSEL(hadc, hadc->Init.ExternalTrigConv)            |
 8000fa6:	ea41 0245 	orr.w	r2, r1, r5, lsl #1
    tmp_cr1 |= (ADC_CR1_SCAN_SET(hadc->Init.ScanConvMode));
 8000faa:	68a1      	ldr	r1, [r4, #8]
    if (hadc->Init.DiscontinuousConvMode == ENABLE)
 8000fac:	7d26      	ldrb	r6, [r4, #20]
    tmp_cr1 |= (ADC_CR1_SCAN_SET(hadc->Init.ScanConvMode));
 8000fae:	f5b1 7f80 	cmp.w	r1, #256	@ 0x100
 8000fb2:	d056      	beq.n	8001062 <HAL_ADC_Init+0xfe>
 8000fb4:	f1a1 0001 	sub.w	r0, r1, #1
 8000fb8:	fab0 f080 	clz	r0, r0
    if (hadc->Init.DiscontinuousConvMode == ENABLE)
 8000fbc:	2e01      	cmp	r6, #1
    tmp_cr1 |= (ADC_CR1_SCAN_SET(hadc->Init.ScanConvMode));
 8000fbe:	ea4f 1050 	mov.w	r0, r0, lsr #5
 8000fc2:	ea4f 2000 	mov.w	r0, r0, lsl #8
    if (hadc->Init.DiscontinuousConvMode == ENABLE)
 8000fc6:	d063      	beq.n	8001090 <HAL_ADC_Init+0x12c>
      MODIFY_REG(hadc->Instance->CR2,
 8000fc8:	f24f 75fd 	movw	r5, #63485	@ 0xf7fd
      MODIFY_REG(hadc->Instance->CR1,
 8000fcc:	685e      	ldr	r6, [r3, #4]
      MODIFY_REG(hadc->Instance->CR2,
 8000fce:	f6cf 75e1 	movt	r5, #65505	@ 0xffe1
      MODIFY_REG(hadc->Instance->CR1,
 8000fd2:	f426 4c69 	bic.w	ip, r6, #59648	@ 0xe900
 8000fd6:	ea4c 0000 	orr.w	r0, ip, r0
 8000fda:	6058      	str	r0, [r3, #4]
      MODIFY_REG(hadc->Instance->CR2,
 8000fdc:	6898      	ldr	r0, [r3, #8]
 8000fde:	4005      	ands	r5, r0
 8000fe0:	4315      	orrs	r5, r2
 8000fe2:	609d      	str	r5, [r3, #8]
    if (ADC_CR1_SCAN_SET(hadc->Init.ScanConvMode) == ADC_SCAN_ENABLE)
 8000fe4:	2901      	cmp	r1, #1
 8000fe6:	d04c      	beq.n	8001082 <HAL_ADC_Init+0x11e>
  uint32_t tmp_sqr1 = 0U;
 8000fe8:	2000      	movs	r0, #0
    MODIFY_REG(hadc->Instance->SQR1,
 8000fea:	6ad9      	ldr	r1, [r3, #44]	@ 0x2c
 8000fec:	f421 0170 	bic.w	r1, r1, #15728640	@ 0xf00000
 8000ff0:	4301      	orrs	r1, r0
    if (READ_BIT(hadc->Instance->CR2, ~(ADC_CR2_ADON | ADC_CR2_DMA |
 8000ff2:	f640 60fe 	movw	r0, #3838	@ 0xefe
    MODIFY_REG(hadc->Instance->SQR1,
 8000ff6:	62d9      	str	r1, [r3, #44]	@ 0x2c
    if (READ_BIT(hadc->Instance->CR2, ~(ADC_CR2_ADON | ADC_CR2_DMA |
 8000ff8:	689b      	ldr	r3, [r3, #8]
 8000ffa:	f6cf 701f 	movt	r0, #65311	@ 0xff1f
 8000ffe:	4018      	ands	r0, r3
 8001000:	4282      	cmp	r2, r0
 8001002:	d061      	beq.n	80010c8 <HAL_ADC_Init+0x164>
      ADC_STATE_CLR_SET(hadc->State,
 8001004:	6aa3      	ldr	r3, [r4, #40]	@ 0x28
 8001006:	f023 0312 	bic.w	r3, r3, #18
 800100a:	f043 0310 	orr.w	r3, r3, #16
 800100e:	62a3      	str	r3, [r4, #40]	@ 0x28
      SET_BIT(hadc->ErrorCode, HAL_ADC_ERROR_INTERNAL);
 8001010:	6ae3      	ldr	r3, [r4, #44]	@ 0x2c
 8001012:	f043 0301 	orr.w	r3, r3, #1
 8001016:	62e3      	str	r3, [r4, #44]	@ 0x2c
      tmp_hal_status = HAL_ERROR;
 8001018:	e7b7      	b.n	8000f8a <HAL_ADC_Init+0x26>
  {
    /* Disable the ADC peripheral */
    __HAL_ADC_DISABLE(hadc);
 800101a:	689a      	ldr	r2, [r3, #8]
 800101c:	f022 0201 	bic.w	r2, r2, #1
 8001020:	609a      	str	r2, [r3, #8]
     
    /* Get tick count */
    tickstart = HAL_GetTick();
 8001022:	f7ff ff85 	bl	8000f30 <HAL_GetTick>
 8001026:	4605      	mov	r5, r0
    
    /* Wait for ADC effectively disabled */
    while(ADC_IS_ENABLE(hadc) != RESET)
 8001028:	6823      	ldr	r3, [r4, #0]
 800102a:	689a      	ldr	r2, [r3, #8]
 800102c:	07d0      	lsls	r0, r2, #31
 800102e:	d5a5      	bpl.n	8000f7c <HAL_ADC_Init+0x18>
    {
      if((HAL_GetTick() - tickstart) > ADC_DISABLE_TIMEOUT)
 8001030:	f7ff ff7e 	bl	8000f30 <HAL_GetTick>
 8001034:	1b40      	subs	r0, r0, r5
 8001036:	2802      	cmp	r0, #2
      {
        /* New check to avoid false timeout detection in case of preemption */
        if(ADC_IS_ENABLE(hadc) != RESET)
 8001038:	6823      	ldr	r3, [r4, #0]
      if((HAL_GetTick() - tickstart) > ADC_DISABLE_TIMEOUT)
 800103a:	d9f6      	bls.n	800102a <HAL_ADC_Init+0xc6>
        if(ADC_IS_ENABLE(hadc) != RESET)
 800103c:	689a      	ldr	r2, [r3, #8]
 800103e:	07d1      	lsls	r1, r2, #31
 8001040:	d5f3      	bpl.n	800102a <HAL_ADC_Init+0xc6>
        {
          /* Update ADC state machine to error */
          SET_BIT(hadc->State, HAL_ADC_STATE_ERROR_INTERNAL);
 8001042:	6aa3      	ldr	r3, [r4, #40]	@ 0x28
 8001044:	f043 0310 	orr.w	r3, r3, #16
 8001048:	62a3      	str	r3, [r4, #40]	@ 0x28

          /* Set ADC error code to ADC IP internal error */
          SET_BIT(hadc->ErrorCode, HAL_ADC_ERROR_INTERNAL);
 800104a:	6ae3      	ldr	r3, [r4, #44]	@ 0x2c
 800104c:	f043 0301 	orr.w	r3, r3, #1
 8001050:	62e3      	str	r3, [r4, #44]	@ 0x2c
  if (HAL_IS_BIT_CLR(hadc->State, HAL_ADC_STATE_ERROR_INTERNAL) &&
 8001052:	6aa3      	ldr	r3, [r4, #40]	@ 0x28
 8001054:	e795      	b.n	8000f82 <HAL_ADC_Init+0x1e>
    ADC_CLEAR_ERRORCODE(hadc);
 8001056:	62c3      	str	r3, [r0, #44]	@ 0x2c
    hadc->Lock = HAL_UNLOCKED;
 8001058:	f880 3024 	strb.w	r3, [r0, #36]	@ 0x24
    HAL_ADC_MspInit(hadc);
 800105c:	f7ff fd94 	bl	8000b88 <HAL_ADC_MspInit>
 8001060:	e788      	b.n	8000f74 <HAL_ADC_Init+0x10>
    if (hadc->Init.DiscontinuousConvMode == ENABLE)
 8001062:	2e01      	cmp	r6, #1
 8001064:	d013      	beq.n	800108e <HAL_ADC_Init+0x12a>
      MODIFY_REG(hadc->Instance->CR2,
 8001066:	f24f 71fd 	movw	r1, #63485	@ 0xf7fd
      MODIFY_REG(hadc->Instance->CR1,
 800106a:	6858      	ldr	r0, [r3, #4]
      MODIFY_REG(hadc->Instance->CR2,
 800106c:	f6cf 71e1 	movt	r1, #65505	@ 0xffe1
      MODIFY_REG(hadc->Instance->CR1,
 8001070:	f420 4069 	bic.w	r0, r0, #59648	@ 0xe900
 8001074:	f440 7080 	orr.w	r0, r0, #256	@ 0x100
 8001078:	6058      	str	r0, [r3, #4]
      MODIFY_REG(hadc->Instance->CR2,
 800107a:	6898      	ldr	r0, [r3, #8]
 800107c:	4001      	ands	r1, r0
 800107e:	4311      	orrs	r1, r2
 8001080:	6099      	str	r1, [r3, #8]
      tmp_sqr1 = ADC_SQR1_L_SHIFT(hadc->Init.NbrOfConversion);
 8001082:	6920      	ldr	r0, [r4, #16]
 8001084:	3801      	subs	r0, #1
 8001086:	0500      	lsls	r0, r0, #20
 8001088:	e7af      	b.n	8000fea <HAL_ADC_Init+0x86>
    return HAL_ERROR;
 800108a:	2001      	movs	r0, #1
}
 800108c:	4770      	bx	lr
    tmp_cr1 |= (ADC_CR1_SCAN_SET(hadc->Init.ScanConvMode));
 800108e:	4608      	mov	r0, r1
      if (hadc->Init.ContinuousConvMode == DISABLE)
 8001090:	b31d      	cbz	r5, 80010da <HAL_ADC_Init+0x176>
        SET_BIT(hadc->State, HAL_ADC_STATE_ERROR_CONFIG);
 8001092:	6aa5      	ldr	r5, [r4, #40]	@ 0x28
 8001094:	f045 0520 	orr.w	r5, r5, #32
 8001098:	62a5      	str	r5, [r4, #40]	@ 0x28
        SET_BIT(hadc->ErrorCode, HAL_ADC_ERROR_INTERNAL);
 800109a:	6ae5      	ldr	r5, [r4, #44]	@ 0x2c
 800109c:	f045 0501 	orr.w	r5, r5, #1
 80010a0:	62e5      	str	r5, [r4, #44]	@ 0x2c
      MODIFY_REG(hadc->Instance->CR2,
 80010a2:	f24f 75fd 	movw	r5, #63485	@ 0xf7fd
      MODIFY_REG(hadc->Instance->CR1,
 80010a6:	685e      	ldr	r6, [r3, #4]
      MODIFY_REG(hadc->Instance->CR2,
 80010a8:	f6cf 75e1 	movt	r5, #65505	@ 0xffe1
      MODIFY_REG(hadc->Instance->CR1,
 80010ac:	f426 4669 	bic.w	r6, r6, #59648	@ 0xe900
 80010b0:	4330      	orrs	r0, r6
 80010b2:	6058      	str	r0, [r3, #4]
      MODIFY_REG(hadc->Instance->CR2,
 80010b4:	6898      	ldr	r0, [r3, #8]
    if (ADC_CR1_SCAN_SET(hadc->Init.ScanConvMode) == ADC_SCAN_ENABLE)
 80010b6:	f5b1 7f80 	cmp.w	r1, #256	@ 0x100
      MODIFY_REG(hadc->Instance->CR2,
 80010ba:	ea05 0500 	and.w	r5, r5, r0
 80010be:	ea45 0502 	orr.w	r5, r5, r2
 80010c2:	609d      	str	r5, [r3, #8]
    if (ADC_CR1_SCAN_SET(hadc->Init.ScanConvMode) == ADC_SCAN_ENABLE)
 80010c4:	d18e      	bne.n	8000fe4 <HAL_ADC_Init+0x80>
 80010c6:	e7dc      	b.n	8001082 <HAL_ADC_Init+0x11e>
      ADC_CLEAR_ERRORCODE(hadc);
 80010c8:	2000      	movs	r0, #0
 80010ca:	62e0      	str	r0, [r4, #44]	@ 0x2c
      ADC_STATE_CLR_SET(hadc->State,
 80010cc:	6aa3      	ldr	r3, [r4, #40]	@ 0x28
 80010ce:	f023 0303 	bic.w	r3, r3, #3
 80010d2:	f043 0301 	orr.w	r3, r3, #1
 80010d6:	62a3      	str	r3, [r4, #40]	@ 0x28
}
 80010d8:	bd70      	pop	{r4, r5, r6, pc}
        SET_BIT(tmp_cr1, ADC_CR1_DISCEN                                            |
 80010da:	69a5      	ldr	r5, [r4, #24]
 80010dc:	3d01      	subs	r5, #1
 80010de:	ea40 3045 	orr.w	r0, r0, r5, lsl #13
 80010e2:	f440 6000 	orr.w	r0, r0, #2048	@ 0x800
 80010e6:	e7dc      	b.n	80010a2 <HAL_ADC_Init+0x13e>

080010e8 <HAL_ADC_Stop_DMA>:
{
 80010e8:	b538      	push	{r3, r4, r5, lr}
  __HAL_LOCK(hadc);
 80010ea:	f890 3024 	ldrb.w	r3, [r0, #36]	@ 0x24
 80010ee:	2b01      	cmp	r3, #1
 80010f0:	d032      	beq.n	8001158 <HAL_ADC_Stop_DMA+0x70>
 80010f2:	2201      	movs	r2, #1
  if (ADC_IS_ENABLE(hadc) != RESET)
 80010f4:	6803      	ldr	r3, [r0, #0]
  __HAL_LOCK(hadc);
 80010f6:	f880 2024 	strb.w	r2, [r0, #36]	@ 0x24
  if (ADC_IS_ENABLE(hadc) != RESET)
 80010fa:	689a      	ldr	r2, [r3, #8]
 80010fc:	4604      	mov	r4, r0
 80010fe:	07d0      	lsls	r0, r2, #31
 8001100:	d40a      	bmi.n	8001118 <HAL_ADC_Stop_DMA+0x30>
    CLEAR_BIT(hadc->Instance->CR2, ADC_CR2_DMA);
 8001102:	689a      	ldr	r2, [r3, #8]
    if (hadc->DMA_Handle->State == HAL_DMA_STATE_BUSY)
 8001104:	6a20      	ldr	r0, [r4, #32]
    CLEAR_BIT(hadc->Instance->CR2, ADC_CR2_DMA);
 8001106:	f422 7280 	bic.w	r2, r2, #256	@ 0x100
 800110a:	609a      	str	r2, [r3, #8]
    if (hadc->DMA_Handle->State == HAL_DMA_STATE_BUSY)
 800110c:	f890 3021 	ldrb.w	r3, [r0, #33]	@ 0x21
 8001110:	2b02      	cmp	r3, #2
 8001112:	d023      	beq.n	800115c <HAL_ADC_Stop_DMA+0x74>
  tmp_hal_status = ADC_ConversionStop_Disable(hadc);
 8001114:	2000      	movs	r0, #0
 8001116:	e01b      	b.n	8001150 <HAL_ADC_Stop_DMA+0x68>
    __HAL_ADC_DISABLE(hadc);
 8001118:	689a      	ldr	r2, [r3, #8]
 800111a:	f022 0201 	bic.w	r2, r2, #1
 800111e:	609a      	str	r2, [r3, #8]
    tickstart = HAL_GetTick();
 8001120:	f7ff ff06 	bl	8000f30 <HAL_GetTick>
 8001124:	4605      	mov	r5, r0
    while(ADC_IS_ENABLE(hadc) != RESET)
 8001126:	6823      	ldr	r3, [r4, #0]
 8001128:	689a      	ldr	r2, [r3, #8]
 800112a:	07d1      	lsls	r1, r2, #31
 800112c:	d5e9      	bpl.n	8001102 <HAL_ADC_Stop_DMA+0x1a>
      if((HAL_GetTick() - tickstart) > ADC_DISABLE_TIMEOUT)
 800112e:	f7ff feff 	bl	8000f30 <HAL_GetTick>
 8001132:	1b43      	subs	r3, r0, r5
 8001134:	2b02      	cmp	r3, #2
        if(ADC_IS_ENABLE(hadc) != RESET)
 8001136:	6823      	ldr	r3, [r4, #0]
      if((HAL_GetTick() - tickstart) > ADC_DISABLE_TIMEOUT)
 8001138:	d9f6      	bls.n	8001128 <HAL_ADC_Stop_DMA+0x40>
        if(ADC_IS_ENABLE(hadc) != RESET)
 800113a:	689a      	ldr	r2, [r3, #8]
 800113c:	07d2      	lsls	r2, r2, #31
 800113e:	d5f3      	bpl.n	8001128 <HAL_ADC_Stop_DMA+0x40>
  tmp_hal_status = ADC_ConversionStop_Disable(hadc);
 8001140:	2001      	movs	r0, #1
          SET_BIT(hadc->State, HAL_ADC_STATE_ERROR_INTERNAL);
 8001142:	6aa3      	ldr	r3, [r4, #40]	@ 0x28
 8001144:	f043 0310 	orr.w	r3, r3, #16
 8001148:	62a3      	str	r3, [r4, #40]	@ 0x28
          SET_BIT(hadc->ErrorCode, HAL_ADC_ERROR_INTERNAL);
 800114a:	6ae3      	ldr	r3, [r4, #44]	@ 0x2c
 800114c:	4303      	orrs	r3, r0
 800114e:	62e3      	str	r3, [r4, #44]	@ 0x2c
  __HAL_UNLOCK(hadc);
 8001150:	2300      	movs	r3, #0
 8001152:	f884 3024 	strb.w	r3, [r4, #36]	@ 0x24
}
 8001156:	bd38      	pop	{r3, r4, r5, pc}
  __HAL_LOCK(hadc);
 8001158:	2002      	movs	r0, #2
}
 800115a:	bd38      	pop	{r3, r4, r5, pc}
      tmp_hal_status = HAL_DMA_Abort(hadc->DMA_Handle);
 800115c:	f000 faba 	bl	80016d4 <HAL_DMA_Abort>
        ADC_STATE_CLR_SET(hadc->State,
 8001160:	6aa3      	ldr	r3, [r4, #40]	@ 0x28
      if (tmp_hal_status == HAL_OK)
 8001162:	b938      	cbnz	r0, 8001174 <HAL_ADC_Stop_DMA+0x8c>
        ADC_STATE_CLR_SET(hadc->State,
 8001164:	f423 5388 	bic.w	r3, r3, #4352	@ 0x1100
 8001168:	f023 0301 	bic.w	r3, r3, #1
 800116c:	f043 0301 	orr.w	r3, r3, #1
 8001170:	62a3      	str	r3, [r4, #40]	@ 0x28
 8001172:	e7cf      	b.n	8001114 <HAL_ADC_Stop_DMA+0x2c>
        SET_BIT(hadc->State, HAL_ADC_STATE_ERROR_DMA);
 8001174:	f043 0340 	orr.w	r3, r3, #64	@ 0x40
 8001178:	62a3      	str	r3, [r4, #40]	@ 0x28
 800117a:	e7e9      	b.n	8001150 <HAL_ADC_Stop_DMA+0x68>

0800117c <ADC_DMAConvCplt>:
  * @retval None
  */
void ADC_DMAConvCplt(DMA_HandleTypeDef *hdma)
{
  /* Retrieve ADC handle corresponding to current DMA handle */
  ADC_HandleTypeDef* hadc = ( ADC_HandleTypeDef* )((DMA_HandleTypeDef* )hdma)->Parent;
 800117c:	6a43      	ldr	r3, [r0, #36]	@ 0x24
 
  /* Update state machine on conversion status if not in error state */
  if (HAL_IS_BIT_CLR(hadc->State, HAL_ADC_STATE_ERROR_INTERNAL | HAL_ADC_STATE_ERROR_DMA))
 800117e:	6a9a      	ldr	r2, [r3, #40]	@ 0x28
 8001180:	f012 0f50 	tst.w	r2, #80	@ 0x50
 8001184:	d10f      	bne.n	80011a6 <ADC_DMAConvCplt+0x2a>
  {
    /* Update ADC state machine */
    SET_BIT(hadc->State, HAL_ADC_STATE_REG_EOC);
 8001186:	6a9a      	ldr	r2, [r3, #40]	@ 0x28
    /* Determine whether any further conversion upcoming on group regular     */
    /* by external trigger, continuous mode or scan sequence on going.        */
    /* Note: On STM32F1 devices, in case of sequencer enabled                 */
    /*       (several ranks selected), end of conversion flag is raised       */
    /*       at the end of the sequence.                                      */
    if(ADC_IS_SOFTWARE_START_REGULAR(hadc)        && 
 8001188:	6819      	ldr	r1, [r3, #0]
    SET_BIT(hadc->State, HAL_ADC_STATE_REG_EOC);
 800118a:	f442 7200 	orr.w	r2, r2, #512	@ 0x200
{
 800118e:	b510      	push	{r4, lr}
    SET_BIT(hadc->State, HAL_ADC_STATE_REG_EOC);
 8001190:	629a      	str	r2, [r3, #40]	@ 0x28
    if(ADC_IS_SOFTWARE_START_REGULAR(hadc)        && 
 8001192:	688a      	ldr	r2, [r1, #8]
 8001194:	f402 2260 	and.w	r2, r2, #917504	@ 0xe0000
 8001198:	f5b2 2f60 	cmp.w	r2, #917504	@ 0xe0000
 800119c:	d006      	beq.n	80011ac <ADC_DMAConvCplt+0x30>
    
    /* Conversion complete callback */
#if (USE_HAL_ADC_REGISTER_CALLBACKS == 1)
    hadc->ConvCpltCallback(hadc);
#else
    HAL_ADC_ConvCpltCallback(hadc);
 800119e:	4618      	mov	r0, r3
 80011a0:	f005 f8ba 	bl	8006318 <HAL_ADC_ConvCpltCallback>
  else
  {
    /* Call DMA error callback */
    hadc->DMA_Handle->XferErrorCallback(hdma);
  }
}
 80011a4:	bd10      	pop	{r4, pc}
    hadc->DMA_Handle->XferErrorCallback(hdma);
 80011a6:	6a1b      	ldr	r3, [r3, #32]
 80011a8:	6b1b      	ldr	r3, [r3, #48]	@ 0x30
 80011aa:	4718      	bx	r3
    if(ADC_IS_SOFTWARE_START_REGULAR(hadc)        && 
 80011ac:	7b1a      	ldrb	r2, [r3, #12]
 80011ae:	2a00      	cmp	r2, #0
 80011b0:	d1f5      	bne.n	800119e <ADC_DMAConvCplt+0x22>
      CLEAR_BIT(hadc->State, HAL_ADC_STATE_REG_BUSY);   
 80011b2:	6a9a      	ldr	r2, [r3, #40]	@ 0x28
 80011b4:	f422 7280 	bic.w	r2, r2, #256	@ 0x100
 80011b8:	629a      	str	r2, [r3, #40]	@ 0x28
      if (HAL_IS_BIT_CLR(hadc->State, HAL_ADC_STATE_INJ_BUSY))
 80011ba:	6a9a      	ldr	r2, [r3, #40]	@ 0x28
 80011bc:	04d2      	lsls	r2, r2, #19
 80011be:	d4ee      	bmi.n	800119e <ADC_DMAConvCplt+0x22>
        SET_BIT(hadc->State, HAL_ADC_STATE_READY);
 80011c0:	6a9a      	ldr	r2, [r3, #40]	@ 0x28
 80011c2:	f042 0201 	orr.w	r2, r2, #1
 80011c6:	629a      	str	r2, [r3, #40]	@ 0x28
 80011c8:	e7e9      	b.n	800119e <ADC_DMAConvCplt+0x22>
 80011ca:	bf00      	nop

080011cc <HAL_ADC_ConvHalfCpltCallback>:
__weak void HAL_ADC_ConvHalfCpltCallback(ADC_HandleTypeDef* hadc)
 80011cc:	4770      	bx	lr
 80011ce:	bf00      	nop

080011d0 <ADC_DMAHalfConvCplt>:
  * @brief  DMA half transfer complete callback. 
  * @param  hdma: pointer to DMA handle.
  * @retval None
  */
void ADC_DMAHalfConvCplt(DMA_HandleTypeDef *hdma)   
{
 80011d0:	b508      	push	{r3, lr}
  
  /* Half conversion callback */
#if (USE_HAL_ADC_REGISTER_CALLBACKS == 1)
    hadc->ConvHalfCpltCallback(hadc);
#else
  HAL_ADC_ConvHalfCpltCallback(hadc);
 80011d2:	6a40      	ldr	r0, [r0, #36]	@ 0x24
 80011d4:	f7ff fffa 	bl	80011cc <HAL_ADC_ConvHalfCpltCallback>
#endif /* USE_HAL_ADC_REGISTER_CALLBACKS */
}
 80011d8:	bd08      	pop	{r3, pc}
 80011da:	bf00      	nop

080011dc <HAL_ADC_ErrorCallback>:
__weak void HAL_ADC_ErrorCallback(ADC_HandleTypeDef *hadc)
 80011dc:	4770      	bx	lr
 80011de:	bf00      	nop

080011e0 <ADC_DMAError>:
  * @retval None
  */
void ADC_DMAError(DMA_HandleTypeDef *hdma)   
{
  /* Retrieve ADC handle corresponding to current DMA handle */
  ADC_HandleTypeDef* hadc = ( ADC_HandleTypeDef* )((DMA_HandleTypeDef* )hdma)->Parent;
 80011e0:	6a40      	ldr	r0, [r0, #36]	@ 0x24
{
 80011e2:	b508      	push	{r3, lr}
  
  /* Set ADC state */
  SET_BIT(hadc->State, HAL_ADC_STATE_ERROR_DMA);
 80011e4:	6a83      	ldr	r3, [r0, #40]	@ 0x28
 80011e6:	f043 0340 	orr.w	r3, r3, #64	@ 0x40
 80011ea:	6283      	str	r3, [r0, #40]	@ 0x28
  
  /* Set ADC error code to DMA error */
  SET_BIT(hadc->ErrorCode, HAL_ADC_ERROR_DMA);
 80011ec:	6ac3      	ldr	r3, [r0, #44]	@ 0x2c
 80011ee:	f043 0304 	orr.w	r3, r3, #4
 80011f2:	62c3      	str	r3, [r0, #44]	@ 0x2c
  
  /* Error callback */
#if (USE_HAL_ADC_REGISTER_CALLBACKS == 1)
  hadc->ErrorCallback(hadc);
#else
  HAL_ADC_ErrorCallback(hadc);
 80011f4:	f7ff fff2 	bl	80011dc <HAL_ADC_ErrorCallback>
#endif /* USE_HAL_ADC_REGISTER_CALLBACKS */
}
 80011f8:	bd08      	pop	{r3, pc}
 80011fa:	bf00      	nop

080011fc <HAL_ADC_ConfigChannel>:
  __IO uint32_t wait_loop_index = 0U;
 80011fc:	2200      	movs	r2, #0
{ 
 80011fe:	b530      	push	{r4, r5, lr}
 8001200:	b083      	sub	sp, #12
  __IO uint32_t wait_loop_index = 0U;
 8001202:	9201      	str	r2, [sp, #4]
  __HAL_LOCK(hadc);
 8001204:	f890 2024 	ldrb.w	r2, [r0, #36]	@ 0x24
 8001208:	2a01      	cmp	r2, #1
 800120a:	d069      	beq.n	80012e0 <HAL_ADC_ConfigChannel+0xe4>
 800120c:	4603      	mov	r3, r0
 800120e:	2001      	movs	r0, #1
 8001210:	f883 0024 	strb.w	r0, [r3, #36]	@ 0x24
  if (sConfig->Rank < 7U)
 8001214:	684c      	ldr	r4, [r1, #4]
    MODIFY_REG(hadc->Instance->SQR3                        ,
 8001216:	681a      	ldr	r2, [r3, #0]
  if (sConfig->Rank < 7U)
 8001218:	2c06      	cmp	r4, #6
    MODIFY_REG(hadc->Instance->SQR3                        ,
 800121a:	6808      	ldr	r0, [r1, #0]
 800121c:	eb04 0c84 	add.w	ip, r4, r4, lsl #2
  if (sConfig->Rank < 7U)
 8001220:	d932      	bls.n	8001288 <HAL_ADC_ConfigChannel+0x8c>
  else if (sConfig->Rank < 13U)
 8001222:	2c0c      	cmp	r4, #12
 8001224:	d84e      	bhi.n	80012c4 <HAL_ADC_ConfigChannel+0xc8>
    MODIFY_REG(hadc->Instance->SQR2                        ,
 8001226:	251f      	movs	r5, #31
 8001228:	6b14      	ldr	r4, [r2, #48]	@ 0x30
 800122a:	f1ac 0c23 	sub.w	ip, ip, #35	@ 0x23
 800122e:	fa05 f50c 	lsl.w	r5, r5, ip
 8001232:	fa00 fe0c 	lsl.w	lr, r0, ip
 8001236:	ea24 0405 	bic.w	r4, r4, r5
 800123a:	ea44 040e 	orr.w	r4, r4, lr
 800123e:	6314      	str	r4, [r2, #48]	@ 0x30
  if (sConfig->Channel >= ADC_CHANNEL_10)
 8001240:	2809      	cmp	r0, #9
    MODIFY_REG(hadc->Instance->SMPR1                             ,
 8001242:	6889      	ldr	r1, [r1, #8]
 8001244:	eb00 0440 	add.w	r4, r0, r0, lsl #1
  if (sConfig->Channel >= ADC_CHANNEL_10)
 8001248:	d930      	bls.n	80012ac <HAL_ADC_ConfigChannel+0xb0>
    MODIFY_REG(hadc->Instance->SMPR1                             ,
 800124a:	f04f 0c07 	mov.w	ip, #7
 800124e:	3c1e      	subs	r4, #30
 8001250:	40a1      	lsls	r1, r4
 8001252:	fa0c fc04 	lsl.w	ip, ip, r4
 8001256:	68d4      	ldr	r4, [r2, #12]
 8001258:	ea24 040c 	bic.w	r4, r4, ip
 800125c:	4321      	orrs	r1, r4
  if ((sConfig->Channel == ADC_CHANNEL_TEMPSENSOR) ||
 800125e:	f1a0 0410 	sub.w	r4, r0, #16
 8001262:	2c01      	cmp	r4, #1
    MODIFY_REG(hadc->Instance->SMPR1                             ,
 8001264:	60d1      	str	r1, [r2, #12]
  if ((sConfig->Channel == ADC_CHANNEL_TEMPSENSOR) ||
 8001266:	d82b      	bhi.n	80012c0 <HAL_ADC_ConfigChannel+0xc4>
    if (hadc->Instance == ADC1)
 8001268:	f44f 5110 	mov.w	r1, #9216	@ 0x2400
 800126c:	f2c4 0101 	movt	r1, #16385	@ 0x4001
 8001270:	428a      	cmp	r2, r1
 8001272:	d038      	beq.n	80012e6 <HAL_ADC_ConfigChannel+0xea>
      tmp_hal_status = HAL_ERROR;
 8001274:	2001      	movs	r0, #1
      SET_BIT(hadc->State, HAL_ADC_STATE_ERROR_CONFIG);
 8001276:	6a9a      	ldr	r2, [r3, #40]	@ 0x28
 8001278:	f042 0220 	orr.w	r2, r2, #32
 800127c:	629a      	str	r2, [r3, #40]	@ 0x28
  __HAL_UNLOCK(hadc);
 800127e:	2200      	movs	r2, #0
 8001280:	f883 2024 	strb.w	r2, [r3, #36]	@ 0x24
}
 8001284:	b003      	add	sp, #12
 8001286:	bd30      	pop	{r4, r5, pc}
    MODIFY_REG(hadc->Instance->SQR3                        ,
 8001288:	f04f 0e1f 	mov.w	lr, #31
 800128c:	6b54      	ldr	r4, [r2, #52]	@ 0x34
 800128e:	f1ac 0c05 	sub.w	ip, ip, #5
 8001292:	fa00 f50c 	lsl.w	r5, r0, ip
 8001296:	fa0e fc0c 	lsl.w	ip, lr, ip
 800129a:	ea24 040c 	bic.w	r4, r4, ip
 800129e:	432c      	orrs	r4, r5
  if (sConfig->Channel >= ADC_CHANNEL_10)
 80012a0:	2809      	cmp	r0, #9
    MODIFY_REG(hadc->Instance->SQR3                        ,
 80012a2:	6354      	str	r4, [r2, #52]	@ 0x34
    MODIFY_REG(hadc->Instance->SMPR1                             ,
 80012a4:	6889      	ldr	r1, [r1, #8]
 80012a6:	eb00 0440 	add.w	r4, r0, r0, lsl #1
  if (sConfig->Channel >= ADC_CHANNEL_10)
 80012aa:	d8ce      	bhi.n	800124a <HAL_ADC_ConfigChannel+0x4e>
    MODIFY_REG(hadc->Instance->SMPR2                             ,
 80012ac:	f04f 0c07 	mov.w	ip, #7
 80012b0:	6910      	ldr	r0, [r2, #16]
 80012b2:	40a1      	lsls	r1, r4
 80012b4:	fa0c f404 	lsl.w	r4, ip, r4
 80012b8:	ea20 0004 	bic.w	r0, r0, r4
 80012bc:	4301      	orrs	r1, r0
 80012be:	6111      	str	r1, [r2, #16]
  HAL_StatusTypeDef tmp_hal_status = HAL_OK;
 80012c0:	2000      	movs	r0, #0
 80012c2:	e7dc      	b.n	800127e <HAL_ADC_ConfigChannel+0x82>
    MODIFY_REG(hadc->Instance->SQR1                        ,
 80012c4:	251f      	movs	r5, #31
 80012c6:	6ad4      	ldr	r4, [r2, #44]	@ 0x2c
 80012c8:	f1ac 0c41 	sub.w	ip, ip, #65	@ 0x41
 80012cc:	fa05 f50c 	lsl.w	r5, r5, ip
 80012d0:	fa00 fe0c 	lsl.w	lr, r0, ip
 80012d4:	ea24 0405 	bic.w	r4, r4, r5
 80012d8:	ea44 040e 	orr.w	r4, r4, lr
 80012dc:	62d4      	str	r4, [r2, #44]	@ 0x2c
 80012de:	e7af      	b.n	8001240 <HAL_ADC_ConfigChannel+0x44>
  __HAL_LOCK(hadc);
 80012e0:	2002      	movs	r0, #2
}
 80012e2:	b003      	add	sp, #12
 80012e4:	bd30      	pop	{r4, r5, pc}
      if (READ_BIT(hadc->Instance->CR2, ADC_CR2_TSVREFE) == RESET)
 80012e6:	6891      	ldr	r1, [r2, #8]
 80012e8:	0209      	lsls	r1, r1, #8
 80012ea:	d4e9      	bmi.n	80012c0 <HAL_ADC_ConfigChannel+0xc4>
        SET_BIT(hadc->Instance->CR2, ADC_CR2_TSVREFE);
 80012ec:	6891      	ldr	r1, [r2, #8]
        if (sConfig->Channel == ADC_CHANNEL_TEMPSENSOR)
 80012ee:	2810      	cmp	r0, #16
        SET_BIT(hadc->Instance->CR2, ADC_CR2_TSVREFE);
 80012f0:	f441 0100 	orr.w	r1, r1, #8388608	@ 0x800000
 80012f4:	6091      	str	r1, [r2, #8]
        if (sConfig->Channel == ADC_CHANNEL_TEMPSENSOR)
 80012f6:	d1e3      	bne.n	80012c0 <HAL_ADC_ConfigChannel+0xc4>
          wait_loop_index = (ADC_TEMPSENSOR_DELAY_US * (SystemCoreClock / 1000000U));
 80012f8:	f240 0200 	movw	r2, #0
 80012fc:	f64d 6183 	movw	r1, #56963	@ 0xde83
 8001300:	f2c2 0200 	movt	r2, #8192	@ 0x2000
 8001304:	6812      	ldr	r2, [r2, #0]
 8001306:	f2c4 311b 	movt	r1, #17179	@ 0x431b
 800130a:	fba1 1202 	umull	r1, r2, r1, r2
 800130e:	0c92      	lsrs	r2, r2, #18
 8001310:	eb02 0282 	add.w	r2, r2, r2, lsl #2
 8001314:	0052      	lsls	r2, r2, #1
 8001316:	9201      	str	r2, [sp, #4]
          while(wait_loop_index != 0U)
 8001318:	9a01      	ldr	r2, [sp, #4]
 800131a:	2a00      	cmp	r2, #0
 800131c:	d0d0      	beq.n	80012c0 <HAL_ADC_ConfigChannel+0xc4>
            wait_loop_index--;
 800131e:	9a01      	ldr	r2, [sp, #4]
 8001320:	3a01      	subs	r2, #1
 8001322:	9201      	str	r2, [sp, #4]
          while(wait_loop_index != 0U)
 8001324:	9a01      	ldr	r2, [sp, #4]
 8001326:	2a00      	cmp	r2, #0
 8001328:	d1f9      	bne.n	800131e <HAL_ADC_ConfigChannel+0x122>
 800132a:	e7c9      	b.n	80012c0 <HAL_ADC_ConfigChannel+0xc4>

0800132c <ADC_Enable>:
  __IO uint32_t wait_loop_index = 0U;
 800132c:	2300      	movs	r3, #0
{
 800132e:	b530      	push	{r4, r5, lr}
 8001330:	b083      	sub	sp, #12
  __IO uint32_t wait_loop_index = 0U;
 8001332:	9301      	str	r3, [sp, #4]
  if (ADC_IS_ENABLE(hadc) == RESET)
 8001334:	6803      	ldr	r3, [r0, #0]
 8001336:	689a      	ldr	r2, [r3, #8]
 8001338:	07d1      	lsls	r1, r2, #31
 800133a:	d42d      	bmi.n	8001398 <ADC_Enable+0x6c>
    wait_loop_index = (ADC_STAB_DELAY_US * (SystemCoreClock / 1000000U));
 800133c:	f240 0100 	movw	r1, #0
 8001340:	f64d 6283 	movw	r2, #56963	@ 0xde83
 8001344:	4604      	mov	r4, r0
    __HAL_ADC_ENABLE(hadc);
 8001346:	6898      	ldr	r0, [r3, #8]
    wait_loop_index = (ADC_STAB_DELAY_US * (SystemCoreClock / 1000000U));
 8001348:	f2c2 0100 	movt	r1, #8192	@ 0x2000
    __HAL_ADC_ENABLE(hadc);
 800134c:	f040 0001 	orr.w	r0, r0, #1
 8001350:	6098      	str	r0, [r3, #8]
    wait_loop_index = (ADC_STAB_DELAY_US * (SystemCoreClock / 1000000U));
 8001352:	680b      	ldr	r3, [r1, #0]
 8001354:	f2c4 321b 	movt	r2, #17179	@ 0x431b
 8001358:	fba2 2303 	umull	r2, r3, r2, r3
 800135c:	0c9b      	lsrs	r3, r3, #18
 800135e:	9301      	str	r3, [sp, #4]
    while(wait_loop_index != 0U)
 8001360:	9b01      	ldr	r3, [sp, #4]
 8001362:	b12b      	cbz	r3, 8001370 <ADC_Enable+0x44>
      wait_loop_index--;
 8001364:	9b01      	ldr	r3, [sp, #4]
 8001366:	3b01      	subs	r3, #1
 8001368:	9301      	str	r3, [sp, #4]
    while(wait_loop_index != 0U)
 800136a:	9b01      	ldr	r3, [sp, #4]
 800136c:	2b00      	cmp	r3, #0
 800136e:	d1f9      	bne.n	8001364 <ADC_Enable+0x38>
    tickstart = HAL_GetTick();
 8001370:	f7ff fdde 	bl	8000f30 <HAL_GetTick>
    while(ADC_IS_ENABLE(hadc) == RESET)
 8001374:	6823      	ldr	r3, [r4, #0]
    tickstart = HAL_GetTick();
 8001376:	4605      	mov	r5, r0
    while(ADC_IS_ENABLE(hadc) == RESET)
 8001378:	689b      	ldr	r3, [r3, #8]
 800137a:	07da      	lsls	r2, r3, #31
 800137c:	d40c      	bmi.n	8001398 <ADC_Enable+0x6c>
      if((HAL_GetTick() - tickstart) > ADC_ENABLE_TIMEOUT)
 800137e:	f7ff fdd7 	bl	8000f30 <HAL_GetTick>
 8001382:	1b43      	subs	r3, r0, r5
 8001384:	2b02      	cmp	r3, #2
        if(ADC_IS_ENABLE(hadc) == RESET)
 8001386:	6823      	ldr	r3, [r4, #0]
      if((HAL_GetTick() - tickstart) > ADC_ENABLE_TIMEOUT)
 8001388:	d903      	bls.n	8001392 <ADC_Enable+0x66>
        if(ADC_IS_ENABLE(hadc) == RESET)
 800138a:	689a      	ldr	r2, [r3, #8]
 800138c:	f012 0201 	ands.w	r2, r2, #1
 8001390:	d005      	beq.n	800139e <ADC_Enable+0x72>
    while(ADC_IS_ENABLE(hadc) == RESET)
 8001392:	689b      	ldr	r3, [r3, #8]
 8001394:	07db      	lsls	r3, r3, #31
 8001396:	d5f2      	bpl.n	800137e <ADC_Enable+0x52>
  return HAL_OK;
 8001398:	2000      	movs	r0, #0
}
 800139a:	b003      	add	sp, #12
 800139c:	bd30      	pop	{r4, r5, pc}
          __HAL_UNLOCK(hadc);
 800139e:	2001      	movs	r0, #1
          SET_BIT(hadc->State, HAL_ADC_STATE_ERROR_INTERNAL);
 80013a0:	6aa3      	ldr	r3, [r4, #40]	@ 0x28
          __HAL_UNLOCK(hadc);
 80013a2:	f884 2024 	strb.w	r2, [r4, #36]	@ 0x24
          SET_BIT(hadc->State, HAL_ADC_STATE_ERROR_INTERNAL);
 80013a6:	f043 0310 	orr.w	r3, r3, #16
 80013aa:	62a3      	str	r3, [r4, #40]	@ 0x28
          SET_BIT(hadc->ErrorCode, HAL_ADC_ERROR_INTERNAL);
 80013ac:	6ae3      	ldr	r3, [r4, #44]	@ 0x2c
 80013ae:	4303      	orrs	r3, r0
 80013b0:	62e3      	str	r3, [r4, #44]	@ 0x2c
}
 80013b2:	b003      	add	sp, #12
 80013b4:	bd30      	pop	{r4, r5, pc}
 80013b6:	bf00      	nop

080013b8 <HAL_ADC_Start_DMA>:
{
 80013b8:	b5f8      	push	{r3, r4, r5, r6, r7, lr}
  if(ADC_MULTIMODE_IS_ENABLE(hadc) == RESET)
 80013ba:	f44f 5510 	mov.w	r5, #9216	@ 0x2400
{
 80013be:	460e      	mov	r6, r1
  if(ADC_MULTIMODE_IS_ENABLE(hadc) == RESET)
 80013c0:	6801      	ldr	r1, [r0, #0]
 80013c2:	f2c4 0501 	movt	r5, #16385	@ 0x4001
 80013c6:	42a9      	cmp	r1, r5
{
 80013c8:	4604      	mov	r4, r0
 80013ca:	4617      	mov	r7, r2
  if(ADC_MULTIMODE_IS_ENABLE(hadc) == RESET)
 80013cc:	d067      	beq.n	800149e <HAL_ADC_Start_DMA+0xe6>
 80013ce:	f44f 5020 	mov.w	r0, #10240	@ 0x2800
 80013d2:	f2c4 0001 	movt	r0, #16385	@ 0x4001
 80013d6:	4281      	cmp	r1, r0
 80013d8:	d061      	beq.n	800149e <HAL_ADC_Start_DMA+0xe6>
    __HAL_LOCK(hadc);
 80013da:	f894 3024 	ldrb.w	r3, [r4, #36]	@ 0x24
 80013de:	2b01      	cmp	r3, #1
 80013e0:	d06d      	beq.n	80014be <HAL_ADC_Start_DMA+0x106>
 80013e2:	2301      	movs	r3, #1
    tmp_hal_status = ADC_Enable(hadc);
 80013e4:	4620      	mov	r0, r4
    __HAL_LOCK(hadc);
 80013e6:	f884 3024 	strb.w	r3, [r4, #36]	@ 0x24
    tmp_hal_status = ADC_Enable(hadc);
 80013ea:	f7ff ff9f 	bl	800132c <ADC_Enable>
    if (tmp_hal_status == HAL_OK)
 80013ee:	4605      	mov	r5, r0
 80013f0:	2800      	cmp	r0, #0
 80013f2:	d15f      	bne.n	80014b4 <HAL_ADC_Start_DMA+0xfc>
    if (ADC_NONMULTIMODE_OR_MULTIMODEMASTER(hadc))
 80013f4:	f44f 5320 	mov.w	r3, #10240	@ 0x2800
      ADC_STATE_CLR_SET(hadc->State,
 80013f8:	6aa1      	ldr	r1, [r4, #40]	@ 0x28
    if (ADC_NONMULTIMODE_OR_MULTIMODEMASTER(hadc))
 80013fa:	f2c4 0301 	movt	r3, #16385	@ 0x4001
      ADC_STATE_CLR_SET(hadc->State,
 80013fe:	f421 6170 	bic.w	r1, r1, #3840	@ 0xf00
 8001402:	f021 0101 	bic.w	r1, r1, #1
 8001406:	f441 7180 	orr.w	r1, r1, #256	@ 0x100
 800140a:	62a1      	str	r1, [r4, #40]	@ 0x28
    if (ADC_NONMULTIMODE_OR_MULTIMODEMASTER(hadc))
 800140c:	6821      	ldr	r1, [r4, #0]
 800140e:	4299      	cmp	r1, r3
 8001410:	d058      	beq.n	80014c4 <HAL_ADC_Start_DMA+0x10c>
      CLEAR_BIT(hadc->State, HAL_ADC_STATE_MULTIMODE_SLAVE);
 8001412:	6aa3      	ldr	r3, [r4, #40]	@ 0x28
 8001414:	f423 1380 	bic.w	r3, r3, #1048576	@ 0x100000
 8001418:	62a3      	str	r3, [r4, #40]	@ 0x28
      if (READ_BIT(hadc->Instance->CR1, ADC_CR1_JAUTO) != RESET)
 800141a:	684b      	ldr	r3, [r1, #4]
 800141c:	055a      	lsls	r2, r3, #21
 800141e:	d505      	bpl.n	800142c <HAL_ADC_Start_DMA+0x74>
        ADC_STATE_CLR_SET(hadc->State, HAL_ADC_STATE_INJ_EOC, HAL_ADC_STATE_INJ_BUSY);
 8001420:	6aa3      	ldr	r3, [r4, #40]	@ 0x28
 8001422:	f423 5340 	bic.w	r3, r3, #12288	@ 0x3000
 8001426:	f443 5380 	orr.w	r3, r3, #4096	@ 0x1000
 800142a:	62a3      	str	r3, [r4, #40]	@ 0x28
      if (HAL_IS_BIT_SET(hadc->State, HAL_ADC_STATE_INJ_BUSY))
 800142c:	6aa3      	ldr	r3, [r4, #40]	@ 0x28
      __HAL_UNLOCK(hadc);
 800142e:	2000      	movs	r0, #0
      if (HAL_IS_BIT_SET(hadc->State, HAL_ADC_STATE_INJ_BUSY))
 8001430:	f413 5380 	ands.w	r3, r3, #4096	@ 0x1000
        CLEAR_BIT(hadc->ErrorCode, (HAL_ADC_ERROR_OVR | HAL_ADC_ERROR_DMA));         
 8001434:	bf18      	it	ne
 8001436:	6ae3      	ldrne	r3, [r4, #44]	@ 0x2c
      HAL_DMA_Start_IT(hadc->DMA_Handle, (uint32_t)&hadc->Instance->DR, (uint32_t)pData, Length);
 8001438:	4632      	mov	r2, r6
        CLEAR_BIT(hadc->ErrorCode, (HAL_ADC_ERROR_OVR | HAL_ADC_ERROR_DMA));         
 800143a:	bf18      	it	ne
 800143c:	f023 0306 	bicne.w	r3, r3, #6
        ADC_CLEAR_ERRORCODE(hadc);
 8001440:	62e3      	str	r3, [r4, #44]	@ 0x2c
      hadc->DMA_Handle->XferCpltCallback = ADC_DMAConvCplt;
 8001442:	f241 1c7d 	movw	ip, #4477	@ 0x117d
      HAL_DMA_Start_IT(hadc->DMA_Handle, (uint32_t)&hadc->Instance->DR, (uint32_t)pData, Length);
 8001446:	463b      	mov	r3, r7
      hadc->DMA_Handle->XferErrorCallback = ADC_DMAError;
 8001448:	f241 16e1 	movw	r6, #4577	@ 0x11e1
      hadc->DMA_Handle->XferHalfCpltCallback = ADC_DMAHalfConvCplt;
 800144c:	f241 17d1 	movw	r7, #4561	@ 0x11d1
      __HAL_ADC_CLEAR_FLAG(hadc, ADC_FLAG_EOC);
 8001450:	f06f 0e02 	mvn.w	lr, #2
      __HAL_UNLOCK(hadc);
 8001454:	f884 0024 	strb.w	r0, [r4, #36]	@ 0x24
      hadc->DMA_Handle->XferCpltCallback = ADC_DMAConvCplt;
 8001458:	6a20      	ldr	r0, [r4, #32]
 800145a:	f6c0 0c00 	movt	ip, #2048	@ 0x800
      hadc->DMA_Handle->XferHalfCpltCallback = ADC_DMAHalfConvCplt;
 800145e:	f6c0 0700 	movt	r7, #2048	@ 0x800
      hadc->DMA_Handle->XferErrorCallback = ADC_DMAError;
 8001462:	f6c0 0600 	movt	r6, #2048	@ 0x800
      hadc->DMA_Handle->XferHalfCpltCallback = ADC_DMAHalfConvCplt;
 8001466:	e9c0 c70a 	strd	ip, r7, [r0, #40]	@ 0x28
      hadc->DMA_Handle->XferErrorCallback = ADC_DMAError;
 800146a:	6306      	str	r6, [r0, #48]	@ 0x30
      __HAL_ADC_CLEAR_FLAG(hadc, ADC_FLAG_EOC);
 800146c:	f8c1 e000 	str.w	lr, [r1]
      SET_BIT(hadc->Instance->CR2, ADC_CR2_DMA);
 8001470:	688e      	ldr	r6, [r1, #8]
      HAL_DMA_Start_IT(hadc->DMA_Handle, (uint32_t)&hadc->Instance->DR, (uint32_t)pData, Length);
 8001472:	314c      	adds	r1, #76	@ 0x4c
      SET_BIT(hadc->Instance->CR2, ADC_CR2_DMA);
 8001474:	f446 7680 	orr.w	r6, r6, #256	@ 0x100
 8001478:	f841 6c44 	str.w	r6, [r1, #-68]
      HAL_DMA_Start_IT(hadc->DMA_Handle, (uint32_t)&hadc->Instance->DR, (uint32_t)pData, Length);
 800147c:	f000 f8e8 	bl	8001650 <HAL_DMA_Start_IT>
      if (ADC_IS_SOFTWARE_START_REGULAR(hadc))
 8001480:	6823      	ldr	r3, [r4, #0]
}
 8001482:	4628      	mov	r0, r5
      if (ADC_IS_SOFTWARE_START_REGULAR(hadc))
 8001484:	689a      	ldr	r2, [r3, #8]
 8001486:	f402 2260 	and.w	r2, r2, #917504	@ 0xe0000
 800148a:	f5b2 2f60 	cmp.w	r2, #917504	@ 0xe0000
        SET_BIT(hadc->Instance->CR2, (ADC_CR2_SWSTART | ADC_CR2_EXTTRIG));
 800148e:	689a      	ldr	r2, [r3, #8]
 8001490:	bf0c      	ite	eq
 8001492:	f442 02a0 	orreq.w	r2, r2, #5242880	@ 0x500000
        SET_BIT(hadc->Instance->CR2, ADC_CR2_EXTTRIG);
 8001496:	f442 1280 	orrne.w	r2, r2, #1048576	@ 0x100000
 800149a:	609a      	str	r2, [r3, #8]
}
 800149c:	bdf8      	pop	{r3, r4, r5, r6, r7, pc}
  if(ADC_MULTIMODE_IS_ENABLE(hadc) == RESET)
 800149e:	f44f 5310 	mov.w	r3, #9216	@ 0x2400
 80014a2:	f2c4 0301 	movt	r3, #16385	@ 0x4001
 80014a6:	685b      	ldr	r3, [r3, #4]
 80014a8:	f413 2f70 	tst.w	r3, #983040	@ 0xf0000
 80014ac:	d095      	beq.n	80013da <HAL_ADC_Start_DMA+0x22>
    tmp_hal_status = HAL_ERROR;
 80014ae:	2501      	movs	r5, #1
}
 80014b0:	4628      	mov	r0, r5
 80014b2:	bdf8      	pop	{r3, r4, r5, r6, r7, pc}
      __HAL_UNLOCK(hadc);
 80014b4:	2300      	movs	r3, #0
 80014b6:	f884 3024 	strb.w	r3, [r4, #36]	@ 0x24
}
 80014ba:	4628      	mov	r0, r5
 80014bc:	bdf8      	pop	{r3, r4, r5, r6, r7, pc}
    __HAL_LOCK(hadc);
 80014be:	2502      	movs	r5, #2
}
 80014c0:	4628      	mov	r0, r5
 80014c2:	bdf8      	pop	{r3, r4, r5, r6, r7, pc}
    if (ADC_NONMULTIMODE_OR_MULTIMODEMASTER(hadc))
 80014c4:	f44f 5310 	mov.w	r3, #9216	@ 0x2400
 80014c8:	f2c4 0301 	movt	r3, #16385	@ 0x4001
 80014cc:	685a      	ldr	r2, [r3, #4]
 80014ce:	f412 2f70 	tst.w	r2, #983040	@ 0xf0000
 80014d2:	d09e      	beq.n	8001412 <HAL_ADC_Start_DMA+0x5a>
      SET_BIT(hadc->State, HAL_ADC_STATE_MULTIMODE_SLAVE);
 80014d4:	6aa2      	ldr	r2, [r4, #40]	@ 0x28
 80014d6:	f442 1280 	orr.w	r2, r2, #1048576	@ 0x100000
 80014da:	62a2      	str	r2, [r4, #40]	@ 0x28
      if (ADC_MULTIMODE_AUTO_INJECTED(hadc))
 80014dc:	685b      	ldr	r3, [r3, #4]
 80014de:	055b      	lsls	r3, r3, #21
 80014e0:	d5a4      	bpl.n	800142c <HAL_ADC_Start_DMA+0x74>
 80014e2:	e79d      	b.n	8001420 <HAL_ADC_Start_DMA+0x68>

080014e4 <HAL_NVIC_SetPriorityGrouping>:
__STATIC_INLINE void __NVIC_SetPriorityGrouping(uint32_t PriorityGroup)
{
  uint32_t reg_value;
  uint32_t PriorityGroupTmp = (PriorityGroup & (uint32_t)0x07UL);             /* only values 0..7 are used          */

  reg_value  =  SCB->AIRCR;                                                   /* read old register configuration    */
 80014e4:	f44f 426d 	mov.w	r2, #60672	@ 0xed00
  reg_value &= ~((uint32_t)(SCB_AIRCR_VECTKEY_Msk | SCB_AIRCR_PRIGROUP_Msk)); /* clear bits to change               */
 80014e8:	f64f 0cff 	movw	ip, #63743	@ 0xf8ff
  reg_value  =  SCB->AIRCR;                                                   /* read old register configuration    */
 80014ec:	f2ce 0200 	movt	r2, #57344	@ 0xe000
 80014f0:	68d1      	ldr	r1, [r2, #12]
  reg_value  =  (reg_value                                   |
                ((uint32_t)0x5FAUL << SCB_AIRCR_VECTKEY_Pos) |
                (PriorityGroupTmp << SCB_AIRCR_PRIGROUP_Pos) );               /* Insert write key and priority group */
 80014f2:	0203      	lsls	r3, r0, #8
 80014f4:	f403 63e0 	and.w	r3, r3, #1792	@ 0x700
  reg_value &= ~((uint32_t)(SCB_AIRCR_VECTKEY_Msk | SCB_AIRCR_PRIGROUP_Msk)); /* clear bits to change               */
 80014f8:	ea01 010c 	and.w	r1, r1, ip
                ((uint32_t)0x5FAUL << SCB_AIRCR_VECTKEY_Pos) |
 80014fc:	430b      	orrs	r3, r1
  reg_value  =  (reg_value                                   |
 80014fe:	f043 63bf 	orr.w	r3, r3, #100139008	@ 0x5f80000
 8001502:	f443 3300 	orr.w	r3, r3, #131072	@ 0x20000
  SCB->AIRCR =  reg_value;
 8001506:	60d3      	str	r3, [r2, #12]
  /* Check the parameters */
  assert_param(IS_NVIC_PRIORITY_GROUP(PriorityGroup));
  
  /* Set the PRIGROUP[10:8] bits according to the PriorityGroup parameter value */
  NVIC_SetPriorityGrouping(PriorityGroup);
}
 8001508:	4770      	bx	lr
 800150a:	bf00      	nop

0800150c <HAL_NVIC_SetPriority>:
  \details Reads the priority grouping field from the NVIC Interrupt Controller.
  \return                Priority grouping field (SCB->AIRCR [10:8] PRIGROUP field).
 */
__STATIC_INLINE uint32_t __NVIC_GetPriorityGrouping(void)
{
  return ((uint32_t)((SCB->AIRCR & SCB_AIRCR_PRIGROUP_Msk) >> SCB_AIRCR_PRIGROUP_Pos));
 800150c:	f44f 436d 	mov.w	r3, #60672	@ 0xed00
 8001510:	f2ce 0300 	movt	r3, #57344	@ 0xe000
 8001514:	68db      	ldr	r3, [r3, #12]
  *         This parameter can be a value between 0 and 15
  *         A lower priority value indicates a higher priority.          
  * @retval None
  */
void HAL_NVIC_SetPriority(IRQn_Type IRQn, uint32_t PreemptPriority, uint32_t SubPriority)
{ 
 8001516:	b500      	push	{lr}
 8001518:	f3c3 2302 	ubfx	r3, r3, #8, #3
{
  uint32_t PriorityGroupTmp = (PriorityGroup & (uint32_t)0x07UL);   /* only values 0..7 are used          */
  uint32_t PreemptPriorityBits;
  uint32_t SubPriorityBits;

  PreemptPriorityBits = ((7UL - PriorityGroupTmp) > (uint32_t)(__NVIC_PRIO_BITS)) ? (uint32_t)(__NVIC_PRIO_BITS) : (uint32_t)(7UL - PriorityGroupTmp);
 800151c:	f1c3 0e07 	rsb	lr, r3, #7
 8001520:	f1be 0f04 	cmp.w	lr, #4
  SubPriorityBits     = ((PriorityGroupTmp + (uint32_t)(__NVIC_PRIO_BITS)) < (uint32_t)7UL) ? (uint32_t)0UL : (uint32_t)((PriorityGroupTmp - 7UL) + (uint32_t)(__NVIC_PRIO_BITS));
 8001524:	f103 0c04 	add.w	ip, r3, #4
  PreemptPriorityBits = ((7UL - PriorityGroupTmp) > (uint32_t)(__NVIC_PRIO_BITS)) ? (uint32_t)(__NVIC_PRIO_BITS) : (uint32_t)(7UL - PriorityGroupTmp);
 8001528:	bf28      	it	cs
 800152a:	f04f 0e04 	movcs.w	lr, #4
  SubPriorityBits     = ((PriorityGroupTmp + (uint32_t)(__NVIC_PRIO_BITS)) < (uint32_t)7UL) ? (uint32_t)0UL : (uint32_t)((PriorityGroupTmp - 7UL) + (uint32_t)(__NVIC_PRIO_BITS));
 800152e:	f1bc 0f06 	cmp.w	ip, #6
 8001532:	d91c      	bls.n	800156e <HAL_NVIC_SetPriority+0x62>
 8001534:	f1a3 0c03 	sub.w	ip, r3, #3

  return (
           ((PreemptPriority & (uint32_t)((1UL << (PreemptPriorityBits)) - 1UL)) << SubPriorityBits) |
           ((SubPriority     & (uint32_t)((1UL << (SubPriorityBits    )) - 1UL)))
 8001538:	f04f 33ff 	mov.w	r3, #4294967295
 800153c:	fa03 f30c 	lsl.w	r3, r3, ip
 8001540:	ea22 0203 	bic.w	r2, r2, r3
           ((PreemptPriority & (uint32_t)((1UL << (PreemptPriorityBits)) - 1UL)) << SubPriorityBits) |
 8001544:	f04f 33ff 	mov.w	r3, #4294967295
 8001548:	fa03 f30e 	lsl.w	r3, r3, lr
 800154c:	ea21 0303 	bic.w	r3, r1, r3
 8001550:	fa03 f30c 	lsl.w	r3, r3, ip
 8001554:	4313      	orrs	r3, r2
    NVIC->IP[((uint32_t)IRQn)]               = (uint8_t)((priority << (8U - __NVIC_PRIO_BITS)) & (uint32_t)0xFFUL);
 8001556:	011b      	lsls	r3, r3, #4
  if ((int32_t)(IRQn) >= 0)
 8001558:	2800      	cmp	r0, #0
    NVIC->IP[((uint32_t)IRQn)]               = (uint8_t)((priority << (8U - __NVIC_PRIO_BITS)) & (uint32_t)0xFFUL);
 800155a:	b2db      	uxtb	r3, r3
  if ((int32_t)(IRQn) >= 0)
 800155c:	db0a      	blt.n	8001574 <HAL_NVIC_SetPriority+0x68>
    NVIC->IP[((uint32_t)IRQn)]               = (uint8_t)((priority << (8U - __NVIC_PRIO_BITS)) & (uint32_t)0xFFUL);
 800155e:	f100 4060 	add.w	r0, r0, #3758096384	@ 0xe0000000
 8001562:	f500 4061 	add.w	r0, r0, #57600	@ 0xe100
 8001566:	f880 3300 	strb.w	r3, [r0, #768]	@ 0x300
  assert_param(IS_NVIC_PREEMPTION_PRIORITY(PreemptPriority));
  
  prioritygroup = NVIC_GetPriorityGrouping();
  
  NVIC_SetPriority(IRQn, NVIC_EncodePriority(prioritygroup, PreemptPriority, SubPriority));
}
 800156a:	f85d fb04 	ldr.w	pc, [sp], #4
 800156e:	2200      	movs	r2, #0
  SubPriorityBits     = ((PriorityGroupTmp + (uint32_t)(__NVIC_PRIO_BITS)) < (uint32_t)7UL) ? (uint32_t)0UL : (uint32_t)((PriorityGroupTmp - 7UL) + (uint32_t)(__NVIC_PRIO_BITS));
 8001570:	4694      	mov	ip, r2
 8001572:	e7e7      	b.n	8001544 <HAL_NVIC_SetPriority+0x38>
    SCB->SHP[(((uint32_t)IRQn) & 0xFUL)-4UL] = (uint8_t)((priority << (8U - __NVIC_PRIO_BITS)) & (uint32_t)0xFFUL);
 8001574:	f64e 42fc 	movw	r2, #60668	@ 0xecfc
 8001578:	f000 000f 	and.w	r0, r0, #15
 800157c:	f2ce 0200 	movt	r2, #57344	@ 0xe000
 8001580:	4402      	add	r2, r0
 8001582:	7613      	strb	r3, [r2, #24]
 8001584:	f85d fb04 	ldr.w	pc, [sp], #4

08001588 <HAL_NVIC_EnableIRQ>:
  if ((int32_t)(IRQn) >= 0)
 8001588:	2800      	cmp	r0, #0
 800158a:	db0a      	blt.n	80015a2 <HAL_NVIC_EnableIRQ+0x1a>
    NVIC->ISER[(((uint32_t)IRQn) >> 5UL)] = (uint32_t)(1UL << (((uint32_t)IRQn) & 0x1FUL));
 800158c:	2301      	movs	r3, #1
 800158e:	f44f 4261 	mov.w	r2, #57600	@ 0xe100
 8001592:	f000 011f 	and.w	r1, r0, #31
 8001596:	408b      	lsls	r3, r1
 8001598:	0940      	lsrs	r0, r0, #5
 800159a:	f2ce 0200 	movt	r2, #57344	@ 0xe000
 800159e:	f842 3020 	str.w	r3, [r2, r0, lsl #2]
  /* Check the parameters */
  assert_param(IS_NVIC_DEVICE_IRQ(IRQn));

  /* Enable interrupt */
  NVIC_EnableIRQ(IRQn);
}
 80015a2:	4770      	bx	lr

080015a4 <HAL_SYSTICK_Config>:
           function <b>SysTick_Config</b> is not included. In this case, the file <b><i>device</i>.h</b>
           must contain a vendor-specific implementation of this function.
 */
__STATIC_INLINE uint32_t SysTick_Config(uint32_t ticks)
{
  if ((ticks - 1UL) > SysTick_LOAD_RELOAD_Msk)
 80015a4:	3801      	subs	r0, #1
 80015a6:	f1b0 7f80 	cmp.w	r0, #16777216	@ 0x1000000
 80015aa:	d301      	bcc.n	80015b0 <HAL_SYSTICK_Config+0xc>
  {
    return (1UL);                                                   /* Reload value impossible */
 80015ac:	2001      	movs	r0, #1
  *                  - 1  Function failed.
  */
uint32_t HAL_SYSTICK_Config(uint32_t TicksNumb)
{
   return SysTick_Config(TicksNumb);
}
 80015ae:	4770      	bx	lr
    SCB->SHP[(((uint32_t)IRQn) & 0xFUL)-4UL] = (uint8_t)((priority << (8U - __NVIC_PRIO_BITS)) & (uint32_t)0xFFUL);
 80015b0:	f44f 416d 	mov.w	r1, #60672	@ 0xed00
  }

  SysTick->LOAD  = (uint32_t)(ticks - 1UL);                         /* set reload register */
 80015b4:	f04f 23e0 	mov.w	r3, #3758153728	@ 0xe000e000
    SCB->SHP[(((uint32_t)IRQn) & 0xFUL)-4UL] = (uint8_t)((priority << (8U - __NVIC_PRIO_BITS)) & (uint32_t)0xFFUL);
 80015b8:	f04f 0cf0 	mov.w	ip, #240	@ 0xf0
{
 80015bc:	b410      	push	{r4}
  NVIC_SetPriority (SysTick_IRQn, (1UL << __NVIC_PRIO_BITS) - 1UL); /* set Priority for Systick Interrupt */
  SysTick->VAL   = 0UL;                                             /* Load the SysTick Counter Value */
 80015be:	2200      	movs	r2, #0
  SysTick->CTRL  = SysTick_CTRL_CLKSOURCE_Msk |
 80015c0:	2407      	movs	r4, #7
    SCB->SHP[(((uint32_t)IRQn) & 0xFUL)-4UL] = (uint8_t)((priority << (8U - __NVIC_PRIO_BITS)) & (uint32_t)0xFFUL);
 80015c2:	f2ce 0100 	movt	r1, #57344	@ 0xe000
  SysTick->LOAD  = (uint32_t)(ticks - 1UL);                         /* set reload register */
 80015c6:	6158      	str	r0, [r3, #20]
    SCB->SHP[(((uint32_t)IRQn) & 0xFUL)-4UL] = (uint8_t)((priority << (8U - __NVIC_PRIO_BITS)) & (uint32_t)0xFFUL);
 80015c8:	f881 c023 	strb.w	ip, [r1, #35]	@ 0x23
                   SysTick_CTRL_TICKINT_Msk   |
                   SysTick_CTRL_ENABLE_Msk;                         /* Enable SysTick IRQ and SysTick Timer */
  return (0UL);                                                     /* Function successful */
 80015cc:	4610      	mov	r0, r2
  SysTick->VAL   = 0UL;                                             /* Load the SysTick Counter Value */
 80015ce:	619a      	str	r2, [r3, #24]
  SysTick->CTRL  = SysTick_CTRL_CLKSOURCE_Msk |
 80015d0:	611c      	str	r4, [r3, #16]
}
 80015d2:	bc10      	pop	{r4}
 80015d4:	4770      	bx	lr
 80015d6:	bf00      	nop

080015d8 <HAL_DMA_Init>:
HAL_StatusTypeDef HAL_DMA_Init(DMA_HandleTypeDef *hdma)
{
  uint32_t tmp = 0U;

  /* Check the DMA handle allocation */
  if(hdma == NULL)
 80015d8:	2800      	cmp	r0, #0
 80015da:	d036      	beq.n	800164a <HAL_DMA_Init+0x72>
    hdma->ChannelIndex = (((uint32_t)hdma->Instance - (uint32_t)DMA2_Channel1) / ((uint32_t)DMA2_Channel2 - (uint32_t)DMA2_Channel1)) << 2;
    hdma->DmaBaseAddress = DMA2;
  }
#else
  /* DMA1 */
  hdma->ChannelIndex = (((uint32_t)hdma->Instance - (uint32_t)DMA1_Channel1) / ((uint32_t)DMA1_Channel2 - (uint32_t)DMA1_Channel1)) << 2;
 80015dc:	f64f 72f8 	movw	r2, #65528	@ 0xfff8
 80015e0:	f64c 41cd 	movw	r1, #52429	@ 0xcccd
 80015e4:	4603      	mov	r3, r0
{
 80015e6:	b430      	push	{r4, r5}
  hdma->DmaBaseAddress = DMA1;
#endif /* DMA2 */

  /* Change DMA peripheral state */
  hdma->State = HAL_DMA_STATE_BUSY;
 80015e8:	2502      	movs	r5, #2
  hdma->DmaBaseAddress = DMA1;
 80015ea:	2400      	movs	r4, #0
  hdma->ChannelIndex = (((uint32_t)hdma->Instance - (uint32_t)DMA1_Channel1) / ((uint32_t)DMA1_Channel2 - (uint32_t)DMA1_Channel1)) << 2;
 80015ec:	6800      	ldr	r0, [r0, #0]
 80015ee:	f6cb 72fd 	movt	r2, #49149	@ 0xbffd
 80015f2:	4402      	add	r2, r0
 80015f4:	f6cc 41cc 	movt	r1, #52428	@ 0xcccc
 80015f8:	fba1 2102 	umull	r2, r1, r1, r2
 80015fc:	0909      	lsrs	r1, r1, #4
  hdma->State = HAL_DMA_STATE_BUSY;
 80015fe:	f883 5021 	strb.w	r5, [r3, #33]	@ 0x21
  hdma->DmaBaseAddress = DMA1;
 8001602:	f2c4 0402 	movt	r4, #16386	@ 0x4002
  hdma->ChannelIndex = (((uint32_t)hdma->Instance - (uint32_t)DMA1_Channel1) / ((uint32_t)DMA1_Channel2 - (uint32_t)DMA1_Channel1)) << 2;
 8001606:	0089      	lsls	r1, r1, #2

  /* Get the CR register value */
  tmp = hdma->Instance->CCR;
 8001608:	6805      	ldr	r5, [r0, #0]
  hdma->DmaBaseAddress = DMA1;
 800160a:	e9c3 410f 	strd	r4, r1, [r3, #60]	@ 0x3c

  /* Write to DMA Channel CR register */
  hdma->Instance->CCR = tmp;

  /* Initialise the error code */
  hdma->ErrorCode = HAL_DMA_ERROR_NONE;
 800160e:	2100      	movs	r1, #0

  /* Initialize the DMA state*/
  hdma->State = HAL_DMA_STATE_READY;
 8001610:	2401      	movs	r4, #1
  tmp |=  hdma->Init.Direction        |
 8001612:	685a      	ldr	r2, [r3, #4]
  tmp &= ((uint32_t)~(DMA_CCR_PL    | DMA_CCR_MSIZE  | DMA_CCR_PSIZE  | \
 8001614:	f425 5c7f 	bic.w	ip, r5, #16320	@ 0x3fc0
  tmp |=  hdma->Init.Direction        |
 8001618:	689d      	ldr	r5, [r3, #8]
  tmp &= ((uint32_t)~(DMA_CCR_PL    | DMA_CCR_MSIZE  | DMA_CCR_PSIZE  | \
 800161a:	f02c 0c30 	bic.w	ip, ip, #48	@ 0x30
  tmp |=  hdma->Init.Direction        |
 800161e:	432a      	orrs	r2, r5
          hdma->Init.PeriphInc           | hdma->Init.MemInc           |
 8001620:	68dd      	ldr	r5, [r3, #12]
 8001622:	432a      	orrs	r2, r5
 8001624:	691d      	ldr	r5, [r3, #16]
 8001626:	432a      	orrs	r2, r5
          hdma->Init.PeriphDataAlignment | hdma->Init.MemDataAlignment |
 8001628:	695d      	ldr	r5, [r3, #20]
 800162a:	432a      	orrs	r2, r5
 800162c:	699d      	ldr	r5, [r3, #24]
 800162e:	432a      	orrs	r2, r5
          hdma->Init.Mode                | hdma->Init.Priority;
 8001630:	69dd      	ldr	r5, [r3, #28]
 8001632:	432a      	orrs	r2, r5
  tmp |=  hdma->Init.Direction        |
 8001634:	ea42 020c 	orr.w	r2, r2, ip
  hdma->Instance->CCR = tmp;
 8001638:	6002      	str	r2, [r0, #0]
  hdma->ErrorCode = HAL_DMA_ERROR_NONE;
 800163a:	6399      	str	r1, [r3, #56]	@ 0x38
  /* Allocate lock resource and initialize it */
  hdma->Lock = HAL_UNLOCKED;
 800163c:	f883 1020 	strb.w	r1, [r3, #32]
  hdma->State = HAL_DMA_STATE_READY;
 8001640:	f883 4021 	strb.w	r4, [r3, #33]	@ 0x21

  return HAL_OK;
 8001644:	4608      	mov	r0, r1
}
 8001646:	bc30      	pop	{r4, r5}
 8001648:	4770      	bx	lr
    return HAL_ERROR;
 800164a:	2001      	movs	r0, #1
}
 800164c:	4770      	bx	lr
 800164e:	bf00      	nop

08001650 <HAL_DMA_Start_IT>:
  * @param  DstAddress: The destination memory Buffer address
  * @param  DataLength: The length of data to be transferred from source to destination
  * @retval HAL status
  */
HAL_StatusTypeDef HAL_DMA_Start_IT(DMA_HandleTypeDef *hdma, uint32_t SrcAddress, uint32_t DstAddress, uint32_t DataLength)
{
 8001650:	b470      	push	{r4, r5, r6}

  /* Check the parameters */
  assert_param(IS_DMA_BUFFER_SIZE(DataLength));

  /* Process locked */
  __HAL_LOCK(hdma);
 8001652:	f890 4020 	ldrb.w	r4, [r0, #32]
 8001656:	2c01      	cmp	r4, #1
 8001658:	d00b      	beq.n	8001672 <HAL_DMA_Start_IT+0x22>
 800165a:	2501      	movs	r5, #1
  
  if(HAL_DMA_STATE_READY == hdma->State)
 800165c:	f890 4021 	ldrb.w	r4, [r0, #33]	@ 0x21
  __HAL_LOCK(hdma);
 8001660:	f880 5020 	strb.w	r5, [r0, #32]
  if(HAL_DMA_STATE_READY == hdma->State)
 8001664:	42ac      	cmp	r4, r5
 8001666:	fa5f fc84 	uxtb.w	ip, r4
 800166a:	d005      	beq.n	8001678 <HAL_DMA_Start_IT+0x28>
    __HAL_DMA_ENABLE(hdma);
  }
  else
  {      
    /* Process Unlocked */
    __HAL_UNLOCK(hdma); 
 800166c:	2300      	movs	r3, #0
 800166e:	f880 3020 	strb.w	r3, [r0, #32]
  __HAL_LOCK(hdma);
 8001672:	2002      	movs	r0, #2

    /* Remain BUSY */
    status = HAL_BUSY;
  }    
  return status;
}
 8001674:	bc70      	pop	{r4, r5, r6}
 8001676:	4770      	bx	lr
    hdma->State = HAL_DMA_STATE_BUSY;
 8001678:	2402      	movs	r4, #2
 800167a:	f880 4021 	strb.w	r4, [r0, #33]	@ 0x21
    hdma->ErrorCode = HAL_DMA_ERROR_NONE;
 800167e:	2400      	movs	r4, #0
 8001680:	6384      	str	r4, [r0, #56]	@ 0x38
    __HAL_DMA_DISABLE(hdma);
 8001682:	6804      	ldr	r4, [r0, #0]
  * @retval HAL status
  */
static void DMA_SetConfig(DMA_HandleTypeDef *hdma, uint32_t SrcAddress, uint32_t DstAddress, uint32_t DataLength)
{
  /* Clear all flags */
  hdma->DmaBaseAddress->IFCR = (DMA_ISR_GIF1 << hdma->ChannelIndex);
 8001684:	6c05      	ldr	r5, [r0, #64]	@ 0x40
    __HAL_DMA_DISABLE(hdma);
 8001686:	6826      	ldr	r6, [r4, #0]
  hdma->DmaBaseAddress->IFCR = (DMA_ISR_GIF1 << hdma->ChannelIndex);
 8001688:	fa0c f505 	lsl.w	r5, ip, r5
    __HAL_DMA_DISABLE(hdma);
 800168c:	f026 0601 	bic.w	r6, r6, #1
 8001690:	6026      	str	r6, [r4, #0]
  hdma->DmaBaseAddress->IFCR = (DMA_ISR_GIF1 << hdma->ChannelIndex);
 8001692:	6bc6      	ldr	r6, [r0, #60]	@ 0x3c
 8001694:	6075      	str	r5, [r6, #4]

  /* Configure DMA Channel data length */
  hdma->Instance->CNDTR = DataLength;
 8001696:	6063      	str	r3, [r4, #4]

  /* Memory to Peripheral */
  if((hdma->Init.Direction) == DMA_MEMORY_TO_PERIPH)
 8001698:	6843      	ldr	r3, [r0, #4]
 800169a:	2b10      	cmp	r3, #16
    if(NULL != hdma->XferHalfCpltCallback)
 800169c:	6ac3      	ldr	r3, [r0, #44]	@ 0x2c
  {
    /* Configure DMA Channel destination address */
    hdma->Instance->CPAR = DstAddress;
 800169e:	bf0b      	itete	eq
 80016a0:	60a2      	streq	r2, [r4, #8]
  }
  /* Peripheral to Memory */
  else
  {
    /* Configure DMA Channel source address */
    hdma->Instance->CPAR = SrcAddress;
 80016a2:	60a1      	strne	r1, [r4, #8]
    hdma->Instance->CMAR = SrcAddress;
 80016a4:	60e1      	streq	r1, [r4, #12]

    /* Configure DMA Channel destination address */
    hdma->Instance->CMAR = DstAddress;
 80016a6:	60e2      	strne	r2, [r4, #12]
    if(NULL != hdma->XferHalfCpltCallback)
 80016a8:	b153      	cbz	r3, 80016c0 <HAL_DMA_Start_IT+0x70>
      __HAL_DMA_ENABLE_IT(hdma, (DMA_IT_TC | DMA_IT_HT | DMA_IT_TE));
 80016aa:	6823      	ldr	r3, [r4, #0]
 80016ac:	f043 030e 	orr.w	r3, r3, #14
 80016b0:	6023      	str	r3, [r4, #0]
    __HAL_DMA_ENABLE(hdma);
 80016b2:	6823      	ldr	r3, [r4, #0]
  HAL_StatusTypeDef status = HAL_OK;
 80016b4:	2000      	movs	r0, #0
    __HAL_DMA_ENABLE(hdma);
 80016b6:	f043 0301 	orr.w	r3, r3, #1
 80016ba:	6023      	str	r3, [r4, #0]
}
 80016bc:	bc70      	pop	{r4, r5, r6}
 80016be:	4770      	bx	lr
      __HAL_DMA_DISABLE_IT(hdma, DMA_IT_HT);
 80016c0:	6823      	ldr	r3, [r4, #0]
 80016c2:	f023 0304 	bic.w	r3, r3, #4
 80016c6:	6023      	str	r3, [r4, #0]
      __HAL_DMA_ENABLE_IT(hdma, (DMA_IT_TC | DMA_IT_TE));
 80016c8:	6823      	ldr	r3, [r4, #0]
 80016ca:	f043 030a 	orr.w	r3, r3, #10
 80016ce:	6023      	str	r3, [r4, #0]
 80016d0:	e7ef      	b.n	80016b2 <HAL_DMA_Start_IT+0x62>
 80016d2:	bf00      	nop

080016d4 <HAL_DMA_Abort>:
  if(hdma->State != HAL_DMA_STATE_BUSY)
 80016d4:	f890 2021 	ldrb.w	r2, [r0, #33]	@ 0x21
{
 80016d8:	4603      	mov	r3, r0
  if(hdma->State != HAL_DMA_STATE_BUSY)
 80016da:	2a02      	cmp	r2, #2
 80016dc:	d006      	beq.n	80016ec <HAL_DMA_Abort+0x18>
    hdma->ErrorCode = HAL_DMA_ERROR_NO_XFER;
 80016de:	2204      	movs	r2, #4
 80016e0:	639a      	str	r2, [r3, #56]	@ 0x38
    __HAL_UNLOCK(hdma);
 80016e2:	2200      	movs	r2, #0
    return HAL_ERROR;
 80016e4:	2001      	movs	r0, #1
    __HAL_UNLOCK(hdma);
 80016e6:	f883 2020 	strb.w	r2, [r3, #32]
}
 80016ea:	4770      	bx	lr
    hdma->DmaBaseAddress->IFCR = (DMA_ISR_GIF1 << hdma->ChannelIndex);
 80016ec:	f04f 0c01 	mov.w	ip, #1
    __HAL_DMA_DISABLE_IT(hdma, (DMA_IT_TC | DMA_IT_HT | DMA_IT_TE));
 80016f0:	681a      	ldr	r2, [r3, #0]
  return status; 
 80016f2:	2000      	movs	r0, #0
    __HAL_DMA_DISABLE_IT(hdma, (DMA_IT_TC | DMA_IT_HT | DMA_IT_TE));
 80016f4:	6811      	ldr	r1, [r2, #0]
 80016f6:	f021 010e 	bic.w	r1, r1, #14
 80016fa:	6011      	str	r1, [r2, #0]
    __HAL_DMA_DISABLE(hdma);
 80016fc:	6811      	ldr	r1, [r2, #0]
 80016fe:	f021 0101 	bic.w	r1, r1, #1
 8001702:	6011      	str	r1, [r2, #0]
    hdma->DmaBaseAddress->IFCR = (DMA_ISR_GIF1 << hdma->ChannelIndex);
 8001704:	e9d3 120f 	ldrd	r1, r2, [r3, #60]	@ 0x3c
 8001708:	fa0c f202 	lsl.w	r2, ip, r2
 800170c:	604a      	str	r2, [r1, #4]
    __HAL_UNLOCK(hdma);
 800170e:	2200      	movs	r2, #0
  hdma->State = HAL_DMA_STATE_READY;
 8001710:	f883 c021 	strb.w	ip, [r3, #33]	@ 0x21
    __HAL_UNLOCK(hdma);
 8001714:	f883 2020 	strb.w	r2, [r3, #32]
}
 8001718:	4770      	bx	lr
 800171a:	bf00      	nop

0800171c <HAL_DMA_IRQHandler>:
  if (((flag_it & (DMA_FLAG_HT1 << hdma->ChannelIndex)) != RESET) && ((source_it & DMA_IT_HT) != RESET))
 800171c:	2204      	movs	r2, #4
{
 800171e:	b470      	push	{r4, r5, r6}
  uint32_t flag_it = hdma->DmaBaseAddress->ISR;
 8001720:	6bc6      	ldr	r6, [r0, #60]	@ 0x3c
  if (((flag_it & (DMA_FLAG_HT1 << hdma->ChannelIndex)) != RESET) && ((source_it & DMA_IT_HT) != RESET))
 8001722:	6c01      	ldr	r1, [r0, #64]	@ 0x40
  uint32_t flag_it = hdma->DmaBaseAddress->ISR;
 8001724:	6834      	ldr	r4, [r6, #0]
  uint32_t source_it = hdma->Instance->CCR;
 8001726:	6803      	ldr	r3, [r0, #0]
  if (((flag_it & (DMA_FLAG_HT1 << hdma->ChannelIndex)) != RESET) && ((source_it & DMA_IT_HT) != RESET))
 8001728:	408a      	lsls	r2, r1
 800172a:	4222      	tst	r2, r4
  uint32_t source_it = hdma->Instance->CCR;
 800172c:	681d      	ldr	r5, [r3, #0]
  if (((flag_it & (DMA_FLAG_HT1 << hdma->ChannelIndex)) != RESET) && ((source_it & DMA_IT_HT) != RESET))
 800172e:	d02d      	beq.n	800178c <HAL_DMA_IRQHandler+0x70>
 8001730:	076a      	lsls	r2, r5, #29
 8001732:	d52b      	bpl.n	800178c <HAL_DMA_IRQHandler+0x70>
    if((hdma->Instance->CCR & DMA_CCR_CIRC) == 0U)
 8001734:	681a      	ldr	r2, [r3, #0]
 8001736:	0691      	lsls	r1, r2, #26
 8001738:	d403      	bmi.n	8001742 <HAL_DMA_IRQHandler+0x26>
      __HAL_DMA_DISABLE_IT(hdma, DMA_IT_HT);
 800173a:	681a      	ldr	r2, [r3, #0]
 800173c:	f022 0204 	bic.w	r2, r2, #4
 8001740:	601a      	str	r2, [r3, #0]
    __HAL_DMA_CLEAR_FLAG(hdma, __HAL_DMA_GET_HT_FLAG_INDEX(hdma));
 8001742:	2208      	movs	r2, #8
 8001744:	f2c4 0202 	movt	r2, #16386	@ 0x4002
 8001748:	4293      	cmp	r3, r2
 800174a:	d06a      	beq.n	8001822 <HAL_DMA_IRQHandler+0x106>
 800174c:	221c      	movs	r2, #28
 800174e:	f2c4 0202 	movt	r2, #16386	@ 0x4002
 8001752:	4293      	cmp	r3, r2
 8001754:	d07c      	beq.n	8001850 <HAL_DMA_IRQHandler+0x134>
 8001756:	2230      	movs	r2, #48	@ 0x30
 8001758:	f2c4 0202 	movt	r2, #16386	@ 0x4002
 800175c:	4293      	cmp	r3, r2
 800175e:	f000 8081 	beq.w	8001864 <HAL_DMA_IRQHandler+0x148>
 8001762:	2244      	movs	r2, #68	@ 0x44
 8001764:	f2c4 0202 	movt	r2, #16386	@ 0x4002
 8001768:	4293      	cmp	r3, r2
 800176a:	f000 8081 	beq.w	8001870 <HAL_DMA_IRQHandler+0x154>
 800176e:	2258      	movs	r2, #88	@ 0x58
 8001770:	f2c4 0202 	movt	r2, #16386	@ 0x4002
 8001774:	4293      	cmp	r3, r2
 8001776:	d070      	beq.n	800185a <HAL_DMA_IRQHandler+0x13e>
 8001778:	216c      	movs	r1, #108	@ 0x6c
 800177a:	f2c4 0102 	movt	r1, #16386	@ 0x4002
 800177e:	428b      	cmp	r3, r1
 8001780:	bf14      	ite	ne
 8001782:	f04f 6180 	movne.w	r1, #67108864	@ 0x4000000
 8001786:	f44f 0180 	moveq.w	r1, #4194304	@ 0x400000
 800178a:	e04b      	b.n	8001824 <HAL_DMA_IRQHandler+0x108>
  else if (((flag_it & (DMA_FLAG_TC1 << hdma->ChannelIndex)) != RESET) && ((source_it & DMA_IT_TC) != RESET))
 800178c:	2202      	movs	r2, #2
 800178e:	408a      	lsls	r2, r1
 8001790:	4222      	tst	r2, r4
 8001792:	d02e      	beq.n	80017f2 <HAL_DMA_IRQHandler+0xd6>
 8001794:	07aa      	lsls	r2, r5, #30
 8001796:	d52c      	bpl.n	80017f2 <HAL_DMA_IRQHandler+0xd6>
    if((hdma->Instance->CCR & DMA_CCR_CIRC) == 0U)
 8001798:	681a      	ldr	r2, [r3, #0]
 800179a:	0691      	lsls	r1, r2, #26
 800179c:	d406      	bmi.n	80017ac <HAL_DMA_IRQHandler+0x90>
      hdma->State = HAL_DMA_STATE_READY;
 800179e:	2101      	movs	r1, #1
      __HAL_DMA_DISABLE_IT(hdma, DMA_IT_TE | DMA_IT_TC);  
 80017a0:	681a      	ldr	r2, [r3, #0]
 80017a2:	f022 020a 	bic.w	r2, r2, #10
 80017a6:	601a      	str	r2, [r3, #0]
      hdma->State = HAL_DMA_STATE_READY;
 80017a8:	f880 1021 	strb.w	r1, [r0, #33]	@ 0x21
      __HAL_DMA_CLEAR_FLAG(hdma, __HAL_DMA_GET_TC_FLAG_INDEX(hdma));
 80017ac:	2208      	movs	r2, #8
 80017ae:	f2c4 0202 	movt	r2, #16386	@ 0x4002
 80017b2:	4293      	cmp	r3, r2
 80017b4:	d03f      	beq.n	8001836 <HAL_DMA_IRQHandler+0x11a>
 80017b6:	221c      	movs	r2, #28
 80017b8:	f2c4 0202 	movt	r2, #16386	@ 0x4002
 80017bc:	4293      	cmp	r3, r2
 80017be:	d04f      	beq.n	8001860 <HAL_DMA_IRQHandler+0x144>
 80017c0:	2230      	movs	r2, #48	@ 0x30
 80017c2:	f2c4 0202 	movt	r2, #16386	@ 0x4002
 80017c6:	4293      	cmp	r3, r2
 80017c8:	d04f      	beq.n	800186a <HAL_DMA_IRQHandler+0x14e>
 80017ca:	2244      	movs	r2, #68	@ 0x44
 80017cc:	f2c4 0202 	movt	r2, #16386	@ 0x4002
 80017d0:	4293      	cmp	r3, r2
 80017d2:	d03f      	beq.n	8001854 <HAL_DMA_IRQHandler+0x138>
 80017d4:	2258      	movs	r2, #88	@ 0x58
 80017d6:	f2c4 0202 	movt	r2, #16386	@ 0x4002
 80017da:	4293      	cmp	r3, r2
 80017dc:	d04b      	beq.n	8001876 <HAL_DMA_IRQHandler+0x15a>
 80017de:	216c      	movs	r1, #108	@ 0x6c
 80017e0:	f2c4 0102 	movt	r1, #16386	@ 0x4002
 80017e4:	428b      	cmp	r3, r1
 80017e6:	bf14      	ite	ne
 80017e8:	f04f 7100 	movne.w	r1, #33554432	@ 0x2000000
 80017ec:	f44f 1100 	moveq.w	r1, #2097152	@ 0x200000
 80017f0:	e022      	b.n	8001838 <HAL_DMA_IRQHandler+0x11c>
  else if (( RESET != (flag_it & (DMA_FLAG_TE1 << hdma->ChannelIndex))) && (RESET != (source_it & DMA_IT_TE)))
 80017f2:	2208      	movs	r2, #8
 80017f4:	408a      	lsls	r2, r1
 80017f6:	4222      	tst	r2, r4
 80017f8:	d01b      	beq.n	8001832 <HAL_DMA_IRQHandler+0x116>
 80017fa:	072a      	lsls	r2, r5, #28
 80017fc:	d519      	bpl.n	8001832 <HAL_DMA_IRQHandler+0x116>
    __HAL_DMA_DISABLE_IT(hdma, (DMA_IT_TC | DMA_IT_HT | DMA_IT_TE));
 80017fe:	681a      	ldr	r2, [r3, #0]
    __HAL_UNLOCK(hdma);
 8001800:	2400      	movs	r4, #0
    __HAL_DMA_DISABLE_IT(hdma, (DMA_IT_TC | DMA_IT_HT | DMA_IT_TE));
 8001802:	f022 020e 	bic.w	r2, r2, #14
 8001806:	601a      	str	r2, [r3, #0]
    hdma->DmaBaseAddress->IFCR = (DMA_ISR_GIF1 << hdma->ChannelIndex);
 8001808:	2301      	movs	r3, #1
    if (hdma->XferErrorCallback != NULL)
 800180a:	6b02      	ldr	r2, [r0, #48]	@ 0x30
    hdma->DmaBaseAddress->IFCR = (DMA_ISR_GIF1 << hdma->ChannelIndex);
 800180c:	fa03 f101 	lsl.w	r1, r3, r1
 8001810:	6071      	str	r1, [r6, #4]
    hdma->ErrorCode = HAL_DMA_ERROR_TE;
 8001812:	6383      	str	r3, [r0, #56]	@ 0x38
    __HAL_UNLOCK(hdma);
 8001814:	f880 4020 	strb.w	r4, [r0, #32]
    hdma->State = HAL_DMA_STATE_READY;
 8001818:	f880 3021 	strb.w	r3, [r0, #33]	@ 0x21
    if (hdma->XferErrorCallback != NULL)
 800181c:	b14a      	cbz	r2, 8001832 <HAL_DMA_IRQHandler+0x116>
}
 800181e:	bc70      	pop	{r4, r5, r6}
      hdma->XferErrorCallback(hdma);
 8001820:	4710      	bx	r2
    __HAL_DMA_CLEAR_FLAG(hdma, __HAL_DMA_GET_HT_FLAG_INDEX(hdma));
 8001822:	2104      	movs	r1, #4
 8001824:	2300      	movs	r3, #0
    if(hdma->XferHalfCpltCallback != NULL)
 8001826:	6ac2      	ldr	r2, [r0, #44]	@ 0x2c
    __HAL_DMA_CLEAR_FLAG(hdma, __HAL_DMA_GET_HT_FLAG_INDEX(hdma));
 8001828:	f2c4 0302 	movt	r3, #16386	@ 0x4002
 800182c:	6059      	str	r1, [r3, #4]
    if(hdma->XferHalfCpltCallback != NULL)
 800182e:	2a00      	cmp	r2, #0
 8001830:	d1f5      	bne.n	800181e <HAL_DMA_IRQHandler+0x102>
}
 8001832:	bc70      	pop	{r4, r5, r6}
 8001834:	4770      	bx	lr
      __HAL_DMA_CLEAR_FLAG(hdma, __HAL_DMA_GET_TC_FLAG_INDEX(hdma));
 8001836:	2102      	movs	r1, #2
 8001838:	2300      	movs	r3, #0
    __HAL_UNLOCK(hdma);
 800183a:	461c      	mov	r4, r3
    if(hdma->XferCpltCallback != NULL)
 800183c:	6a82      	ldr	r2, [r0, #40]	@ 0x28
      __HAL_DMA_CLEAR_FLAG(hdma, __HAL_DMA_GET_TC_FLAG_INDEX(hdma));
 800183e:	f2c4 0302 	movt	r3, #16386	@ 0x4002
 8001842:	6059      	str	r1, [r3, #4]
    __HAL_UNLOCK(hdma);
 8001844:	f880 4020 	strb.w	r4, [r0, #32]
    if(hdma->XferCpltCallback != NULL)
 8001848:	2a00      	cmp	r2, #0
 800184a:	d0f2      	beq.n	8001832 <HAL_DMA_IRQHandler+0x116>
}
 800184c:	bc70      	pop	{r4, r5, r6}
      hdma->XferErrorCallback(hdma);
 800184e:	4710      	bx	r2
    __HAL_DMA_CLEAR_FLAG(hdma, __HAL_DMA_GET_HT_FLAG_INDEX(hdma));
 8001850:	2140      	movs	r1, #64	@ 0x40
 8001852:	e7e7      	b.n	8001824 <HAL_DMA_IRQHandler+0x108>
      __HAL_DMA_CLEAR_FLAG(hdma, __HAL_DMA_GET_TC_FLAG_INDEX(hdma));
 8001854:	f44f 5100 	mov.w	r1, #8192	@ 0x2000
 8001858:	e7ee      	b.n	8001838 <HAL_DMA_IRQHandler+0x11c>
    __HAL_DMA_CLEAR_FLAG(hdma, __HAL_DMA_GET_HT_FLAG_INDEX(hdma));
 800185a:	f44f 2180 	mov.w	r1, #262144	@ 0x40000
 800185e:	e7e1      	b.n	8001824 <HAL_DMA_IRQHandler+0x108>
      __HAL_DMA_CLEAR_FLAG(hdma, __HAL_DMA_GET_TC_FLAG_INDEX(hdma));
 8001860:	2120      	movs	r1, #32
 8001862:	e7e9      	b.n	8001838 <HAL_DMA_IRQHandler+0x11c>
    __HAL_DMA_CLEAR_FLAG(hdma, __HAL_DMA_GET_HT_FLAG_INDEX(hdma));
 8001864:	f44f 6180 	mov.w	r1, #1024	@ 0x400
 8001868:	e7dc      	b.n	8001824 <HAL_DMA_IRQHandler+0x108>
      __HAL_DMA_CLEAR_FLAG(hdma, __HAL_DMA_GET_TC_FLAG_INDEX(hdma));
 800186a:	f44f 7100 	mov.w	r1, #512	@ 0x200
 800186e:	e7e3      	b.n	8001838 <HAL_DMA_IRQHandler+0x11c>
    __HAL_DMA_CLEAR_FLAG(hdma, __HAL_DMA_GET_HT_FLAG_INDEX(hdma));
 8001870:	f44f 4180 	mov.w	r1, #16384	@ 0x4000
 8001874:	e7d6      	b.n	8001824 <HAL_DMA_IRQHandler+0x108>
      __HAL_DMA_CLEAR_FLAG(hdma, __HAL_DMA_GET_TC_FLAG_INDEX(hdma));
 8001876:	f44f 3100 	mov.w	r1, #131072	@ 0x20000
 800187a:	e7dd      	b.n	8001838 <HAL_DMA_IRQHandler+0x11c>

0800187c <HAL_GPIO_Init>:
  * @param  GPIO_Init: pointer to a GPIO_InitTypeDef structure that contains
  *         the configuration information for the specified GPIO peripheral.
  * @retval None
  */
void HAL_GPIO_Init(GPIO_TypeDef  *GPIOx, GPIO_InitTypeDef *GPIO_Init)
{
 800187c:	e92d 4ff0 	stmdb	sp!, {r4, r5, r6, r7, r8, r9, sl, fp, lr}
  assert_param(IS_GPIO_ALL_INSTANCE(GPIOx));
  assert_param(IS_GPIO_PIN(GPIO_Init->Pin));
  assert_param(IS_GPIO_MODE(GPIO_Init->Mode));

  /* Configure the port pins */
  while (((GPIO_Init->Pin) >> position) != 0x00u)
 8001880:	680c      	ldr	r4, [r1, #0]
{
 8001882:	b085      	sub	sp, #20
  while (((GPIO_Init->Pin) >> position) != 0x00u)
 8001884:	2c00      	cmp	r4, #0
 8001886:	f000 80cd 	beq.w	8001a24 <HAL_GPIO_Init+0x1a8>
 800188a:	f44f 6300 	mov.w	r3, #2048	@ 0x800
 800188e:	f2c4 0301 	movt	r3, #16385	@ 0x4001
 8001892:	4298      	cmp	r0, r3
 8001894:	f000 80fc 	beq.w	8001a90 <HAL_GPIO_Init+0x214>
 8001898:	2200      	movs	r2, #0
      /*--------------------- EXTI Mode Configuration ------------------------*/
      /* Configure the External Interrupt or event for the current IO */
      if ((GPIO_Init->Mode & EXTI_MODE) == EXTI_MODE)
      {
        /* Enable AFIO Clock */
        __HAL_RCC_AFIO_CLK_ENABLE();
 800189a:	f44f 5780 	mov.w	r7, #4096	@ 0x1000
        temp = AFIO->EXTICR[position >> 2u];
        CLEAR_BIT(temp, (0x0Fu) << (4u * (position & 0x03u)));
        SET_BIT(temp, (GPIO_GET_INDEX(GPIOx)) << (4u * (position & 0x03u)));
 800189e:	f44f 6840 	mov.w	r8, #3072	@ 0xc00
      configregister = (iocurrent < GPIO_PIN_8) ? &GPIOx->CRL     : &GPIOx->CRH;
 80018a2:	1d03      	adds	r3, r0, #4
 80018a4:	9301      	str	r3, [sp, #4]
    ioposition = (0x01uL << position);
 80018a6:	2501      	movs	r5, #1
  uint32_t config = 0x00u;
 80018a8:	4692      	mov	sl, r2
  uint32_t position = 0x00u;
 80018aa:	4613      	mov	r3, r2
 80018ac:	4686      	mov	lr, r0
        __HAL_RCC_AFIO_CLK_ENABLE();
 80018ae:	f2c4 0702 	movt	r7, #16386	@ 0x4002
        SET_BIT(temp, (GPIO_GET_INDEX(GPIOx)) << (4u * (position & 0x03u)));
 80018b2:	f2c4 0801 	movt	r8, #16385	@ 0x4001
 80018b6:	e006      	b.n	80018c6 <HAL_GPIO_Init+0x4a>
          CLEAR_BIT(EXTI->IMR, iocurrent);
        }
      }
    }

	position++;
 80018b8:	3301      	adds	r3, #1
  while (((GPIO_Init->Pin) >> position) != 0x00u)
 80018ba:	fa34 f003 	lsrs.w	r0, r4, r3
 80018be:	f102 0204 	add.w	r2, r2, #4
 80018c2:	f000 80af 	beq.w	8001a24 <HAL_GPIO_Init+0x1a8>
    ioposition = (0x01uL << position);
 80018c6:	fa05 f003 	lsl.w	r0, r5, r3
    if (iocurrent == ioposition)
 80018ca:	ea30 0c04 	bics.w	ip, r0, r4
    iocurrent = (uint32_t)(GPIO_Init->Pin) & ioposition;
 80018ce:	ea00 0604 	and.w	r6, r0, r4
    if (iocurrent == ioposition)
 80018d2:	d1f1      	bne.n	80018b8 <HAL_GPIO_Init+0x3c>
      switch (GPIO_Init->Mode)
 80018d4:	684c      	ldr	r4, [r1, #4]
 80018d6:	2c12      	cmp	r4, #18
 80018d8:	f200 80b8 	bhi.w	8001a4c <HAL_GPIO_Init+0x1d0>
 80018dc:	2c12      	cmp	r4, #18
 80018de:	d816      	bhi.n	800190e <HAL_GPIO_Init+0x92>
 80018e0:	e8df f014 	tbh	[pc, r4, lsl #1]
 80018e4:	001300cf 	.word	0x001300cf
 80018e8:	01be00b0 	.word	0x01be00b0
 80018ec:	00150015 	.word	0x00150015
 80018f0:	00150015 	.word	0x00150015
 80018f4:	00150015 	.word	0x00150015
 80018f8:	00150015 	.word	0x00150015
 80018fc:	00150015 	.word	0x00150015
 8001900:	00150015 	.word	0x00150015
 8001904:	00ac0015 	.word	0x00ac0015
 8001908:	00a8      	.short	0x00a8
          config = GPIO_Init->Speed + GPIO_CR_CNF_GP_OUTPUT_PP;
 800190a:	f8d1 a00c 	ldr.w	sl, [r1, #12]
      configregister = (iocurrent < GPIO_PIN_8) ? &GPIOx->CRL     : &GPIOx->CRH;
 800190e:	2eff      	cmp	r6, #255	@ 0xff
 8001910:	bf9c      	itt	ls
 8001912:	4674      	movls	r4, lr
      registeroffset = (iocurrent < GPIO_PIN_8) ? (position << 2u) : ((position - 8u) << 2u);
 8001914:	4694      	movls	ip, r2
      MODIFY_REG((*configregister), ((GPIO_CRL_MODE0 | GPIO_CRL_CNF0) << registeroffset), (config << registeroffset));
 8001916:	f04f 090f 	mov.w	r9, #15
      configregister = (iocurrent < GPIO_PIN_8) ? &GPIOx->CRL     : &GPIOx->CRH;
 800191a:	bf84      	itt	hi
 800191c:	9c01      	ldrhi	r4, [sp, #4]
      registeroffset = (iocurrent < GPIO_PIN_8) ? (position << 2u) : ((position - 8u) << 2u);
 800191e:	f1a2 0c20 	subhi.w	ip, r2, #32
      MODIFY_REG((*configregister), ((GPIO_CRL_MODE0 | GPIO_CRL_CNF0) << registeroffset), (config << registeroffset));
 8001922:	6820      	ldr	r0, [r4, #0]
 8001924:	fa09 f90c 	lsl.w	r9, r9, ip
 8001928:	ea20 0009 	bic.w	r0, r0, r9
 800192c:	fa0a fc0c 	lsl.w	ip, sl, ip
 8001930:	ea40 000c 	orr.w	r0, r0, ip
 8001934:	6020      	str	r0, [r4, #0]
      if ((GPIO_Init->Mode & EXTI_MODE) == EXTI_MODE)
 8001936:	684c      	ldr	r4, [r1, #4]
 8001938:	00e0      	lsls	r0, r4, #3
 800193a:	d579      	bpl.n	8001a30 <HAL_GPIO_Init+0x1b4>
        CLEAR_BIT(temp, (0x0Fu) << (4u * (position & 0x03u)));
 800193c:	f04f 0b0f 	mov.w	fp, #15
        __HAL_RCC_AFIO_CLK_ENABLE();
 8001940:	69b8      	ldr	r0, [r7, #24]
 8001942:	f023 0c03 	bic.w	ip, r3, #3
 8001946:	f040 0001 	orr.w	r0, r0, #1
 800194a:	61b8      	str	r0, [r7, #24]
 800194c:	69b8      	ldr	r0, [r7, #24]
 800194e:	f10c 4c80 	add.w	ip, ip, #1073741824	@ 0x40000000
 8001952:	f000 0001 	and.w	r0, r0, #1
 8001956:	9003      	str	r0, [sp, #12]
 8001958:	f50c 3c80 	add.w	ip, ip, #65536	@ 0x10000
        CLEAR_BIT(temp, (0x0Fu) << (4u * (position & 0x03u)));
 800195c:	f003 0903 	and.w	r9, r3, #3
        __HAL_RCC_AFIO_CLK_ENABLE();
 8001960:	9803      	ldr	r0, [sp, #12]
        CLEAR_BIT(temp, (0x0Fu) << (4u * (position & 0x03u)));
 8001962:	ea4f 0989 	mov.w	r9, r9, lsl #2
        temp = AFIO->EXTICR[position >> 2u];
 8001966:	f8dc 0008 	ldr.w	r0, [ip, #8]
        CLEAR_BIT(temp, (0x0Fu) << (4u * (position & 0x03u)));
 800196a:	fa0b fb09 	lsl.w	fp, fp, r9
        SET_BIT(temp, (GPIO_GET_INDEX(GPIOx)) << (4u * (position & 0x03u)));
 800196e:	45c6      	cmp	lr, r8
        CLEAR_BIT(temp, (0x0Fu) << (4u * (position & 0x03u)));
 8001970:	ea20 000b 	bic.w	r0, r0, fp
        SET_BIT(temp, (GPIO_GET_INDEX(GPIOx)) << (4u * (position & 0x03u)));
 8001974:	f000 8150 	beq.w	8001c18 <HAL_GPIO_Init+0x39c>
 8001978:	f44f 5b80 	mov.w	fp, #4096	@ 0x1000
 800197c:	f2c4 0b01 	movt	fp, #16385	@ 0x4001
 8001980:	45de      	cmp	lr, fp
 8001982:	f000 815d 	beq.w	8001c40 <HAL_GPIO_Init+0x3c4>
 8001986:	f44f 5ba0 	mov.w	fp, #5120	@ 0x1400
 800198a:	f2c4 0b01 	movt	fp, #16385	@ 0x4001
 800198e:	45de      	cmp	lr, fp
 8001990:	bf0c      	ite	eq
 8001992:	f04f 0b03 	moveq.w	fp, #3
 8001996:	f04f 0b04 	movne.w	fp, #4
 800199a:	fa0b fb09 	lsl.w	fp, fp, r9
 800199e:	ea4b 0000 	orr.w	r0, fp, r0
        AFIO->EXTICR[position >> 2u] = temp;
 80019a2:	f8cc 0008 	str.w	r0, [ip, #8]
          SET_BIT(EXTI->RTSR, iocurrent);
 80019a6:	f44f 6080 	mov.w	r0, #1024	@ 0x400
 80019aa:	f2c4 0001 	movt	r0, #16385	@ 0x4001
 80019ae:	f8d0 c008 	ldr.w	ip, [r0, #8]
        if ((GPIO_Init->Mode & RISING_EDGE) == RISING_EDGE)
 80019b2:	f414 1f80 	tst.w	r4, #1048576	@ 0x100000
          SET_BIT(EXTI->RTSR, iocurrent);
 80019b6:	bf14      	ite	ne
 80019b8:	ea4c 0c06 	orrne.w	ip, ip, r6
          CLEAR_BIT(EXTI->RTSR, iocurrent);
 80019bc:	ea2c 0c06 	biceq.w	ip, ip, r6
 80019c0:	f8c0 c008 	str.w	ip, [r0, #8]
          SET_BIT(EXTI->FTSR, iocurrent);
 80019c4:	f44f 6080 	mov.w	r0, #1024	@ 0x400
 80019c8:	f2c4 0001 	movt	r0, #16385	@ 0x4001
 80019cc:	f8d0 c00c 	ldr.w	ip, [r0, #12]
        if ((GPIO_Init->Mode & FALLING_EDGE) == FALLING_EDGE)
 80019d0:	f414 1f00 	tst.w	r4, #2097152	@ 0x200000
          SET_BIT(EXTI->FTSR, iocurrent);
 80019d4:	bf14      	ite	ne
 80019d6:	ea4c 0c06 	orrne.w	ip, ip, r6
          CLEAR_BIT(EXTI->FTSR, iocurrent);
 80019da:	ea2c 0c06 	biceq.w	ip, ip, r6
 80019de:	f8c0 c00c 	str.w	ip, [r0, #12]
          SET_BIT(EXTI->EMR, iocurrent);
 80019e2:	f44f 6080 	mov.w	r0, #1024	@ 0x400
 80019e6:	f2c4 0001 	movt	r0, #16385	@ 0x4001
 80019ea:	f8d0 c004 	ldr.w	ip, [r0, #4]
        if ((GPIO_Init->Mode & GPIO_MODE_EVT) == GPIO_MODE_EVT)
 80019ee:	f414 3f00 	tst.w	r4, #131072	@ 0x20000
          SET_BIT(EXTI->EMR, iocurrent);
 80019f2:	bf14      	ite	ne
 80019f4:	ea4c 0c06 	orrne.w	ip, ip, r6
          CLEAR_BIT(EXTI->EMR, iocurrent);
 80019f8:	ea2c 0c06 	biceq.w	ip, ip, r6
 80019fc:	f8c0 c004 	str.w	ip, [r0, #4]
          SET_BIT(EXTI->IMR, iocurrent);
 8001a00:	f44f 6080 	mov.w	r0, #1024	@ 0x400
        if ((GPIO_Init->Mode & GPIO_MODE_IT) == GPIO_MODE_IT)
 8001a04:	f414 3f80 	tst.w	r4, #65536	@ 0x10000
          SET_BIT(EXTI->IMR, iocurrent);
 8001a08:	f2c4 0001 	movt	r0, #16385	@ 0x4001
 8001a0c:	6804      	ldr	r4, [r0, #0]
        if ((GPIO_Init->Mode & GPIO_MODE_IT) == GPIO_MODE_IT)
 8001a0e:	d00c      	beq.n	8001a2a <HAL_GPIO_Init+0x1ae>
          SET_BIT(EXTI->IMR, iocurrent);
 8001a10:	4334      	orrs	r4, r6
 8001a12:	6004      	str	r4, [r0, #0]
  while (((GPIO_Init->Pin) >> position) != 0x00u)
 8001a14:	680c      	ldr	r4, [r1, #0]
	position++;
 8001a16:	3301      	adds	r3, #1
  while (((GPIO_Init->Pin) >> position) != 0x00u)
 8001a18:	fa34 f003 	lsrs.w	r0, r4, r3
 8001a1c:	f102 0204 	add.w	r2, r2, #4
 8001a20:	f47f af51 	bne.w	80018c6 <HAL_GPIO_Init+0x4a>
  }
}
 8001a24:	b005      	add	sp, #20
 8001a26:	e8bd 8ff0 	ldmia.w	sp!, {r4, r5, r6, r7, r8, r9, sl, fp, pc}
          CLEAR_BIT(EXTI->IMR, iocurrent);
 8001a2a:	ea24 0406 	bic.w	r4, r4, r6
 8001a2e:	6004      	str	r4, [r0, #0]
  while (((GPIO_Init->Pin) >> position) != 0x00u)
 8001a30:	680c      	ldr	r4, [r1, #0]
 8001a32:	e741      	b.n	80018b8 <HAL_GPIO_Init+0x3c>
          config = GPIO_Init->Speed + GPIO_CR_CNF_AF_OUTPUT_OD;
 8001a34:	68cc      	ldr	r4, [r1, #12]
 8001a36:	f104 0a0c 	add.w	sl, r4, #12
          break;
 8001a3a:	e768      	b.n	800190e <HAL_GPIO_Init+0x92>
          config = GPIO_Init->Speed + GPIO_CR_CNF_GP_OUTPUT_OD;
 8001a3c:	68cc      	ldr	r4, [r1, #12]
 8001a3e:	f104 0a04 	add.w	sl, r4, #4
          break;
 8001a42:	e764      	b.n	800190e <HAL_GPIO_Init+0x92>
          config = GPIO_Init->Speed + GPIO_CR_CNF_AF_OUTPUT_PP;
 8001a44:	68cc      	ldr	r4, [r1, #12]
 8001a46:	f104 0a08 	add.w	sl, r4, #8
          break;
 8001a4a:	e760      	b.n	800190e <HAL_GPIO_Init+0x92>
      switch (GPIO_Init->Mode)
 8001a4c:	f04f 0c00 	mov.w	ip, #0
 8001a50:	f2c1 0c22 	movt	ip, #4130	@ 0x1022
 8001a54:	4564      	cmp	r4, ip
 8001a56:	d014      	beq.n	8001a82 <HAL_GPIO_Init+0x206>
 8001a58:	f04f 0c00 	mov.w	ip, #0
 8001a5c:	f200 80e3 	bhi.w	8001c26 <HAL_GPIO_Init+0x3aa>
 8001a60:	f2c1 0c12 	movt	ip, #4114	@ 0x1012
 8001a64:	4564      	cmp	r4, ip
 8001a66:	d00c      	beq.n	8001a82 <HAL_GPIO_Init+0x206>
 8001a68:	f04f 0c00 	mov.w	ip, #0
 8001a6c:	f2c1 0c21 	movt	ip, #4129	@ 0x1021
 8001a70:	4564      	cmp	r4, ip
 8001a72:	d006      	beq.n	8001a82 <HAL_GPIO_Init+0x206>
 8001a74:	f04f 0c00 	mov.w	ip, #0
 8001a78:	f2c1 0c11 	movt	ip, #4113	@ 0x1011
 8001a7c:	4564      	cmp	r4, ip
 8001a7e:	f47f af46 	bne.w	800190e <HAL_GPIO_Init+0x92>
          if (GPIO_Init->Pull == GPIO_NOPULL)
 8001a82:	688c      	ldr	r4, [r1, #8]
 8001a84:	2c00      	cmp	r4, #0
 8001a86:	f040 80e2 	bne.w	8001c4e <HAL_GPIO_Init+0x3d2>
            config = GPIO_CR_MODE_INPUT + GPIO_CR_CNF_INPUT_FLOATING;
 8001a8a:	f04f 0a04 	mov.w	sl, #4
 8001a8e:	e73e      	b.n	800190e <HAL_GPIO_Init+0x92>
  uint32_t config = 0x00u;
 8001a90:	f04f 0900 	mov.w	r9, #0
        __HAL_RCC_AFIO_CLK_ENABLE();
 8001a94:	f44f 5c80 	mov.w	ip, #4096	@ 0x1000
      configregister = (iocurrent < GPIO_PIN_8) ? &GPIOx->CRL     : &GPIOx->CRH;
 8001a98:	f640 0804 	movw	r8, #2052	@ 0x804
  while (((GPIO_Init->Pin) >> position) != 0x00u)
 8001a9c:	f06f 051f 	mvn.w	r5, #31
    ioposition = (0x01uL << position);
 8001aa0:	2701      	movs	r7, #1
      MODIFY_REG((*configregister), ((GPIO_CRL_MODE0 | GPIO_CRL_CNF0) << registeroffset), (config << registeroffset));
 8001aa2:	f04f 0e0f 	mov.w	lr, #15
  uint32_t position = 0x00u;
 8001aa6:	464b      	mov	r3, r9
        __HAL_RCC_AFIO_CLK_ENABLE();
 8001aa8:	f2c4 0c02 	movt	ip, #16386	@ 0x4002
      configregister = (iocurrent < GPIO_PIN_8) ? &GPIOx->CRL     : &GPIOx->CRH;
 8001aac:	f2c4 0801 	movt	r8, #16385	@ 0x4001
 8001ab0:	e005      	b.n	8001abe <HAL_GPIO_Init+0x242>
	position++;
 8001ab2:	3301      	adds	r3, #1
  while (((GPIO_Init->Pin) >> position) != 0x00u)
 8001ab4:	fa34 f203 	lsrs.w	r2, r4, r3
 8001ab8:	f105 0504 	add.w	r5, r5, #4
 8001abc:	d0b2      	beq.n	8001a24 <HAL_GPIO_Init+0x1a8>
    ioposition = (0x01uL << position);
 8001abe:	fa07 f203 	lsl.w	r2, r7, r3
    if (iocurrent == ioposition)
 8001ac2:	ea32 0a04 	bics.w	sl, r2, r4
    iocurrent = (uint32_t)(GPIO_Init->Pin) & ioposition;
 8001ac6:	ea04 0602 	and.w	r6, r4, r2
    if (iocurrent == ioposition)
 8001aca:	d1f2      	bne.n	8001ab2 <HAL_GPIO_Init+0x236>
      switch (GPIO_Init->Mode)
 8001acc:	684c      	ldr	r4, [r1, #4]
 8001ace:	2c12      	cmp	r4, #18
 8001ad0:	f200 80c9 	bhi.w	8001c66 <HAL_GPIO_Init+0x3ea>
 8001ad4:	2c12      	cmp	r4, #18
 8001ad6:	d816      	bhi.n	8001b06 <HAL_GPIO_Init+0x28a>
 8001ad8:	e8df f014 	tbh	[pc, r4, lsl #1]
 8001adc:	001300df 	.word	0x001300df
 8001ae0:	010600ef 	.word	0x010600ef
 8001ae4:	00150015 	.word	0x00150015
 8001ae8:	00150015 	.word	0x00150015
 8001aec:	00150015 	.word	0x00150015
 8001af0:	00150015 	.word	0x00150015
 8001af4:	00150015 	.word	0x00150015
 8001af8:	00150015 	.word	0x00150015
 8001afc:	00f30015 	.word	0x00f30015
 8001b00:	00eb      	.short	0x00eb
          config = GPIO_Init->Speed + GPIO_CR_CNF_GP_OUTPUT_PP;
 8001b02:	f8d1 900c 	ldr.w	r9, [r1, #12]
      configregister = (iocurrent < GPIO_PIN_8) ? &GPIOx->CRL     : &GPIOx->CRH;
 8001b06:	2eff      	cmp	r6, #255	@ 0xff
 8001b08:	d95d      	bls.n	8001bc6 <HAL_GPIO_Init+0x34a>
      registeroffset = (iocurrent < GPIO_PIN_8) ? (position << 2u) : ((position - 8u) << 2u);
 8001b0a:	46aa      	mov	sl, r5
      configregister = (iocurrent < GPIO_PIN_8) ? &GPIOx->CRL     : &GPIOx->CRH;
 8001b0c:	4642      	mov	r2, r8
      MODIFY_REG((*configregister), ((GPIO_CRL_MODE0 | GPIO_CRL_CNF0) << registeroffset), (config << registeroffset));
 8001b0e:	6814      	ldr	r4, [r2, #0]
 8001b10:	fa0e fb0a 	lsl.w	fp, lr, sl
 8001b14:	ea24 040b 	bic.w	r4, r4, fp
 8001b18:	fa09 fa0a 	lsl.w	sl, r9, sl
 8001b1c:	ea44 040a 	orr.w	r4, r4, sl
 8001b20:	6014      	str	r4, [r2, #0]
      if ((GPIO_Init->Mode & EXTI_MODE) == EXTI_MODE)
 8001b22:	684a      	ldr	r2, [r1, #4]
 8001b24:	00d4      	lsls	r4, r2, #3
 8001b26:	d552      	bpl.n	8001bce <HAL_GPIO_Init+0x352>
        __HAL_RCC_AFIO_CLK_ENABLE();
 8001b28:	f8dc 4018 	ldr.w	r4, [ip, #24]
        CLEAR_BIT(temp, (0x0Fu) << (4u * (position & 0x03u)));
 8001b2c:	f003 0a03 	and.w	sl, r3, #3
        __HAL_RCC_AFIO_CLK_ENABLE();
 8001b30:	f044 0401 	orr.w	r4, r4, #1
 8001b34:	f8cc 4018 	str.w	r4, [ip, #24]
 8001b38:	f8dc 4018 	ldr.w	r4, [ip, #24]
        CLEAR_BIT(temp, (0x0Fu) << (4u * (position & 0x03u)));
 8001b3c:	ea4f 0a8a 	mov.w	sl, sl, lsl #2
        __HAL_RCC_AFIO_CLK_ENABLE();
 8001b40:	f004 0401 	and.w	r4, r4, #1
 8001b44:	9403      	str	r4, [sp, #12]
 8001b46:	9c03      	ldr	r4, [sp, #12]
        temp = AFIO->EXTICR[position >> 2u];
 8001b48:	f023 0403 	bic.w	r4, r3, #3
 8001b4c:	f104 4480 	add.w	r4, r4, #1073741824	@ 0x40000000
 8001b50:	f504 3480 	add.w	r4, r4, #65536	@ 0x10000
 8001b54:	f8d4 b008 	ldr.w	fp, [r4, #8]
        CLEAR_BIT(temp, (0x0Fu) << (4u * (position & 0x03u)));
 8001b58:	fa0e fa0a 	lsl.w	sl, lr, sl
 8001b5c:	ea2b 0a0a 	bic.w	sl, fp, sl
        AFIO->EXTICR[position >> 2u] = temp;
 8001b60:	f8c4 a008 	str.w	sl, [r4, #8]
        if ((GPIO_Init->Mode & RISING_EDGE) == RISING_EDGE)
 8001b64:	02d4      	lsls	r4, r2, #11
 8001b66:	d534      	bpl.n	8001bd2 <HAL_GPIO_Init+0x356>
          SET_BIT(EXTI->RTSR, iocurrent);
 8001b68:	f44f 6480 	mov.w	r4, #1024	@ 0x400
 8001b6c:	f2c4 0401 	movt	r4, #16385	@ 0x4001
 8001b70:	f8d4 a008 	ldr.w	sl, [r4, #8]
 8001b74:	ea46 0a0a 	orr.w	sl, r6, sl
 8001b78:	f8c4 a008 	str.w	sl, [r4, #8]
        if ((GPIO_Init->Mode & FALLING_EDGE) == FALLING_EDGE)
 8001b7c:	0294      	lsls	r4, r2, #10
 8001b7e:	d534      	bpl.n	8001bea <HAL_GPIO_Init+0x36e>
          SET_BIT(EXTI->FTSR, iocurrent);
 8001b80:	f44f 6480 	mov.w	r4, #1024	@ 0x400
 8001b84:	f2c4 0401 	movt	r4, #16385	@ 0x4001
 8001b88:	f8d4 a00c 	ldr.w	sl, [r4, #12]
 8001b8c:	ea46 0a0a 	orr.w	sl, r6, sl
 8001b90:	f8c4 a00c 	str.w	sl, [r4, #12]
        if ((GPIO_Init->Mode & GPIO_MODE_EVT) == GPIO_MODE_EVT)
 8001b94:	0394      	lsls	r4, r2, #14
 8001b96:	d534      	bpl.n	8001c02 <HAL_GPIO_Init+0x386>
          SET_BIT(EXTI->EMR, iocurrent);
 8001b98:	f44f 6480 	mov.w	r4, #1024	@ 0x400
 8001b9c:	f2c4 0401 	movt	r4, #16385	@ 0x4001
 8001ba0:	f8d4 a004 	ldr.w	sl, [r4, #4]
 8001ba4:	ea46 0a0a 	orr.w	sl, r6, sl
 8001ba8:	f8c4 a004 	str.w	sl, [r4, #4]
        if ((GPIO_Init->Mode & GPIO_MODE_IT) == GPIO_MODE_IT)
 8001bac:	f412 3f80 	tst.w	r2, #65536	@ 0x10000
          SET_BIT(EXTI->IMR, iocurrent);
 8001bb0:	f44f 6280 	mov.w	r2, #1024	@ 0x400
 8001bb4:	f2c4 0201 	movt	r2, #16385	@ 0x4001
 8001bb8:	6814      	ldr	r4, [r2, #0]
          CLEAR_BIT(EXTI->IMR, iocurrent);
 8001bba:	bf0c      	ite	eq
 8001bbc:	43b4      	biceq	r4, r6
          SET_BIT(EXTI->IMR, iocurrent);
 8001bbe:	4334      	orrne	r4, r6
 8001bc0:	6014      	str	r4, [r2, #0]
  while (((GPIO_Init->Pin) >> position) != 0x00u)
 8001bc2:	680c      	ldr	r4, [r1, #0]
 8001bc4:	e775      	b.n	8001ab2 <HAL_GPIO_Init+0x236>
      configregister = (iocurrent < GPIO_PIN_8) ? &GPIOx->CRL     : &GPIOx->CRH;
 8001bc6:	4602      	mov	r2, r0
 8001bc8:	ea4f 0a83 	mov.w	sl, r3, lsl #2
 8001bcc:	e79f      	b.n	8001b0e <HAL_GPIO_Init+0x292>
  while (((GPIO_Init->Pin) >> position) != 0x00u)
 8001bce:	680c      	ldr	r4, [r1, #0]
 8001bd0:	e76f      	b.n	8001ab2 <HAL_GPIO_Init+0x236>
          CLEAR_BIT(EXTI->RTSR, iocurrent);
 8001bd2:	f44f 6480 	mov.w	r4, #1024	@ 0x400
 8001bd6:	f2c4 0401 	movt	r4, #16385	@ 0x4001
 8001bda:	f8d4 a008 	ldr.w	sl, [r4, #8]
 8001bde:	ea2a 0a06 	bic.w	sl, sl, r6
 8001be2:	f8c4 a008 	str.w	sl, [r4, #8]
        if ((GPIO_Init->Mode & FALLING_EDGE) == FALLING_EDGE)
 8001be6:	0294      	lsls	r4, r2, #10
 8001be8:	d4ca      	bmi.n	8001b80 <HAL_GPIO_Init+0x304>
          CLEAR_BIT(EXTI->FTSR, iocurrent);
 8001bea:	f44f 6480 	mov.w	r4, #1024	@ 0x400
 8001bee:	f2c4 0401 	movt	r4, #16385	@ 0x4001
 8001bf2:	f8d4 a00c 	ldr.w	sl, [r4, #12]
 8001bf6:	ea2a 0a06 	bic.w	sl, sl, r6
 8001bfa:	f8c4 a00c 	str.w	sl, [r4, #12]
        if ((GPIO_Init->Mode & GPIO_MODE_EVT) == GPIO_MODE_EVT)
 8001bfe:	0394      	lsls	r4, r2, #14
 8001c00:	d4ca      	bmi.n	8001b98 <HAL_GPIO_Init+0x31c>
          CLEAR_BIT(EXTI->EMR, iocurrent);
 8001c02:	f44f 6480 	mov.w	r4, #1024	@ 0x400
 8001c06:	f2c4 0401 	movt	r4, #16385	@ 0x4001
 8001c0a:	f8d4 a004 	ldr.w	sl, [r4, #4]
 8001c0e:	ea2a 0a06 	bic.w	sl, sl, r6
 8001c12:	f8c4 a004 	str.w	sl, [r4, #4]
 8001c16:	e7c9      	b.n	8001bac <HAL_GPIO_Init+0x330>
        SET_BIT(temp, (GPIO_GET_INDEX(GPIOx)) << (4u * (position & 0x03u)));
 8001c18:	f04f 0b01 	mov.w	fp, #1
 8001c1c:	fa0b fb09 	lsl.w	fp, fp, r9
 8001c20:	ea4b 0000 	orr.w	r0, fp, r0
 8001c24:	e6bd      	b.n	80019a2 <HAL_GPIO_Init+0x126>
      switch (GPIO_Init->Mode)
 8001c26:	f2c1 0c31 	movt	ip, #4145	@ 0x1031
 8001c2a:	4564      	cmp	r4, ip
 8001c2c:	f43f af29 	beq.w	8001a82 <HAL_GPIO_Init+0x206>
 8001c30:	f04f 0c00 	mov.w	ip, #0
 8001c34:	f2c1 0c32 	movt	ip, #4146	@ 0x1032
 8001c38:	4564      	cmp	r4, ip
 8001c3a:	f47f ae68 	bne.w	800190e <HAL_GPIO_Init+0x92>
 8001c3e:	e720      	b.n	8001a82 <HAL_GPIO_Init+0x206>
        SET_BIT(temp, (GPIO_GET_INDEX(GPIOx)) << (4u * (position & 0x03u)));
 8001c40:	f04f 0b02 	mov.w	fp, #2
 8001c44:	fa0b fb09 	lsl.w	fp, fp, r9
 8001c48:	ea4b 0000 	orr.w	r0, fp, r0
 8001c4c:	e6a9      	b.n	80019a2 <HAL_GPIO_Init+0x126>
          else if (GPIO_Init->Pull == GPIO_PULLUP)
 8001c4e:	2c01      	cmp	r4, #1
            config = GPIO_CR_MODE_INPUT + GPIO_CR_CNF_INPUT_PU_PD;
 8001c50:	f04f 0a08 	mov.w	sl, #8
            GPIOx->BSRR = ioposition;
 8001c54:	bf0c      	ite	eq
 8001c56:	f8ce 0010 	streq.w	r0, [lr, #16]
            GPIOx->BRR = ioposition;
 8001c5a:	f8ce 0014 	strne.w	r0, [lr, #20]
 8001c5e:	e656      	b.n	800190e <HAL_GPIO_Init+0x92>
      switch (GPIO_Init->Mode)
 8001c60:	f04f 0a00 	mov.w	sl, #0
 8001c64:	e653      	b.n	800190e <HAL_GPIO_Init+0x92>
 8001c66:	f04f 0a00 	mov.w	sl, #0
 8001c6a:	f2c1 0a22 	movt	sl, #4130	@ 0x1022
 8001c6e:	4554      	cmp	r4, sl
 8001c70:	d013      	beq.n	8001c9a <HAL_GPIO_Init+0x41e>
 8001c72:	f04f 0a00 	mov.w	sl, #0
 8001c76:	d828      	bhi.n	8001cca <HAL_GPIO_Init+0x44e>
 8001c78:	f2c1 0a12 	movt	sl, #4114	@ 0x1012
 8001c7c:	4554      	cmp	r4, sl
 8001c7e:	d00c      	beq.n	8001c9a <HAL_GPIO_Init+0x41e>
 8001c80:	f04f 0a00 	mov.w	sl, #0
 8001c84:	f2c1 0a21 	movt	sl, #4129	@ 0x1021
 8001c88:	4554      	cmp	r4, sl
 8001c8a:	d006      	beq.n	8001c9a <HAL_GPIO_Init+0x41e>
 8001c8c:	f04f 0a00 	mov.w	sl, #0
 8001c90:	f2c1 0a11 	movt	sl, #4113	@ 0x1011
 8001c94:	4554      	cmp	r4, sl
 8001c96:	f47f af36 	bne.w	8001b06 <HAL_GPIO_Init+0x28a>
          if (GPIO_Init->Pull == GPIO_NOPULL)
 8001c9a:	688c      	ldr	r4, [r1, #8]
 8001c9c:	b30c      	cbz	r4, 8001ce2 <HAL_GPIO_Init+0x466>
          else if (GPIO_Init->Pull == GPIO_PULLUP)
 8001c9e:	2c01      	cmp	r4, #1
            GPIOx->BSRR = ioposition;
 8001ca0:	f44f 6400 	mov.w	r4, #2048	@ 0x800
 8001ca4:	f2c4 0401 	movt	r4, #16385	@ 0x4001
          else if (GPIO_Init->Pull == GPIO_PULLUP)
 8001ca8:	d021      	beq.n	8001cee <HAL_GPIO_Init+0x472>
            GPIOx->BRR = ioposition;
 8001caa:	6162      	str	r2, [r4, #20]
            config = GPIO_CR_MODE_INPUT + GPIO_CR_CNF_INPUT_PU_PD;
 8001cac:	f04f 0908 	mov.w	r9, #8
 8001cb0:	e729      	b.n	8001b06 <HAL_GPIO_Init+0x28a>
          config = GPIO_Init->Speed + GPIO_CR_CNF_AF_OUTPUT_OD;
 8001cb2:	68ca      	ldr	r2, [r1, #12]
 8001cb4:	f102 090c 	add.w	r9, r2, #12
          break;
 8001cb8:	e725      	b.n	8001b06 <HAL_GPIO_Init+0x28a>
          config = GPIO_Init->Speed + GPIO_CR_CNF_AF_OUTPUT_PP;
 8001cba:	68ca      	ldr	r2, [r1, #12]
 8001cbc:	f102 0908 	add.w	r9, r2, #8
          break;
 8001cc0:	e721      	b.n	8001b06 <HAL_GPIO_Init+0x28a>
          config = GPIO_Init->Speed + GPIO_CR_CNF_GP_OUTPUT_OD;
 8001cc2:	68ca      	ldr	r2, [r1, #12]
 8001cc4:	f102 0904 	add.w	r9, r2, #4
          break;
 8001cc8:	e71d      	b.n	8001b06 <HAL_GPIO_Init+0x28a>
      switch (GPIO_Init->Mode)
 8001cca:	f2c1 0a31 	movt	sl, #4145	@ 0x1031
 8001cce:	4554      	cmp	r4, sl
 8001cd0:	d0e3      	beq.n	8001c9a <HAL_GPIO_Init+0x41e>
 8001cd2:	f04f 0a00 	mov.w	sl, #0
 8001cd6:	f2c1 0a32 	movt	sl, #4146	@ 0x1032
 8001cda:	4554      	cmp	r4, sl
 8001cdc:	f47f af13 	bne.w	8001b06 <HAL_GPIO_Init+0x28a>
 8001ce0:	e7db      	b.n	8001c9a <HAL_GPIO_Init+0x41e>
            config = GPIO_CR_MODE_INPUT + GPIO_CR_CNF_INPUT_FLOATING;
 8001ce2:	f04f 0904 	mov.w	r9, #4
 8001ce6:	e70e      	b.n	8001b06 <HAL_GPIO_Init+0x28a>
          config = GPIO_CR_MODE_INPUT + GPIO_CR_CNF_ANALOG;
 8001ce8:	f04f 0900 	mov.w	r9, #0
 8001cec:	e70b      	b.n	8001b06 <HAL_GPIO_Init+0x28a>
            GPIOx->BSRR = ioposition;
 8001cee:	6122      	str	r2, [r4, #16]
 8001cf0:	e7dc      	b.n	8001cac <HAL_GPIO_Init+0x430>
 8001cf2:	bf00      	nop

08001cf4 <HAL_GPIO_ReadPin>:
  GPIO_PinState bitstatus;

  /* Check the parameters */
  assert_param(IS_GPIO_PIN(GPIO_Pin));

  if ((GPIOx->IDR & GPIO_Pin) != (uint32_t)GPIO_PIN_RESET)
 8001cf4:	6883      	ldr	r3, [r0, #8]
 8001cf6:	4219      	tst	r1, r3
  else
  {
    bitstatus = GPIO_PIN_RESET;
  }
  return bitstatus;
}
 8001cf8:	bf14      	ite	ne
 8001cfa:	2001      	movne	r0, #1
 8001cfc:	2000      	moveq	r0, #0
 8001cfe:	4770      	bx	lr

08001d00 <HAL_GPIO_WritePin>:
{
  /* Check the parameters */
  assert_param(IS_GPIO_PIN(GPIO_Pin));
  assert_param(IS_GPIO_PIN_ACTION(PinState));

  if (PinState != GPIO_PIN_RESET)
 8001d00:	b902      	cbnz	r2, 8001d04 <HAL_GPIO_WritePin+0x4>
  {
    GPIOx->BSRR = GPIO_Pin;
  }
  else
  {
    GPIOx->BSRR = (uint32_t)GPIO_Pin << 16u;
 8001d02:	0409      	lsls	r1, r1, #16
 8001d04:	6101      	str	r1, [r0, #16]
  }
}
 8001d06:	4770      	bx	lr

08001d08 <HAL_GPIO_EXTI_IRQHandler>:
  * @retval None
  */
void HAL_GPIO_EXTI_IRQHandler(uint16_t GPIO_Pin)
{
  /* EXTI line interrupt detected */
  if (__HAL_GPIO_EXTI_GET_IT(GPIO_Pin) != 0x00u)
 8001d08:	f44f 6280 	mov.w	r2, #1024	@ 0x400
 8001d0c:	f2c4 0201 	movt	r2, #16385	@ 0x4001
 8001d10:	6951      	ldr	r1, [r2, #20]
 8001d12:	4201      	tst	r1, r0
 8001d14:	d100      	bne.n	8001d18 <HAL_GPIO_EXTI_IRQHandler+0x10>
 8001d16:	4770      	bx	lr
{
 8001d18:	b508      	push	{r3, lr}
  {
    __HAL_GPIO_EXTI_CLEAR_IT(GPIO_Pin);
 8001d1a:	6150      	str	r0, [r2, #20]
    HAL_GPIO_EXTI_Callback(GPIO_Pin);
 8001d1c:	f004 fae6 	bl	80062ec <HAL_GPIO_EXTI_Callback>
  }
}
 8001d20:	bd08      	pop	{r3, pc}
 8001d22:	bf00      	nop

08001d24 <HAL_PCD_Init>:
  *         parameters in the PCD_InitTypeDef and initialize the associated handle.
  * @param  hpcd PCD handle
  * @retval HAL status
  */
HAL_StatusTypeDef HAL_PCD_Init(PCD_HandleTypeDef *hpcd)
{
 8001d24:	b538      	push	{r3, r4, r5, lr}
  uint8_t i;

  /* Check the PCD handle allocation */
  if (hpcd == NULL)
 8001d26:	b1d0      	cbz	r0, 8001d5e <HAL_PCD_Init+0x3a>
  }

  /* Check the parameters */
  assert_param(IS_PCD_ALL_INSTANCE(hpcd->Instance));

  if (hpcd->State == HAL_PCD_STATE_RESET)
 8001d28:	f890 3291 	ldrb.w	r3, [r0, #657]	@ 0x291
 8001d2c:	4604      	mov	r4, r0
 8001d2e:	f003 02ff 	and.w	r2, r3, #255	@ 0xff
 8001d32:	2b00      	cmp	r3, #0
 8001d34:	f000 80e0 	beq.w	8001ef8 <HAL_PCD_Init+0x1d4>
    /* Init the low level hardware : GPIO, CLOCK, NVIC... */
    HAL_PCD_MspInit(hpcd);
#endif /* (USE_HAL_PCD_REGISTER_CALLBACKS) */
  }

  hpcd->State = HAL_PCD_STATE_BUSY;
 8001d38:	2203      	movs	r2, #3

  /* Disable DMA mode for FS instance */
  hpcd->Init.dma_enable = 0U;
 8001d3a:	2300      	movs	r3, #0

  /* Disable the Interrupts */
  __HAL_PCD_DISABLE(hpcd);

  /*Init the Core (common init.) */
  if (USB_CoreInit(hpcd->Instance, hpcd->Init) != HAL_OK)
 8001d3c:	4625      	mov	r5, r4
  hpcd->State = HAL_PCD_STATE_BUSY;
 8001d3e:	f884 2291 	strb.w	r2, [r4, #657]	@ 0x291
  hpcd->Init.dma_enable = 0U;
 8001d42:	7163      	strb	r3, [r4, #5]
  __HAL_PCD_DISABLE(hpcd);
 8001d44:	6820      	ldr	r0, [r4, #0]
 8001d46:	f002 f979 	bl	800403c <USB_DisableGlobalInt>
  if (USB_CoreInit(hpcd->Instance, hpcd->Init) != HAL_OK)
 8001d4a:	f855 0b04 	ldr.w	r0, [r5], #4
 8001d4e:	e895 000e 	ldmia.w	r5, {r1, r2, r3}
 8001d52:	f002 f961 	bl	8004018 <USB_CoreInit>
 8001d56:	b128      	cbz	r0, 8001d64 <HAL_PCD_Init+0x40>
  {
    hpcd->State = HAL_PCD_STATE_ERROR;
 8001d58:	2302      	movs	r3, #2
 8001d5a:	f884 3291 	strb.w	r3, [r4, #657]	@ 0x291
    return HAL_ERROR;
 8001d5e:	2501      	movs	r5, #1
  hpcd->USB_Address = 0U;
  hpcd->State = HAL_PCD_STATE_READY;
  (void)USB_DevDisconnect(hpcd->Instance);

  return HAL_OK;
}
 8001d60:	4628      	mov	r0, r5
 8001d62:	bd38      	pop	{r3, r4, r5, pc}
  if (USB_SetCurrentMode(hpcd->Instance, USB_DEVICE_MODE) != HAL_OK)
 8001d64:	4601      	mov	r1, r0
 8001d66:	6820      	ldr	r0, [r4, #0]
 8001d68:	f002 f972 	bl	8004050 <USB_SetCurrentMode>
 8001d6c:	2800      	cmp	r0, #0
 8001d6e:	d1f3      	bne.n	8001d58 <HAL_PCD_Init+0x34>
  for (i = 0U; i < hpcd->Init.dev_endpoints; i++)
 8001d70:	7922      	ldrb	r2, [r4, #4]
 8001d72:	2a00      	cmp	r2, #0
 8001d74:	f000 80ae 	beq.w	8001ed4 <HAL_PCD_Init+0x1b0>
    hpcd->IN_ep[i].num = i;
 8001d78:	f44f 7380 	mov.w	r3, #256	@ 0x100
  for (i = 0U; i < hpcd->Init.dev_endpoints; i++)
 8001d7c:	2a01      	cmp	r2, #1
    hpcd->IN_ep[i].xfer_buff = 0U;
 8001d7e:	e9c4 0008 	strd	r0, r0, [r4, #32]
    hpcd->IN_ep[i].type = EP_TYPE_CTRL;
 8001d82:	74e0      	strb	r0, [r4, #19]
    hpcd->IN_ep[i].xfer_len = 0U;
 8001d84:	62a0      	str	r0, [r4, #40]	@ 0x28
    hpcd->IN_ep[i].num = i;
 8001d86:	8223      	strh	r3, [r4, #16]
  for (i = 0U; i < hpcd->Init.dev_endpoints; i++)
 8001d88:	f000 80bb 	beq.w	8001f02 <HAL_PCD_Init+0x1de>
    hpcd->IN_ep[i].num = i;
 8001d8c:	f240 1301 	movw	r3, #257	@ 0x101
  for (i = 0U; i < hpcd->Init.dev_endpoints; i++)
 8001d90:	2a02      	cmp	r2, #2
    hpcd->IN_ep[i].xfer_buff = 0U;
 8001d92:	e9c4 0012 	strd	r0, r0, [r4, #72]	@ 0x48
    hpcd->IN_ep[i].type = EP_TYPE_CTRL;
 8001d96:	f884 003b 	strb.w	r0, [r4, #59]	@ 0x3b
    hpcd->IN_ep[i].xfer_len = 0U;
 8001d9a:	6520      	str	r0, [r4, #80]	@ 0x50
    hpcd->IN_ep[i].num = i;
 8001d9c:	8723      	strh	r3, [r4, #56]	@ 0x38
  for (i = 0U; i < hpcd->Init.dev_endpoints; i++)
 8001d9e:	d045      	beq.n	8001e2c <HAL_PCD_Init+0x108>
    hpcd->IN_ep[i].num = i;
 8001da0:	f44f 7381 	mov.w	r3, #258	@ 0x102
  for (i = 0U; i < hpcd->Init.dev_endpoints; i++)
 8001da4:	2a03      	cmp	r2, #3
    hpcd->IN_ep[i].xfer_buff = 0U;
 8001da6:	e9c4 001c 	strd	r0, r0, [r4, #112]	@ 0x70
    hpcd->IN_ep[i].type = EP_TYPE_CTRL;
 8001daa:	f884 0063 	strb.w	r0, [r4, #99]	@ 0x63
    hpcd->IN_ep[i].xfer_len = 0U;
 8001dae:	67a0      	str	r0, [r4, #120]	@ 0x78
    hpcd->IN_ep[i].num = i;
 8001db0:	f8a4 3060 	strh.w	r3, [r4, #96]	@ 0x60
  for (i = 0U; i < hpcd->Init.dev_endpoints; i++)
 8001db4:	d03a      	beq.n	8001e2c <HAL_PCD_Init+0x108>
    hpcd->IN_ep[i].num = i;
 8001db6:	f240 1303 	movw	r3, #259	@ 0x103
  for (i = 0U; i < hpcd->Init.dev_endpoints; i++)
 8001dba:	2a04      	cmp	r2, #4
    hpcd->IN_ep[i].xfer_buff = 0U;
 8001dbc:	e9c4 0026 	strd	r0, r0, [r4, #152]	@ 0x98
    hpcd->IN_ep[i].type = EP_TYPE_CTRL;
 8001dc0:	f884 008b 	strb.w	r0, [r4, #139]	@ 0x8b
    hpcd->IN_ep[i].xfer_len = 0U;
 8001dc4:	f8c4 00a0 	str.w	r0, [r4, #160]	@ 0xa0
    hpcd->IN_ep[i].num = i;
 8001dc8:	f8a4 3088 	strh.w	r3, [r4, #136]	@ 0x88
  for (i = 0U; i < hpcd->Init.dev_endpoints; i++)
 8001dcc:	d02e      	beq.n	8001e2c <HAL_PCD_Init+0x108>
    hpcd->IN_ep[i].num = i;
 8001dce:	f44f 7382 	mov.w	r3, #260	@ 0x104
  for (i = 0U; i < hpcd->Init.dev_endpoints; i++)
 8001dd2:	2a05      	cmp	r2, #5
    hpcd->IN_ep[i].xfer_buff = 0U;
 8001dd4:	e9c4 0030 	strd	r0, r0, [r4, #192]	@ 0xc0
    hpcd->IN_ep[i].type = EP_TYPE_CTRL;
 8001dd8:	f884 00b3 	strb.w	r0, [r4, #179]	@ 0xb3
    hpcd->IN_ep[i].xfer_len = 0U;
 8001ddc:	f8c4 00c8 	str.w	r0, [r4, #200]	@ 0xc8
    hpcd->IN_ep[i].num = i;
 8001de0:	f8a4 30b0 	strh.w	r3, [r4, #176]	@ 0xb0
  for (i = 0U; i < hpcd->Init.dev_endpoints; i++)
 8001de4:	d022      	beq.n	8001e2c <HAL_PCD_Init+0x108>
    hpcd->IN_ep[i].num = i;
 8001de6:	f240 1305 	movw	r3, #261	@ 0x105
  for (i = 0U; i < hpcd->Init.dev_endpoints; i++)
 8001dea:	2a06      	cmp	r2, #6
    hpcd->IN_ep[i].xfer_buff = 0U;
 8001dec:	e9c4 003a 	strd	r0, r0, [r4, #232]	@ 0xe8
    hpcd->IN_ep[i].type = EP_TYPE_CTRL;
 8001df0:	f884 00db 	strb.w	r0, [r4, #219]	@ 0xdb
    hpcd->IN_ep[i].xfer_len = 0U;
 8001df4:	f8c4 00f0 	str.w	r0, [r4, #240]	@ 0xf0
    hpcd->IN_ep[i].num = i;
 8001df8:	f8a4 30d8 	strh.w	r3, [r4, #216]	@ 0xd8
  for (i = 0U; i < hpcd->Init.dev_endpoints; i++)
 8001dfc:	d016      	beq.n	8001e2c <HAL_PCD_Init+0x108>
    hpcd->IN_ep[i].num = i;
 8001dfe:	f44f 7383 	mov.w	r3, #262	@ 0x106
  for (i = 0U; i < hpcd->Init.dev_endpoints; i++)
 8001e02:	2a07      	cmp	r2, #7
    hpcd->IN_ep[i].xfer_buff = 0U;
 8001e04:	e9c4 0044 	strd	r0, r0, [r4, #272]	@ 0x110
    hpcd->IN_ep[i].type = EP_TYPE_CTRL;
 8001e08:	f884 0103 	strb.w	r0, [r4, #259]	@ 0x103
    hpcd->IN_ep[i].xfer_len = 0U;
 8001e0c:	f8c4 0118 	str.w	r0, [r4, #280]	@ 0x118
    hpcd->IN_ep[i].num = i;
 8001e10:	f8a4 3100 	strh.w	r3, [r4, #256]	@ 0x100
  for (i = 0U; i < hpcd->Init.dev_endpoints; i++)
 8001e14:	d00a      	beq.n	8001e2c <HAL_PCD_Init+0x108>
    hpcd->IN_ep[i].type = EP_TYPE_CTRL;
 8001e16:	2300      	movs	r3, #0
    hpcd->IN_ep[i].num = i;
 8001e18:	f240 1107 	movw	r1, #263	@ 0x107
    hpcd->IN_ep[i].xfer_buff = 0U;
 8001e1c:	e9c4 334e 	strd	r3, r3, [r4, #312]	@ 0x138
    hpcd->IN_ep[i].type = EP_TYPE_CTRL;
 8001e20:	f884 312b 	strb.w	r3, [r4, #299]	@ 0x12b
    hpcd->IN_ep[i].num = i;
 8001e24:	f8a4 1128 	strh.w	r1, [r4, #296]	@ 0x128
    hpcd->IN_ep[i].xfer_len = 0U;
 8001e28:	f8c4 3140 	str.w	r3, [r4, #320]	@ 0x140
    hpcd->OUT_ep[i].num = i;
 8001e2c:	2300      	movs	r3, #0
 8001e2e:	2101      	movs	r1, #1
  for (i = 0U; i < hpcd->Init.dev_endpoints; i++)
 8001e30:	2a02      	cmp	r2, #2
    hpcd->OUT_ep[i].xfer_buff = 0U;
 8001e32:	e9c4 3358 	strd	r3, r3, [r4, #352]	@ 0x160
 8001e36:	e9c4 3362 	strd	r3, r3, [r4, #392]	@ 0x188
    hpcd->OUT_ep[i].num = i;
 8001e3a:	f8a4 3150 	strh.w	r3, [r4, #336]	@ 0x150
    hpcd->OUT_ep[i].type = EP_TYPE_CTRL;
 8001e3e:	f884 3153 	strb.w	r3, [r4, #339]	@ 0x153
    hpcd->OUT_ep[i].xfer_len = 0U;
 8001e42:	f8c4 3168 	str.w	r3, [r4, #360]	@ 0x168
    hpcd->OUT_ep[i].num = i;
 8001e46:	f8a4 1178 	strh.w	r1, [r4, #376]	@ 0x178
    hpcd->OUT_ep[i].type = EP_TYPE_CTRL;
 8001e4a:	f884 317b 	strb.w	r3, [r4, #379]	@ 0x17b
    hpcd->OUT_ep[i].xfer_len = 0U;
 8001e4e:	f8c4 3190 	str.w	r3, [r4, #400]	@ 0x190
  for (i = 0U; i < hpcd->Init.dev_endpoints; i++)
 8001e52:	d03f      	beq.n	8001ed4 <HAL_PCD_Init+0x1b0>
    hpcd->OUT_ep[i].num = i;
 8001e54:	2102      	movs	r1, #2
  for (i = 0U; i < hpcd->Init.dev_endpoints; i++)
 8001e56:	2a03      	cmp	r2, #3
    hpcd->OUT_ep[i].xfer_buff = 0U;
 8001e58:	e9c4 336c 	strd	r3, r3, [r4, #432]	@ 0x1b0
    hpcd->OUT_ep[i].type = EP_TYPE_CTRL;
 8001e5c:	f884 31a3 	strb.w	r3, [r4, #419]	@ 0x1a3
    hpcd->OUT_ep[i].xfer_len = 0U;
 8001e60:	f8c4 31b8 	str.w	r3, [r4, #440]	@ 0x1b8
    hpcd->OUT_ep[i].num = i;
 8001e64:	f8a4 11a0 	strh.w	r1, [r4, #416]	@ 0x1a0
  for (i = 0U; i < hpcd->Init.dev_endpoints; i++)
 8001e68:	d034      	beq.n	8001ed4 <HAL_PCD_Init+0x1b0>
    hpcd->OUT_ep[i].num = i;
 8001e6a:	2103      	movs	r1, #3
  for (i = 0U; i < hpcd->Init.dev_endpoints; i++)
 8001e6c:	2a04      	cmp	r2, #4
    hpcd->OUT_ep[i].xfer_buff = 0U;
 8001e6e:	e9c4 3376 	strd	r3, r3, [r4, #472]	@ 0x1d8
    hpcd->OUT_ep[i].type = EP_TYPE_CTRL;
 8001e72:	f884 31cb 	strb.w	r3, [r4, #459]	@ 0x1cb
    hpcd->OUT_ep[i].xfer_len = 0U;
 8001e76:	f8c4 31e0 	str.w	r3, [r4, #480]	@ 0x1e0
    hpcd->OUT_ep[i].num = i;
 8001e7a:	f8a4 11c8 	strh.w	r1, [r4, #456]	@ 0x1c8
  for (i = 0U; i < hpcd->Init.dev_endpoints; i++)
 8001e7e:	d029      	beq.n	8001ed4 <HAL_PCD_Init+0x1b0>
    hpcd->OUT_ep[i].num = i;
 8001e80:	2104      	movs	r1, #4
  for (i = 0U; i < hpcd->Init.dev_endpoints; i++)
 8001e82:	2a05      	cmp	r2, #5
    hpcd->OUT_ep[i].xfer_buff = 0U;
 8001e84:	e9c4 3380 	strd	r3, r3, [r4, #512]	@ 0x200
    hpcd->OUT_ep[i].type = EP_TYPE_CTRL;
 8001e88:	f884 31f3 	strb.w	r3, [r4, #499]	@ 0x1f3
    hpcd->OUT_ep[i].xfer_len = 0U;
 8001e8c:	f8c4 3208 	str.w	r3, [r4, #520]	@ 0x208
    hpcd->OUT_ep[i].num = i;
 8001e90:	f8a4 11f0 	strh.w	r1, [r4, #496]	@ 0x1f0
  for (i = 0U; i < hpcd->Init.dev_endpoints; i++)
 8001e94:	d01e      	beq.n	8001ed4 <HAL_PCD_Init+0x1b0>
    hpcd->OUT_ep[i].num = i;
 8001e96:	2105      	movs	r1, #5
  for (i = 0U; i < hpcd->Init.dev_endpoints; i++)
 8001e98:	2a06      	cmp	r2, #6
    hpcd->OUT_ep[i].xfer_buff = 0U;
 8001e9a:	e9c4 338a 	strd	r3, r3, [r4, #552]	@ 0x228
    hpcd->OUT_ep[i].type = EP_TYPE_CTRL;
 8001e9e:	f884 321b 	strb.w	r3, [r4, #539]	@ 0x21b
    hpcd->OUT_ep[i].xfer_len = 0U;
 8001ea2:	f8c4 3230 	str.w	r3, [r4, #560]	@ 0x230
    hpcd->OUT_ep[i].num = i;
 8001ea6:	f8a4 1218 	strh.w	r1, [r4, #536]	@ 0x218
  for (i = 0U; i < hpcd->Init.dev_endpoints; i++)
 8001eaa:	d013      	beq.n	8001ed4 <HAL_PCD_Init+0x1b0>
    hpcd->OUT_ep[i].num = i;
 8001eac:	2106      	movs	r1, #6
  for (i = 0U; i < hpcd->Init.dev_endpoints; i++)
 8001eae:	2a07      	cmp	r2, #7
    hpcd->OUT_ep[i].xfer_buff = 0U;
 8001eb0:	e9c4 3394 	strd	r3, r3, [r4, #592]	@ 0x250
    hpcd->OUT_ep[i].type = EP_TYPE_CTRL;
 8001eb4:	f884 3243 	strb.w	r3, [r4, #579]	@ 0x243
    hpcd->OUT_ep[i].xfer_len = 0U;
 8001eb8:	f8c4 3258 	str.w	r3, [r4, #600]	@ 0x258
    hpcd->OUT_ep[i].num = i;
 8001ebc:	f8a4 1240 	strh.w	r1, [r4, #576]	@ 0x240
  for (i = 0U; i < hpcd->Init.dev_endpoints; i++)
 8001ec0:	d008      	beq.n	8001ed4 <HAL_PCD_Init+0x1b0>
    hpcd->OUT_ep[i].num = i;
 8001ec2:	2207      	movs	r2, #7
    hpcd->OUT_ep[i].xfer_buff = 0U;
 8001ec4:	e9c4 339e 	strd	r3, r3, [r4, #632]	@ 0x278
    hpcd->OUT_ep[i].type = EP_TYPE_CTRL;
 8001ec8:	f884 326b 	strb.w	r3, [r4, #619]	@ 0x26b
    hpcd->OUT_ep[i].xfer_len = 0U;
 8001ecc:	f8c4 3280 	str.w	r3, [r4, #640]	@ 0x280
    hpcd->OUT_ep[i].num = i;
 8001ed0:	f8a4 2268 	strh.w	r2, [r4, #616]	@ 0x268
  if (USB_DevInit(hpcd->Instance, hpcd->Init) != HAL_OK)
 8001ed4:	e895 000e 	ldmia.w	r5, {r1, r2, r3}
 8001ed8:	6820      	ldr	r0, [r4, #0]
 8001eda:	f002 f8bb 	bl	8004054 <USB_DevInit>
 8001ede:	4605      	mov	r5, r0
 8001ee0:	2800      	cmp	r0, #0
 8001ee2:	f47f af39 	bne.w	8001d58 <HAL_PCD_Init+0x34>
  hpcd->State = HAL_PCD_STATE_READY;
 8001ee6:	2301      	movs	r3, #1
  hpcd->USB_Address = 0U;
 8001ee8:	7360      	strb	r0, [r4, #13]
  (void)USB_DevDisconnect(hpcd->Instance);
 8001eea:	6820      	ldr	r0, [r4, #0]
  hpcd->State = HAL_PCD_STATE_READY;
 8001eec:	f884 3291 	strb.w	r3, [r4, #657]	@ 0x291
  (void)USB_DevDisconnect(hpcd->Instance);
 8001ef0:	f002 fe68 	bl	8004bc4 <USB_DevDisconnect>
}
 8001ef4:	4628      	mov	r0, r5
 8001ef6:	bd38      	pop	{r3, r4, r5, pc}
    hpcd->Lock = HAL_UNLOCKED;
 8001ef8:	f880 2290 	strb.w	r2, [r0, #656]	@ 0x290
    HAL_PCD_MspInit(hpcd);
 8001efc:	f003 fd3c 	bl	8005978 <HAL_PCD_MspInit>
 8001f00:	e71a      	b.n	8001d38 <HAL_PCD_Init+0x14>
    hpcd->OUT_ep[i].xfer_buff = 0U;
 8001f02:	e9c4 0058 	strd	r0, r0, [r4, #352]	@ 0x160
    hpcd->OUT_ep[i].num = i;
 8001f06:	f8a4 0150 	strh.w	r0, [r4, #336]	@ 0x150
    hpcd->OUT_ep[i].type = EP_TYPE_CTRL;
 8001f0a:	f884 0153 	strb.w	r0, [r4, #339]	@ 0x153
    hpcd->OUT_ep[i].xfer_len = 0U;
 8001f0e:	f8c4 0168 	str.w	r0, [r4, #360]	@ 0x168
  for (i = 0U; i < hpcd->Init.dev_endpoints; i++)
 8001f12:	e7df      	b.n	8001ed4 <HAL_PCD_Init+0x1b0>

08001f14 <HAL_PCD_Start>:
  * @brief  Start the USB device
  * @param  hpcd PCD handle
  * @retval HAL status
  */
HAL_StatusTypeDef HAL_PCD_Start(PCD_HandleTypeDef *hpcd)
{
 8001f14:	b538      	push	{r3, r4, r5, lr}
  __HAL_LOCK(hpcd);
 8001f16:	f890 3290 	ldrb.w	r3, [r0, #656]	@ 0x290
 8001f1a:	2b01      	cmp	r3, #1
 8001f1c:	d012      	beq.n	8001f44 <HAL_PCD_Start+0x30>
 8001f1e:	4604      	mov	r4, r0
 8001f20:	2501      	movs	r5, #1
  __HAL_PCD_ENABLE(hpcd);
 8001f22:	6800      	ldr	r0, [r0, #0]
  __HAL_LOCK(hpcd);
 8001f24:	f884 5290 	strb.w	r5, [r4, #656]	@ 0x290
  __HAL_PCD_ENABLE(hpcd);
 8001f28:	f002 f87e 	bl	8004028 <USB_EnableGlobalInt>

#if defined (USB)
  HAL_PCDEx_SetConnectionState(hpcd, 1U);
 8001f2c:	4629      	mov	r1, r5
 8001f2e:	4620      	mov	r0, r4
 8001f30:	f003 fe4a 	bl	8005bc8 <HAL_PCDEx_SetConnectionState>
#endif /* defined (USB) */

  (void)USB_DevConnect(hpcd->Instance);
 8001f34:	6820      	ldr	r0, [r4, #0]
 8001f36:	f002 fe43 	bl	8004bc0 <USB_DevConnect>
  __HAL_UNLOCK(hpcd);
 8001f3a:	2300      	movs	r3, #0
 8001f3c:	f884 3290 	strb.w	r3, [r4, #656]	@ 0x290

  return HAL_OK;
 8001f40:	4618      	mov	r0, r3
}
 8001f42:	bd38      	pop	{r3, r4, r5, pc}
  __HAL_LOCK(hpcd);
 8001f44:	2002      	movs	r0, #2
}
 8001f46:	bd38      	pop	{r3, r4, r5, pc}

08001f48 <HAL_PCD_IRQHandler>:
  * @brief  This function handles PCD interrupt request.
  * @param  hpcd PCD handle
  * @retval HAL status
  */
void HAL_PCD_IRQHandler(PCD_HandleTypeDef *hpcd)
{
 8001f48:	e92d 4ff8 	stmdb	sp!, {r3, r4, r5, r6, r7, r8, r9, sl, fp, lr}
 8001f4c:	4604      	mov	r4, r0
  uint32_t wIstr = USB_ReadInterrupts(hpcd->Instance);
 8001f4e:	6800      	ldr	r0, [r0, #0]
 8001f50:	f002 fe3a 	bl	8004bc8 <USB_ReadInterrupts>
  uint16_t store_ep[8];
  uint8_t i;

  if ((wIstr & USB_ISTR_CTR) == USB_ISTR_CTR)
 8001f54:	f410 4500 	ands.w	r5, r0, #32768	@ 0x8000
 8001f58:	d126      	bne.n	8001fa8 <HAL_PCD_IRQHandler+0x60>
    (void)PCD_EP_ISR_Handler(hpcd);

    return;
  }

  if ((wIstr & USB_ISTR_RESET) == USB_ISTR_RESET)
 8001f5a:	0542      	lsls	r2, r0, #21
 8001f5c:	f100 81a3 	bmi.w	80022a6 <HAL_PCD_IRQHandler+0x35e>
    (void)HAL_PCD_SetAddress(hpcd, 0U);

    return;
  }

  if ((wIstr & USB_ISTR_PMAOVR) == USB_ISTR_PMAOVR)
 8001f60:	0443      	lsls	r3, r0, #17
 8001f62:	d416      	bmi.n	8001f92 <HAL_PCD_IRQHandler+0x4a>
    __HAL_PCD_CLEAR_FLAG(hpcd, USB_ISTR_PMAOVR);

    return;
  }

  if ((wIstr & USB_ISTR_ERR) == USB_ISTR_ERR)
 8001f64:	0487      	lsls	r7, r0, #18
 8001f66:	f100 821c 	bmi.w	80023a2 <HAL_PCD_IRQHandler+0x45a>
    __HAL_PCD_CLEAR_FLAG(hpcd, USB_ISTR_ERR);

    return;
  }

  if ((wIstr & USB_ISTR_WKUP) == USB_ISTR_WKUP)
 8001f6a:	04c6      	lsls	r6, r0, #19
 8001f6c:	f100 82ec 	bmi.w	8002548 <HAL_PCD_IRQHandler+0x600>
    __HAL_PCD_CLEAR_FLAG(hpcd, USB_ISTR_WKUP);

    return;
  }

  if ((wIstr & USB_ISTR_SUSP) == USB_ISTR_SUSP)
 8001f70:	0505      	lsls	r5, r0, #20
 8001f72:	d47f      	bmi.n	8002074 <HAL_PCD_IRQHandler+0x12c>
#endif /* USE_HAL_PCD_REGISTER_CALLBACKS */

    return;
  }

  if ((wIstr & USB_ISTR_SOF) == USB_ISTR_SOF)
 8001f74:	0582      	lsls	r2, r0, #22
 8001f76:	f100 839e 	bmi.w	80026b6 <HAL_PCD_IRQHandler+0x76e>
#endif /* USE_HAL_PCD_REGISTER_CALLBACKS */

    return;
  }

  if ((wIstr & USB_ISTR_ESOF) == USB_ISTR_ESOF)
 8001f7a:	05c3      	lsls	r3, r0, #23
 8001f7c:	d512      	bpl.n	8001fa4 <HAL_PCD_IRQHandler+0x5c>
  {
    /* clear ESOF flag in ISTR */
    __HAL_PCD_CLEAR_FLAG(hpcd, USB_ISTR_ESOF);
 8001f7e:	6822      	ldr	r2, [r4, #0]
 8001f80:	f8b2 3044 	ldrh.w	r3, [r2, #68]	@ 0x44
 8001f84:	f423 7380 	bic.w	r3, r3, #256	@ 0x100
 8001f88:	041b      	lsls	r3, r3, #16
 8001f8a:	0c1b      	lsrs	r3, r3, #16
 8001f8c:	f8a2 3044 	strh.w	r3, [r2, #68]	@ 0x44

    return;
 8001f90:	e008      	b.n	8001fa4 <HAL_PCD_IRQHandler+0x5c>
    __HAL_PCD_CLEAR_FLAG(hpcd, USB_ISTR_PMAOVR);
 8001f92:	6822      	ldr	r2, [r4, #0]
 8001f94:	f8b2 3044 	ldrh.w	r3, [r2, #68]	@ 0x44
 8001f98:	f423 4380 	bic.w	r3, r3, #16384	@ 0x4000
 8001f9c:	041b      	lsls	r3, r3, #16
 8001f9e:	0c1b      	lsrs	r3, r3, #16
 8001fa0:	f8a2 3044 	strh.w	r3, [r2, #68]	@ 0x44
  }
}
 8001fa4:	e8bd 8ff8 	ldmia.w	sp!, {r3, r4, r5, r6, r7, r8, r9, sl, fp, pc}
#if (USE_USB_DOUBLE_BUFFER != 1U)
  count = 0U;
#endif /* USE_USB_DOUBLE_BUFFER */

  /* stay in loop while pending interrupts */
  while ((hpcd->Instance->ISTR & USB_ISTR_CTR) != 0U)
 8001fa8:	6820      	ldr	r0, [r4, #0]
 8001faa:	f8b0 3044 	ldrh.w	r3, [r0, #68]	@ 0x44
 8001fae:	041a      	lsls	r2, r3, #16
 8001fb0:	d5f8      	bpl.n	8001fa4 <HAL_PCD_IRQHandler+0x5c>
      if ((wEPVal & USB_EP_CTR_TX) != 0U)
      {
        ep = &hpcd->IN_ep[epindex];

        /* clear int flag */
        PCD_CLEAR_TX_EP_CTR(hpcd->Instance, epindex);
 8001fb2:	f648 760f 	movw	r6, #36623	@ 0x8f0f
        PCD_CLEAR_RX_EP_CTR(hpcd->Instance, epindex);
 8001fb6:	f640 778f 	movw	r7, #3983	@ 0xf8f
        PCD_CLEAR_TX_EP_CTR(hpcd->Instance, epindex);
 8001fba:	f6cf 76ff 	movt	r6, #65535	@ 0xffff
 8001fbe:	e010      	b.n	8001fe2 <HAL_PCD_IRQHandler+0x9a>
      if ((wIstr & USB_ISTR_DIR) == 0U)
 8001fc0:	f011 0110 	ands.w	r1, r1, #16
 8001fc4:	f000 80f5 	beq.w	80021b2 <HAL_PCD_IRQHandler+0x26a>
        wEPVal = PCD_GET_ENDPOINT(hpcd->Instance, PCD_ENDP0);
 8001fc8:	8801      	ldrh	r1, [r0, #0]
        if ((wEPVal & USB_EP_SETUP) != 0U)
 8001fca:	f411 6500 	ands.w	r5, r1, #2048	@ 0x800
        wEPVal = PCD_GET_ENDPOINT(hpcd->Instance, PCD_ENDP0);
 8001fce:	b28b      	uxth	r3, r1
        if ((wEPVal & USB_EP_SETUP) != 0U)
 8001fd0:	f040 8116 	bne.w	8002200 <HAL_PCD_IRQHandler+0x2b8>
        else if ((wEPVal & USB_EP_CTR_RX) != 0U)
 8001fd4:	041b      	lsls	r3, r3, #16
 8001fd6:	f100 8183 	bmi.w	80022e0 <HAL_PCD_IRQHandler+0x398>
  while ((hpcd->Instance->ISTR & USB_ISTR_CTR) != 0U)
 8001fda:	f8b0 3044 	ldrh.w	r3, [r0, #68]	@ 0x44
 8001fde:	0419      	lsls	r1, r3, #16
 8001fe0:	d5e0      	bpl.n	8001fa4 <HAL_PCD_IRQHandler+0x5c>
    wIstr = hpcd->Instance->ISTR;
 8001fe2:	f8b0 5044 	ldrh.w	r5, [r0, #68]	@ 0x44
 8001fe6:	b2a9      	uxth	r1, r5
    if (epindex == 0U)
 8001fe8:	f015 050f 	ands.w	r5, r5, #15
 8001fec:	d0e8      	beq.n	8001fc0 <HAL_PCD_IRQHandler+0x78>
      wEPVal = PCD_GET_ENDPOINT(hpcd->Instance, epindex);
 8001fee:	f830 3025 	ldrh.w	r3, [r0, r5, lsl #2]
 8001ff2:	ea4f 0885 	mov.w	r8, r5, lsl #2
      if ((wEPVal & USB_EP_CTR_RX) != 0U)
 8001ff6:	0419      	lsls	r1, r3, #16
      wEPVal = PCD_GET_ENDPOINT(hpcd->Instance, epindex);
 8001ff8:	fa1f f983 	uxth.w	r9, r3
      if ((wEPVal & USB_EP_CTR_RX) != 0U)
 8001ffc:	f100 8094 	bmi.w	8002128 <HAL_PCD_IRQHandler+0x1e0>
      if ((wEPVal & USB_EP_CTR_TX) != 0U)
 8002000:	f019 0f80 	tst.w	r9, #128	@ 0x80
 8002004:	d0e9      	beq.n	8001fda <HAL_PCD_IRQHandler+0x92>
        PCD_CLEAR_TX_EP_CTR(hpcd->Instance, epindex);
 8002006:	f830 3025 	ldrh.w	r3, [r0, r5, lsl #2]
 800200a:	b29b      	uxth	r3, r3
 800200c:	4033      	ands	r3, r6
 800200e:	f443 4300 	orr.w	r3, r3, #32768	@ 0x8000
 8002012:	f820 3025 	strh.w	r3, [r0, r5, lsl #2]

        if (ep->type == EP_TYPE_ISOC)
 8002016:	eb08 0305 	add.w	r3, r8, r5
 800201a:	eb04 02c3 	add.w	r2, r4, r3, lsl #3
 800201e:	7cd1      	ldrb	r1, [r2, #19]
 8002020:	00db      	lsls	r3, r3, #3
 8002022:	2901      	cmp	r1, #1
 8002024:	f000 81c8 	beq.w	80023b8 <HAL_PCD_IRQHandler+0x470>
        {
          /* Manage Single Buffer Transaction */
          if ((wEPVal & USB_EP_KIND) == 0U)
          {
            /* multi-packet on the NON control IN endpoint */
            TxPctSize = (uint16_t)PCD_GET_EP_TX_CNT(hpcd->Instance, ep->num);
 8002028:	f892 c010 	ldrb.w	ip, [r2, #16]
          if ((wEPVal & USB_EP_KIND) == 0U)
 800202c:	f419 7a80 	ands.w	sl, r9, #256	@ 0x100

            if (ep->xfer_len > TxPctSize)
 8002030:	6a91      	ldr	r1, [r2, #40]	@ 0x28
 8002032:	f500 6e80 	add.w	lr, r0, #1024	@ 0x400
            TxPctSize = (uint16_t)PCD_GET_EP_TX_CNT(hpcd->Instance, ep->num);
 8002036:	ea4f 0bcc 	mov.w	fp, ip, lsl #3
          if ((wEPVal & USB_EP_KIND) == 0U)
 800203a:	f040 81f0 	bne.w	800241e <HAL_PCD_IRQHandler+0x4d6>
            TxPctSize = (uint16_t)PCD_GET_EP_TX_CNT(hpcd->Instance, ep->num);
 800203e:	f8b0 5050 	ldrh.w	r5, [r0, #80]	@ 0x50
 8002042:	b2ad      	uxth	r5, r5
 8002044:	445d      	add	r5, fp
 8002046:	3502      	adds	r5, #2
 8002048:	f83e 5015 	ldrh.w	r5, [lr, r5, lsl #1]
            if (ep->xfer_len > TxPctSize)
 800204c:	f3c5 0509 	ubfx	r5, r5, #0, #10
 8002050:	428d      	cmp	r5, r1
 8002052:	f080 81dc 	bcs.w	800240e <HAL_PCD_IRQHandler+0x4c6>
            {
              ep->xfer_len -= TxPctSize;
 8002056:	1b49      	subs	r1, r1, r5
 8002058:	6291      	str	r1, [r2, #40]	@ 0x28
        ep = &hpcd->IN_ep[epindex];
 800205a:	f103 0110 	add.w	r1, r3, #16
#endif /* USE_HAL_PCD_REGISTER_CALLBACKS */
            }
            else
            {
              /* Transfer is not yet Done */
              ep->xfer_buff += TxPctSize;
 800205e:	6a53      	ldr	r3, [r2, #36]	@ 0x24
              ep->xfer_count += TxPctSize;
              (void)USB_EPStartXfer(hpcd->Instance, ep);
 8002060:	4421      	add	r1, r4
              ep->xfer_buff += TxPctSize;
 8002062:	442b      	add	r3, r5
 8002064:	6253      	str	r3, [r2, #36]	@ 0x24
              ep->xfer_count += TxPctSize;
 8002066:	6ad3      	ldr	r3, [r2, #44]	@ 0x2c
 8002068:	442b      	add	r3, r5
 800206a:	62d3      	str	r3, [r2, #44]	@ 0x2c
              (void)USB_EPStartXfer(hpcd->Instance, ep);
 800206c:	f002 fab4 	bl	80045d8 <USB_EPStartXfer>
  while ((hpcd->Instance->ISTR & USB_ISTR_CTR) != 0U)
 8002070:	6820      	ldr	r0, [r4, #0]
 8002072:	e7b2      	b.n	8001fda <HAL_PCD_IRQHandler+0x92>
      store_ep[i] = PCD_GET_ENDPOINT(hpcd->Instance, i);
 8002074:	6823      	ldr	r3, [r4, #0]
 8002076:	f8b3 9000 	ldrh.w	r9, [r3]
 800207a:	f8b3 8004 	ldrh.w	r8, [r3, #4]
 800207e:	f8b3 e008 	ldrh.w	lr, [r3, #8]
 8002082:	f8b3 c00c 	ldrh.w	ip, [r3, #12]
 8002086:	8a1f      	ldrh	r7, [r3, #16]
 8002088:	8a9e      	ldrh	r6, [r3, #20]
 800208a:	8b1d      	ldrh	r5, [r3, #24]
 800208c:	8b99      	ldrh	r1, [r3, #28]
    hpcd->Instance->CNTR |= (uint16_t)(USB_CNTR_FRES);
 800208e:	f8b3 2040 	ldrh.w	r2, [r3, #64]	@ 0x40
      store_ep[i] = PCD_GET_ENDPOINT(hpcd->Instance, i);
 8002092:	fa1f f989 	uxth.w	r9, r9
    hpcd->Instance->CNTR |= (uint16_t)(USB_CNTR_FRES);
 8002096:	b292      	uxth	r2, r2
 8002098:	f042 0201 	orr.w	r2, r2, #1
 800209c:	f8a3 2040 	strh.w	r2, [r3, #64]	@ 0x40
    hpcd->Instance->CNTR &= (uint16_t)(~USB_CNTR_FRES);
 80020a0:	f8b3 2040 	ldrh.w	r2, [r3, #64]	@ 0x40
      store_ep[i] = PCD_GET_ENDPOINT(hpcd->Instance, i);
 80020a4:	fa1f f888 	uxth.w	r8, r8
    hpcd->Instance->CNTR &= (uint16_t)(~USB_CNTR_FRES);
 80020a8:	f022 0201 	bic.w	r2, r2, #1
 80020ac:	0412      	lsls	r2, r2, #16
 80020ae:	0c12      	lsrs	r2, r2, #16
      store_ep[i] = PCD_GET_ENDPOINT(hpcd->Instance, i);
 80020b0:	fa1f fe8e 	uxth.w	lr, lr
 80020b4:	fa1f fc8c 	uxth.w	ip, ip
 80020b8:	b2bf      	uxth	r7, r7
 80020ba:	b2b6      	uxth	r6, r6
 80020bc:	b2ad      	uxth	r5, r5
 80020be:	b289      	uxth	r1, r1
    hpcd->Instance->CNTR &= (uint16_t)(~USB_CNTR_FRES);
 80020c0:	f8a3 2040 	strh.w	r2, [r3, #64]	@ 0x40
    while ((hpcd->Instance->ISTR & USB_ISTR_RESET) == 0U)
 80020c4:	f8b3 2044 	ldrh.w	r2, [r3, #68]	@ 0x44
 80020c8:	0550      	lsls	r0, r2, #21
 80020ca:	d5fb      	bpl.n	80020c4 <HAL_PCD_IRQHandler+0x17c>
    __HAL_PCD_CLEAR_FLAG(hpcd, USB_ISTR_RESET);
 80020cc:	f8b3 2044 	ldrh.w	r2, [r3, #68]	@ 0x44
    HAL_PCD_SuspendCallback(hpcd);
 80020d0:	4620      	mov	r0, r4
    __HAL_PCD_CLEAR_FLAG(hpcd, USB_ISTR_RESET);
 80020d2:	f422 6280 	bic.w	r2, r2, #1024	@ 0x400
 80020d6:	0412      	lsls	r2, r2, #16
 80020d8:	0c12      	lsrs	r2, r2, #16
 80020da:	f8a3 2044 	strh.w	r2, [r3, #68]	@ 0x44
      PCD_SET_ENDPOINT(hpcd->Instance, i, store_ep[i]);
 80020de:	f8a3 9000 	strh.w	r9, [r3]
 80020e2:	f8a3 8004 	strh.w	r8, [r3, #4]
 80020e6:	f8a3 e008 	strh.w	lr, [r3, #8]
 80020ea:	f8a3 c00c 	strh.w	ip, [r3, #12]
 80020ee:	821f      	strh	r7, [r3, #16]
 80020f0:	829e      	strh	r6, [r3, #20]
 80020f2:	831d      	strh	r5, [r3, #24]
 80020f4:	8399      	strh	r1, [r3, #28]
    hpcd->Instance->CNTR |= (uint16_t)USB_CNTR_FSUSP;
 80020f6:	f8b3 2040 	ldrh.w	r2, [r3, #64]	@ 0x40
 80020fa:	b292      	uxth	r2, r2
 80020fc:	f042 0208 	orr.w	r2, r2, #8
 8002100:	f8a3 2040 	strh.w	r2, [r3, #64]	@ 0x40
    __HAL_PCD_CLEAR_FLAG(hpcd, USB_ISTR_SUSP);
 8002104:	f8b3 2044 	ldrh.w	r2, [r3, #68]	@ 0x44
 8002108:	f422 6200 	bic.w	r2, r2, #2048	@ 0x800
 800210c:	0412      	lsls	r2, r2, #16
 800210e:	0c12      	lsrs	r2, r2, #16
 8002110:	f8a3 2044 	strh.w	r2, [r3, #68]	@ 0x44
    hpcd->Instance->CNTR |= (uint16_t)USB_CNTR_LP_MODE;
 8002114:	f8b3 2040 	ldrh.w	r2, [r3, #64]	@ 0x40
 8002118:	b292      	uxth	r2, r2
 800211a:	f042 0204 	orr.w	r2, r2, #4
 800211e:	f8a3 2040 	strh.w	r2, [r3, #64]	@ 0x40
    HAL_PCD_SuspendCallback(hpcd);
 8002122:	f003 fc7d 	bl	8005a20 <HAL_PCD_SuspendCallback>
    return;
 8002126:	e73d      	b.n	8001fa4 <HAL_PCD_IRQHandler+0x5c>
        PCD_CLEAR_RX_EP_CTR(hpcd->Instance, epindex);
 8002128:	f830 3025 	ldrh.w	r3, [r0, r5, lsl #2]
        if (ep->doublebuffer == 0U)
 800212c:	eb08 0105 	add.w	r1, r8, r5
        PCD_CLEAR_RX_EP_CTR(hpcd->Instance, epindex);
 8002130:	403b      	ands	r3, r7
 8002132:	f043 0380 	orr.w	r3, r3, #128	@ 0x80
 8002136:	f820 3025 	strh.w	r3, [r0, r5, lsl #2]
        if (ep->doublebuffer == 0U)
 800213a:	eb04 01c1 	add.w	r1, r4, r1, lsl #3
 800213e:	f891 315c 	ldrb.w	r3, [r1, #348]	@ 0x15c
 8002142:	f500 6280 	add.w	r2, r0, #1024	@ 0x400
 8002146:	2b00      	cmp	r3, #0
 8002148:	d17a      	bne.n	8002240 <HAL_PCD_IRQHandler+0x2f8>
          count = (uint16_t)PCD_GET_EP_RX_CNT(hpcd->Instance, ep->num);
 800214a:	f8b0 3050 	ldrh.w	r3, [r0, #80]	@ 0x50
 800214e:	f891 c150 	ldrb.w	ip, [r1, #336]	@ 0x150
 8002152:	b29b      	uxth	r3, r3
 8002154:	3306      	adds	r3, #6
 8002156:	eb03 03cc 	add.w	r3, r3, ip, lsl #3
 800215a:	f832 a013 	ldrh.w	sl, [r2, r3, lsl #1]
 800215e:	f3ca 0a09 	ubfx	sl, sl, #0, #10
          if (count != 0U)
 8002162:	f1ba 0f00 	cmp.w	sl, #0
 8002166:	f040 820d 	bne.w	8002584 <HAL_PCD_IRQHandler+0x63c>
{
 800216a:	f04f 0a00 	mov.w	sl, #0
        ep->xfer_count += count;
 800216e:	eb08 0205 	add.w	r2, r8, r5
 8002172:	eb04 03c2 	add.w	r3, r4, r2, lsl #3
 8002176:	00d1      	lsls	r1, r2, #3
 8002178:	f8d3 216c 	ldr.w	r2, [r3, #364]	@ 0x16c
 800217c:	4452      	add	r2, sl
 800217e:	f8c3 216c 	str.w	r2, [r3, #364]	@ 0x16c
        ep->xfer_buff += count;
 8002182:	f8d3 2164 	ldr.w	r2, [r3, #356]	@ 0x164
 8002186:	4452      	add	r2, sl
 8002188:	f8c3 2164 	str.w	r2, [r3, #356]	@ 0x164
        if ((ep->xfer_len == 0U) || (count < ep->maxpacket))
 800218c:	f8d3 2168 	ldr.w	r2, [r3, #360]	@ 0x168
 8002190:	b122      	cbz	r2, 800219c <HAL_PCD_IRQHandler+0x254>
 8002192:	f8d3 3160 	ldr.w	r3, [r3, #352]	@ 0x160
 8002196:	4553      	cmp	r3, sl
 8002198:	f240 81bb 	bls.w	8002512 <HAL_PCD_IRQHandler+0x5ca>
          HAL_PCD_DataOutStageCallback(hpcd, ep->num);
 800219c:	eb08 0305 	add.w	r3, r8, r5
 80021a0:	eb04 03c3 	add.w	r3, r4, r3, lsl #3
 80021a4:	4620      	mov	r0, r4
 80021a6:	f893 1150 	ldrb.w	r1, [r3, #336]	@ 0x150
 80021aa:	f003 fc0f 	bl	80059cc <HAL_PCD_DataOutStageCallback>
        PCD_CLEAR_TX_EP_CTR(hpcd->Instance, epindex);
 80021ae:	6820      	ldr	r0, [r4, #0]
          HAL_PCD_DataOutStageCallback(hpcd, ep->num);
 80021b0:	e726      	b.n	8002000 <HAL_PCD_IRQHandler+0xb8>
        PCD_CLEAR_TX_EP_CTR(hpcd->Instance, PCD_ENDP0);
 80021b2:	8803      	ldrh	r3, [r0, #0]
 80021b4:	b29b      	uxth	r3, r3
 80021b6:	4033      	ands	r3, r6
 80021b8:	f443 4300 	orr.w	r3, r3, #32768	@ 0x8000
 80021bc:	8003      	strh	r3, [r0, #0]
        ep->xfer_count = PCD_GET_EP_TX_CNT(hpcd->Instance, ep->num);
 80021be:	f8b0 3050 	ldrh.w	r3, [r0, #80]	@ 0x50
 80021c2:	7c22      	ldrb	r2, [r4, #16]
 80021c4:	b29b      	uxth	r3, r3
 80021c6:	eb03 03c2 	add.w	r3, r3, r2, lsl #3
 80021ca:	eb00 0343 	add.w	r3, r0, r3, lsl #1
 80021ce:	f8b3 3404 	ldrh.w	r3, [r3, #1028]	@ 0x404
        ep->xfer_buff += ep->xfer_count;
 80021d2:	6a62      	ldr	r2, [r4, #36]	@ 0x24
        ep->xfer_count = PCD_GET_EP_TX_CNT(hpcd->Instance, ep->num);
 80021d4:	f3c3 0309 	ubfx	r3, r3, #0, #10
        ep->xfer_buff += ep->xfer_count;
 80021d8:	441a      	add	r2, r3
        ep->xfer_count = PCD_GET_EP_TX_CNT(hpcd->Instance, ep->num);
 80021da:	62e3      	str	r3, [r4, #44]	@ 0x2c
        HAL_PCD_DataInStageCallback(hpcd, 0U);
 80021dc:	4620      	mov	r0, r4
        ep->xfer_buff += ep->xfer_count;
 80021de:	6262      	str	r2, [r4, #36]	@ 0x24
        HAL_PCD_DataInStageCallback(hpcd, 0U);
 80021e0:	f003 fbfe 	bl	80059e0 <HAL_PCD_DataInStageCallback>
        if ((hpcd->USB_Address > 0U) && (ep->xfer_len == 0U))
 80021e4:	7b63      	ldrb	r3, [r4, #13]
 80021e6:	b34b      	cbz	r3, 800223c <HAL_PCD_IRQHandler+0x2f4>
 80021e8:	6aa3      	ldr	r3, [r4, #40]	@ 0x28
          hpcd->Instance->DADDR = ((uint16_t)hpcd->USB_Address | USB_DADDR_EF);
 80021ea:	6820      	ldr	r0, [r4, #0]
        if ((hpcd->USB_Address > 0U) && (ep->xfer_len == 0U))
 80021ec:	2b00      	cmp	r3, #0
 80021ee:	f47f aef4 	bne.w	8001fda <HAL_PCD_IRQHandler+0x92>
          hpcd->Instance->DADDR = ((uint16_t)hpcd->USB_Address | USB_DADDR_EF);
 80021f2:	7b62      	ldrb	r2, [r4, #13]
 80021f4:	f042 0280 	orr.w	r2, r2, #128	@ 0x80
 80021f8:	f8a0 204c 	strh.w	r2, [r0, #76]	@ 0x4c
          hpcd->USB_Address = 0U;
 80021fc:	7363      	strb	r3, [r4, #13]
 80021fe:	e6ec      	b.n	8001fda <HAL_PCD_IRQHandler+0x92>
          ep->xfer_count = PCD_GET_EP_RX_CNT(hpcd->Instance, ep->num);
 8002200:	f8b0 3050 	ldrh.w	r3, [r0, #80]	@ 0x50
 8002204:	f894 2150 	ldrb.w	r2, [r4, #336]	@ 0x150
 8002208:	b29b      	uxth	r3, r3
 800220a:	eb03 03c2 	add.w	r3, r3, r2, lsl #3
 800220e:	eb00 0343 	add.w	r3, r0, r3, lsl #1
 8002212:	f8b3 340c 	ldrh.w	r3, [r3, #1036]	@ 0x40c
          USB_ReadPMA(hpcd->Instance, (uint8_t *)hpcd->Setup,
 8002216:	f8b4 2156 	ldrh.w	r2, [r4, #342]	@ 0x156
 800221a:	f3c3 0309 	ubfx	r3, r3, #0, #10
          ep->xfer_count = PCD_GET_EP_RX_CNT(hpcd->Instance, ep->num);
 800221e:	f8c4 316c 	str.w	r3, [r4, #364]	@ 0x16c
          USB_ReadPMA(hpcd->Instance, (uint8_t *)hpcd->Setup,
 8002222:	f504 7126 	add.w	r1, r4, #664	@ 0x298
 8002226:	f002 fce5 	bl	8004bf4 <USB_ReadPMA>
          PCD_CLEAR_RX_EP_CTR(hpcd->Instance, PCD_ENDP0);
 800222a:	6822      	ldr	r2, [r4, #0]
          HAL_PCD_SetupStageCallback(hpcd);
 800222c:	4620      	mov	r0, r4
          PCD_CLEAR_RX_EP_CTR(hpcd->Instance, PCD_ENDP0);
 800222e:	8813      	ldrh	r3, [r2, #0]
 8002230:	403b      	ands	r3, r7
 8002232:	f043 0380 	orr.w	r3, r3, #128	@ 0x80
 8002236:	8013      	strh	r3, [r2, #0]
          HAL_PCD_SetupStageCallback(hpcd);
 8002238:	f003 fbc0 	bl	80059bc <HAL_PCD_SetupStageCallback>
  while ((hpcd->Instance->ISTR & USB_ISTR_CTR) != 0U)
 800223c:	6820      	ldr	r0, [r4, #0]
 800223e:	e6cc      	b.n	8001fda <HAL_PCD_IRQHandler+0x92>
          if (ep->type == EP_TYPE_BULK)
 8002240:	f891 3153 	ldrb.w	r3, [r1, #339]	@ 0x153

  /* Manage Buffer0 OUT */
  if ((wEPVal & USB_EP_DTOG_RX) != 0U)
  {
    /* Get count of received Data on buffer0 */
    count = (uint16_t)PCD_GET_EP_DBUF0_CNT(hpcd->Instance, ep->num);
 8002244:	f891 c150 	ldrb.w	ip, [r1, #336]	@ 0x150
          if (ep->type == EP_TYPE_BULK)
 8002248:	2b02      	cmp	r3, #2
 800224a:	f000 81eb 	beq.w	8002624 <HAL_PCD_IRQHandler+0x6dc>
            PCD_FREE_USER_BUFFER(hpcd->Instance, ep->num, 0U);
 800224e:	f830 302c 	ldrh.w	r3, [r0, ip, lsl #2]
 8002252:	f423 43e0 	bic.w	r3, r3, #28672	@ 0x7000
 8002256:	f023 0370 	bic.w	r3, r3, #112	@ 0x70
 800225a:	041b      	lsls	r3, r3, #16
 800225c:	0c1b      	lsrs	r3, r3, #16
 800225e:	f443 4300 	orr.w	r3, r3, #32768	@ 0x8000
 8002262:	f043 03c0 	orr.w	r3, r3, #192	@ 0xc0
 8002266:	f820 302c 	strh.w	r3, [r0, ip, lsl #2]
            if ((PCD_GET_ENDPOINT(hpcd->Instance, ep->num) & USB_EP_DTOG_RX) != 0U)
 800226a:	f891 c150 	ldrb.w	ip, [r1, #336]	@ 0x150
 800226e:	f830 302c 	ldrh.w	r3, [r0, ip, lsl #2]
 8002272:	f413 4f80 	tst.w	r3, #16384	@ 0x4000
              count = (uint16_t)PCD_GET_EP_DBUF0_CNT(hpcd->Instance, ep->num);
 8002276:	f8b0 3050 	ldrh.w	r3, [r0, #80]	@ 0x50
 800227a:	b29b      	uxth	r3, r3
            if ((PCD_GET_ENDPOINT(hpcd->Instance, ep->num) & USB_EP_DTOG_RX) != 0U)
 800227c:	f000 8151 	beq.w	8002522 <HAL_PCD_IRQHandler+0x5da>
              count = (uint16_t)PCD_GET_EP_DBUF0_CNT(hpcd->Instance, ep->num);
 8002280:	3302      	adds	r3, #2
 8002282:	eb03 03cc 	add.w	r3, r3, ip, lsl #3
 8002286:	f832 a013 	ldrh.w	sl, [r2, r3, lsl #1]
 800228a:	f3ca 0a09 	ubfx	sl, sl, #0, #10
              if (count != 0U)
 800228e:	f1ba 0f00 	cmp.w	sl, #0
 8002292:	f43f af6a 	beq.w	800216a <HAL_PCD_IRQHandler+0x222>
                USB_ReadPMA(hpcd->Instance, ep->xfer_buff, ep->pmaaddr0, count);
 8002296:	f8b1 2158 	ldrh.w	r2, [r1, #344]	@ 0x158
 800229a:	4653      	mov	r3, sl
 800229c:	f8d1 1164 	ldr.w	r1, [r1, #356]	@ 0x164
 80022a0:	f002 fca8 	bl	8004bf4 <USB_ReadPMA>
 80022a4:	e763      	b.n	800216e <HAL_PCD_IRQHandler+0x226>
    __HAL_PCD_CLEAR_FLAG(hpcd, USB_ISTR_RESET);
 80022a6:	6822      	ldr	r2, [r4, #0]
    HAL_PCD_ResetCallback(hpcd);
 80022a8:	4620      	mov	r0, r4
    __HAL_PCD_CLEAR_FLAG(hpcd, USB_ISTR_RESET);
 80022aa:	f8b2 3044 	ldrh.w	r3, [r2, #68]	@ 0x44
 80022ae:	f423 6380 	bic.w	r3, r3, #1024	@ 0x400
 80022b2:	041b      	lsls	r3, r3, #16
 80022b4:	0c1b      	lsrs	r3, r3, #16
 80022b6:	f8a2 3044 	strh.w	r3, [r2, #68]	@ 0x44
    HAL_PCD_ResetCallback(hpcd);
 80022ba:	f003 fb9f 	bl	80059fc <HAL_PCD_ResetCallback>
  __HAL_LOCK(hpcd);
 80022be:	f894 3290 	ldrb.w	r3, [r4, #656]	@ 0x290
 80022c2:	2b01      	cmp	r3, #1
 80022c4:	f43f ae6e 	beq.w	8001fa4 <HAL_PCD_IRQHandler+0x5c>
 80022c8:	2301      	movs	r3, #1
  (void)USB_SetDevAddress(hpcd->Instance, address);
 80022ca:	4629      	mov	r1, r5
 80022cc:	6820      	ldr	r0, [r4, #0]
  hpcd->USB_Address = address;
 80022ce:	7365      	strb	r5, [r4, #13]
  __HAL_LOCK(hpcd);
 80022d0:	f884 3290 	strb.w	r3, [r4, #656]	@ 0x290
  (void)USB_SetDevAddress(hpcd->Instance, address);
 80022d4:	f002 fc6e 	bl	8004bb4 <USB_SetDevAddress>
  __HAL_UNLOCK(hpcd);
 80022d8:	f884 5290 	strb.w	r5, [r4, #656]	@ 0x290
}
 80022dc:	e8bd 8ff8 	ldmia.w	sp!, {r3, r4, r5, r6, r7, r8, r9, sl, fp, pc}
          PCD_CLEAR_RX_EP_CTR(hpcd->Instance, PCD_ENDP0);
 80022e0:	f640 738f 	movw	r3, #3983	@ 0xf8f
 80022e4:	8802      	ldrh	r2, [r0, #0]
 80022e6:	4013      	ands	r3, r2
 80022e8:	f043 0380 	orr.w	r3, r3, #128	@ 0x80
 80022ec:	8003      	strh	r3, [r0, #0]
          ep->xfer_count = PCD_GET_EP_RX_CNT(hpcd->Instance, ep->num);
 80022ee:	f8b0 3050 	ldrh.w	r3, [r0, #80]	@ 0x50
 80022f2:	f894 2150 	ldrb.w	r2, [r4, #336]	@ 0x150
 80022f6:	b29b      	uxth	r3, r3
 80022f8:	eb03 03c2 	add.w	r3, r3, r2, lsl #3
 80022fc:	eb00 0343 	add.w	r3, r0, r3, lsl #1
 8002300:	f8b3 340c 	ldrh.w	r3, [r3, #1036]	@ 0x40c
 8002304:	f3c3 0309 	ubfx	r3, r3, #0, #10
 8002308:	f8c4 316c 	str.w	r3, [r4, #364]	@ 0x16c
          if ((ep->xfer_count != 0U) && (ep->xfer_buff != 0U))
 800230c:	b193      	cbz	r3, 8002334 <HAL_PCD_IRQHandler+0x3ec>
 800230e:	f8d4 1164 	ldr.w	r1, [r4, #356]	@ 0x164
 8002312:	b179      	cbz	r1, 8002334 <HAL_PCD_IRQHandler+0x3ec>
            USB_ReadPMA(hpcd->Instance, ep->xfer_buff,
 8002314:	f8b4 2156 	ldrh.w	r2, [r4, #342]	@ 0x156
 8002318:	f002 fc6c 	bl	8004bf4 <USB_ReadPMA>
            ep->xfer_buff += ep->xfer_count;
 800231c:	f8d4 3164 	ldr.w	r3, [r4, #356]	@ 0x164
 8002320:	f8d4 216c 	ldr.w	r2, [r4, #364]	@ 0x16c
            HAL_PCD_DataOutStageCallback(hpcd, 0U);
 8002324:	4620      	mov	r0, r4
            ep->xfer_buff += ep->xfer_count;
 8002326:	4413      	add	r3, r2
            HAL_PCD_DataOutStageCallback(hpcd, 0U);
 8002328:	4629      	mov	r1, r5
            ep->xfer_buff += ep->xfer_count;
 800232a:	f8c4 3164 	str.w	r3, [r4, #356]	@ 0x164
            HAL_PCD_DataOutStageCallback(hpcd, 0U);
 800232e:	f003 fb4d 	bl	80059cc <HAL_PCD_DataOutStageCallback>
          wEPVal = (uint16_t)PCD_GET_ENDPOINT(hpcd->Instance, PCD_ENDP0);
 8002332:	6820      	ldr	r0, [r4, #0]
 8002334:	8803      	ldrh	r3, [r0, #0]
          if (((wEPVal & USB_EP_SETUP) == 0U) && ((wEPVal & USB_EP_RX_STRX) != USB_EP_RX_VALID))
 8002336:	0519      	lsls	r1, r3, #20
          wEPVal = (uint16_t)PCD_GET_ENDPOINT(hpcd->Instance, PCD_ENDP0);
 8002338:	b29a      	uxth	r2, r3
          if (((wEPVal & USB_EP_SETUP) == 0U) && ((wEPVal & USB_EP_RX_STRX) != USB_EP_RX_VALID))
 800233a:	f53f ae4e 	bmi.w	8001fda <HAL_PCD_IRQHandler+0x92>
 800233e:	f402 5240 	and.w	r2, r2, #12288	@ 0x3000
 8002342:	f5b2 5f40 	cmp.w	r2, #12288	@ 0x3000
 8002346:	f43f ae48 	beq.w	8001fda <HAL_PCD_IRQHandler+0x92>
            PCD_SET_EP_RX_CNT(hpcd->Instance, PCD_ENDP0, ep->maxpacket);
 800234a:	f8b0 3050 	ldrh.w	r3, [r0, #80]	@ 0x50
 800234e:	f200 410c 	addw	r1, r0, #1036	@ 0x40c
 8002352:	b29b      	uxth	r3, r3
 8002354:	5aca      	ldrh	r2, [r1, r3]
 8002356:	f3c2 0209 	ubfx	r2, r2, #0, #10
 800235a:	52ca      	strh	r2, [r1, r3]
 800235c:	f8d4 2160 	ldr.w	r2, [r4, #352]	@ 0x160
 8002360:	2a3e      	cmp	r2, #62	@ 0x3e
 8002362:	f240 81b5 	bls.w	80026d0 <HAL_PCD_IRQHandler+0x788>
 8002366:	0955      	lsrs	r5, r2, #5
 8002368:	06d2      	lsls	r2, r2, #27
 800236a:	5aca      	ldrh	r2, [r1, r3]
 800236c:	bf08      	it	eq
 800236e:	f105 35ff 	addeq.w	r5, r5, #4294967295
 8002372:	b292      	uxth	r2, r2
 8002374:	ea42 2285 	orr.w	r2, r2, r5, lsl #10
 8002378:	ea6f 4242 	mvn.w	r2, r2, lsl #17
 800237c:	ea6f 4252 	mvn.w	r2, r2, lsr #17
 8002380:	b292      	uxth	r2, r2
 8002382:	52ca      	strh	r2, [r1, r3]
            PCD_SET_EP_RX_STATUS(hpcd->Instance, PCD_ENDP0, USB_EP_RX_VALID);
 8002384:	8803      	ldrh	r3, [r0, #0]
 8002386:	f423 4380 	bic.w	r3, r3, #16384	@ 0x4000
 800238a:	f023 0370 	bic.w	r3, r3, #112	@ 0x70
 800238e:	041b      	lsls	r3, r3, #16
 8002390:	0c1b      	lsrs	r3, r3, #16
 8002392:	f483 5340 	eor.w	r3, r3, #12288	@ 0x3000
 8002396:	f443 4300 	orr.w	r3, r3, #32768	@ 0x8000
 800239a:	f043 0380 	orr.w	r3, r3, #128	@ 0x80
 800239e:	8003      	strh	r3, [r0, #0]
 80023a0:	e61b      	b.n	8001fda <HAL_PCD_IRQHandler+0x92>
    __HAL_PCD_CLEAR_FLAG(hpcd, USB_ISTR_ERR);
 80023a2:	6822      	ldr	r2, [r4, #0]
 80023a4:	f8b2 3044 	ldrh.w	r3, [r2, #68]	@ 0x44
 80023a8:	f423 5300 	bic.w	r3, r3, #8192	@ 0x2000
 80023ac:	041b      	lsls	r3, r3, #16
 80023ae:	0c1b      	lsrs	r3, r3, #16
 80023b0:	f8a2 3044 	strh.w	r3, [r2, #68]	@ 0x44
}
 80023b4:	e8bd 8ff8 	ldmia.w	sp!, {r3, r4, r5, r6, r7, r8, r9, sl, fp, pc}
          ep->xfer_len = 0U;
 80023b8:	2100      	movs	r1, #0
 80023ba:	1c6b      	adds	r3, r5, #1
 80023bc:	eb03 0383 	add.w	r3, r3, r3, lsl #2
 80023c0:	f844 1033 	str.w	r1, [r4, r3, lsl #3]
          if (ep->doublebuffer != 0U)
 80023c4:	7f13      	ldrb	r3, [r2, #28]
 80023c6:	b1c3      	cbz	r3, 80023fa <HAL_PCD_IRQHandler+0x4b2>
            if ((wEPVal & USB_EP_DTOG_TX) != 0U)
 80023c8:	f019 0940 	ands.w	r9, r9, #64	@ 0x40
              PCD_SET_EP_DBUF0_CNT(hpcd->Instance, ep->num, ep->is_in, 0U);
 80023cc:	7c53      	ldrb	r3, [r2, #17]
            if ((wEPVal & USB_EP_DTOG_TX) != 0U)
 80023ce:	f040 811e 	bne.w	800260e <HAL_PCD_IRQHandler+0x6c6>
              PCD_SET_EP_DBUF1_CNT(hpcd->Instance, ep->num, ep->is_in, 0U);
 80023d2:	2b00      	cmp	r3, #0
 80023d4:	f040 8209 	bne.w	80027ea <HAL_PCD_IRQHandler+0x8a2>
 80023d8:	7c13      	ldrb	r3, [r2, #16]
 80023da:	f8b0 2050 	ldrh.w	r2, [r0, #80]	@ 0x50
 80023de:	eb00 1303 	add.w	r3, r0, r3, lsl #4
 80023e2:	f203 430c 	addw	r3, r3, #1036	@ 0x40c
 80023e6:	b292      	uxth	r2, r2
 80023e8:	5a99      	ldrh	r1, [r3, r2]
 80023ea:	f3c1 0109 	ubfx	r1, r1, #0, #10
 80023ee:	5299      	strh	r1, [r3, r2]
 80023f0:	5a99      	ldrh	r1, [r3, r2]
 80023f2:	b289      	uxth	r1, r1
 80023f4:	f441 4100 	orr.w	r1, r1, #32768	@ 0x8000
 80023f8:	5299      	strh	r1, [r3, r2]
          HAL_PCD_DataInStageCallback(hpcd, ep->num);
 80023fa:	44a8      	add	r8, r5
 80023fc:	eb04 08c8 	add.w	r8, r4, r8, lsl #3
 8002400:	4620      	mov	r0, r4
 8002402:	f898 1010 	ldrb.w	r1, [r8, #16]
 8002406:	f003 faeb 	bl	80059e0 <HAL_PCD_DataInStageCallback>
  while ((hpcd->Instance->ISTR & USB_ISTR_CTR) != 0U)
 800240a:	6820      	ldr	r0, [r4, #0]
 800240c:	e5e5      	b.n	8001fda <HAL_PCD_IRQHandler+0x92>
              HAL_PCD_DataInStageCallback(hpcd, ep->num);
 800240e:	4620      	mov	r0, r4
 8002410:	4661      	mov	r1, ip
 8002412:	f8c2 a028 	str.w	sl, [r2, #40]	@ 0x28
 8002416:	f003 fae3 	bl	80059e0 <HAL_PCD_DataInStageCallback>
  while ((hpcd->Instance->ISTR & USB_ISTR_CTR) != 0U)
 800241a:	6820      	ldr	r0, [r4, #0]
 800241c:	e5dd      	b.n	8001fda <HAL_PCD_IRQHandler+0x92>

  /* Data Buffer0 ACK received */
  if ((wEPVal & USB_EP_DTOG_TX) != 0U)
  {
    /* multi-packet on the NON control IN endpoint */
    TxPctSize = (uint16_t)PCD_GET_EP_DBUF0_CNT(hpcd->Instance, ep->num);
 800241e:	f8b0 3050 	ldrh.w	r3, [r0, #80]	@ 0x50
 8002422:	f409 4a80 	and.w	sl, r9, #16384	@ 0x4000
 8002426:	b29b      	uxth	r3, r3
  if ((wEPVal & USB_EP_DTOG_TX) != 0U)
 8002428:	f019 0940 	ands.w	r9, r9, #64	@ 0x40
    TxPctSize = (uint16_t)PCD_GET_EP_DBUF0_CNT(hpcd->Instance, ep->num);
 800242c:	445b      	add	r3, fp
  if ((wEPVal & USB_EP_DTOG_TX) != 0U)
 800242e:	f000 80b1 	beq.w	8002594 <HAL_PCD_IRQHandler+0x64c>
    TxPctSize = (uint16_t)PCD_GET_EP_DBUF0_CNT(hpcd->Instance, ep->num);
 8002432:	3302      	adds	r3, #2
 8002434:	f83e 3013 	ldrh.w	r3, [lr, r3, lsl #1]
 8002438:	f3c3 0309 	ubfx	r3, r3, #0, #10

    if (ep->xfer_len > TxPctSize)
 800243c:	428b      	cmp	r3, r1
 800243e:	f080 81a0 	bcs.w	8002782 <HAL_PCD_IRQHandler+0x83a>
    {
      ep->xfer_len -= TxPctSize;
 8002442:	1ac9      	subs	r1, r1, r3
 8002444:	6291      	str	r1, [r2, #40]	@ 0x28
      }
    }
    else /* Transfer is not yet Done */
    {
      /* need to Free USB Buff */
      if ((wEPVal & USB_EP_DTOG_RX) != 0U)
 8002446:	f1ba 0f00 	cmp.w	sl, #0
 800244a:	d00d      	beq.n	8002468 <HAL_PCD_IRQHandler+0x520>
      {
        PCD_FREE_USER_BUFFER(hpcd->Instance, ep->num, 1U);
 800244c:	f830 102c 	ldrh.w	r1, [r0, ip, lsl #2]
 8002450:	f421 41e0 	bic.w	r1, r1, #28672	@ 0x7000
 8002454:	f021 0170 	bic.w	r1, r1, #112	@ 0x70
 8002458:	0409      	lsls	r1, r1, #16
 800245a:	0c09      	lsrs	r1, r1, #16
 800245c:	f441 4140 	orr.w	r1, r1, #49152	@ 0xc000
 8002460:	f041 0180 	orr.w	r1, r1, #128	@ 0x80
 8002464:	f820 102c 	strh.w	r1, [r0, ip, lsl #2]
      }

      /* Still there is data to Fill in the next Buffer */
      if (ep->xfer_fill_db == 1U)
 8002468:	eb08 0e05 	add.w	lr, r8, r5
 800246c:	eb04 0ece 	add.w	lr, r4, lr, lsl #3
 8002470:	f89e 1034 	ldrb.w	r1, [lr, #52]	@ 0x34
 8002474:	2901      	cmp	r1, #1
 8002476:	f040 80b4 	bne.w	80025e2 <HAL_PCD_IRQHandler+0x69a>
      {
        ep->xfer_buff += TxPctSize;
 800247a:	f8de 1024 	ldr.w	r1, [lr, #36]	@ 0x24
 800247e:	4419      	add	r1, r3
 8002480:	f8ce 1024 	str.w	r1, [lr, #36]	@ 0x24
        ep->xfer_count += TxPctSize;
 8002484:	f8d2 902c 	ldr.w	r9, [r2, #44]	@ 0x2c
 8002488:	4499      	add	r9, r3
 800248a:	f8c2 902c 	str.w	r9, [r2, #44]	@ 0x2c

        /* Calculate the len of the new buffer to fill */
        if (ep->xfer_len_db >= ep->maxpacket)
 800248e:	f8de 9030 	ldr.w	r9, [lr, #48]	@ 0x30
 8002492:	f8de 2020 	ldr.w	r2, [lr, #32]
 8002496:	4591      	cmp	r9, r2
 8002498:	f0c0 8290 	bcc.w	80029bc <HAL_PCD_IRQHandler+0xa74>
        {
          len = ep->maxpacket;
          ep->xfer_len_db -= len;
 800249c:	eba9 0302 	sub.w	r3, r9, r2
 80024a0:	f8ce 3030 	str.w	r3, [lr, #48]	@ 0x30
          ep->xfer_len_db = 0U;
        }

        /* Write remaining Data to Buffer */
        /* Set the Double buffer counter for pma buffer1 */
        PCD_SET_EP_DBUF0_CNT(hpcd->Instance, ep->num, ep->is_in, len);
 80024a4:	b293      	uxth	r3, r2
 80024a6:	eb08 0e05 	add.w	lr, r8, r5
 80024aa:	eb04 0ece 	add.w	lr, r4, lr, lsl #3
 80024ae:	f89e e011 	ldrb.w	lr, [lr, #17]
 80024b2:	f1be 0f00 	cmp.w	lr, #0
 80024b6:	f040 8273 	bne.w	80029a0 <HAL_PCD_IRQHandler+0xa58>
 80024ba:	eb00 1c0c 	add.w	ip, r0, ip, lsl #4
 80024be:	f20c 4e04 	addw	lr, ip, #1028	@ 0x404
 80024c2:	f8b0 c050 	ldrh.w	ip, [r0, #80]	@ 0x50
 80024c6:	2a3e      	cmp	r2, #62	@ 0x3e
 80024c8:	fa1f fc8c 	uxth.w	ip, ip
 80024cc:	f83e 900c 	ldrh.w	r9, [lr, ip]
 80024d0:	f3c9 0909 	ubfx	r9, r9, #0, #10
 80024d4:	f82e 900c 	strh.w	r9, [lr, ip]
 80024d8:	f240 829f 	bls.w	8002a1a <HAL_PCD_IRQHandler+0xad2>
 80024dc:	ea4f 1952 	mov.w	r9, r2, lsr #5
 80024e0:	06d2      	lsls	r2, r2, #27
 80024e2:	f83e 200c 	ldrh.w	r2, [lr, ip]
 80024e6:	bf08      	it	eq
 80024e8:	f109 39ff 	addeq.w	r9, r9, #4294967295
 80024ec:	b292      	uxth	r2, r2
 80024ee:	ea42 2289 	orr.w	r2, r2, r9, lsl #10
 80024f2:	ea6f 4242 	mvn.w	r2, r2, lsl #17
 80024f6:	ea6f 4252 	mvn.w	r2, r2, lsr #17
 80024fa:	b292      	uxth	r2, r2
 80024fc:	f82e 200c 	strh.w	r2, [lr, ip]

        /* Copy user buffer to USB PMA */
        USB_WritePMA(hpcd->Instance, ep->xfer_buff,  ep->pmaaddr0, (uint16_t)len);
 8002500:	eb08 0205 	add.w	r2, r8, r5
 8002504:	eb04 02c2 	add.w	r2, r4, r2, lsl #3
 8002508:	8b12      	ldrh	r2, [r2, #24]
 800250a:	f002 fb63 	bl	8004bd4 <USB_WritePMA>
      }
    }
  }

  /*enable endpoint IN*/
  PCD_SET_EP_TX_STATUS(hpcd->Instance, ep->num, USB_EP_TX_VALID);
 800250e:	6820      	ldr	r0, [r4, #0]
 8002510:	e067      	b.n	80025e2 <HAL_PCD_IRQHandler+0x69a>
        ep = &hpcd->OUT_ep[epindex];
 8002512:	f501 71a8 	add.w	r1, r1, #336	@ 0x150
          (void)USB_EPStartXfer(hpcd->Instance, ep);
 8002516:	6820      	ldr	r0, [r4, #0]
 8002518:	4421      	add	r1, r4
 800251a:	f002 f85d 	bl	80045d8 <USB_EPStartXfer>
        PCD_CLEAR_TX_EP_CTR(hpcd->Instance, epindex);
 800251e:	6820      	ldr	r0, [r4, #0]
 8002520:	e56e      	b.n	8002000 <HAL_PCD_IRQHandler+0xb8>
              count = (uint16_t)PCD_GET_EP_DBUF1_CNT(hpcd->Instance, ep->num);
 8002522:	3306      	adds	r3, #6
 8002524:	eb03 03cc 	add.w	r3, r3, ip, lsl #3
 8002528:	f832 a013 	ldrh.w	sl, [r2, r3, lsl #1]
 800252c:	f3ca 0a09 	ubfx	sl, sl, #0, #10
              if (count != 0U)
 8002530:	f1ba 0f00 	cmp.w	sl, #0
 8002534:	f43f ae19 	beq.w	800216a <HAL_PCD_IRQHandler+0x222>
                USB_ReadPMA(hpcd->Instance, ep->xfer_buff, ep->pmaaddr1, count);
 8002538:	f8b1 215a 	ldrh.w	r2, [r1, #346]	@ 0x15a
 800253c:	4653      	mov	r3, sl
 800253e:	f8d1 1164 	ldr.w	r1, [r1, #356]	@ 0x164
 8002542:	f002 fb57 	bl	8004bf4 <USB_ReadPMA>
 8002546:	e612      	b.n	800216e <HAL_PCD_IRQHandler+0x226>
    hpcd->Instance->CNTR &= (uint16_t) ~(USB_CNTR_LP_MODE);
 8002548:	6822      	ldr	r2, [r4, #0]
    HAL_PCD_ResumeCallback(hpcd);
 800254a:	4620      	mov	r0, r4
    hpcd->Instance->CNTR &= (uint16_t) ~(USB_CNTR_LP_MODE);
 800254c:	f8b2 3040 	ldrh.w	r3, [r2, #64]	@ 0x40
 8002550:	f023 0304 	bic.w	r3, r3, #4
 8002554:	041b      	lsls	r3, r3, #16
 8002556:	0c1b      	lsrs	r3, r3, #16
 8002558:	f8a2 3040 	strh.w	r3, [r2, #64]	@ 0x40
    hpcd->Instance->CNTR &= (uint16_t) ~(USB_CNTR_FSUSP);
 800255c:	f8b2 3040 	ldrh.w	r3, [r2, #64]	@ 0x40
 8002560:	f023 0308 	bic.w	r3, r3, #8
 8002564:	041b      	lsls	r3, r3, #16
 8002566:	0c1b      	lsrs	r3, r3, #16
 8002568:	f8a2 3040 	strh.w	r3, [r2, #64]	@ 0x40
    HAL_PCD_ResumeCallback(hpcd);
 800256c:	f003 fa6a 	bl	8005a44 <HAL_PCD_ResumeCallback>
    __HAL_PCD_CLEAR_FLAG(hpcd, USB_ISTR_WKUP);
 8002570:	6822      	ldr	r2, [r4, #0]
 8002572:	f8b2 3044 	ldrh.w	r3, [r2, #68]	@ 0x44
 8002576:	f423 5380 	bic.w	r3, r3, #4096	@ 0x1000
 800257a:	041b      	lsls	r3, r3, #16
 800257c:	0c1b      	lsrs	r3, r3, #16
 800257e:	f8a2 3044 	strh.w	r3, [r2, #68]	@ 0x44
    return;
 8002582:	e50f      	b.n	8001fa4 <HAL_PCD_IRQHandler+0x5c>
            USB_ReadPMA(hpcd->Instance, ep->xfer_buff, ep->pmaadress, count);
 8002584:	f8b1 2156 	ldrh.w	r2, [r1, #342]	@ 0x156
 8002588:	4653      	mov	r3, sl
 800258a:	f8d1 1164 	ldr.w	r1, [r1, #356]	@ 0x164
 800258e:	f002 fb31 	bl	8004bf4 <USB_ReadPMA>
 8002592:	e5ec      	b.n	800216e <HAL_PCD_IRQHandler+0x226>
    TxPctSize = (uint16_t)PCD_GET_EP_DBUF1_CNT(hpcd->Instance, ep->num);
 8002594:	3306      	adds	r3, #6
 8002596:	f83e 3013 	ldrh.w	r3, [lr, r3, lsl #1]
 800259a:	f3c3 0309 	ubfx	r3, r3, #0, #10
    if (ep->xfer_len >= TxPctSize)
 800259e:	428b      	cmp	r3, r1
 80025a0:	f200 80a1 	bhi.w	80026e6 <HAL_PCD_IRQHandler+0x79e>
      ep->xfer_len -= TxPctSize;
 80025a4:	1ac9      	subs	r1, r1, r3
 80025a6:	6291      	str	r1, [r2, #40]	@ 0x28
    if (ep->xfer_len == 0U)
 80025a8:	2900      	cmp	r1, #0
 80025aa:	f000 809e 	beq.w	80026ea <HAL_PCD_IRQHandler+0x7a2>
      if ((wEPVal & USB_EP_DTOG_RX) == 0U)
 80025ae:	f1ba 0f00 	cmp.w	sl, #0
 80025b2:	d10d      	bne.n	80025d0 <HAL_PCD_IRQHandler+0x688>
        PCD_FREE_USER_BUFFER(hpcd->Instance, ep->num, 1U);
 80025b4:	f830 102c 	ldrh.w	r1, [r0, ip, lsl #2]
 80025b8:	f421 41e0 	bic.w	r1, r1, #28672	@ 0x7000
 80025bc:	f021 0170 	bic.w	r1, r1, #112	@ 0x70
 80025c0:	0409      	lsls	r1, r1, #16
 80025c2:	0c09      	lsrs	r1, r1, #16
 80025c4:	f441 4140 	orr.w	r1, r1, #49152	@ 0xc000
 80025c8:	f041 0180 	orr.w	r1, r1, #128	@ 0x80
 80025cc:	f820 102c 	strh.w	r1, [r0, ip, lsl #2]
      if (ep->xfer_fill_db == 1U)
 80025d0:	eb08 0e05 	add.w	lr, r8, r5
 80025d4:	eb04 0ece 	add.w	lr, r4, lr, lsl #3
 80025d8:	f89e 1034 	ldrb.w	r1, [lr, #52]	@ 0x34
 80025dc:	2901      	cmp	r1, #1
 80025de:	f000 8197 	beq.w	8002910 <HAL_PCD_IRQHandler+0x9c8>
  PCD_SET_EP_TX_STATUS(hpcd->Instance, ep->num, USB_EP_TX_VALID);
 80025e2:	44a8      	add	r8, r5
 80025e4:	eb04 08c8 	add.w	r8, r4, r8, lsl #3
 80025e8:	f898 2010 	ldrb.w	r2, [r8, #16]
 80025ec:	f830 3022 	ldrh.w	r3, [r0, r2, lsl #2]
 80025f0:	f423 43e0 	bic.w	r3, r3, #28672	@ 0x7000
 80025f4:	f023 0340 	bic.w	r3, r3, #64	@ 0x40
 80025f8:	041b      	lsls	r3, r3, #16
 80025fa:	0c1b      	lsrs	r3, r3, #16
 80025fc:	f083 0330 	eor.w	r3, r3, #48	@ 0x30
 8002600:	f443 4300 	orr.w	r3, r3, #32768	@ 0x8000
 8002604:	f043 0380 	orr.w	r3, r3, #128	@ 0x80
 8002608:	f820 3022 	strh.w	r3, [r0, r2, lsl #2]

  return HAL_OK;
 800260c:	e4e5      	b.n	8001fda <HAL_PCD_IRQHandler+0x92>
              PCD_SET_EP_DBUF0_CNT(hpcd->Instance, ep->num, ep->is_in, 0U);
 800260e:	2b00      	cmp	r3, #0
 8002610:	f040 80f9 	bne.w	8002806 <HAL_PCD_IRQHandler+0x8be>
 8002614:	7c13      	ldrb	r3, [r2, #16]
 8002616:	f8b0 2050 	ldrh.w	r2, [r0, #80]	@ 0x50
 800261a:	eb00 1303 	add.w	r3, r0, r3, lsl #4
 800261e:	f203 4304 	addw	r3, r3, #1028	@ 0x404
 8002622:	e6e0      	b.n	80023e6 <HAL_PCD_IRQHandler+0x49e>
    count = (uint16_t)PCD_GET_EP_DBUF0_CNT(hpcd->Instance, ep->num);
 8002624:	f8b0 3050 	ldrh.w	r3, [r0, #80]	@ 0x50
 8002628:	ea4f 0acc 	mov.w	sl, ip, lsl #3
 800262c:	b29b      	uxth	r3, r3
  if ((wEPVal & USB_EP_DTOG_RX) != 0U)
 800262e:	f419 4b80 	ands.w	fp, r9, #16384	@ 0x4000
    if (ep->xfer_len >= count)
 8002632:	f8d1 e168 	ldr.w	lr, [r1, #360]	@ 0x168
    count = (uint16_t)PCD_GET_EP_DBUF0_CNT(hpcd->Instance, ep->num);
 8002636:	4453      	add	r3, sl
  if ((wEPVal & USB_EP_DTOG_RX) != 0U)
 8002638:	f000 80f2 	beq.w	8002820 <HAL_PCD_IRQHandler+0x8d8>
    count = (uint16_t)PCD_GET_EP_DBUF0_CNT(hpcd->Instance, ep->num);
 800263c:	3302      	adds	r3, #2
 800263e:	f832 3013 	ldrh.w	r3, [r2, r3, lsl #1]
 8002642:	f3c3 0309 	ubfx	r3, r3, #0, #10
    if (ep->xfer_len >= count)
 8002646:	4573      	cmp	r3, lr
 8002648:	469a      	mov	sl, r3
 800264a:	f200 815d 	bhi.w	8002908 <HAL_PCD_IRQHandler+0x9c0>
      ep->xfer_len -= count;
 800264e:	ebae 0203 	sub.w	r2, lr, r3
 8002652:	f8c1 2168 	str.w	r2, [r1, #360]	@ 0x168
    if (ep->xfer_len == 0U)
 8002656:	b97a      	cbnz	r2, 8002678 <HAL_PCD_IRQHandler+0x730>
      PCD_SET_EP_RX_STATUS(hpcd->Instance, ep->num, USB_EP_RX_NAK);
 8002658:	f830 202c 	ldrh.w	r2, [r0, ip, lsl #2]
 800265c:	f422 4280 	bic.w	r2, r2, #16384	@ 0x4000
 8002660:	f022 0270 	bic.w	r2, r2, #112	@ 0x70
 8002664:	0412      	lsls	r2, r2, #16
 8002666:	0c12      	lsrs	r2, r2, #16
 8002668:	f482 5200 	eor.w	r2, r2, #8192	@ 0x2000
 800266c:	f442 4200 	orr.w	r2, r2, #32768	@ 0x8000
 8002670:	f042 0280 	orr.w	r2, r2, #128	@ 0x80
 8002674:	f820 202c 	strh.w	r2, [r0, ip, lsl #2]
    if ((wEPVal & USB_EP_DTOG_TX) != 0U)
 8002678:	f019 0f40 	tst.w	r9, #64	@ 0x40
 800267c:	d00d      	beq.n	800269a <HAL_PCD_IRQHandler+0x752>
      PCD_FREE_USER_BUFFER(hpcd->Instance, ep->num, 0U);
 800267e:	f830 202c 	ldrh.w	r2, [r0, ip, lsl #2]
 8002682:	f422 42e0 	bic.w	r2, r2, #28672	@ 0x7000
 8002686:	f022 0270 	bic.w	r2, r2, #112	@ 0x70
 800268a:	0412      	lsls	r2, r2, #16
 800268c:	0c12      	lsrs	r2, r2, #16
 800268e:	f442 4200 	orr.w	r2, r2, #32768	@ 0x8000
 8002692:	f042 02c0 	orr.w	r2, r2, #192	@ 0xc0
 8002696:	f820 202c 	strh.w	r2, [r0, ip, lsl #2]
    if (count != 0U)
 800269a:	2b00      	cmp	r3, #0
 800269c:	f43f ad67 	beq.w	800216e <HAL_PCD_IRQHandler+0x226>
      USB_ReadPMA(hpcd->Instance, ep->xfer_buff, ep->pmaaddr0, count);
 80026a0:	eb08 0105 	add.w	r1, r8, r5
 80026a4:	eb04 01c1 	add.w	r1, r4, r1, lsl #3
 80026a8:	f8b1 2158 	ldrh.w	r2, [r1, #344]	@ 0x158
 80026ac:	f8d1 1164 	ldr.w	r1, [r1, #356]	@ 0x164
 80026b0:	f002 faa0 	bl	8004bf4 <USB_ReadPMA>
 80026b4:	e55b      	b.n	800216e <HAL_PCD_IRQHandler+0x226>
    __HAL_PCD_CLEAR_FLAG(hpcd, USB_ISTR_SOF);
 80026b6:	6822      	ldr	r2, [r4, #0]
    HAL_PCD_SOFCallback(hpcd);
 80026b8:	4620      	mov	r0, r4
    __HAL_PCD_CLEAR_FLAG(hpcd, USB_ISTR_SOF);
 80026ba:	f8b2 3044 	ldrh.w	r3, [r2, #68]	@ 0x44
 80026be:	f423 7300 	bic.w	r3, r3, #512	@ 0x200
 80026c2:	041b      	lsls	r3, r3, #16
 80026c4:	0c1b      	lsrs	r3, r3, #16
 80026c6:	f8a2 3044 	strh.w	r3, [r2, #68]	@ 0x44
    HAL_PCD_SOFCallback(hpcd);
 80026ca:	f003 f993 	bl	80059f4 <HAL_PCD_SOFCallback>
    return;
 80026ce:	e469      	b.n	8001fa4 <HAL_PCD_IRQHandler+0x5c>
            PCD_SET_EP_RX_CNT(hpcd->Instance, PCD_ENDP0, ep->maxpacket);
 80026d0:	2a00      	cmp	r2, #0
 80026d2:	f040 80e1 	bne.w	8002898 <HAL_PCD_IRQHandler+0x950>
 80026d6:	5aca      	ldrh	r2, [r1, r3]
 80026d8:	ea6f 4242 	mvn.w	r2, r2, lsl #17
 80026dc:	ea6f 4252 	mvn.w	r2, r2, lsr #17
 80026e0:	b292      	uxth	r2, r2
 80026e2:	52ca      	strh	r2, [r1, r3]
 80026e4:	e64e      	b.n	8002384 <HAL_PCD_IRQHandler+0x43c>
 80026e6:	f8c2 9028 	str.w	r9, [r2, #40]	@ 0x28
      PCD_SET_EP_DBUF0_CNT(hpcd->Instance, ep->num, ep->is_in, 0U);
 80026ea:	eb08 0305 	add.w	r3, r8, r5
 80026ee:	eb04 03c3 	add.w	r3, r4, r3, lsl #3
 80026f2:	7c5b      	ldrb	r3, [r3, #17]
 80026f4:	2b00      	cmp	r3, #0
 80026f6:	f040 80ee 	bne.w	80028d6 <HAL_PCD_IRQHandler+0x98e>
 80026fa:	f8b0 1050 	ldrh.w	r1, [r0, #80]	@ 0x50
 80026fe:	ea4f 130c 	mov.w	r3, ip, lsl #4
 8002702:	f203 4e04 	addw	lr, r3, #1028	@ 0x404
 8002706:	b289      	uxth	r1, r1
 8002708:	4486      	add	lr, r0
 800270a:	f83e 2001 	ldrh.w	r2, [lr, r1]
      PCD_SET_EP_DBUF1_CNT(hpcd->Instance, ep->num, ep->is_in, 0U);
 800270e:	f203 430c 	addw	r3, r3, #1036	@ 0x40c
      PCD_SET_EP_DBUF0_CNT(hpcd->Instance, ep->num, ep->is_in, 0U);
 8002712:	f3c2 0209 	ubfx	r2, r2, #0, #10
 8002716:	f82e 2001 	strh.w	r2, [lr, r1]
 800271a:	f83e 2001 	ldrh.w	r2, [lr, r1]
      PCD_SET_EP_DBUF1_CNT(hpcd->Instance, ep->num, ep->is_in, 0U);
 800271e:	4403      	add	r3, r0
      PCD_SET_EP_DBUF0_CNT(hpcd->Instance, ep->num, ep->is_in, 0U);
 8002720:	ea6f 4242 	mvn.w	r2, r2, lsl #17
 8002724:	ea6f 4252 	mvn.w	r2, r2, lsr #17
 8002728:	b292      	uxth	r2, r2
 800272a:	f82e 2001 	strh.w	r2, [lr, r1]
      PCD_SET_EP_DBUF1_CNT(hpcd->Instance, ep->num, ep->is_in, 0U);
 800272e:	f8b0 1050 	ldrh.w	r1, [r0, #80]	@ 0x50
 8002732:	b289      	uxth	r1, r1
 8002734:	5a5a      	ldrh	r2, [r3, r1]
 8002736:	f3c2 0209 	ubfx	r2, r2, #0, #10
 800273a:	525a      	strh	r2, [r3, r1]
 800273c:	5a5a      	ldrh	r2, [r3, r1]
 800273e:	ea6f 4242 	mvn.w	r2, r2, lsl #17
 8002742:	ea6f 4252 	mvn.w	r2, r2, lsr #17
 8002746:	b292      	uxth	r2, r2
 8002748:	525a      	strh	r2, [r3, r1]
      HAL_PCD_DataInStageCallback(hpcd, ep->num);
 800274a:	4661      	mov	r1, ip
 800274c:	4620      	mov	r0, r4
 800274e:	f003 f947 	bl	80059e0 <HAL_PCD_DataInStageCallback>
      if ((wEPVal & USB_EP_DTOG_RX) == 0U)
 8002752:	f1ba 0f00 	cmp.w	sl, #0
 8002756:	d146      	bne.n	80027e6 <HAL_PCD_IRQHandler+0x89e>
        PCD_FREE_USER_BUFFER(hpcd->Instance, ep->num, 1U);
 8002758:	eb08 0305 	add.w	r3, r8, r5
 800275c:	eb04 03c3 	add.w	r3, r4, r3, lsl #3
 8002760:	7c1a      	ldrb	r2, [r3, #16]
 8002762:	6820      	ldr	r0, [r4, #0]
 8002764:	f830 3022 	ldrh.w	r3, [r0, r2, lsl #2]
 8002768:	f423 43e0 	bic.w	r3, r3, #28672	@ 0x7000
 800276c:	f023 0370 	bic.w	r3, r3, #112	@ 0x70
 8002770:	041b      	lsls	r3, r3, #16
 8002772:	0c1b      	lsrs	r3, r3, #16
 8002774:	f443 4340 	orr.w	r3, r3, #49152	@ 0xc000
 8002778:	f043 0380 	orr.w	r3, r3, #128	@ 0x80
 800277c:	f820 3022 	strh.w	r3, [r0, r2, lsl #2]
 8002780:	e72f      	b.n	80025e2 <HAL_PCD_IRQHandler+0x69a>
 8002782:	2100      	movs	r1, #0
      PCD_SET_EP_DBUF0_CNT(hpcd->Instance, ep->num, ep->is_in, 0U);
 8002784:	7c53      	ldrb	r3, [r2, #17]
 8002786:	6291      	str	r1, [r2, #40]	@ 0x28
 8002788:	2b00      	cmp	r3, #0
 800278a:	f040 8090 	bne.w	80028ae <HAL_PCD_IRQHandler+0x966>
 800278e:	f8b0 2050 	ldrh.w	r2, [r0, #80]	@ 0x50
 8002792:	ea4f 130c 	mov.w	r3, ip, lsl #4
 8002796:	f203 4104 	addw	r1, r3, #1028	@ 0x404
 800279a:	b292      	uxth	r2, r2
 800279c:	4401      	add	r1, r0
 800279e:	f831 e002 	ldrh.w	lr, [r1, r2]
      PCD_SET_EP_DBUF1_CNT(hpcd->Instance, ep->num, ep->is_in, 0U);
 80027a2:	f203 430c 	addw	r3, r3, #1036	@ 0x40c
      PCD_SET_EP_DBUF0_CNT(hpcd->Instance, ep->num, ep->is_in, 0U);
 80027a6:	f3ce 0e09 	ubfx	lr, lr, #0, #10
 80027aa:	f821 e002 	strh.w	lr, [r1, r2]
 80027ae:	f831 e002 	ldrh.w	lr, [r1, r2]
      PCD_SET_EP_DBUF1_CNT(hpcd->Instance, ep->num, ep->is_in, 0U);
 80027b2:	4403      	add	r3, r0
      PCD_SET_EP_DBUF0_CNT(hpcd->Instance, ep->num, ep->is_in, 0U);
 80027b4:	fa1f fe8e 	uxth.w	lr, lr
 80027b8:	f44e 4e00 	orr.w	lr, lr, #32768	@ 0x8000
 80027bc:	f821 e002 	strh.w	lr, [r1, r2]
      PCD_SET_EP_DBUF1_CNT(hpcd->Instance, ep->num, ep->is_in, 0U);
 80027c0:	f8b0 2050 	ldrh.w	r2, [r0, #80]	@ 0x50
 80027c4:	b292      	uxth	r2, r2
 80027c6:	5a99      	ldrh	r1, [r3, r2]
 80027c8:	f3c1 0109 	ubfx	r1, r1, #0, #10
 80027cc:	5299      	strh	r1, [r3, r2]
 80027ce:	5a99      	ldrh	r1, [r3, r2]
 80027d0:	b289      	uxth	r1, r1
 80027d2:	f441 4100 	orr.w	r1, r1, #32768	@ 0x8000
 80027d6:	5299      	strh	r1, [r3, r2]
      HAL_PCD_DataInStageCallback(hpcd, ep->num);
 80027d8:	4661      	mov	r1, ip
 80027da:	4620      	mov	r0, r4
 80027dc:	f003 f900 	bl	80059e0 <HAL_PCD_DataInStageCallback>
      if ((wEPVal & USB_EP_DTOG_RX) != 0U)
 80027e0:	f1ba 0f00 	cmp.w	sl, #0
 80027e4:	d1b8      	bne.n	8002758 <HAL_PCD_IRQHandler+0x810>
  PCD_SET_EP_TX_STATUS(hpcd->Instance, ep->num, USB_EP_TX_VALID);
 80027e6:	6820      	ldr	r0, [r4, #0]
 80027e8:	e6fb      	b.n	80025e2 <HAL_PCD_IRQHandler+0x69a>
              PCD_SET_EP_DBUF1_CNT(hpcd->Instance, ep->num, ep->is_in, 0U);
 80027ea:	2b01      	cmp	r3, #1
 80027ec:	f47f ae05 	bne.w	80023fa <HAL_PCD_IRQHandler+0x4b2>
 80027f0:	7c13      	ldrb	r3, [r2, #16]
 80027f2:	f8b0 2050 	ldrh.w	r2, [r0, #80]	@ 0x50
 80027f6:	eb00 1303 	add.w	r3, r0, r3, lsl #4
 80027fa:	f203 430c 	addw	r3, r3, #1036	@ 0x40c
 80027fe:	b292      	uxth	r2, r2
 8002800:	f823 9002 	strh.w	r9, [r3, r2]
 8002804:	e5f9      	b.n	80023fa <HAL_PCD_IRQHandler+0x4b2>
              PCD_SET_EP_DBUF0_CNT(hpcd->Instance, ep->num, ep->is_in, 0U);
 8002806:	2b01      	cmp	r3, #1
 8002808:	f47f adf7 	bne.w	80023fa <HAL_PCD_IRQHandler+0x4b2>
 800280c:	7c13      	ldrb	r3, [r2, #16]
 800280e:	f8b0 2050 	ldrh.w	r2, [r0, #80]	@ 0x50
 8002812:	eb00 1303 	add.w	r3, r0, r3, lsl #4
 8002816:	f203 4304 	addw	r3, r3, #1028	@ 0x404
 800281a:	b292      	uxth	r2, r2
 800281c:	5299      	strh	r1, [r3, r2]
 800281e:	e5ec      	b.n	80023fa <HAL_PCD_IRQHandler+0x4b2>
    count = (uint16_t)PCD_GET_EP_DBUF1_CNT(hpcd->Instance, ep->num);
 8002820:	3306      	adds	r3, #6
 8002822:	f832 3013 	ldrh.w	r3, [r2, r3, lsl #1]
 8002826:	f3c3 0309 	ubfx	r3, r3, #0, #10
    if (ep->xfer_len >= count)
 800282a:	4573      	cmp	r3, lr
 800282c:	469a      	mov	sl, r3
 800282e:	d868      	bhi.n	8002902 <HAL_PCD_IRQHandler+0x9ba>
      ep->xfer_len -= count;
 8002830:	ebae 0203 	sub.w	r2, lr, r3
 8002834:	f8c1 2168 	str.w	r2, [r1, #360]	@ 0x168
    if (ep->xfer_len == 0U)
 8002838:	b97a      	cbnz	r2, 800285a <HAL_PCD_IRQHandler+0x912>
      PCD_SET_EP_RX_STATUS(hpcd->Instance, ep->num, USB_EP_RX_NAK);
 800283a:	f830 202c 	ldrh.w	r2, [r0, ip, lsl #2]
 800283e:	f422 4280 	bic.w	r2, r2, #16384	@ 0x4000
 8002842:	f022 0270 	bic.w	r2, r2, #112	@ 0x70
 8002846:	0412      	lsls	r2, r2, #16
 8002848:	0c12      	lsrs	r2, r2, #16
 800284a:	f482 5200 	eor.w	r2, r2, #8192	@ 0x2000
 800284e:	f442 4200 	orr.w	r2, r2, #32768	@ 0x8000
 8002852:	f042 0280 	orr.w	r2, r2, #128	@ 0x80
 8002856:	f820 202c 	strh.w	r2, [r0, ip, lsl #2]
    if ((wEPVal & USB_EP_DTOG_TX) == 0U)
 800285a:	f019 0f40 	tst.w	r9, #64	@ 0x40
 800285e:	d10d      	bne.n	800287c <HAL_PCD_IRQHandler+0x934>
      PCD_FREE_USER_BUFFER(hpcd->Instance, ep->num, 0U);
 8002860:	f830 202c 	ldrh.w	r2, [r0, ip, lsl #2]
 8002864:	f422 42e0 	bic.w	r2, r2, #28672	@ 0x7000
 8002868:	f022 0270 	bic.w	r2, r2, #112	@ 0x70
 800286c:	0412      	lsls	r2, r2, #16
 800286e:	0c12      	lsrs	r2, r2, #16
 8002870:	f442 4200 	orr.w	r2, r2, #32768	@ 0x8000
 8002874:	f042 02c0 	orr.w	r2, r2, #192	@ 0xc0
 8002878:	f820 202c 	strh.w	r2, [r0, ip, lsl #2]
    if (count != 0U)
 800287c:	2b00      	cmp	r3, #0
 800287e:	f43f ac76 	beq.w	800216e <HAL_PCD_IRQHandler+0x226>
      USB_ReadPMA(hpcd->Instance, ep->xfer_buff, ep->pmaaddr1, count);
 8002882:	eb08 0105 	add.w	r1, r8, r5
 8002886:	eb04 01c1 	add.w	r1, r4, r1, lsl #3
 800288a:	f8b1 215a 	ldrh.w	r2, [r1, #346]	@ 0x15a
 800288e:	f8d1 1164 	ldr.w	r1, [r1, #356]	@ 0x164
 8002892:	f002 f9af 	bl	8004bf4 <USB_ReadPMA>
 8002896:	e46a      	b.n	800216e <HAL_PCD_IRQHandler+0x226>
            PCD_SET_EP_RX_CNT(hpcd->Instance, PCD_ENDP0, ep->maxpacket);
 8002898:	0855      	lsrs	r5, r2, #1
 800289a:	07d2      	lsls	r2, r2, #31
 800289c:	5aca      	ldrh	r2, [r1, r3]
 800289e:	bf48      	it	mi
 80028a0:	3501      	addmi	r5, #1
 80028a2:	b292      	uxth	r2, r2
 80028a4:	ea42 2285 	orr.w	r2, r2, r5, lsl #10
 80028a8:	b292      	uxth	r2, r2
 80028aa:	52ca      	strh	r2, [r1, r3]
 80028ac:	e56a      	b.n	8002384 <HAL_PCD_IRQHandler+0x43c>
      PCD_SET_EP_DBUF0_CNT(hpcd->Instance, ep->num, ep->is_in, 0U);
 80028ae:	2b01      	cmp	r3, #1
 80028b0:	d192      	bne.n	80027d8 <HAL_PCD_IRQHandler+0x890>
 80028b2:	f8b0 2050 	ldrh.w	r2, [r0, #80]	@ 0x50
 80028b6:	ea4f 130c 	mov.w	r3, ip, lsl #4
 80028ba:	f203 4e04 	addw	lr, r3, #1028	@ 0x404
 80028be:	b292      	uxth	r2, r2
 80028c0:	4486      	add	lr, r0
 80028c2:	f82e 1002 	strh.w	r1, [lr, r2]
      PCD_SET_EP_DBUF1_CNT(hpcd->Instance, ep->num, ep->is_in, 0U);
 80028c6:	f8b0 2050 	ldrh.w	r2, [r0, #80]	@ 0x50
 80028ca:	f203 430c 	addw	r3, r3, #1036	@ 0x40c
 80028ce:	4403      	add	r3, r0
 80028d0:	b292      	uxth	r2, r2
 80028d2:	5299      	strh	r1, [r3, r2]
 80028d4:	e780      	b.n	80027d8 <HAL_PCD_IRQHandler+0x890>
      PCD_SET_EP_DBUF0_CNT(hpcd->Instance, ep->num, ep->is_in, 0U);
 80028d6:	2b01      	cmp	r3, #1
 80028d8:	f47f af37 	bne.w	800274a <HAL_PCD_IRQHandler+0x802>
 80028dc:	2100      	movs	r1, #0
 80028de:	f8b0 2050 	ldrh.w	r2, [r0, #80]	@ 0x50
 80028e2:	ea4f 130c 	mov.w	r3, ip, lsl #4
 80028e6:	f203 4e04 	addw	lr, r3, #1028	@ 0x404
 80028ea:	b292      	uxth	r2, r2
 80028ec:	4486      	add	lr, r0
 80028ee:	f82e 1002 	strh.w	r1, [lr, r2]
      PCD_SET_EP_DBUF1_CNT(hpcd->Instance, ep->num, ep->is_in, 0U);
 80028f2:	f8b0 2050 	ldrh.w	r2, [r0, #80]	@ 0x50
 80028f6:	f203 430c 	addw	r3, r3, #1036	@ 0x40c
 80028fa:	4403      	add	r3, r0
 80028fc:	b292      	uxth	r2, r2
 80028fe:	5299      	strh	r1, [r3, r2]
 8002900:	e723      	b.n	800274a <HAL_PCD_IRQHandler+0x802>
      ep->xfer_len = 0U;
 8002902:	f8c1 b168 	str.w	fp, [r1, #360]	@ 0x168
    if (ep->xfer_len == 0U)
 8002906:	e798      	b.n	800283a <HAL_PCD_IRQHandler+0x8f2>
      ep->xfer_len = 0U;
 8002908:	2200      	movs	r2, #0
 800290a:	f8c1 2168 	str.w	r2, [r1, #360]	@ 0x168
    if (ep->xfer_len == 0U)
 800290e:	e6a3      	b.n	8002658 <HAL_PCD_IRQHandler+0x710>
        ep->xfer_buff += TxPctSize;
 8002910:	f8de 1024 	ldr.w	r1, [lr, #36]	@ 0x24
 8002914:	4419      	add	r1, r3
 8002916:	f8ce 1024 	str.w	r1, [lr, #36]	@ 0x24
        ep->xfer_count += TxPctSize;
 800291a:	f8d2 902c 	ldr.w	r9, [r2, #44]	@ 0x2c
 800291e:	4499      	add	r9, r3
 8002920:	f8c2 902c 	str.w	r9, [r2, #44]	@ 0x2c
        if (ep->xfer_len_db >= ep->maxpacket)
 8002924:	f8de 9030 	ldr.w	r9, [lr, #48]	@ 0x30
 8002928:	f8de 2020 	ldr.w	r2, [lr, #32]
 800292c:	4591      	cmp	r9, r2
 800292e:	d359      	bcc.n	80029e4 <HAL_PCD_IRQHandler+0xa9c>
          ep->xfer_len_db -= len;
 8002930:	eba9 0302 	sub.w	r3, r9, r2
 8002934:	f8ce 3030 	str.w	r3, [lr, #48]	@ 0x30
        PCD_SET_EP_DBUF1_CNT(hpcd->Instance, ep->num, ep->is_in, len);
 8002938:	b293      	uxth	r3, r2
 800293a:	eb08 0e05 	add.w	lr, r8, r5
 800293e:	eb04 0ece 	add.w	lr, r4, lr, lsl #3
 8002942:	f89e e011 	ldrb.w	lr, [lr, #17]
 8002946:	f1be 0f00 	cmp.w	lr, #0
 800294a:	d13e      	bne.n	80029ca <HAL_PCD_IRQHandler+0xa82>
 800294c:	eb00 1c0c 	add.w	ip, r0, ip, lsl #4
 8002950:	f20c 4e0c 	addw	lr, ip, #1036	@ 0x40c
 8002954:	f8b0 c050 	ldrh.w	ip, [r0, #80]	@ 0x50
 8002958:	2a3e      	cmp	r2, #62	@ 0x3e
 800295a:	fa1f fc8c 	uxth.w	ip, ip
 800295e:	f83e 900c 	ldrh.w	r9, [lr, ip]
 8002962:	f3c9 0909 	ubfx	r9, r9, #0, #10
 8002966:	f82e 900c 	strh.w	r9, [lr, ip]
 800296a:	d961      	bls.n	8002a30 <HAL_PCD_IRQHandler+0xae8>
 800296c:	ea4f 1952 	mov.w	r9, r2, lsr #5
 8002970:	06d2      	lsls	r2, r2, #27
 8002972:	f83e 200c 	ldrh.w	r2, [lr, ip]
 8002976:	bf08      	it	eq
 8002978:	f109 39ff 	addeq.w	r9, r9, #4294967295
 800297c:	b292      	uxth	r2, r2
 800297e:	ea42 2289 	orr.w	r2, r2, r9, lsl #10
 8002982:	ea6f 4242 	mvn.w	r2, r2, lsl #17
 8002986:	ea6f 4252 	mvn.w	r2, r2, lsr #17
 800298a:	b292      	uxth	r2, r2
 800298c:	f82e 200c 	strh.w	r2, [lr, ip]
        USB_WritePMA(hpcd->Instance, ep->xfer_buff,  ep->pmaaddr1, (uint16_t)len);
 8002990:	eb08 0205 	add.w	r2, r8, r5
 8002994:	eb04 02c2 	add.w	r2, r4, r2, lsl #3
 8002998:	8b52      	ldrh	r2, [r2, #26]
 800299a:	f002 f91b 	bl	8004bd4 <USB_WritePMA>
 800299e:	e722      	b.n	80027e6 <HAL_PCD_IRQHandler+0x89e>
        PCD_SET_EP_DBUF0_CNT(hpcd->Instance, ep->num, ep->is_in, len);
 80029a0:	f1be 0f01 	cmp.w	lr, #1
 80029a4:	f47f adac 	bne.w	8002500 <HAL_PCD_IRQHandler+0x5b8>
 80029a8:	f8b0 2050 	ldrh.w	r2, [r0, #80]	@ 0x50
 80029ac:	eb00 1c0c 	add.w	ip, r0, ip, lsl #4
 80029b0:	f20c 4c04 	addw	ip, ip, #1028	@ 0x404
 80029b4:	b292      	uxth	r2, r2
 80029b6:	f82c 3002 	strh.w	r3, [ip, r2]
 80029ba:	e5a1      	b.n	8002500 <HAL_PCD_IRQHandler+0x5b8>
        else if (ep->xfer_len_db == 0U)
 80029bc:	f1b9 0f00 	cmp.w	r9, #0
 80029c0:	d117      	bne.n	80029f2 <HAL_PCD_IRQHandler+0xaaa>
          len = TxPctSize;
 80029c2:	461a      	mov	r2, r3
          ep->xfer_fill_db = 0U;
 80029c4:	f88e 9034 	strb.w	r9, [lr, #52]	@ 0x34
 80029c8:	e56d      	b.n	80024a6 <HAL_PCD_IRQHandler+0x55e>
        PCD_SET_EP_DBUF1_CNT(hpcd->Instance, ep->num, ep->is_in, len);
 80029ca:	f1be 0f01 	cmp.w	lr, #1
 80029ce:	d1df      	bne.n	8002990 <HAL_PCD_IRQHandler+0xa48>
 80029d0:	f8b0 2050 	ldrh.w	r2, [r0, #80]	@ 0x50
 80029d4:	eb00 1c0c 	add.w	ip, r0, ip, lsl #4
 80029d8:	f20c 4c0c 	addw	ip, ip, #1036	@ 0x40c
 80029dc:	b292      	uxth	r2, r2
 80029de:	f82c 3002 	strh.w	r3, [ip, r2]
 80029e2:	e7d5      	b.n	8002990 <HAL_PCD_IRQHandler+0xa48>
        else if (ep->xfer_len_db == 0U)
 80029e4:	f1b9 0f00 	cmp.w	r9, #0
 80029e8:	d10d      	bne.n	8002a06 <HAL_PCD_IRQHandler+0xabe>
          len = TxPctSize;
 80029ea:	461a      	mov	r2, r3
          ep->xfer_fill_db = 0U;
 80029ec:	f88e 9034 	strb.w	r9, [lr, #52]	@ 0x34
 80029f0:	e7a3      	b.n	800293a <HAL_PCD_IRQHandler+0x9f2>
          ep->xfer_fill_db = 0U;
 80029f2:	f04f 0a00 	mov.w	sl, #0
          len = ep->xfer_len_db;
 80029f6:	464a      	mov	r2, r9
        PCD_SET_EP_DBUF0_CNT(hpcd->Instance, ep->num, ep->is_in, len);
 80029f8:	fa1f f389 	uxth.w	r3, r9
          ep->xfer_fill_db = 0U;
 80029fc:	f88e a034 	strb.w	sl, [lr, #52]	@ 0x34
          ep->xfer_len_db = 0U;
 8002a00:	f8ce a030 	str.w	sl, [lr, #48]	@ 0x30
 8002a04:	e54f      	b.n	80024a6 <HAL_PCD_IRQHandler+0x55e>
          ep->xfer_len_db = 0U;
 8002a06:	f04f 0a00 	mov.w	sl, #0
          len = ep->xfer_len_db;
 8002a0a:	464a      	mov	r2, r9
        PCD_SET_EP_DBUF1_CNT(hpcd->Instance, ep->num, ep->is_in, len);
 8002a0c:	fa1f f389 	uxth.w	r3, r9
          ep->xfer_len_db = 0U;
 8002a10:	f8ce a030 	str.w	sl, [lr, #48]	@ 0x30
          ep->xfer_fill_db = 0;
 8002a14:	f88e a034 	strb.w	sl, [lr, #52]	@ 0x34
 8002a18:	e78f      	b.n	800293a <HAL_PCD_IRQHandler+0x9f2>
        PCD_SET_EP_DBUF0_CNT(hpcd->Instance, ep->num, ep->is_in, len);
 8002a1a:	b9a2      	cbnz	r2, 8002a46 <HAL_PCD_IRQHandler+0xafe>
 8002a1c:	f83e 200c 	ldrh.w	r2, [lr, ip]
 8002a20:	ea6f 4242 	mvn.w	r2, r2, lsl #17
 8002a24:	ea6f 4252 	mvn.w	r2, r2, lsr #17
 8002a28:	b292      	uxth	r2, r2
 8002a2a:	f82e 200c 	strh.w	r2, [lr, ip]
 8002a2e:	e567      	b.n	8002500 <HAL_PCD_IRQHandler+0x5b8>
        PCD_SET_EP_DBUF1_CNT(hpcd->Instance, ep->num, ep->is_in, len);
 8002a30:	b9c2      	cbnz	r2, 8002a64 <HAL_PCD_IRQHandler+0xb1c>
 8002a32:	f83e 200c 	ldrh.w	r2, [lr, ip]
 8002a36:	ea6f 4242 	mvn.w	r2, r2, lsl #17
 8002a3a:	ea6f 4252 	mvn.w	r2, r2, lsr #17
 8002a3e:	b292      	uxth	r2, r2
 8002a40:	f82e 200c 	strh.w	r2, [lr, ip]
 8002a44:	e7a4      	b.n	8002990 <HAL_PCD_IRQHandler+0xa48>
        PCD_SET_EP_DBUF0_CNT(hpcd->Instance, ep->num, ep->is_in, len);
 8002a46:	ea4f 0952 	mov.w	r9, r2, lsr #1
 8002a4a:	07d2      	lsls	r2, r2, #31
 8002a4c:	f83e 200c 	ldrh.w	r2, [lr, ip]
 8002a50:	bf48      	it	mi
 8002a52:	f109 0901 	addmi.w	r9, r9, #1
 8002a56:	b292      	uxth	r2, r2
 8002a58:	ea42 2289 	orr.w	r2, r2, r9, lsl #10
 8002a5c:	b292      	uxth	r2, r2
 8002a5e:	f82e 200c 	strh.w	r2, [lr, ip]
 8002a62:	e54d      	b.n	8002500 <HAL_PCD_IRQHandler+0x5b8>
        PCD_SET_EP_DBUF1_CNT(hpcd->Instance, ep->num, ep->is_in, len);
 8002a64:	ea4f 0952 	mov.w	r9, r2, lsr #1
 8002a68:	07d2      	lsls	r2, r2, #31
 8002a6a:	f83e 200c 	ldrh.w	r2, [lr, ip]
 8002a6e:	bf48      	it	mi
 8002a70:	f109 0901 	addmi.w	r9, r9, #1
 8002a74:	b292      	uxth	r2, r2
 8002a76:	ea42 2289 	orr.w	r2, r2, r9, lsl #10
 8002a7a:	b292      	uxth	r2, r2
 8002a7c:	f82e 200c 	strh.w	r2, [lr, ip]
 8002a80:	e786      	b.n	8002990 <HAL_PCD_IRQHandler+0xa48>
 8002a82:	bf00      	nop

08002a84 <HAL_PCD_SetAddress>:
  __HAL_LOCK(hpcd);
 8002a84:	f890 2290 	ldrb.w	r2, [r0, #656]	@ 0x290
 8002a88:	2a01      	cmp	r2, #1
 8002a8a:	d00d      	beq.n	8002aa8 <HAL_PCD_SetAddress+0x24>
{
 8002a8c:	b510      	push	{r4, lr}
  __HAL_LOCK(hpcd);
 8002a8e:	2201      	movs	r2, #1
 8002a90:	4604      	mov	r4, r0
  (void)USB_SetDevAddress(hpcd->Instance, address);
 8002a92:	6800      	ldr	r0, [r0, #0]
  hpcd->USB_Address = address;
 8002a94:	7361      	strb	r1, [r4, #13]
  __HAL_LOCK(hpcd);
 8002a96:	f884 2290 	strb.w	r2, [r4, #656]	@ 0x290
  (void)USB_SetDevAddress(hpcd->Instance, address);
 8002a9a:	f002 f88b 	bl	8004bb4 <USB_SetDevAddress>
  __HAL_UNLOCK(hpcd);
 8002a9e:	2300      	movs	r3, #0
 8002aa0:	f884 3290 	strb.w	r3, [r4, #656]	@ 0x290
  return HAL_OK;
 8002aa4:	4618      	mov	r0, r3
}
 8002aa6:	bd10      	pop	{r4, pc}
  __HAL_LOCK(hpcd);
 8002aa8:	2002      	movs	r0, #2
}
 8002aaa:	4770      	bx	lr

08002aac <HAL_PCD_EP_Open>:
  if ((ep_addr & 0x80U) == 0x80U)
 8002aac:	f001 0c07 	and.w	ip, r1, #7
{
 8002ab0:	b510      	push	{r4, lr}
  if ((ep_addr & 0x80U) == 0x80U)
 8002ab2:	0609      	lsls	r1, r1, #24
{
 8002ab4:	4604      	mov	r4, r0
 8002ab6:	eb0c 008c 	add.w	r0, ip, ip, lsl #2
 8002aba:	ea4f 00c0 	mov.w	r0, r0, lsl #3
  if ((ep_addr & 0x80U) == 0x80U)
 8002abe:	d41f      	bmi.n	8002b00 <HAL_PCD_EP_Open+0x54>
    ep->is_in = 0U;
 8002ac0:	f04f 0e00 	mov.w	lr, #0
    ep = &hpcd->OUT_ep[ep_addr & EP_ADDR_MSK];
 8002ac4:	f500 71a8 	add.w	r1, r0, #336	@ 0x150
    ep->is_in = 0U;
 8002ac8:	4420      	add	r0, r4
 8002aca:	f880 e151 	strb.w	lr, [r0, #337]	@ 0x151
    ep = &hpcd->OUT_ep[ep_addr & EP_ADDR_MSK];
 8002ace:	4421      	add	r1, r4
  if (ep_type == EP_TYPE_BULK)
 8002ad0:	2b02      	cmp	r3, #2
  ep->type = ep_type;
 8002ad2:	70cb      	strb	r3, [r1, #3]
    ep->data_pid_start = 0U;
 8002ad4:	bf08      	it	eq
 8002ad6:	2300      	moveq	r3, #0
  ep->num = ep_addr & EP_ADDR_MSK;
 8002ad8:	f881 c000 	strb.w	ip, [r1]
    ep->data_pid_start = 0U;
 8002adc:	bf08      	it	eq
 8002ade:	710b      	strbeq	r3, [r1, #4]
  ep->maxpacket = ep_mps;
 8002ae0:	610a      	str	r2, [r1, #16]
  __HAL_LOCK(hpcd);
 8002ae2:	f894 3290 	ldrb.w	r3, [r4, #656]	@ 0x290
 8002ae6:	2b01      	cmp	r3, #1
 8002ae8:	d013      	beq.n	8002b12 <HAL_PCD_EP_Open+0x66>
 8002aea:	2301      	movs	r3, #1
  (void)USB_ActivateEndpoint(hpcd->Instance, ep);
 8002aec:	6820      	ldr	r0, [r4, #0]
  __HAL_LOCK(hpcd);
 8002aee:	f884 3290 	strb.w	r3, [r4, #656]	@ 0x290
  (void)USB_ActivateEndpoint(hpcd->Instance, ep);
 8002af2:	f001 fac5 	bl	8004080 <USB_ActivateEndpoint>
  __HAL_UNLOCK(hpcd);
 8002af6:	2300      	movs	r3, #0
 8002af8:	f884 3290 	strb.w	r3, [r4, #656]	@ 0x290
  return ret;
 8002afc:	4618      	mov	r0, r3
}
 8002afe:	bd10      	pop	{r4, pc}
    ep->is_in = 1U;
 8002b00:	f04f 0e01 	mov.w	lr, #1
    ep = &hpcd->IN_ep[ep_addr & EP_ADDR_MSK];
 8002b04:	f100 0110 	add.w	r1, r0, #16
    ep->is_in = 1U;
 8002b08:	4420      	add	r0, r4
 8002b0a:	f880 e011 	strb.w	lr, [r0, #17]
    ep = &hpcd->IN_ep[ep_addr & EP_ADDR_MSK];
 8002b0e:	4421      	add	r1, r4
    ep->is_in = 1U;
 8002b10:	e7de      	b.n	8002ad0 <HAL_PCD_EP_Open+0x24>
  __HAL_LOCK(hpcd);
 8002b12:	2002      	movs	r0, #2
}
 8002b14:	bd10      	pop	{r4, pc}
 8002b16:	bf00      	nop

08002b18 <HAL_PCD_EP_Close>:
  if ((ep_addr & 0x80U) == 0x80U)
 8002b18:	f001 0207 	and.w	r2, r1, #7
 8002b1c:	eb02 0382 	add.w	r3, r2, r2, lsl #2
 8002b20:	0609      	lsls	r1, r1, #24
{
 8002b22:	b510      	push	{r4, lr}
 8002b24:	ea4f 03c3 	mov.w	r3, r3, lsl #3
 8002b28:	4604      	mov	r4, r0
  if ((ep_addr & 0x80U) == 0x80U)
 8002b2a:	d416      	bmi.n	8002b5a <HAL_PCD_EP_Close+0x42>
    ep = &hpcd->OUT_ep[ep_addr & EP_ADDR_MSK];
 8002b2c:	f503 71a8 	add.w	r1, r3, #336	@ 0x150
 8002b30:	4401      	add	r1, r0
    ep->is_in = 0U;
 8002b32:	4403      	add	r3, r0
 8002b34:	2000      	movs	r0, #0
 8002b36:	f883 0151 	strb.w	r0, [r3, #337]	@ 0x151
  ep->num = ep_addr & EP_ADDR_MSK;
 8002b3a:	700a      	strb	r2, [r1, #0]
  __HAL_LOCK(hpcd);
 8002b3c:	f894 3290 	ldrb.w	r3, [r4, #656]	@ 0x290
 8002b40:	2b01      	cmp	r3, #1
 8002b42:	d015      	beq.n	8002b70 <HAL_PCD_EP_Close+0x58>
 8002b44:	2301      	movs	r3, #1
  (void)USB_DeactivateEndpoint(hpcd->Instance, ep);
 8002b46:	6820      	ldr	r0, [r4, #0]
  __HAL_LOCK(hpcd);
 8002b48:	f884 3290 	strb.w	r3, [r4, #656]	@ 0x290
  (void)USB_DeactivateEndpoint(hpcd->Instance, ep);
 8002b4c:	f001 fc62 	bl	8004414 <USB_DeactivateEndpoint>
  __HAL_UNLOCK(hpcd);
 8002b50:	2300      	movs	r3, #0
 8002b52:	f884 3290 	strb.w	r3, [r4, #656]	@ 0x290
  return HAL_OK;
 8002b56:	4618      	mov	r0, r3
}
 8002b58:	bd10      	pop	{r4, pc}
    ep = &hpcd->IN_ep[ep_addr & EP_ADDR_MSK];
 8002b5a:	f103 0110 	add.w	r1, r3, #16
 8002b5e:	4401      	add	r1, r0
    ep->is_in = 1U;
 8002b60:	4403      	add	r3, r0
 8002b62:	2001      	movs	r0, #1
 8002b64:	7458      	strb	r0, [r3, #17]
  ep->num = ep_addr & EP_ADDR_MSK;
 8002b66:	700a      	strb	r2, [r1, #0]
  __HAL_LOCK(hpcd);
 8002b68:	f894 3290 	ldrb.w	r3, [r4, #656]	@ 0x290
 8002b6c:	2b01      	cmp	r3, #1
 8002b6e:	d1e9      	bne.n	8002b44 <HAL_PCD_EP_Close+0x2c>
 8002b70:	2002      	movs	r0, #2
}
 8002b72:	bd10      	pop	{r4, pc}

08002b74 <HAL_PCD_EP_Receive>:
{
 8002b74:	b510      	push	{r4, lr}
  ep->xfer_count = 0U;
 8002b76:	2400      	movs	r4, #0
 8002b78:	f001 0e07 	and.w	lr, r1, #7
  ep->xfer_buff = pBuf;
 8002b7c:	eb0e 018e 	add.w	r1, lr, lr, lsl #2
 8002b80:	eb00 0cc1 	add.w	ip, r0, r1, lsl #3
  ep->xfer_len = len;
 8002b84:	e9cc 2359 	strd	r2, r3, [ip, #356]	@ 0x164
  (void)USB_EPStartXfer(hpcd->Instance, ep);
 8002b88:	6800      	ldr	r0, [r0, #0]
 8002b8a:	f50c 71a8 	add.w	r1, ip, #336	@ 0x150
  ep->xfer_count = 0U;
 8002b8e:	f8cc 416c 	str.w	r4, [ip, #364]	@ 0x16c
  ep->is_in = 0U;
 8002b92:	f88c 4151 	strb.w	r4, [ip, #337]	@ 0x151
  ep->num = ep_addr & EP_ADDR_MSK;
 8002b96:	f88c e150 	strb.w	lr, [ip, #336]	@ 0x150
  (void)USB_EPStartXfer(hpcd->Instance, ep);
 8002b9a:	f001 fd1d 	bl	80045d8 <USB_EPStartXfer>
}
 8002b9e:	4620      	mov	r0, r4
 8002ba0:	bd10      	pop	{r4, pc}
 8002ba2:	bf00      	nop

08002ba4 <HAL_PCD_EP_Transmit>:
  ep = &hpcd->IN_ep[ep_addr & EP_ADDR_MSK];
 8002ba4:	f001 0107 	and.w	r1, r1, #7
{
 8002ba8:	b538      	push	{r3, r4, r5, lr}
  ep->xfer_buff = pBuf;
 8002baa:	eb01 0e81 	add.w	lr, r1, r1, lsl #2
 8002bae:	eb00 0cce 	add.w	ip, r0, lr, lsl #3
  ep->xfer_fill_db = 1U;
 8002bb2:	2501      	movs	r5, #1
  ep->xfer_count = 0U;
 8002bb4:	2400      	movs	r4, #0
  ep->num = ep_addr & EP_ADDR_MSK;
 8002bb6:	f88c 1010 	strb.w	r1, [ip, #16]
  ep = &hpcd->IN_ep[ep_addr & EP_ADDR_MSK];
 8002bba:	4661      	mov	r1, ip
  (void)USB_EPStartXfer(hpcd->Instance, ep);
 8002bbc:	6800      	ldr	r0, [r0, #0]
  ep->xfer_buff = pBuf;
 8002bbe:	f8cc 2024 	str.w	r2, [ip, #36]	@ 0x24
  ep->xfer_len = len;
 8002bc2:	f8cc 3028 	str.w	r3, [ip, #40]	@ 0x28
  ep->xfer_len_db = len;
 8002bc6:	f8cc 3030 	str.w	r3, [ip, #48]	@ 0x30
  ep->xfer_fill_db = 1U;
 8002bca:	f88c 5034 	strb.w	r5, [ip, #52]	@ 0x34
  ep->xfer_count = 0U;
 8002bce:	f8cc 402c 	str.w	r4, [ip, #44]	@ 0x2c
  ep->is_in = 1U;
 8002bd2:	f88c 5011 	strb.w	r5, [ip, #17]
  (void)USB_EPStartXfer(hpcd->Instance, ep);
 8002bd6:	3110      	adds	r1, #16
 8002bd8:	f001 fcfe 	bl	80045d8 <USB_EPStartXfer>
}
 8002bdc:	4620      	mov	r0, r4
 8002bde:	bd38      	pop	{r3, r4, r5, pc}

08002be0 <HAL_PCD_EP_SetStall>:
{
 8002be0:	b538      	push	{r3, r4, r5, lr}
  if (((uint32_t)ep_addr & EP_ADDR_MSK) > hpcd->Init.dev_endpoints)
 8002be2:	7903      	ldrb	r3, [r0, #4]
 8002be4:	f001 0507 	and.w	r5, r1, #7
 8002be8:	42ab      	cmp	r3, r5
 8002bea:	d330      	bcc.n	8002c4e <HAL_PCD_EP_SetStall+0x6e>
  if ((0x80U & ep_addr) == 0x80U)
 8002bec:	060b      	lsls	r3, r1, #24
 8002bee:	4604      	mov	r4, r0
 8002bf0:	d41b      	bmi.n	8002c2a <HAL_PCD_EP_SetStall+0x4a>
    ep = &hpcd->OUT_ep[ep_addr];
 8002bf2:	eb01 0181 	add.w	r1, r1, r1, lsl #2
 8002bf6:	00c9      	lsls	r1, r1, #3
 8002bf8:	f501 72a8 	add.w	r2, r1, #336	@ 0x150
    ep->is_in = 0U;
 8002bfc:	1843      	adds	r3, r0, r1
    ep = &hpcd->OUT_ep[ep_addr];
 8002bfe:	1881      	adds	r1, r0, r2
    ep->is_in = 0U;
 8002c00:	2200      	movs	r2, #0
 8002c02:	f883 2151 	strb.w	r2, [r3, #337]	@ 0x151
  ep->is_stall = 1U;
 8002c06:	2301      	movs	r3, #1
  ep->num = ep_addr & EP_ADDR_MSK;
 8002c08:	700d      	strb	r5, [r1, #0]
  ep->is_stall = 1U;
 8002c0a:	708b      	strb	r3, [r1, #2]
  __HAL_LOCK(hpcd);
 8002c0c:	f894 2290 	ldrb.w	r2, [r4, #656]	@ 0x290
 8002c10:	429a      	cmp	r2, r3
 8002c12:	d01a      	beq.n	8002c4a <HAL_PCD_EP_SetStall+0x6a>
  (void)USB_EPSetStall(hpcd->Instance, ep);
 8002c14:	6820      	ldr	r0, [r4, #0]
  __HAL_LOCK(hpcd);
 8002c16:	f884 3290 	strb.w	r3, [r4, #656]	@ 0x290
  (void)USB_EPSetStall(hpcd->Instance, ep);
 8002c1a:	f001 ff53 	bl	8004ac4 <USB_EPSetStall>
  if ((ep_addr & EP_ADDR_MSK) == 0U)
 8002c1e:	b1c5      	cbz	r5, 8002c52 <HAL_PCD_EP_SetStall+0x72>
  __HAL_UNLOCK(hpcd);
 8002c20:	2300      	movs	r3, #0
 8002c22:	f884 3290 	strb.w	r3, [r4, #656]	@ 0x290
  return HAL_OK;
 8002c26:	4618      	mov	r0, r3
}
 8002c28:	bd38      	pop	{r3, r4, r5, pc}
    ep->is_in = 1U;
 8002c2a:	2201      	movs	r2, #1
    ep = &hpcd->IN_ep[ep_addr & EP_ADDR_MSK];
 8002c2c:	eb05 0385 	add.w	r3, r5, r5, lsl #2
 8002c30:	00db      	lsls	r3, r3, #3
 8002c32:	f103 0110 	add.w	r1, r3, #16
    ep->is_in = 1U;
 8002c36:	4403      	add	r3, r0
 8002c38:	745a      	strb	r2, [r3, #17]
  ep->is_stall = 1U;
 8002c3a:	2301      	movs	r3, #1
    ep = &hpcd->IN_ep[ep_addr & EP_ADDR_MSK];
 8002c3c:	4401      	add	r1, r0
  ep->num = ep_addr & EP_ADDR_MSK;
 8002c3e:	700d      	strb	r5, [r1, #0]
  ep->is_stall = 1U;
 8002c40:	708b      	strb	r3, [r1, #2]
  __HAL_LOCK(hpcd);
 8002c42:	f894 2290 	ldrb.w	r2, [r4, #656]	@ 0x290
 8002c46:	429a      	cmp	r2, r3
 8002c48:	d1e4      	bne.n	8002c14 <HAL_PCD_EP_SetStall+0x34>
 8002c4a:	2002      	movs	r0, #2
}
 8002c4c:	bd38      	pop	{r3, r4, r5, pc}
    return HAL_ERROR;
 8002c4e:	2001      	movs	r0, #1
}
 8002c50:	bd38      	pop	{r3, r4, r5, pc}
    (void)USB_EP0_OutStart(hpcd->Instance, (uint8_t *)hpcd->Setup);
 8002c52:	6820      	ldr	r0, [r4, #0]
 8002c54:	f504 7126 	add.w	r1, r4, #664	@ 0x298
 8002c58:	f001 ffba 	bl	8004bd0 <USB_EP0_OutStart>
 8002c5c:	e7e0      	b.n	8002c20 <HAL_PCD_EP_SetStall+0x40>
 8002c5e:	bf00      	nop

08002c60 <HAL_PCD_EP_ClrStall>:
{
 8002c60:	b538      	push	{r3, r4, r5, lr}
  if (((uint32_t)ep_addr & 0x0FU) > hpcd->Init.dev_endpoints)
 8002c62:	7902      	ldrb	r2, [r0, #4]
 8002c64:	f001 030f 	and.w	r3, r1, #15
 8002c68:	429a      	cmp	r2, r3
 8002c6a:	d32f      	bcc.n	8002ccc <HAL_PCD_EP_ClrStall+0x6c>
  if ((0x80U & ep_addr) == 0x80U)
 8002c6c:	f001 0207 	and.w	r2, r1, #7
 8002c70:	eb02 0382 	add.w	r3, r2, r2, lsl #2
 8002c74:	0609      	lsls	r1, r1, #24
 8002c76:	4604      	mov	r4, r0
 8002c78:	ea4f 03c3 	mov.w	r3, r3, lsl #3
 8002c7c:	d417      	bmi.n	8002cae <HAL_PCD_EP_ClrStall+0x4e>
    ep = &hpcd->OUT_ep[ep_addr & EP_ADDR_MSK];
 8002c7e:	f503 71a8 	add.w	r1, r3, #336	@ 0x150
 8002c82:	4401      	add	r1, r0
    ep->is_in = 0U;
 8002c84:	4403      	add	r3, r0
  ep->is_stall = 0U;
 8002c86:	2500      	movs	r5, #0
    ep->is_in = 0U;
 8002c88:	2000      	movs	r0, #0
 8002c8a:	f883 0151 	strb.w	r0, [r3, #337]	@ 0x151
  ep->num = ep_addr & EP_ADDR_MSK;
 8002c8e:	700a      	strb	r2, [r1, #0]
  ep->is_stall = 0U;
 8002c90:	708d      	strb	r5, [r1, #2]
  __HAL_LOCK(hpcd);
 8002c92:	f894 3290 	ldrb.w	r3, [r4, #656]	@ 0x290
 8002c96:	2b01      	cmp	r3, #1
 8002c98:	d016      	beq.n	8002cc8 <HAL_PCD_EP_ClrStall+0x68>
 8002c9a:	2301      	movs	r3, #1
  (void)USB_EPClearStall(hpcd->Instance, ep);
 8002c9c:	6820      	ldr	r0, [r4, #0]
  __HAL_LOCK(hpcd);
 8002c9e:	f884 3290 	strb.w	r3, [r4, #656]	@ 0x290
  (void)USB_EPClearStall(hpcd->Instance, ep);
 8002ca2:	f001 ff37 	bl	8004b14 <USB_EPClearStall>
  __HAL_UNLOCK(hpcd);
 8002ca6:	f884 5290 	strb.w	r5, [r4, #656]	@ 0x290
  return HAL_OK;
 8002caa:	4628      	mov	r0, r5
}
 8002cac:	bd38      	pop	{r3, r4, r5, pc}
    ep = &hpcd->IN_ep[ep_addr & EP_ADDR_MSK];
 8002cae:	f103 0110 	add.w	r1, r3, #16
 8002cb2:	4401      	add	r1, r0
    ep->is_in = 1U;
 8002cb4:	4403      	add	r3, r0
  ep->is_stall = 0U;
 8002cb6:	2500      	movs	r5, #0
    ep->is_in = 1U;
 8002cb8:	2001      	movs	r0, #1
 8002cba:	7458      	strb	r0, [r3, #17]
  ep->num = ep_addr & EP_ADDR_MSK;
 8002cbc:	700a      	strb	r2, [r1, #0]
  ep->is_stall = 0U;
 8002cbe:	708d      	strb	r5, [r1, #2]
  __HAL_LOCK(hpcd);
 8002cc0:	f894 3290 	ldrb.w	r3, [r4, #656]	@ 0x290
 8002cc4:	2b01      	cmp	r3, #1
 8002cc6:	d1e8      	bne.n	8002c9a <HAL_PCD_EP_ClrStall+0x3a>
 8002cc8:	2002      	movs	r0, #2
}
 8002cca:	bd38      	pop	{r3, r4, r5, pc}
    return HAL_ERROR;
 8002ccc:	2001      	movs	r0, #1
}
 8002cce:	bd38      	pop	{r3, r4, r5, pc}

08002cd0 <HAL_PCDEx_PMAConfig>:
                                       uint16_t ep_kind, uint32_t pmaadress)
{
  PCD_EPTypeDef *ep;

  /* initialize ep structure*/
  if ((0x80U & ep_addr) == 0x80U)
 8002cd0:	f011 0f80 	tst.w	r1, #128	@ 0x80
 8002cd4:	d00c      	beq.n	8002cf0 <HAL_PCDEx_PMAConfig+0x20>
  {
    ep = &hpcd->IN_ep[ep_addr & EP_ADDR_MSK];
 8002cd6:	f001 0107 	and.w	r1, r1, #7
 8002cda:	eb01 0181 	add.w	r1, r1, r1, lsl #2
 8002cde:	eb00 00c1 	add.w	r0, r0, r1, lsl #3
 8002ce2:	3010      	adds	r0, #16
  if (ep_kind == PCD_SNG_BUF)
  {
    /* Single Buffer */
    ep->doublebuffer = 0U;
    /* Configure the PMA */
    ep->pmaadress = (uint16_t)pmaadress;
 8002ce4:	b299      	uxth	r1, r3
  if (ep_kind == PCD_SNG_BUF)
 8002ce6:	b962      	cbnz	r2, 8002d02 <HAL_PCDEx_PMAConfig+0x32>
    ep->pmaadress = (uint16_t)pmaadress;
 8002ce8:	80c1      	strh	r1, [r0, #6]
 8002cea:	7302      	strb	r2, [r0, #12]
    ep->pmaaddr1 = (uint16_t)((pmaadress & 0xFFFF0000U) >> 16);
  }
#endif /* (USE_USB_DOUBLE_BUFFER == 1U) */

  return HAL_OK;
}
 8002cec:	2000      	movs	r0, #0
 8002cee:	4770      	bx	lr
    ep = &hpcd->OUT_ep[ep_addr];
 8002cf0:	eb01 0181 	add.w	r1, r1, r1, lsl #2
 8002cf4:	eb00 00c1 	add.w	r0, r0, r1, lsl #3
 8002cf8:	f500 70a8 	add.w	r0, r0, #336	@ 0x150
    ep->pmaadress = (uint16_t)pmaadress;
 8002cfc:	b299      	uxth	r1, r3
  if (ep_kind == PCD_SNG_BUF)
 8002cfe:	2a00      	cmp	r2, #0
 8002d00:	d0f2      	beq.n	8002ce8 <HAL_PCDEx_PMAConfig+0x18>
    ep->doublebuffer = 1U;
 8002d02:	2201      	movs	r2, #1
    ep->pmaaddr0 = (uint16_t)(pmaadress & 0xFFFFU);
 8002d04:	6083      	str	r3, [r0, #8]
 8002d06:	7302      	strb	r2, [r0, #12]
}
 8002d08:	2000      	movs	r0, #0
 8002d0a:	4770      	bx	lr

08002d0c <HAL_RCC_OscConfig>:
{
  uint32_t tickstart;
  uint32_t pll_config;

  /* Check Null pointer */
  if (RCC_OscInitStruct == NULL)
 8002d0c:	2800      	cmp	r0, #0
 8002d0e:	f000 822b 	beq.w	8003168 <HAL_RCC_OscConfig+0x45c>
{
 8002d12:	e92d 41f0 	stmdb	sp!, {r4, r5, r6, r7, r8, lr}

  /* Check the parameters */
  assert_param(IS_RCC_OSCILLATORTYPE(RCC_OscInitStruct->OscillatorType));

  /*------------------------------- HSE Configuration ------------------------*/
  if (((RCC_OscInitStruct->OscillatorType) & RCC_OSCILLATORTYPE_HSE) == RCC_OSCILLATORTYPE_HSE)
 8002d16:	6803      	ldr	r3, [r0, #0]
 8002d18:	4604      	mov	r4, r0
 8002d1a:	07dd      	lsls	r5, r3, #31
{
 8002d1c:	b082      	sub	sp, #8
  if (((RCC_OscInitStruct->OscillatorType) & RCC_OSCILLATORTYPE_HSE) == RCC_OSCILLATORTYPE_HSE)
 8002d1e:	d541      	bpl.n	8002da4 <HAL_RCC_OscConfig+0x98>
  {
    /* Check the parameters */
    assert_param(IS_RCC_HSE(RCC_OscInitStruct->HSEState));

    /* When the HSE is used as system clock or clock source for PLL in these cases it is not allowed to be disabled */
    if ((__HAL_RCC_GET_SYSCLK_SOURCE() == RCC_SYSCLKSOURCE_STATUS_HSE)
 8002d20:	f44f 5180 	mov.w	r1, #4096	@ 0x1000
 8002d24:	f2c4 0102 	movt	r1, #16386	@ 0x4002
 8002d28:	684a      	ldr	r2, [r1, #4]
 8002d2a:	f002 020c 	and.w	r2, r2, #12
 8002d2e:	2a04      	cmp	r2, #4
 8002d30:	f000 8121 	beq.w	8002f76 <HAL_RCC_OscConfig+0x26a>
        || ((__HAL_RCC_GET_SYSCLK_SOURCE() == RCC_SYSCLKSOURCE_STATUS_PLLCLK) && (__HAL_RCC_GET_PLL_OSCSOURCE() == RCC_PLLSOURCE_HSE)))
 8002d34:	684a      	ldr	r2, [r1, #4]
 8002d36:	f002 020c 	and.w	r2, r2, #12
 8002d3a:	2a08      	cmp	r2, #8
 8002d3c:	f000 8117 	beq.w	8002f6e <HAL_RCC_OscConfig+0x262>
      }
    }
    else
    {
      /* Set the new HSE configuration ---------------------------------------*/
      __HAL_RCC_HSE_CONFIG(RCC_OscInitStruct->HSEState);
 8002d40:	6863      	ldr	r3, [r4, #4]
 8002d42:	f5b3 3f80 	cmp.w	r3, #65536	@ 0x10000
 8002d46:	d013      	beq.n	8002d70 <HAL_RCC_OscConfig+0x64>
 8002d48:	2b00      	cmp	r3, #0
 8002d4a:	f000 8144 	beq.w	8002fd6 <HAL_RCC_OscConfig+0x2ca>
 8002d4e:	f5b3 2fa0 	cmp.w	r3, #327680	@ 0x50000
 8002d52:	f44f 5380 	mov.w	r3, #4096	@ 0x1000
 8002d56:	f2c4 0302 	movt	r3, #16386	@ 0x4002
 8002d5a:	681a      	ldr	r2, [r3, #0]
 8002d5c:	f000 81bf 	beq.w	80030de <HAL_RCC_OscConfig+0x3d2>
 8002d60:	f422 3280 	bic.w	r2, r2, #65536	@ 0x10000
 8002d64:	601a      	str	r2, [r3, #0]
 8002d66:	681a      	ldr	r2, [r3, #0]
 8002d68:	f422 2280 	bic.w	r2, r2, #262144	@ 0x40000
 8002d6c:	601a      	str	r2, [r3, #0]


      /* Check the HSE State */
      if (RCC_OscInitStruct->HSEState != RCC_HSE_OFF)
 8002d6e:	e007      	b.n	8002d80 <HAL_RCC_OscConfig+0x74>
      __HAL_RCC_HSE_CONFIG(RCC_OscInitStruct->HSEState);
 8002d70:	f44f 5380 	mov.w	r3, #4096	@ 0x1000
 8002d74:	f2c4 0302 	movt	r3, #16386	@ 0x4002
 8002d78:	681a      	ldr	r2, [r3, #0]
 8002d7a:	f442 3280 	orr.w	r2, r2, #65536	@ 0x10000
 8002d7e:	601a      	str	r2, [r3, #0]
      {
        /* Get Start Tick */
        tickstart = HAL_GetTick();
 8002d80:	f7fe f8d6 	bl	8000f30 <HAL_GetTick>

        /* Wait till HSE is ready */
        while (__HAL_RCC_GET_FLAG(RCC_FLAG_HSERDY) == RESET)
 8002d84:	f44f 5680 	mov.w	r6, #4096	@ 0x1000
        tickstart = HAL_GetTick();
 8002d88:	4605      	mov	r5, r0
        while (__HAL_RCC_GET_FLAG(RCC_FLAG_HSERDY) == RESET)
 8002d8a:	f2c4 0602 	movt	r6, #16386	@ 0x4002
 8002d8e:	e005      	b.n	8002d9c <HAL_RCC_OscConfig+0x90>
        {
          if ((HAL_GetTick() - tickstart) > HSE_TIMEOUT_VALUE)
 8002d90:	f7fe f8ce 	bl	8000f30 <HAL_GetTick>
 8002d94:	1b40      	subs	r0, r0, r5
 8002d96:	2864      	cmp	r0, #100	@ 0x64
 8002d98:	f200 8119 	bhi.w	8002fce <HAL_RCC_OscConfig+0x2c2>
        while (__HAL_RCC_GET_FLAG(RCC_FLAG_HSERDY) == RESET)
 8002d9c:	6833      	ldr	r3, [r6, #0]
 8002d9e:	039a      	lsls	r2, r3, #14
 8002da0:	d5f6      	bpl.n	8002d90 <HAL_RCC_OscConfig+0x84>
        }
      }
    }
  }
  /*----------------------------- HSI Configuration --------------------------*/
  if (((RCC_OscInitStruct->OscillatorType) & RCC_OSCILLATORTYPE_HSI) == RCC_OSCILLATORTYPE_HSI)
 8002da2:	6823      	ldr	r3, [r4, #0]
 8002da4:	079f      	lsls	r7, r3, #30
 8002da6:	d530      	bpl.n	8002e0a <HAL_RCC_OscConfig+0xfe>
    /* Check the parameters */
    assert_param(IS_RCC_HSI(RCC_OscInitStruct->HSIState));
    assert_param(IS_RCC_CALIBRATION_VALUE(RCC_OscInitStruct->HSICalibrationValue));

    /* Check if HSI is used as system clock or as PLL source when PLL is selected as system clock */
    if ((__HAL_RCC_GET_SYSCLK_SOURCE() == RCC_SYSCLKSOURCE_STATUS_HSI)
 8002da8:	f44f 5280 	mov.w	r2, #4096	@ 0x1000
 8002dac:	f2c4 0202 	movt	r2, #16386	@ 0x4002
 8002db0:	6851      	ldr	r1, [r2, #4]
 8002db2:	f011 0f0c 	tst.w	r1, #12
 8002db6:	f000 80b6 	beq.w	8002f26 <HAL_RCC_OscConfig+0x21a>
        || ((__HAL_RCC_GET_SYSCLK_SOURCE() == RCC_SYSCLKSOURCE_STATUS_PLLCLK) && (__HAL_RCC_GET_PLL_OSCSOURCE() == RCC_PLLSOURCE_HSI_DIV2)))
 8002dba:	6851      	ldr	r1, [r2, #4]
 8002dbc:	f001 010c 	and.w	r1, r1, #12
 8002dc0:	2908      	cmp	r1, #8
 8002dc2:	f000 80ac 	beq.w	8002f1e <HAL_RCC_OscConfig+0x212>
      }
    }
    else
    {
      /* Check the HSI State */
      if (RCC_OscInitStruct->HSIState != RCC_HSI_OFF)
 8002dc6:	6923      	ldr	r3, [r4, #16]
 8002dc8:	2b00      	cmp	r3, #0
 8002dca:	f000 8143 	beq.w	8003054 <HAL_RCC_OscConfig+0x348>
      {
        /* Enable the Internal High Speed oscillator (HSI). */
        __HAL_RCC_HSI_ENABLE();
 8002dce:	2300      	movs	r3, #0
 8002dd0:	2201      	movs	r2, #1
 8002dd2:	f2c4 2342 	movt	r3, #16962	@ 0x4242
 8002dd6:	601a      	str	r2, [r3, #0]

        /* Get Start Tick */
        tickstart = HAL_GetTick();
 8002dd8:	f7fe f8aa 	bl	8000f30 <HAL_GetTick>

        /* Wait till HSI is ready */
        while (__HAL_RCC_GET_FLAG(RCC_FLAG_HSIRDY) == RESET)
 8002ddc:	f44f 5580 	mov.w	r5, #4096	@ 0x1000
        tickstart = HAL_GetTick();
 8002de0:	4606      	mov	r6, r0
        while (__HAL_RCC_GET_FLAG(RCC_FLAG_HSIRDY) == RESET)
 8002de2:	f2c4 0502 	movt	r5, #16386	@ 0x4002
 8002de6:	e005      	b.n	8002df4 <HAL_RCC_OscConfig+0xe8>
        {
          if ((HAL_GetTick() - tickstart) > HSI_TIMEOUT_VALUE)
 8002de8:	f7fe f8a2 	bl	8000f30 <HAL_GetTick>
 8002dec:	1b80      	subs	r0, r0, r6
 8002dee:	2802      	cmp	r0, #2
 8002df0:	f200 80ed 	bhi.w	8002fce <HAL_RCC_OscConfig+0x2c2>
        while (__HAL_RCC_GET_FLAG(RCC_FLAG_HSIRDY) == RESET)
 8002df4:	682b      	ldr	r3, [r5, #0]
 8002df6:	0798      	lsls	r0, r3, #30
 8002df8:	d5f6      	bpl.n	8002de8 <HAL_RCC_OscConfig+0xdc>
            return HAL_TIMEOUT;
          }
        }

        /* Adjusts the Internal High Speed oscillator (HSI) calibration value.*/
        __HAL_RCC_HSI_CALIBRATIONVALUE_ADJUST(RCC_OscInitStruct->HSICalibrationValue);
 8002dfa:	682b      	ldr	r3, [r5, #0]
 8002dfc:	6962      	ldr	r2, [r4, #20]
 8002dfe:	f023 03f8 	bic.w	r3, r3, #248	@ 0xf8
 8002e02:	ea43 03c2 	orr.w	r3, r3, r2, lsl #3
 8002e06:	602b      	str	r3, [r5, #0]
        }
      }
    }
  }
  /*------------------------------ LSI Configuration -------------------------*/
  if (((RCC_OscInitStruct->OscillatorType) & RCC_OSCILLATORTYPE_LSI) == RCC_OSCILLATORTYPE_LSI)
 8002e08:	6823      	ldr	r3, [r4, #0]
 8002e0a:	071a      	lsls	r2, r3, #28
 8002e0c:	d432      	bmi.n	8002e74 <HAL_RCC_OscConfig+0x168>
        }
      }
    }
  }
  /*------------------------------ LSE Configuration -------------------------*/
  if (((RCC_OscInitStruct->OscillatorType) & RCC_OSCILLATORTYPE_LSE) == RCC_OSCILLATORTYPE_LSE)
 8002e0e:	075d      	lsls	r5, r3, #29
 8002e10:	d560      	bpl.n	8002ed4 <HAL_RCC_OscConfig+0x1c8>
    /* Check the parameters */
    assert_param(IS_RCC_LSE(RCC_OscInitStruct->LSEState));

    /* Update LSE configuration in Backup Domain control register    */
    /* Requires to enable write access to Backup Domain of necessary */
    if (__HAL_RCC_PWR_IS_CLK_DISABLED())
 8002e12:	f44f 5380 	mov.w	r3, #4096	@ 0x1000
 8002e16:	f2c4 0302 	movt	r3, #16386	@ 0x4002
 8002e1a:	69da      	ldr	r2, [r3, #28]
 8002e1c:	00d0      	lsls	r0, r2, #3
 8002e1e:	f100 80a4 	bmi.w	8002f6a <HAL_RCC_OscConfig+0x25e>
    {
      __HAL_RCC_PWR_CLK_ENABLE();
      pwrclkchanged = SET;
 8002e22:	2501      	movs	r5, #1
      __HAL_RCC_PWR_CLK_ENABLE();
 8002e24:	69da      	ldr	r2, [r3, #28]
 8002e26:	f042 5280 	orr.w	r2, r2, #268435456	@ 0x10000000
 8002e2a:	61da      	str	r2, [r3, #28]
 8002e2c:	69db      	ldr	r3, [r3, #28]
 8002e2e:	f003 5380 	and.w	r3, r3, #268435456	@ 0x10000000
 8002e32:	9300      	str	r3, [sp, #0]
 8002e34:	9b00      	ldr	r3, [sp, #0]
    }

    if (HAL_IS_BIT_CLR(PWR->CR, PWR_CR_DBP))
 8002e36:	f44f 46e0 	mov.w	r6, #28672	@ 0x7000
 8002e3a:	f2c4 0600 	movt	r6, #16384	@ 0x4000
 8002e3e:	6833      	ldr	r3, [r6, #0]
 8002e40:	05d9      	lsls	r1, r3, #23
 8002e42:	f140 80b4 	bpl.w	8002fae <HAL_RCC_OscConfig+0x2a2>
        }
      }
    }

    /* Set the new LSE configuration -----------------------------------------*/
    __HAL_RCC_LSE_CONFIG(RCC_OscInitStruct->LSEState);
 8002e46:	68e3      	ldr	r3, [r4, #12]
 8002e48:	2b01      	cmp	r3, #1
 8002e4a:	f000 8119 	beq.w	8003080 <HAL_RCC_OscConfig+0x374>
 8002e4e:	2b00      	cmp	r3, #0
 8002e50:	f000 80da 	beq.w	8003008 <HAL_RCC_OscConfig+0x2fc>
 8002e54:	2b05      	cmp	r3, #5
 8002e56:	f44f 5380 	mov.w	r3, #4096	@ 0x1000
 8002e5a:	f2c4 0302 	movt	r3, #16386	@ 0x4002
 8002e5e:	6a1a      	ldr	r2, [r3, #32]
 8002e60:	f000 8145 	beq.w	80030ee <HAL_RCC_OscConfig+0x3e2>
 8002e64:	f022 0201 	bic.w	r2, r2, #1
 8002e68:	621a      	str	r2, [r3, #32]
 8002e6a:	6a1a      	ldr	r2, [r3, #32]
 8002e6c:	f022 0204 	bic.w	r2, r2, #4
 8002e70:	621a      	str	r2, [r3, #32]
    /* Check the LSE State */
    if (RCC_OscInitStruct->LSEState != RCC_LSE_OFF)
 8002e72:	e10d      	b.n	8003090 <HAL_RCC_OscConfig+0x384>
    if (RCC_OscInitStruct->LSIState != RCC_LSI_OFF)
 8002e74:	69a3      	ldr	r3, [r4, #24]
 8002e76:	2b00      	cmp	r3, #0
 8002e78:	d061      	beq.n	8002f3e <HAL_RCC_OscConfig+0x232>
      __HAL_RCC_LSI_ENABLE();
 8002e7a:	2300      	movs	r3, #0
 8002e7c:	2201      	movs	r2, #1
 8002e7e:	f2c4 2342 	movt	r3, #16962	@ 0x4242
 8002e82:	f8c3 2480 	str.w	r2, [r3, #1152]	@ 0x480
      tickstart = HAL_GetTick();
 8002e86:	f7fe f853 	bl	8000f30 <HAL_GetTick>
      while (__HAL_RCC_GET_FLAG(RCC_FLAG_LSIRDY) == RESET)
 8002e8a:	f44f 5680 	mov.w	r6, #4096	@ 0x1000
      tickstart = HAL_GetTick();
 8002e8e:	4605      	mov	r5, r0
      while (__HAL_RCC_GET_FLAG(RCC_FLAG_LSIRDY) == RESET)
 8002e90:	f2c4 0602 	movt	r6, #16386	@ 0x4002
 8002e94:	e005      	b.n	8002ea2 <HAL_RCC_OscConfig+0x196>
        if ((HAL_GetTick() - tickstart) > LSI_TIMEOUT_VALUE)
 8002e96:	f7fe f84b 	bl	8000f30 <HAL_GetTick>
 8002e9a:	1b40      	subs	r0, r0, r5
 8002e9c:	2802      	cmp	r0, #2
 8002e9e:	f200 8096 	bhi.w	8002fce <HAL_RCC_OscConfig+0x2c2>
      while (__HAL_RCC_GET_FLAG(RCC_FLAG_LSIRDY) == RESET)
 8002ea2:	6a73      	ldr	r3, [r6, #36]	@ 0x24
 8002ea4:	079b      	lsls	r3, r3, #30
 8002ea6:	d5f6      	bpl.n	8002e96 <HAL_RCC_OscConfig+0x18a>
  * @param  mdelay: specifies the delay time length, in milliseconds.
  * @retval None
  */
static void RCC_Delay(uint32_t mdelay)
{
  __IO uint32_t Delay = mdelay * (SystemCoreClock / 8U / 1000U);
 8002ea8:	f240 0300 	movw	r3, #0
 8002eac:	f644 52d3 	movw	r2, #19923	@ 0x4dd3
 8002eb0:	f2c2 0300 	movt	r3, #8192	@ 0x2000
 8002eb4:	681b      	ldr	r3, [r3, #0]
 8002eb6:	f2c1 0262 	movt	r2, #4194	@ 0x1062
 8002eba:	fba2 2303 	umull	r2, r3, r2, r3
 8002ebe:	0a5b      	lsrs	r3, r3, #9
 8002ec0:	9301      	str	r3, [sp, #4]
  do
  {
    __NOP();
 8002ec2:	bf00      	nop
  }
  while (Delay --);
 8002ec4:	9b01      	ldr	r3, [sp, #4]
 8002ec6:	1e5a      	subs	r2, r3, #1
 8002ec8:	9201      	str	r2, [sp, #4]
 8002eca:	2b00      	cmp	r3, #0
 8002ecc:	d1f9      	bne.n	8002ec2 <HAL_RCC_OscConfig+0x1b6>
  if (((RCC_OscInitStruct->OscillatorType) & RCC_OSCILLATORTYPE_LSE) == RCC_OSCILLATORTYPE_LSE)
 8002ece:	6823      	ldr	r3, [r4, #0]
 8002ed0:	075d      	lsls	r5, r3, #29
 8002ed2:	d49e      	bmi.n	8002e12 <HAL_RCC_OscConfig+0x106>
  if ((RCC_OscInitStruct->PLL.PLLState) != RCC_PLL_NONE)
 8002ed4:	69e3      	ldr	r3, [r4, #28]
 8002ed6:	b1f3      	cbz	r3, 8002f16 <HAL_RCC_OscConfig+0x20a>
    if (__HAL_RCC_GET_SYSCLK_SOURCE() != RCC_SYSCLKSOURCE_STATUS_PLLCLK)
 8002ed8:	f44f 5580 	mov.w	r5, #4096	@ 0x1000
 8002edc:	f2c4 0502 	movt	r5, #16386	@ 0x4002
 8002ee0:	686a      	ldr	r2, [r5, #4]
 8002ee2:	f002 020c 	and.w	r2, r2, #12
 8002ee6:	2a08      	cmp	r2, #8
 8002ee8:	f000 80e8 	beq.w	80030bc <HAL_RCC_OscConfig+0x3b0>
      if ((RCC_OscInitStruct->PLL.PLLState) == RCC_PLL_ON)
 8002eec:	2b02      	cmp	r3, #2
        __HAL_RCC_PLL_DISABLE();
 8002eee:	f04f 0300 	mov.w	r3, #0
 8002ef2:	461a      	mov	r2, r3
 8002ef4:	f2c4 2342 	movt	r3, #16962	@ 0x4242
 8002ef8:	661a      	str	r2, [r3, #96]	@ 0x60
      if ((RCC_OscInitStruct->PLL.PLLState) == RCC_PLL_ON)
 8002efa:	f000 8100 	beq.w	80030fe <HAL_RCC_OscConfig+0x3f2>
        tickstart = HAL_GetTick();
 8002efe:	f7fe f817 	bl	8000f30 <HAL_GetTick>
 8002f02:	4604      	mov	r4, r0
        while (__HAL_RCC_GET_FLAG(RCC_FLAG_PLLRDY)  != RESET)
 8002f04:	e004      	b.n	8002f10 <HAL_RCC_OscConfig+0x204>
          if ((HAL_GetTick() - tickstart) > PLL_TIMEOUT_VALUE)
 8002f06:	f7fe f813 	bl	8000f30 <HAL_GetTick>
 8002f0a:	1b00      	subs	r0, r0, r4
 8002f0c:	2802      	cmp	r0, #2
 8002f0e:	d85e      	bhi.n	8002fce <HAL_RCC_OscConfig+0x2c2>
        while (__HAL_RCC_GET_FLAG(RCC_FLAG_PLLRDY)  != RESET)
 8002f10:	682b      	ldr	r3, [r5, #0]
 8002f12:	019b      	lsls	r3, r3, #6
 8002f14:	d4f7      	bmi.n	8002f06 <HAL_RCC_OscConfig+0x1fa>
  return HAL_OK;
 8002f16:	2000      	movs	r0, #0
}
 8002f18:	b002      	add	sp, #8
 8002f1a:	e8bd 81f0 	ldmia.w	sp!, {r4, r5, r6, r7, r8, pc}
        || ((__HAL_RCC_GET_SYSCLK_SOURCE() == RCC_SYSCLKSOURCE_STATUS_PLLCLK) && (__HAL_RCC_GET_PLL_OSCSOURCE() == RCC_PLLSOURCE_HSI_DIV2)))
 8002f1e:	6852      	ldr	r2, [r2, #4]
 8002f20:	03d6      	lsls	r6, r2, #15
 8002f22:	f53f af50 	bmi.w	8002dc6 <HAL_RCC_OscConfig+0xba>
      if ((__HAL_RCC_GET_FLAG(RCC_FLAG_HSIRDY) != RESET) && (RCC_OscInitStruct->HSIState != RCC_HSI_ON))
 8002f26:	f44f 5280 	mov.w	r2, #4096	@ 0x1000
 8002f2a:	f2c4 0202 	movt	r2, #16386	@ 0x4002
 8002f2e:	6812      	ldr	r2, [r2, #0]
 8002f30:	0795      	lsls	r5, r2, #30
 8002f32:	d52d      	bpl.n	8002f90 <HAL_RCC_OscConfig+0x284>
 8002f34:	6922      	ldr	r2, [r4, #16]
 8002f36:	2a01      	cmp	r2, #1
 8002f38:	d02a      	beq.n	8002f90 <HAL_RCC_OscConfig+0x284>
    return HAL_ERROR;
 8002f3a:	2001      	movs	r0, #1
 8002f3c:	e7ec      	b.n	8002f18 <HAL_RCC_OscConfig+0x20c>
      __HAL_RCC_LSI_DISABLE();
 8002f3e:	2200      	movs	r2, #0
 8002f40:	f2c4 2242 	movt	r2, #16962	@ 0x4242
 8002f44:	f8c2 3480 	str.w	r3, [r2, #1152]	@ 0x480
      tickstart = HAL_GetTick();
 8002f48:	f7fd fff2 	bl	8000f30 <HAL_GetTick>
      while (__HAL_RCC_GET_FLAG(RCC_FLAG_LSIRDY) != RESET)
 8002f4c:	f44f 5680 	mov.w	r6, #4096	@ 0x1000
      tickstart = HAL_GetTick();
 8002f50:	4605      	mov	r5, r0
      while (__HAL_RCC_GET_FLAG(RCC_FLAG_LSIRDY) != RESET)
 8002f52:	f2c4 0602 	movt	r6, #16386	@ 0x4002
 8002f56:	e004      	b.n	8002f62 <HAL_RCC_OscConfig+0x256>
        if ((HAL_GetTick() - tickstart) > LSI_TIMEOUT_VALUE)
 8002f58:	f7fd ffea 	bl	8000f30 <HAL_GetTick>
 8002f5c:	1b40      	subs	r0, r0, r5
 8002f5e:	2802      	cmp	r0, #2
 8002f60:	d835      	bhi.n	8002fce <HAL_RCC_OscConfig+0x2c2>
      while (__HAL_RCC_GET_FLAG(RCC_FLAG_LSIRDY) != RESET)
 8002f62:	6a73      	ldr	r3, [r6, #36]	@ 0x24
 8002f64:	079f      	lsls	r7, r3, #30
 8002f66:	d4f7      	bmi.n	8002f58 <HAL_RCC_OscConfig+0x24c>
 8002f68:	e7b1      	b.n	8002ece <HAL_RCC_OscConfig+0x1c2>
    FlagStatus       pwrclkchanged = RESET;
 8002f6a:	2500      	movs	r5, #0
 8002f6c:	e763      	b.n	8002e36 <HAL_RCC_OscConfig+0x12a>
        || ((__HAL_RCC_GET_SYSCLK_SOURCE() == RCC_SYSCLKSOURCE_STATUS_PLLCLK) && (__HAL_RCC_GET_PLL_OSCSOURCE() == RCC_PLLSOURCE_HSE)))
 8002f6e:	684a      	ldr	r2, [r1, #4]
 8002f70:	03d0      	lsls	r0, r2, #15
 8002f72:	f57f aee5 	bpl.w	8002d40 <HAL_RCC_OscConfig+0x34>
      if ((__HAL_RCC_GET_FLAG(RCC_FLAG_HSERDY) != RESET) && (RCC_OscInitStruct->HSEState == RCC_HSE_OFF))
 8002f76:	f44f 5280 	mov.w	r2, #4096	@ 0x1000
 8002f7a:	f2c4 0202 	movt	r2, #16386	@ 0x4002
 8002f7e:	6812      	ldr	r2, [r2, #0]
 8002f80:	0391      	lsls	r1, r2, #14
 8002f82:	f57f af0f 	bpl.w	8002da4 <HAL_RCC_OscConfig+0x98>
 8002f86:	6862      	ldr	r2, [r4, #4]
 8002f88:	2a00      	cmp	r2, #0
 8002f8a:	f47f af0b 	bne.w	8002da4 <HAL_RCC_OscConfig+0x98>
 8002f8e:	e7d4      	b.n	8002f3a <HAL_RCC_OscConfig+0x22e>
        __HAL_RCC_HSI_CALIBRATIONVALUE_ADJUST(RCC_OscInitStruct->HSICalibrationValue);
 8002f90:	f44f 5180 	mov.w	r1, #4096	@ 0x1000
 8002f94:	f2c4 0102 	movt	r1, #16386	@ 0x4002
 8002f98:	680a      	ldr	r2, [r1, #0]
 8002f9a:	6960      	ldr	r0, [r4, #20]
 8002f9c:	f022 02f8 	bic.w	r2, r2, #248	@ 0xf8
 8002fa0:	ea42 02c0 	orr.w	r2, r2, r0, lsl #3
 8002fa4:	600a      	str	r2, [r1, #0]
  if (((RCC_OscInitStruct->OscillatorType) & RCC_OSCILLATORTYPE_LSI) == RCC_OSCILLATORTYPE_LSI)
 8002fa6:	071a      	lsls	r2, r3, #28
 8002fa8:	f57f af31 	bpl.w	8002e0e <HAL_RCC_OscConfig+0x102>
 8002fac:	e762      	b.n	8002e74 <HAL_RCC_OscConfig+0x168>
      SET_BIT(PWR->CR, PWR_CR_DBP);
 8002fae:	6833      	ldr	r3, [r6, #0]
 8002fb0:	f443 7380 	orr.w	r3, r3, #256	@ 0x100
 8002fb4:	6033      	str	r3, [r6, #0]
      tickstart = HAL_GetTick();
 8002fb6:	f7fd ffbb 	bl	8000f30 <HAL_GetTick>
 8002fba:	4607      	mov	r7, r0
      while (HAL_IS_BIT_CLR(PWR->CR, PWR_CR_DBP))
 8002fbc:	6833      	ldr	r3, [r6, #0]
 8002fbe:	05da      	lsls	r2, r3, #23
 8002fc0:	f53f af41 	bmi.w	8002e46 <HAL_RCC_OscConfig+0x13a>
        if ((HAL_GetTick() - tickstart) > RCC_DBP_TIMEOUT_VALUE)
 8002fc4:	f7fd ffb4 	bl	8000f30 <HAL_GetTick>
 8002fc8:	1bc0      	subs	r0, r0, r7
 8002fca:	2864      	cmp	r0, #100	@ 0x64
 8002fcc:	d9f6      	bls.n	8002fbc <HAL_RCC_OscConfig+0x2b0>
            return HAL_TIMEOUT;
 8002fce:	2003      	movs	r0, #3
}
 8002fd0:	b002      	add	sp, #8
 8002fd2:	e8bd 81f0 	ldmia.w	sp!, {r4, r5, r6, r7, r8, pc}
      __HAL_RCC_HSE_CONFIG(RCC_OscInitStruct->HSEState);
 8002fd6:	f44f 5580 	mov.w	r5, #4096	@ 0x1000
 8002fda:	f2c4 0502 	movt	r5, #16386	@ 0x4002
 8002fde:	682b      	ldr	r3, [r5, #0]
 8002fe0:	f423 3380 	bic.w	r3, r3, #65536	@ 0x10000
 8002fe4:	602b      	str	r3, [r5, #0]
 8002fe6:	682b      	ldr	r3, [r5, #0]
 8002fe8:	f423 2380 	bic.w	r3, r3, #262144	@ 0x40000
 8002fec:	602b      	str	r3, [r5, #0]
        tickstart = HAL_GetTick();
 8002fee:	f7fd ff9f 	bl	8000f30 <HAL_GetTick>
 8002ff2:	4606      	mov	r6, r0
        while (__HAL_RCC_GET_FLAG(RCC_FLAG_HSERDY) != RESET)
 8002ff4:	e004      	b.n	8003000 <HAL_RCC_OscConfig+0x2f4>
          if ((HAL_GetTick() - tickstart) > HSE_TIMEOUT_VALUE)
 8002ff6:	f7fd ff9b 	bl	8000f30 <HAL_GetTick>
 8002ffa:	1b80      	subs	r0, r0, r6
 8002ffc:	2864      	cmp	r0, #100	@ 0x64
 8002ffe:	d8e6      	bhi.n	8002fce <HAL_RCC_OscConfig+0x2c2>
        while (__HAL_RCC_GET_FLAG(RCC_FLAG_HSERDY) != RESET)
 8003000:	682b      	ldr	r3, [r5, #0]
 8003002:	039b      	lsls	r3, r3, #14
 8003004:	d4f7      	bmi.n	8002ff6 <HAL_RCC_OscConfig+0x2ea>
 8003006:	e6cc      	b.n	8002da2 <HAL_RCC_OscConfig+0x96>
    __HAL_RCC_LSE_CONFIG(RCC_OscInitStruct->LSEState);
 8003008:	f44f 5680 	mov.w	r6, #4096	@ 0x1000
 800300c:	f2c4 0602 	movt	r6, #16386	@ 0x4002
 8003010:	6a33      	ldr	r3, [r6, #32]
        if ((HAL_GetTick() - tickstart) > RCC_LSE_TIMEOUT_VALUE)
 8003012:	f241 3888 	movw	r8, #5000	@ 0x1388
    __HAL_RCC_LSE_CONFIG(RCC_OscInitStruct->LSEState);
 8003016:	f023 0301 	bic.w	r3, r3, #1
 800301a:	6233      	str	r3, [r6, #32]
 800301c:	6a33      	ldr	r3, [r6, #32]
 800301e:	f023 0304 	bic.w	r3, r3, #4
 8003022:	6233      	str	r3, [r6, #32]
      tickstart = HAL_GetTick();
 8003024:	f7fd ff84 	bl	8000f30 <HAL_GetTick>
 8003028:	4607      	mov	r7, r0
      while (__HAL_RCC_GET_FLAG(RCC_FLAG_LSERDY) != RESET)
 800302a:	e004      	b.n	8003036 <HAL_RCC_OscConfig+0x32a>
        if ((HAL_GetTick() - tickstart) > RCC_LSE_TIMEOUT_VALUE)
 800302c:	f7fd ff80 	bl	8000f30 <HAL_GetTick>
 8003030:	1bc0      	subs	r0, r0, r7
 8003032:	4540      	cmp	r0, r8
 8003034:	d8cb      	bhi.n	8002fce <HAL_RCC_OscConfig+0x2c2>
      while (__HAL_RCC_GET_FLAG(RCC_FLAG_LSERDY) != RESET)
 8003036:	6a33      	ldr	r3, [r6, #32]
 8003038:	0798      	lsls	r0, r3, #30
 800303a:	d4f7      	bmi.n	800302c <HAL_RCC_OscConfig+0x320>
    if (pwrclkchanged == SET)
 800303c:	2d00      	cmp	r5, #0
 800303e:	f43f af49 	beq.w	8002ed4 <HAL_RCC_OscConfig+0x1c8>
      __HAL_RCC_PWR_CLK_DISABLE();
 8003042:	f44f 5380 	mov.w	r3, #4096	@ 0x1000
 8003046:	f2c4 0302 	movt	r3, #16386	@ 0x4002
 800304a:	69da      	ldr	r2, [r3, #28]
 800304c:	f022 5280 	bic.w	r2, r2, #268435456	@ 0x10000000
 8003050:	61da      	str	r2, [r3, #28]
 8003052:	e73f      	b.n	8002ed4 <HAL_RCC_OscConfig+0x1c8>
        __HAL_RCC_HSI_DISABLE();
 8003054:	2200      	movs	r2, #0
 8003056:	f2c4 2242 	movt	r2, #16962	@ 0x4242
 800305a:	6013      	str	r3, [r2, #0]
        tickstart = HAL_GetTick();
 800305c:	f7fd ff68 	bl	8000f30 <HAL_GetTick>
        while (__HAL_RCC_GET_FLAG(RCC_FLAG_HSIRDY) != RESET)
 8003060:	f44f 5680 	mov.w	r6, #4096	@ 0x1000
        tickstart = HAL_GetTick();
 8003064:	4605      	mov	r5, r0
        while (__HAL_RCC_GET_FLAG(RCC_FLAG_HSIRDY) != RESET)
 8003066:	f2c4 0602 	movt	r6, #16386	@ 0x4002
 800306a:	e004      	b.n	8003076 <HAL_RCC_OscConfig+0x36a>
          if ((HAL_GetTick() - tickstart) > HSI_TIMEOUT_VALUE)
 800306c:	f7fd ff60 	bl	8000f30 <HAL_GetTick>
 8003070:	1b40      	subs	r0, r0, r5
 8003072:	2802      	cmp	r0, #2
 8003074:	d8ab      	bhi.n	8002fce <HAL_RCC_OscConfig+0x2c2>
        while (__HAL_RCC_GET_FLAG(RCC_FLAG_HSIRDY) != RESET)
 8003076:	6833      	ldr	r3, [r6, #0]
 8003078:	0799      	lsls	r1, r3, #30
 800307a:	d4f7      	bmi.n	800306c <HAL_RCC_OscConfig+0x360>
  if (((RCC_OscInitStruct->OscillatorType) & RCC_OSCILLATORTYPE_LSI) == RCC_OSCILLATORTYPE_LSI)
 800307c:	6823      	ldr	r3, [r4, #0]
 800307e:	e6c4      	b.n	8002e0a <HAL_RCC_OscConfig+0xfe>
    __HAL_RCC_LSE_CONFIG(RCC_OscInitStruct->LSEState);
 8003080:	f44f 5380 	mov.w	r3, #4096	@ 0x1000
 8003084:	f2c4 0302 	movt	r3, #16386	@ 0x4002
 8003088:	6a1a      	ldr	r2, [r3, #32]
 800308a:	f042 0201 	orr.w	r2, r2, #1
 800308e:	621a      	str	r2, [r3, #32]
      tickstart = HAL_GetTick();
 8003090:	f7fd ff4e 	bl	8000f30 <HAL_GetTick>
      while (__HAL_RCC_GET_FLAG(RCC_FLAG_LSERDY) == RESET)
 8003094:	f44f 5780 	mov.w	r7, #4096	@ 0x1000
        if ((HAL_GetTick() - tickstart) > RCC_LSE_TIMEOUT_VALUE)
 8003098:	f241 3888 	movw	r8, #5000	@ 0x1388
      tickstart = HAL_GetTick();
 800309c:	4606      	mov	r6, r0
      while (__HAL_RCC_GET_FLAG(RCC_FLAG_LSERDY) == RESET)
 800309e:	f2c4 0702 	movt	r7, #16386	@ 0x4002
 80030a2:	e004      	b.n	80030ae <HAL_RCC_OscConfig+0x3a2>
        if ((HAL_GetTick() - tickstart) > RCC_LSE_TIMEOUT_VALUE)
 80030a4:	f7fd ff44 	bl	8000f30 <HAL_GetTick>
 80030a8:	1b80      	subs	r0, r0, r6
 80030aa:	4540      	cmp	r0, r8
 80030ac:	d88f      	bhi.n	8002fce <HAL_RCC_OscConfig+0x2c2>
      while (__HAL_RCC_GET_FLAG(RCC_FLAG_LSERDY) == RESET)
 80030ae:	6a3b      	ldr	r3, [r7, #32]
 80030b0:	079b      	lsls	r3, r3, #30
 80030b2:	d5f7      	bpl.n	80030a4 <HAL_RCC_OscConfig+0x398>
    if (pwrclkchanged == SET)
 80030b4:	2d00      	cmp	r5, #0
 80030b6:	f43f af0d 	beq.w	8002ed4 <HAL_RCC_OscConfig+0x1c8>
 80030ba:	e7c2      	b.n	8003042 <HAL_RCC_OscConfig+0x336>
      if ((RCC_OscInitStruct->PLL.PLLState) == RCC_PLL_OFF)
 80030bc:	2b01      	cmp	r3, #1
 80030be:	f43f af3c 	beq.w	8002f3a <HAL_RCC_OscConfig+0x22e>
        pll_config = RCC->CFGR;
 80030c2:	686b      	ldr	r3, [r5, #4]
        if ((READ_BIT(pll_config, RCC_CFGR_PLLSRC) != RCC_OscInitStruct->PLL.PLLSource) ||
 80030c4:	6a22      	ldr	r2, [r4, #32]
 80030c6:	f403 3180 	and.w	r1, r3, #65536	@ 0x10000
 80030ca:	4291      	cmp	r1, r2
 80030cc:	f47f af35 	bne.w	8002f3a <HAL_RCC_OscConfig+0x22e>
 80030d0:	6a60      	ldr	r0, [r4, #36]	@ 0x24
            (READ_BIT(pll_config, RCC_CFGR_PLLMULL) != RCC_OscInitStruct->PLL.PLLMUL))
 80030d2:	f403 1370 	and.w	r3, r3, #3932160	@ 0x3c0000
        if ((READ_BIT(pll_config, RCC_CFGR_PLLSRC) != RCC_OscInitStruct->PLL.PLLSource) ||
 80030d6:	1a18      	subs	r0, r3, r0
 80030d8:	bf18      	it	ne
 80030da:	2001      	movne	r0, #1
 80030dc:	e71c      	b.n	8002f18 <HAL_RCC_OscConfig+0x20c>
      __HAL_RCC_HSE_CONFIG(RCC_OscInitStruct->HSEState);
 80030de:	f442 2280 	orr.w	r2, r2, #262144	@ 0x40000
 80030e2:	601a      	str	r2, [r3, #0]
 80030e4:	681a      	ldr	r2, [r3, #0]
 80030e6:	f442 3280 	orr.w	r2, r2, #65536	@ 0x10000
 80030ea:	601a      	str	r2, [r3, #0]
      if (RCC_OscInitStruct->HSEState != RCC_HSE_OFF)
 80030ec:	e648      	b.n	8002d80 <HAL_RCC_OscConfig+0x74>
    __HAL_RCC_LSE_CONFIG(RCC_OscInitStruct->LSEState);
 80030ee:	f042 0204 	orr.w	r2, r2, #4
 80030f2:	621a      	str	r2, [r3, #32]
 80030f4:	6a1a      	ldr	r2, [r3, #32]
 80030f6:	f042 0201 	orr.w	r2, r2, #1
 80030fa:	621a      	str	r2, [r3, #32]
    if (RCC_OscInitStruct->LSEState != RCC_LSE_OFF)
 80030fc:	e7c8      	b.n	8003090 <HAL_RCC_OscConfig+0x384>
        tickstart = HAL_GetTick();
 80030fe:	f7fd ff17 	bl	8000f30 <HAL_GetTick>
 8003102:	4606      	mov	r6, r0
        while (__HAL_RCC_GET_FLAG(RCC_FLAG_PLLRDY)  != RESET)
 8003104:	e005      	b.n	8003112 <HAL_RCC_OscConfig+0x406>
          if ((HAL_GetTick() - tickstart) > PLL_TIMEOUT_VALUE)
 8003106:	f7fd ff13 	bl	8000f30 <HAL_GetTick>
 800310a:	1b80      	subs	r0, r0, r6
 800310c:	2802      	cmp	r0, #2
 800310e:	f63f af5e 	bhi.w	8002fce <HAL_RCC_OscConfig+0x2c2>
        while (__HAL_RCC_GET_FLAG(RCC_FLAG_PLLRDY)  != RESET)
 8003112:	682b      	ldr	r3, [r5, #0]
 8003114:	0199      	lsls	r1, r3, #6
 8003116:	d4f6      	bmi.n	8003106 <HAL_RCC_OscConfig+0x3fa>
        if (RCC_OscInitStruct->PLL.PLLSource == RCC_PLLSOURCE_HSE)
 8003118:	6a23      	ldr	r3, [r4, #32]
 800311a:	f5b3 3f80 	cmp.w	r3, #65536	@ 0x10000
 800311e:	d105      	bne.n	800312c <HAL_RCC_OscConfig+0x420>
          __HAL_RCC_HSE_PREDIV_CONFIG(RCC_OscInitStruct->HSEPredivValue);
 8003120:	686a      	ldr	r2, [r5, #4]
 8003122:	68a1      	ldr	r1, [r4, #8]
 8003124:	f422 3200 	bic.w	r2, r2, #131072	@ 0x20000
 8003128:	430a      	orrs	r2, r1
 800312a:	606a      	str	r2, [r5, #4]
        __HAL_RCC_PLL_CONFIG(RCC_OscInitStruct->PLL.PLLSource,
 800312c:	f44f 5580 	mov.w	r5, #4096	@ 0x1000
        __HAL_RCC_PLL_ENABLE();
 8003130:	2100      	movs	r1, #0
 8003132:	2001      	movs	r0, #1
        __HAL_RCC_PLL_CONFIG(RCC_OscInitStruct->PLL.PLLSource,
 8003134:	6a62      	ldr	r2, [r4, #36]	@ 0x24
 8003136:	f2c4 0502 	movt	r5, #16386	@ 0x4002
 800313a:	4313      	orrs	r3, r2
 800313c:	686a      	ldr	r2, [r5, #4]
        __HAL_RCC_PLL_ENABLE();
 800313e:	f2c4 2142 	movt	r1, #16962	@ 0x4242
        __HAL_RCC_PLL_CONFIG(RCC_OscInitStruct->PLL.PLLSource,
 8003142:	f422 1274 	bic.w	r2, r2, #3997696	@ 0x3d0000
 8003146:	4313      	orrs	r3, r2
 8003148:	606b      	str	r3, [r5, #4]
        __HAL_RCC_PLL_ENABLE();
 800314a:	6608      	str	r0, [r1, #96]	@ 0x60
        tickstart = HAL_GetTick();
 800314c:	f7fd fef0 	bl	8000f30 <HAL_GetTick>
 8003150:	4604      	mov	r4, r0
        while (__HAL_RCC_GET_FLAG(RCC_FLAG_PLLRDY)  == RESET)
 8003152:	e005      	b.n	8003160 <HAL_RCC_OscConfig+0x454>
          if ((HAL_GetTick() - tickstart) > PLL_TIMEOUT_VALUE)
 8003154:	f7fd feec 	bl	8000f30 <HAL_GetTick>
 8003158:	1b00      	subs	r0, r0, r4
 800315a:	2802      	cmp	r0, #2
 800315c:	f63f af37 	bhi.w	8002fce <HAL_RCC_OscConfig+0x2c2>
        while (__HAL_RCC_GET_FLAG(RCC_FLAG_PLLRDY)  == RESET)
 8003160:	682b      	ldr	r3, [r5, #0]
 8003162:	019a      	lsls	r2, r3, #6
 8003164:	d5f6      	bpl.n	8003154 <HAL_RCC_OscConfig+0x448>
 8003166:	e6d6      	b.n	8002f16 <HAL_RCC_OscConfig+0x20a>
    return HAL_ERROR;
 8003168:	2001      	movs	r0, #1
}
 800316a:	4770      	bx	lr

0800316c <HAL_RCC_ClockConfig>:
  if (RCC_ClkInitStruct == NULL)
 800316c:	2800      	cmp	r0, #0
 800316e:	f000 80db 	beq.w	8003328 <HAL_RCC_ClockConfig+0x1bc>
  if (FLatency > __HAL_FLASH_GET_LATENCY())
 8003172:	f44f 5300 	mov.w	r3, #8192	@ 0x2000
 8003176:	f2c4 0302 	movt	r3, #16386	@ 0x4002
 800317a:	681a      	ldr	r2, [r3, #0]
{
 800317c:	e92d 41f0 	stmdb	sp!, {r4, r5, r6, r7, r8, lr}
  if (FLatency > __HAL_FLASH_GET_LATENCY())
 8003180:	f002 0207 	and.w	r2, r2, #7
 8003184:	428a      	cmp	r2, r1
 8003186:	4604      	mov	r4, r0
 8003188:	460d      	mov	r5, r1
 800318a:	d20c      	bcs.n	80031a6 <HAL_RCC_ClockConfig+0x3a>
    __HAL_FLASH_SET_LATENCY(FLatency);
 800318c:	681a      	ldr	r2, [r3, #0]
 800318e:	f022 0207 	bic.w	r2, r2, #7
 8003192:	430a      	orrs	r2, r1
 8003194:	601a      	str	r2, [r3, #0]
    if (__HAL_FLASH_GET_LATENCY() != FLatency)
 8003196:	681b      	ldr	r3, [r3, #0]
 8003198:	f003 0307 	and.w	r3, r3, #7
 800319c:	428b      	cmp	r3, r1
 800319e:	d002      	beq.n	80031a6 <HAL_RCC_ClockConfig+0x3a>
    return HAL_ERROR;
 80031a0:	2001      	movs	r0, #1
}
 80031a2:	e8bd 81f0 	ldmia.w	sp!, {r4, r5, r6, r7, r8, pc}
if (((RCC_ClkInitStruct->ClockType) & RCC_CLOCKTYPE_HCLK) == RCC_CLOCKTYPE_HCLK)
 80031a6:	6823      	ldr	r3, [r4, #0]
 80031a8:	079e      	lsls	r6, r3, #30
 80031aa:	d51d      	bpl.n	80031e8 <HAL_RCC_ClockConfig+0x7c>
    if (((RCC_ClkInitStruct->ClockType) & RCC_CLOCKTYPE_PCLK1) == RCC_CLOCKTYPE_PCLK1)
 80031ac:	0758      	lsls	r0, r3, #29
 80031ae:	d507      	bpl.n	80031c0 <HAL_RCC_ClockConfig+0x54>
      MODIFY_REG(RCC->CFGR, RCC_CFGR_PPRE1, RCC_HCLK_DIV16);
 80031b0:	f44f 5280 	mov.w	r2, #4096	@ 0x1000
 80031b4:	f2c4 0202 	movt	r2, #16386	@ 0x4002
 80031b8:	6851      	ldr	r1, [r2, #4]
 80031ba:	f441 61e0 	orr.w	r1, r1, #1792	@ 0x700
 80031be:	6051      	str	r1, [r2, #4]
    if (((RCC_ClkInitStruct->ClockType) & RCC_CLOCKTYPE_PCLK2) == RCC_CLOCKTYPE_PCLK2)
 80031c0:	0719      	lsls	r1, r3, #28
 80031c2:	d507      	bpl.n	80031d4 <HAL_RCC_ClockConfig+0x68>
      MODIFY_REG(RCC->CFGR, RCC_CFGR_PPRE2, (RCC_HCLK_DIV16 << 3));
 80031c4:	f44f 5280 	mov.w	r2, #4096	@ 0x1000
 80031c8:	f2c4 0202 	movt	r2, #16386	@ 0x4002
 80031cc:	6851      	ldr	r1, [r2, #4]
 80031ce:	f441 5160 	orr.w	r1, r1, #14336	@ 0x3800
 80031d2:	6051      	str	r1, [r2, #4]
    MODIFY_REG(RCC->CFGR, RCC_CFGR_HPRE, RCC_ClkInitStruct->AHBCLKDivider);
 80031d4:	f44f 5180 	mov.w	r1, #4096	@ 0x1000
 80031d8:	f2c4 0102 	movt	r1, #16386	@ 0x4002
 80031dc:	684a      	ldr	r2, [r1, #4]
 80031de:	68a0      	ldr	r0, [r4, #8]
 80031e0:	f022 02f0 	bic.w	r2, r2, #240	@ 0xf0
 80031e4:	4302      	orrs	r2, r0
 80031e6:	604a      	str	r2, [r1, #4]
  if (((RCC_ClkInitStruct->ClockType) & RCC_CLOCKTYPE_SYSCLK) == RCC_CLOCKTYPE_SYSCLK)
 80031e8:	07da      	lsls	r2, r3, #31
 80031ea:	d529      	bpl.n	8003240 <HAL_RCC_ClockConfig+0xd4>
      if (__HAL_RCC_GET_FLAG(RCC_FLAG_HSERDY) == RESET)
 80031ec:	f44f 5380 	mov.w	r3, #4096	@ 0x1000
    if (RCC_ClkInitStruct->SYSCLKSource == RCC_SYSCLKSOURCE_HSE)
 80031f0:	6862      	ldr	r2, [r4, #4]
      if (__HAL_RCC_GET_FLAG(RCC_FLAG_HSERDY) == RESET)
 80031f2:	f2c4 0302 	movt	r3, #16386	@ 0x4002
    if (RCC_ClkInitStruct->SYSCLKSource == RCC_SYSCLKSOURCE_HSE)
 80031f6:	2a01      	cmp	r2, #1
      if (__HAL_RCC_GET_FLAG(RCC_FLAG_HSERDY) == RESET)
 80031f8:	681b      	ldr	r3, [r3, #0]
    if (RCC_ClkInitStruct->SYSCLKSource == RCC_SYSCLKSOURCE_HSE)
 80031fa:	f000 8097 	beq.w	800332c <HAL_RCC_ClockConfig+0x1c0>
    else if (RCC_ClkInitStruct->SYSCLKSource == RCC_SYSCLKSOURCE_PLLCLK)
 80031fe:	2a02      	cmp	r2, #2
 8003200:	f000 808e 	beq.w	8003320 <HAL_RCC_ClockConfig+0x1b4>
      if (__HAL_RCC_GET_FLAG(RCC_FLAG_HSIRDY) == RESET)
 8003204:	079e      	lsls	r6, r3, #30
 8003206:	d5cb      	bpl.n	80031a0 <HAL_RCC_ClockConfig+0x34>
    __HAL_RCC_SYSCLK_CONFIG(RCC_ClkInitStruct->SYSCLKSource);
 8003208:	f44f 5680 	mov.w	r6, #4096	@ 0x1000
 800320c:	f2c4 0602 	movt	r6, #16386	@ 0x4002
 8003210:	6873      	ldr	r3, [r6, #4]
      if ((HAL_GetTick() - tickstart) > CLOCKSWITCH_TIMEOUT_VALUE)
 8003212:	f241 3888 	movw	r8, #5000	@ 0x1388
    __HAL_RCC_SYSCLK_CONFIG(RCC_ClkInitStruct->SYSCLKSource);
 8003216:	f023 0303 	bic.w	r3, r3, #3
 800321a:	4313      	orrs	r3, r2
 800321c:	6073      	str	r3, [r6, #4]
    tickstart = HAL_GetTick();
 800321e:	f7fd fe87 	bl	8000f30 <HAL_GetTick>
 8003222:	4607      	mov	r7, r0
    while (__HAL_RCC_GET_SYSCLK_SOURCE() != (RCC_ClkInitStruct->SYSCLKSource << RCC_CFGR_SWS_Pos))
 8003224:	e005      	b.n	8003232 <HAL_RCC_ClockConfig+0xc6>
      if ((HAL_GetTick() - tickstart) > CLOCKSWITCH_TIMEOUT_VALUE)
 8003226:	f7fd fe83 	bl	8000f30 <HAL_GetTick>
 800322a:	1bc0      	subs	r0, r0, r7
 800322c:	4540      	cmp	r0, r8
 800322e:	f200 8081 	bhi.w	8003334 <HAL_RCC_ClockConfig+0x1c8>
    while (__HAL_RCC_GET_SYSCLK_SOURCE() != (RCC_ClkInitStruct->SYSCLKSource << RCC_CFGR_SWS_Pos))
 8003232:	6873      	ldr	r3, [r6, #4]
 8003234:	6862      	ldr	r2, [r4, #4]
 8003236:	f003 030c 	and.w	r3, r3, #12
 800323a:	ebb3 0f82 	cmp.w	r3, r2, lsl #2
 800323e:	d1f2      	bne.n	8003226 <HAL_RCC_ClockConfig+0xba>
  if (FLatency < __HAL_FLASH_GET_LATENCY())
 8003240:	f44f 5300 	mov.w	r3, #8192	@ 0x2000
 8003244:	f2c4 0302 	movt	r3, #16386	@ 0x4002
 8003248:	681a      	ldr	r2, [r3, #0]
 800324a:	f002 0207 	and.w	r2, r2, #7
 800324e:	42aa      	cmp	r2, r5
 8003250:	d909      	bls.n	8003266 <HAL_RCC_ClockConfig+0xfa>
    __HAL_FLASH_SET_LATENCY(FLatency);
 8003252:	681a      	ldr	r2, [r3, #0]
 8003254:	f022 0207 	bic.w	r2, r2, #7
 8003258:	432a      	orrs	r2, r5
 800325a:	601a      	str	r2, [r3, #0]
    if (__HAL_FLASH_GET_LATENCY() != FLatency)
 800325c:	681b      	ldr	r3, [r3, #0]
 800325e:	f003 0307 	and.w	r3, r3, #7
 8003262:	42ab      	cmp	r3, r5
 8003264:	d19c      	bne.n	80031a0 <HAL_RCC_ClockConfig+0x34>
if (((RCC_ClkInitStruct->ClockType) & RCC_CLOCKTYPE_PCLK1) == RCC_CLOCKTYPE_PCLK1)
 8003266:	6823      	ldr	r3, [r4, #0]
 8003268:	075d      	lsls	r5, r3, #29
 800326a:	d509      	bpl.n	8003280 <HAL_RCC_ClockConfig+0x114>
    MODIFY_REG(RCC->CFGR, RCC_CFGR_PPRE1, RCC_ClkInitStruct->APB1CLKDivider);
 800326c:	f44f 5180 	mov.w	r1, #4096	@ 0x1000
 8003270:	f2c4 0102 	movt	r1, #16386	@ 0x4002
 8003274:	684a      	ldr	r2, [r1, #4]
 8003276:	68e0      	ldr	r0, [r4, #12]
 8003278:	f422 62e0 	bic.w	r2, r2, #1792	@ 0x700
 800327c:	4302      	orrs	r2, r0
 800327e:	604a      	str	r2, [r1, #4]
  if (((RCC_ClkInitStruct->ClockType) & RCC_CLOCKTYPE_PCLK2) == RCC_CLOCKTYPE_PCLK2)
 8003280:	0718      	lsls	r0, r3, #28
 8003282:	d50a      	bpl.n	800329a <HAL_RCC_ClockConfig+0x12e>
    MODIFY_REG(RCC->CFGR, RCC_CFGR_PPRE2, ((RCC_ClkInitStruct->APB2CLKDivider) << 3));
 8003284:	f44f 5280 	mov.w	r2, #4096	@ 0x1000
 8003288:	f2c4 0202 	movt	r2, #16386	@ 0x4002
 800328c:	6853      	ldr	r3, [r2, #4]
 800328e:	6921      	ldr	r1, [r4, #16]
 8003290:	f423 5360 	bic.w	r3, r3, #14336	@ 0x3800
 8003294:	ea43 03c1 	orr.w	r3, r3, r1, lsl #3
 8003298:	6053      	str	r3, [r2, #4]
  tmpreg = RCC->CFGR;
 800329a:	f44f 5280 	mov.w	r2, #4096	@ 0x1000
 800329e:	f2c4 0202 	movt	r2, #16386	@ 0x4002
 80032a2:	6851      	ldr	r1, [r2, #4]
  switch (tmpreg & RCC_CFGR_SWS)
 80032a4:	f001 030c 	and.w	r3, r1, #12
 80032a8:	2b08      	cmp	r3, #8
 80032aa:	d01f      	beq.n	80032ec <HAL_RCC_ClockConfig+0x180>
      sysclockfreq = HSE_VALUE;
 80032ac:	f44f 5390 	mov.w	r3, #4608	@ 0x1200
 80032b0:	f2c0 037a 	movt	r3, #122	@ 0x7a
  SystemCoreClock = HAL_RCC_GetSysClockFreq() >> AHBPrescTable[(RCC->CFGR & RCC_CFGR_HPRE) >> RCC_CFGR_HPRE_Pos];
 80032b4:	f44f 5080 	mov.w	r0, #4096	@ 0x1000
 80032b8:	f646 2424 	movw	r4, #27172	@ 0x6a24
  HAL_InitTick(uwTickPrio);
 80032bc:	f240 0108 	movw	r1, #8
  SystemCoreClock = HAL_RCC_GetSysClockFreq() >> AHBPrescTable[(RCC->CFGR & RCC_CFGR_HPRE) >> RCC_CFGR_HPRE_Pos];
 80032c0:	f240 0200 	movw	r2, #0
 80032c4:	f2c4 0002 	movt	r0, #16386	@ 0x4002
 80032c8:	6840      	ldr	r0, [r0, #4]
 80032ca:	f6c0 0400 	movt	r4, #2048	@ 0x800
 80032ce:	f3c0 1003 	ubfx	r0, r0, #4, #4
 80032d2:	5c20      	ldrb	r0, [r4, r0]
  HAL_InitTick(uwTickPrio);
 80032d4:	f2c2 0100 	movt	r1, #8192	@ 0x2000
  SystemCoreClock = HAL_RCC_GetSysClockFreq() >> AHBPrescTable[(RCC->CFGR & RCC_CFGR_HPRE) >> RCC_CFGR_HPRE_Pos];
 80032d8:	40c3      	lsrs	r3, r0
 80032da:	f2c2 0200 	movt	r2, #8192	@ 0x2000
  HAL_InitTick(uwTickPrio);
 80032de:	6808      	ldr	r0, [r1, #0]
  SystemCoreClock = HAL_RCC_GetSysClockFreq() >> AHBPrescTable[(RCC->CFGR & RCC_CFGR_HPRE) >> RCC_CFGR_HPRE_Pos];
 80032e0:	6013      	str	r3, [r2, #0]
  HAL_InitTick(uwTickPrio);
 80032e2:	f7fd fddb 	bl	8000e9c <HAL_InitTick>
  return HAL_OK;
 80032e6:	2000      	movs	r0, #0
}
 80032e8:	e8bd 81f0 	ldmia.w	sp!, {r4, r5, r6, r7, r8, pc}
      pllmul = aPLLMULFactorTable[(uint32_t)(tmpreg & RCC_CFGR_PLLMULL) >> RCC_CFGR_PLLMULL_Pos];
 80032ec:	f646 2338 	movw	r3, #27192	@ 0x6a38
 80032f0:	f3c1 4083 	ubfx	r0, r1, #18, #4
 80032f4:	f6c0 0300 	movt	r3, #2048	@ 0x800
      if ((tmpreg & RCC_CFGR_PLLSRC) != RCC_PLLSOURCE_HSI_DIV2)
 80032f8:	03c9      	lsls	r1, r1, #15
      pllmul = aPLLMULFactorTable[(uint32_t)(tmpreg & RCC_CFGR_PLLMULL) >> RCC_CFGR_PLLMULL_Pos];
 80032fa:	5c1b      	ldrb	r3, [r3, r0]
      if ((tmpreg & RCC_CFGR_PLLSRC) != RCC_PLLSOURCE_HSI_DIV2)
 80032fc:	d51c      	bpl.n	8003338 <HAL_RCC_ClockConfig+0x1cc>
        pllclk = (uint32_t)((HSE_VALUE  * pllmul) / prediv);
 80032fe:	f44f 5090 	mov.w	r0, #4608	@ 0x1200
        prediv = aPredivFactorTable[(uint32_t)(RCC->CFGR & RCC_CFGR_PLLXTPRE) >> RCC_CFGR_PLLXTPRE_Pos];
 8003302:	f646 2134 	movw	r1, #27188	@ 0x6a34
 8003306:	6852      	ldr	r2, [r2, #4]
        pllclk = (uint32_t)((HSE_VALUE  * pllmul) / prediv);
 8003308:	f2c0 007a 	movt	r0, #122	@ 0x7a
 800330c:	fb00 f303 	mul.w	r3, r0, r3
        prediv = aPredivFactorTable[(uint32_t)(RCC->CFGR & RCC_CFGR_PLLXTPRE) >> RCC_CFGR_PLLXTPRE_Pos];
 8003310:	f3c2 4240 	ubfx	r2, r2, #17, #1
 8003314:	f6c0 0100 	movt	r1, #2048	@ 0x800
 8003318:	5c8a      	ldrb	r2, [r1, r2]
        pllclk = (uint32_t)((HSE_VALUE  * pllmul) / prediv);
 800331a:	fbb3 f3f2 	udiv	r3, r3, r2
 800331e:	e7c9      	b.n	80032b4 <HAL_RCC_ClockConfig+0x148>
      if (__HAL_RCC_GET_FLAG(RCC_FLAG_PLLRDY) == RESET)
 8003320:	019f      	lsls	r7, r3, #6
 8003322:	f53f af71 	bmi.w	8003208 <HAL_RCC_ClockConfig+0x9c>
 8003326:	e73b      	b.n	80031a0 <HAL_RCC_ClockConfig+0x34>
    return HAL_ERROR;
 8003328:	2001      	movs	r0, #1
}
 800332a:	4770      	bx	lr
      if (__HAL_RCC_GET_FLAG(RCC_FLAG_HSERDY) == RESET)
 800332c:	039b      	lsls	r3, r3, #14
 800332e:	f53f af6b 	bmi.w	8003208 <HAL_RCC_ClockConfig+0x9c>
 8003332:	e735      	b.n	80031a0 <HAL_RCC_ClockConfig+0x34>
        return HAL_TIMEOUT;
 8003334:	2003      	movs	r0, #3
 8003336:	e734      	b.n	80031a2 <HAL_RCC_ClockConfig+0x36>
        pllclk = (uint32_t)((HSI_VALUE >> 1) * pllmul);
 8003338:	f44f 6210 	mov.w	r2, #2304	@ 0x900
 800333c:	f2c0 023d 	movt	r2, #61	@ 0x3d
 8003340:	fb02 f303 	mul.w	r3, r2, r3
 8003344:	e7b6      	b.n	80032b4 <HAL_RCC_ClockConfig+0x148>
 8003346:	bf00      	nop

08003348 <HAL_RCCEx_PeriphCLKConfig>:
  *         manually disable it.
  *
  * @retval HAL status
  */
HAL_StatusTypeDef HAL_RCCEx_PeriphCLKConfig(RCC_PeriphCLKInitTypeDef  *PeriphClkInit)
{
 8003348:	e92d 41f0 	stmdb	sp!, {r4, r5, r6, r7, r8, lr}

  /* Check the parameters */
  assert_param(IS_RCC_PERIPHCLOCK(PeriphClkInit->PeriphClockSelection));

  /*------------------------------- RTC/LCD Configuration ------------------------*/
  if ((((PeriphClkInit->PeriphClockSelection) & RCC_PERIPHCLK_RTC) == RCC_PERIPHCLK_RTC))
 800334c:	6803      	ldr	r3, [r0, #0]
{
 800334e:	4604      	mov	r4, r0
  if ((((PeriphClkInit->PeriphClockSelection) & RCC_PERIPHCLK_RTC) == RCC_PERIPHCLK_RTC))
 8003350:	07d8      	lsls	r0, r3, #31
{
 8003352:	b082      	sub	sp, #8
  if ((((PeriphClkInit->PeriphClockSelection) & RCC_PERIPHCLK_RTC) == RCC_PERIPHCLK_RTC))
 8003354:	d53a      	bpl.n	80033cc <HAL_RCCEx_PeriphCLKConfig+0x84>
    assert_param(IS_RCC_RTCCLKSOURCE(PeriphClkInit->RTCClockSelection));

    /* As soon as function is called to change RTC clock source, activation of the
       power domain is done. */
    /* Requires to enable write access to Backup Domain of necessary */
    if (__HAL_RCC_PWR_IS_CLK_DISABLED())
 8003356:	f44f 5380 	mov.w	r3, #4096	@ 0x1000
 800335a:	f2c4 0302 	movt	r3, #16386	@ 0x4002
 800335e:	69da      	ldr	r2, [r3, #28]
 8003360:	00d1      	lsls	r1, r2, #3
 8003362:	d550      	bpl.n	8003406 <HAL_RCCEx_PeriphCLKConfig+0xbe>
    FlagStatus pwrclkchanged = RESET;
 8003364:	2600      	movs	r6, #0
    {
      __HAL_RCC_PWR_CLK_ENABLE();
      pwrclkchanged = SET;
    }

    if (HAL_IS_BIT_CLR(PWR->CR, PWR_CR_DBP))
 8003366:	f44f 45e0 	mov.w	r5, #28672	@ 0x7000
 800336a:	f2c4 0500 	movt	r5, #16384	@ 0x4000
 800336e:	682b      	ldr	r3, [r5, #0]
 8003370:	05da      	lsls	r2, r3, #23
 8003372:	d553      	bpl.n	800341c <HAL_RCCEx_PeriphCLKConfig+0xd4>
        }
      }
    }

    /* Reset the Backup domain only if the RTC Clock source selection is modified from reset value */
    temp_reg = (RCC->BDCR & RCC_BDCR_RTCSEL);
 8003374:	f44f 5580 	mov.w	r5, #4096	@ 0x1000
 8003378:	f2c4 0502 	movt	r5, #16386	@ 0x4002
 800337c:	6a2b      	ldr	r3, [r5, #32]
    if ((temp_reg != 0x00000000U) && (temp_reg != (PeriphClkInit->RTCClockSelection & RCC_BDCR_RTCSEL)))
 800337e:	6861      	ldr	r1, [r4, #4]
 8003380:	f413 7340 	ands.w	r3, r3, #768	@ 0x300
 8003384:	d013      	beq.n	80033ae <HAL_RCCEx_PeriphCLKConfig+0x66>
 8003386:	f401 7240 	and.w	r2, r1, #768	@ 0x300
 800338a:	429a      	cmp	r2, r3
 800338c:	d00f      	beq.n	80033ae <HAL_RCCEx_PeriphCLKConfig+0x66>
    {
      /* Store the content of BDCR register before the reset of Backup Domain */
      temp_reg = (RCC->BDCR & ~(RCC_BDCR_RTCSEL));
      /* RTC Clock selection can be changed only if the Backup Domain is reset */
      __HAL_RCC_BACKUPRESET_FORCE();
 800338e:	2300      	movs	r3, #0
 8003390:	2701      	movs	r7, #1
      __HAL_RCC_BACKUPRESET_RELEASE();
 8003392:	4618      	mov	r0, r3
      temp_reg = (RCC->BDCR & ~(RCC_BDCR_RTCSEL));
 8003394:	6a2a      	ldr	r2, [r5, #32]
      __HAL_RCC_BACKUPRESET_FORCE();
 8003396:	f2c4 2342 	movt	r3, #16962	@ 0x4242
 800339a:	f8c3 7440 	str.w	r7, [r3, #1088]	@ 0x440
      temp_reg = (RCC->BDCR & ~(RCC_BDCR_RTCSEL));
 800339e:	f422 7140 	bic.w	r1, r2, #768	@ 0x300
      __HAL_RCC_BACKUPRESET_RELEASE();
 80033a2:	f8c3 0440 	str.w	r0, [r3, #1088]	@ 0x440
      /* Restore the Content of BDCR register */
      RCC->BDCR = temp_reg;

      /* Wait for LSERDY if LSE was enabled */
      if (HAL_IS_BIT_SET(temp_reg, RCC_BDCR_LSEON))
 80033a6:	07d0      	lsls	r0, r2, #31
      RCC->BDCR = temp_reg;
 80033a8:	6229      	str	r1, [r5, #32]
      if (HAL_IS_BIT_SET(temp_reg, RCC_BDCR_LSEON))
 80033aa:	d44a      	bmi.n	8003442 <HAL_RCCEx_PeriphCLKConfig+0xfa>
            return HAL_TIMEOUT;
          }
        }
      }
    }
    __HAL_RCC_RTC_CONFIG(PeriphClkInit->RTCClockSelection);
 80033ac:	6861      	ldr	r1, [r4, #4]
 80033ae:	f44f 5280 	mov.w	r2, #4096	@ 0x1000
 80033b2:	f2c4 0202 	movt	r2, #16386	@ 0x4002
 80033b6:	6a13      	ldr	r3, [r2, #32]
 80033b8:	f423 7340 	bic.w	r3, r3, #768	@ 0x300
 80033bc:	430b      	orrs	r3, r1
 80033be:	6213      	str	r3, [r2, #32]

    /* Require to disable power clock if necessary */
    if (pwrclkchanged == SET)
 80033c0:	b11e      	cbz	r6, 80033ca <HAL_RCCEx_PeriphCLKConfig+0x82>
    {
      __HAL_RCC_PWR_CLK_DISABLE();
 80033c2:	69d3      	ldr	r3, [r2, #28]
 80033c4:	f023 5380 	bic.w	r3, r3, #268435456	@ 0x10000000
 80033c8:	61d3      	str	r3, [r2, #28]
    }
  }

  /*------------------------------ ADC clock Configuration ------------------*/
  if (((PeriphClkInit->PeriphClockSelection) & RCC_PERIPHCLK_ADC) == RCC_PERIPHCLK_ADC)
 80033ca:	6823      	ldr	r3, [r4, #0]
 80033cc:	079a      	lsls	r2, r3, #30
 80033ce:	d509      	bpl.n	80033e4 <HAL_RCCEx_PeriphCLKConfig+0x9c>
  {
    /* Check the parameters */
    assert_param(IS_RCC_ADCPLLCLK_DIV(PeriphClkInit->AdcClockSelection));

    /* Configure the ADC clock source */
    __HAL_RCC_ADC_CONFIG(PeriphClkInit->AdcClockSelection);
 80033d0:	f44f 5180 	mov.w	r1, #4096	@ 0x1000
 80033d4:	f2c4 0102 	movt	r1, #16386	@ 0x4002
 80033d8:	684a      	ldr	r2, [r1, #4]
 80033da:	68a0      	ldr	r0, [r4, #8]
 80033dc:	f422 4240 	bic.w	r2, r2, #49152	@ 0xc000
 80033e0:	4302      	orrs	r2, r0
 80033e2:	604a      	str	r2, [r1, #4]

#if defined(STM32F102x6) || defined(STM32F102xB) || defined(STM32F103x6)\
 || defined(STM32F103xB) || defined(STM32F103xE) || defined(STM32F103xG)\
 || defined(STM32F105xC) || defined(STM32F107xC)
  /*------------------------------ USB clock Configuration ------------------*/
  if (((PeriphClkInit->PeriphClockSelection) & RCC_PERIPHCLK_USB) == RCC_PERIPHCLK_USB)
 80033e4:	06db      	lsls	r3, r3, #27
 80033e6:	d403      	bmi.n	80033f0 <HAL_RCCEx_PeriphCLKConfig+0xa8>
    /* Configure the USB clock source */
    __HAL_RCC_USB_CONFIG(PeriphClkInit->UsbClockSelection);
  }
#endif /* STM32F102x6 || STM32F102xB || STM32F103x6 || STM32F103xB || STM32F103xE || STM32F103xG || STM32F105xC || STM32F107xC */

  return HAL_OK;
 80033e8:	2000      	movs	r0, #0
}
 80033ea:	b002      	add	sp, #8
 80033ec:	e8bd 81f0 	ldmia.w	sp!, {r4, r5, r6, r7, r8, pc}
    __HAL_RCC_USB_CONFIG(PeriphClkInit->UsbClockSelection);
 80033f0:	f44f 5280 	mov.w	r2, #4096	@ 0x1000
 80033f4:	f2c4 0202 	movt	r2, #16386	@ 0x4002
 80033f8:	6853      	ldr	r3, [r2, #4]
 80033fa:	68e1      	ldr	r1, [r4, #12]
 80033fc:	f423 0380 	bic.w	r3, r3, #4194304	@ 0x400000
 8003400:	430b      	orrs	r3, r1
 8003402:	6053      	str	r3, [r2, #4]
 8003404:	e7f0      	b.n	80033e8 <HAL_RCCEx_PeriphCLKConfig+0xa0>
      __HAL_RCC_PWR_CLK_ENABLE();
 8003406:	69da      	ldr	r2, [r3, #28]
      pwrclkchanged = SET;
 8003408:	2601      	movs	r6, #1
      __HAL_RCC_PWR_CLK_ENABLE();
 800340a:	f042 5280 	orr.w	r2, r2, #268435456	@ 0x10000000
 800340e:	61da      	str	r2, [r3, #28]
 8003410:	69db      	ldr	r3, [r3, #28]
 8003412:	f003 5380 	and.w	r3, r3, #268435456	@ 0x10000000
 8003416:	9301      	str	r3, [sp, #4]
 8003418:	9b01      	ldr	r3, [sp, #4]
      pwrclkchanged = SET;
 800341a:	e7a4      	b.n	8003366 <HAL_RCCEx_PeriphCLKConfig+0x1e>
      SET_BIT(PWR->CR, PWR_CR_DBP);
 800341c:	682b      	ldr	r3, [r5, #0]
 800341e:	f443 7380 	orr.w	r3, r3, #256	@ 0x100
 8003422:	602b      	str	r3, [r5, #0]
      tickstart = HAL_GetTick();
 8003424:	f7fd fd84 	bl	8000f30 <HAL_GetTick>
 8003428:	4607      	mov	r7, r0
      while (HAL_IS_BIT_CLR(PWR->CR, PWR_CR_DBP))
 800342a:	682b      	ldr	r3, [r5, #0]
 800342c:	05db      	lsls	r3, r3, #23
 800342e:	d4a1      	bmi.n	8003374 <HAL_RCCEx_PeriphCLKConfig+0x2c>
        if ((HAL_GetTick() - tickstart) > RCC_DBP_TIMEOUT_VALUE)
 8003430:	f7fd fd7e 	bl	8000f30 <HAL_GetTick>
 8003434:	1bc3      	subs	r3, r0, r7
 8003436:	2b64      	cmp	r3, #100	@ 0x64
 8003438:	d9f7      	bls.n	800342a <HAL_RCCEx_PeriphCLKConfig+0xe2>
          return HAL_TIMEOUT;
 800343a:	2003      	movs	r0, #3
}
 800343c:	b002      	add	sp, #8
 800343e:	e8bd 81f0 	ldmia.w	sp!, {r4, r5, r6, r7, r8, pc}
        tickstart = HAL_GetTick();
 8003442:	f7fd fd75 	bl	8000f30 <HAL_GetTick>
          if ((HAL_GetTick() - tickstart) > RCC_LSE_TIMEOUT_VALUE)
 8003446:	f241 3888 	movw	r8, #5000	@ 0x1388
        tickstart = HAL_GetTick();
 800344a:	4607      	mov	r7, r0
        while (__HAL_RCC_GET_FLAG(RCC_FLAG_LSERDY) == RESET)
 800344c:	6a2b      	ldr	r3, [r5, #32]
 800344e:	0799      	lsls	r1, r3, #30
 8003450:	d4ac      	bmi.n	80033ac <HAL_RCCEx_PeriphCLKConfig+0x64>
          if ((HAL_GetTick() - tickstart) > RCC_LSE_TIMEOUT_VALUE)
 8003452:	f7fd fd6d 	bl	8000f30 <HAL_GetTick>
 8003456:	1bc0      	subs	r0, r0, r7
 8003458:	4540      	cmp	r0, r8
 800345a:	d9f7      	bls.n	800344c <HAL_RCCEx_PeriphCLKConfig+0x104>
 800345c:	e7ed      	b.n	800343a <HAL_RCCEx_PeriphCLKConfig+0xf2>
 800345e:	bf00      	nop

08003460 <SPI_WaitFlagStateUntilTimeout>:
  * @param  Tickstart tick start value
  * @retval HAL status
  */
static HAL_StatusTypeDef SPI_WaitFlagStateUntilTimeout(SPI_HandleTypeDef *hspi, uint32_t Flag, FlagStatus State,
                                                       uint32_t Timeout, uint32_t Tickstart)
{
 8003460:	e92d 43f0 	stmdb	sp!, {r4, r5, r6, r7, r8, r9, lr}
 8003464:	461f      	mov	r7, r3
 8003466:	b083      	sub	sp, #12
 8003468:	4615      	mov	r5, r2
 800346a:	460c      	mov	r4, r1
 800346c:	9e0a      	ldr	r6, [sp, #40]	@ 0x28
 800346e:	4680      	mov	r8, r0
  __IO uint32_t count;
  uint32_t tmp_timeout;
  uint32_t tmp_tickstart;

  /* Adjust Timeout value  in case of end of transfer */
  tmp_timeout   = Timeout - (HAL_GetTick() - Tickstart);
 8003470:	f7fd fd5e 	bl	8000f30 <HAL_GetTick>
 8003474:	443e      	add	r6, r7
 8003476:	1a36      	subs	r6, r6, r0
  tmp_tickstart = HAL_GetTick();
 8003478:	f7fd fd5a 	bl	8000f30 <HAL_GetTick>

  /* Calculate Timeout based on a software loop to avoid blocking issue if Systick is disabled */
  count = tmp_timeout * ((SystemCoreClock * 32U) >> 20U);
 800347c:	f240 0300 	movw	r3, #0
 8003480:	f2c2 0300 	movt	r3, #8192	@ 0x2000
 8003484:	681a      	ldr	r2, [r3, #0]
 8003486:	3701      	adds	r7, #1
 8003488:	f3c2 32cb 	ubfx	r2, r2, #15, #12
 800348c:	fb06 f202 	mul.w	r2, r6, r2
 8003490:	9201      	str	r2, [sp, #4]

  while ((__HAL_SPI_GET_FLAG(hspi, Flag) ? SET : RESET) != State)
 8003492:	d10d      	bne.n	80034b0 <SPI_WaitFlagStateUntilTimeout+0x50>
 8003494:	f8d8 2000 	ldr.w	r2, [r8]
 8003498:	6893      	ldr	r3, [r2, #8]
 800349a:	ea34 0303 	bics.w	r3, r4, r3
 800349e:	bf0c      	ite	eq
 80034a0:	2301      	moveq	r3, #1
 80034a2:	2300      	movne	r3, #0
 80034a4:	429d      	cmp	r5, r3
 80034a6:	d1f7      	bne.n	8003498 <SPI_WaitFlagStateUntilTimeout+0x38>
      }
      count--;
    }
  }

  return HAL_OK;
 80034a8:	2000      	movs	r0, #0
}
 80034aa:	b003      	add	sp, #12
 80034ac:	e8bd 83f0 	ldmia.w	sp!, {r4, r5, r6, r7, r8, r9, pc}
 80034b0:	4681      	mov	r9, r0
  while ((__HAL_SPI_GET_FLAG(hspi, Flag) ? SET : RESET) != State)
 80034b2:	f8d8 3000 	ldr.w	r3, [r8]
 80034b6:	689b      	ldr	r3, [r3, #8]
 80034b8:	ea34 0303 	bics.w	r3, r4, r3
 80034bc:	bf0c      	ite	eq
 80034be:	2301      	moveq	r3, #1
 80034c0:	2300      	movne	r3, #0
 80034c2:	42ab      	cmp	r3, r5
 80034c4:	d0f0      	beq.n	80034a8 <SPI_WaitFlagStateUntilTimeout+0x48>
      if (((HAL_GetTick() - tmp_tickstart) >= tmp_timeout) || (tmp_timeout == 0U))
 80034c6:	f7fd fd33 	bl	8000f30 <HAL_GetTick>
 80034ca:	eba0 0309 	sub.w	r3, r0, r9
 80034ce:	42b3      	cmp	r3, r6
 80034d0:	d207      	bcs.n	80034e2 <SPI_WaitFlagStateUntilTimeout+0x82>
      if (count == 0U)
 80034d2:	9b01      	ldr	r3, [sp, #4]
        tmp_timeout = 0U;
 80034d4:	2b00      	cmp	r3, #0
      count--;
 80034d6:	9b01      	ldr	r3, [sp, #4]
        tmp_timeout = 0U;
 80034d8:	bf08      	it	eq
 80034da:	2600      	moveq	r6, #0
      count--;
 80034dc:	3b01      	subs	r3, #1
 80034de:	9301      	str	r3, [sp, #4]
 80034e0:	e7e7      	b.n	80034b2 <SPI_WaitFlagStateUntilTimeout+0x52>
        if ((hspi->Init.Mode == SPI_MODE_MASTER) && ((hspi->Init.Direction == SPI_DIRECTION_1LINE)
 80034e2:	e9d8 3100 	ldrd	r3, r1, [r8]
        __HAL_SPI_DISABLE_IT(hspi, (SPI_IT_TXE | SPI_IT_RXNE | SPI_IT_ERR));
 80034e6:	685a      	ldr	r2, [r3, #4]
        if ((hspi->Init.Mode == SPI_MODE_MASTER) && ((hspi->Init.Direction == SPI_DIRECTION_1LINE)
 80034e8:	f5b1 7f82 	cmp.w	r1, #260	@ 0x104
        __HAL_SPI_DISABLE_IT(hspi, (SPI_IT_TXE | SPI_IT_RXNE | SPI_IT_ERR));
 80034ec:	f022 02e0 	bic.w	r2, r2, #224	@ 0xe0
 80034f0:	605a      	str	r2, [r3, #4]
        if ((hspi->Init.Mode == SPI_MODE_MASTER) && ((hspi->Init.Direction == SPI_DIRECTION_1LINE)
 80034f2:	d014      	beq.n	800351e <SPI_WaitFlagStateUntilTimeout+0xbe>
        if (hspi->Init.CRCCalculation == SPI_CRCCALCULATION_ENABLE)
 80034f4:	f8d8 2028 	ldr.w	r2, [r8, #40]	@ 0x28
 80034f8:	f5b2 5f00 	cmp.w	r2, #8192	@ 0x2000
 80034fc:	d107      	bne.n	800350e <SPI_WaitFlagStateUntilTimeout+0xae>
          SPI_RESET_CRC(hspi);
 80034fe:	681a      	ldr	r2, [r3, #0]
 8003500:	f422 5200 	bic.w	r2, r2, #8192	@ 0x2000
 8003504:	601a      	str	r2, [r3, #0]
 8003506:	681a      	ldr	r2, [r3, #0]
 8003508:	f442 5200 	orr.w	r2, r2, #8192	@ 0x2000
 800350c:	601a      	str	r2, [r3, #0]
        hspi->State = HAL_SPI_STATE_READY;
 800350e:	2201      	movs	r2, #1
        __HAL_UNLOCK(hspi);
 8003510:	2300      	movs	r3, #0
 8003512:	2003      	movs	r0, #3
        hspi->State = HAL_SPI_STATE_READY;
 8003514:	f888 2051 	strb.w	r2, [r8, #81]	@ 0x51
        __HAL_UNLOCK(hspi);
 8003518:	f888 3050 	strb.w	r3, [r8, #80]	@ 0x50
        return HAL_TIMEOUT;
 800351c:	e7c5      	b.n	80034aa <SPI_WaitFlagStateUntilTimeout+0x4a>
        if ((hspi->Init.Mode == SPI_MODE_MASTER) && ((hspi->Init.Direction == SPI_DIRECTION_1LINE)
 800351e:	f8d8 2008 	ldr.w	r2, [r8, #8]
 8003522:	f5b2 4f00 	cmp.w	r2, #32768	@ 0x8000
 8003526:	d002      	beq.n	800352e <SPI_WaitFlagStateUntilTimeout+0xce>
                                                     || (hspi->Init.Direction == SPI_DIRECTION_2LINES_RXONLY)))
 8003528:	f5b2 6f80 	cmp.w	r2, #1024	@ 0x400
 800352c:	d1e2      	bne.n	80034f4 <SPI_WaitFlagStateUntilTimeout+0x94>
          __HAL_SPI_DISABLE(hspi);
 800352e:	681a      	ldr	r2, [r3, #0]
 8003530:	f022 0240 	bic.w	r2, r2, #64	@ 0x40
 8003534:	601a      	str	r2, [r3, #0]
 8003536:	e7dd      	b.n	80034f4 <SPI_WaitFlagStateUntilTimeout+0x94>

08003538 <SPI_WaitFlagStateUntilTimeout.constprop.0>:
static HAL_StatusTypeDef SPI_WaitFlagStateUntilTimeout(SPI_HandleTypeDef *hspi, uint32_t Flag, FlagStatus State,
 8003538:	e92d 41f0 	stmdb	sp!, {r4, r5, r6, r7, r8, lr}
 800353c:	461c      	mov	r4, r3
 800353e:	b082      	sub	sp, #8
 8003540:	460e      	mov	r6, r1
 8003542:	4615      	mov	r5, r2
 8003544:	4680      	mov	r8, r0
  tmp_timeout   = Timeout - (HAL_GetTick() - Tickstart);
 8003546:	f7fd fcf3 	bl	8000f30 <HAL_GetTick>
 800354a:	3464      	adds	r4, #100	@ 0x64
 800354c:	1a24      	subs	r4, r4, r0
  tmp_tickstart = HAL_GetTick();
 800354e:	f7fd fcef 	bl	8000f30 <HAL_GetTick>
  count = tmp_timeout * ((SystemCoreClock * 32U) >> 20U);
 8003552:	f240 0300 	movw	r3, #0
 8003556:	f2c2 0300 	movt	r3, #8192	@ 0x2000
 800355a:	681b      	ldr	r3, [r3, #0]
 800355c:	f3c3 33cb 	ubfx	r3, r3, #15, #12
 8003560:	fb04 f303 	mul.w	r3, r4, r3
 8003564:	9301      	str	r3, [sp, #4]
  while ((__HAL_SPI_GET_FLAG(hspi, Flag) ? SET : RESET) != State)
 8003566:	f8d8 3000 	ldr.w	r3, [r8]
 800356a:	689b      	ldr	r3, [r3, #8]
 800356c:	ea36 0303 	bics.w	r3, r6, r3
 8003570:	bf0c      	ite	eq
 8003572:	2301      	moveq	r3, #1
 8003574:	2300      	movne	r3, #0
 8003576:	42ab      	cmp	r3, r5
 8003578:	d037      	beq.n	80035ea <SPI_WaitFlagStateUntilTimeout.constprop.0+0xb2>
 800357a:	4607      	mov	r7, r0
 800357c:	e010      	b.n	80035a0 <SPI_WaitFlagStateUntilTimeout.constprop.0+0x68>
      if (count == 0U)
 800357e:	9901      	ldr	r1, [sp, #4]
      count--;
 8003580:	9b01      	ldr	r3, [sp, #4]
  while ((__HAL_SPI_GET_FLAG(hspi, Flag) ? SET : RESET) != State)
 8003582:	f8d8 2000 	ldr.w	r2, [r8]
      count--;
 8003586:	3b01      	subs	r3, #1
 8003588:	9301      	str	r3, [sp, #4]
  while ((__HAL_SPI_GET_FLAG(hspi, Flag) ? SET : RESET) != State)
 800358a:	6893      	ldr	r3, [r2, #8]
        tmp_timeout = 0U;
 800358c:	2900      	cmp	r1, #0
 800358e:	bf08      	it	eq
 8003590:	2400      	moveq	r4, #0
  while ((__HAL_SPI_GET_FLAG(hspi, Flag) ? SET : RESET) != State)
 8003592:	ea36 0303 	bics.w	r3, r6, r3
 8003596:	bf0c      	ite	eq
 8003598:	2301      	moveq	r3, #1
 800359a:	2300      	movne	r3, #0
 800359c:	42ab      	cmp	r3, r5
 800359e:	d024      	beq.n	80035ea <SPI_WaitFlagStateUntilTimeout.constprop.0+0xb2>
      if (((HAL_GetTick() - tmp_tickstart) >= tmp_timeout) || (tmp_timeout == 0U))
 80035a0:	f7fd fcc6 	bl	8000f30 <HAL_GetTick>
 80035a4:	1bc0      	subs	r0, r0, r7
 80035a6:	42a0      	cmp	r0, r4
 80035a8:	d3e9      	bcc.n	800357e <SPI_WaitFlagStateUntilTimeout.constprop.0+0x46>
        if ((hspi->Init.Mode == SPI_MODE_MASTER) && ((hspi->Init.Direction == SPI_DIRECTION_1LINE)
 80035aa:	e9d8 3100 	ldrd	r3, r1, [r8]
        __HAL_SPI_DISABLE_IT(hspi, (SPI_IT_TXE | SPI_IT_RXNE | SPI_IT_ERR));
 80035ae:	685a      	ldr	r2, [r3, #4]
        if ((hspi->Init.Mode == SPI_MODE_MASTER) && ((hspi->Init.Direction == SPI_DIRECTION_1LINE)
 80035b0:	f5b1 7f82 	cmp.w	r1, #260	@ 0x104
        __HAL_SPI_DISABLE_IT(hspi, (SPI_IT_TXE | SPI_IT_RXNE | SPI_IT_ERR));
 80035b4:	f022 02e0 	bic.w	r2, r2, #224	@ 0xe0
 80035b8:	605a      	str	r2, [r3, #4]
        if ((hspi->Init.Mode == SPI_MODE_MASTER) && ((hspi->Init.Direction == SPI_DIRECTION_1LINE)
 80035ba:	d01a      	beq.n	80035f2 <SPI_WaitFlagStateUntilTimeout.constprop.0+0xba>
        if (hspi->Init.CRCCalculation == SPI_CRCCALCULATION_ENABLE)
 80035bc:	f8d8 2028 	ldr.w	r2, [r8, #40]	@ 0x28
 80035c0:	f5b2 5f00 	cmp.w	r2, #8192	@ 0x2000
 80035c4:	d107      	bne.n	80035d6 <SPI_WaitFlagStateUntilTimeout.constprop.0+0x9e>
          SPI_RESET_CRC(hspi);
 80035c6:	681a      	ldr	r2, [r3, #0]
 80035c8:	f422 5200 	bic.w	r2, r2, #8192	@ 0x2000
 80035cc:	601a      	str	r2, [r3, #0]
 80035ce:	681a      	ldr	r2, [r3, #0]
 80035d0:	f442 5200 	orr.w	r2, r2, #8192	@ 0x2000
 80035d4:	601a      	str	r2, [r3, #0]
        hspi->State = HAL_SPI_STATE_READY;
 80035d6:	2201      	movs	r2, #1
        __HAL_UNLOCK(hspi);
 80035d8:	2300      	movs	r3, #0
 80035da:	2003      	movs	r0, #3
        hspi->State = HAL_SPI_STATE_READY;
 80035dc:	f888 2051 	strb.w	r2, [r8, #81]	@ 0x51
        __HAL_UNLOCK(hspi);
 80035e0:	f888 3050 	strb.w	r3, [r8, #80]	@ 0x50
}
 80035e4:	b002      	add	sp, #8
 80035e6:	e8bd 81f0 	ldmia.w	sp!, {r4, r5, r6, r7, r8, pc}
  return HAL_OK;
 80035ea:	2000      	movs	r0, #0
}
 80035ec:	b002      	add	sp, #8
 80035ee:	e8bd 81f0 	ldmia.w	sp!, {r4, r5, r6, r7, r8, pc}
        if ((hspi->Init.Mode == SPI_MODE_MASTER) && ((hspi->Init.Direction == SPI_DIRECTION_1LINE)
 80035f2:	f8d8 2008 	ldr.w	r2, [r8, #8]
 80035f6:	f5b2 4f00 	cmp.w	r2, #32768	@ 0x8000
 80035fa:	d002      	beq.n	8003602 <SPI_WaitFlagStateUntilTimeout.constprop.0+0xca>
                                                     || (hspi->Init.Direction == SPI_DIRECTION_2LINES_RXONLY)))
 80035fc:	f5b2 6f80 	cmp.w	r2, #1024	@ 0x400
 8003600:	d1dc      	bne.n	80035bc <SPI_WaitFlagStateUntilTimeout.constprop.0+0x84>
          __HAL_SPI_DISABLE(hspi);
 8003602:	681a      	ldr	r2, [r3, #0]
 8003604:	f022 0240 	bic.w	r2, r2, #64	@ 0x40
 8003608:	601a      	str	r2, [r3, #0]
 800360a:	e7d7      	b.n	80035bc <SPI_WaitFlagStateUntilTimeout.constprop.0+0x84>

0800360c <HAL_SPI_Init>:
  if (hspi == NULL)
 800360c:	2800      	cmp	r0, #0
 800360e:	d058      	beq.n	80036c2 <HAL_SPI_Init+0xb6>
{
 8003610:	b5f8      	push	{r3, r4, r5, r6, r7, lr}
  if (hspi->Init.TIMode == SPI_TIMODE_DISABLE)
 8003612:	6a43      	ldr	r3, [r0, #36]	@ 0x24
 8003614:	4604      	mov	r4, r0
 8003616:	2b00      	cmp	r3, #0
 8003618:	d044      	beq.n	80036a4 <HAL_SPI_Init+0x98>
    hspi->Init.CLKPolarity = SPI_POLARITY_LOW;
 800361a:	2300      	movs	r3, #0
 800361c:	e9c0 3304 	strd	r3, r3, [r0, #16]
  hspi->Init.CRCCalculation = SPI_CRCCALCULATION_DISABLE;
 8003620:	2000      	movs	r0, #0
  if (hspi->State == HAL_SPI_STATE_RESET)
 8003622:	f894 3051 	ldrb.w	r3, [r4, #81]	@ 0x51
  hspi->Init.CRCCalculation = SPI_CRCCALCULATION_DISABLE;
 8003626:	62a0      	str	r0, [r4, #40]	@ 0x28
  if (hspi->State == HAL_SPI_STATE_RESET)
 8003628:	f003 02ff 	and.w	r2, r3, #255	@ 0xff
 800362c:	2b00      	cmp	r3, #0
 800362e:	d03f      	beq.n	80036b0 <HAL_SPI_Init+0xa4>
  WRITE_REG(hspi->Instance->CR1, ((hspi->Init.Mode & (SPI_CR1_MSTR | SPI_CR1_SSI)) |
 8003630:	e9d4 3201 	ldrd	r3, r2, [r4, #4]
  hspi->State = HAL_SPI_STATE_BUSY;
 8003634:	2602      	movs	r6, #2
  hspi->State     = HAL_SPI_STATE_READY;
 8003636:	f04f 0c01 	mov.w	ip, #1
  hspi->ErrorCode = HAL_SPI_ERROR_NONE;
 800363a:	2500      	movs	r5, #0
  WRITE_REG(hspi->Instance->CR1, ((hspi->Init.Mode & (SPI_CR1_MSTR | SPI_CR1_SSI)) |
 800363c:	f402 4204 	and.w	r2, r2, #33792	@ 0x8400
 8003640:	f403 7382 	and.w	r3, r3, #260	@ 0x104
 8003644:	4313      	orrs	r3, r2
 8003646:	68e2      	ldr	r2, [r4, #12]
  hspi->State = HAL_SPI_STATE_BUSY;
 8003648:	f884 6051 	strb.w	r6, [r4, #81]	@ 0x51
  WRITE_REG(hspi->Instance->CR1, ((hspi->Init.Mode & (SPI_CR1_MSTR | SPI_CR1_SSI)) |
 800364c:	6926      	ldr	r6, [r4, #16]
 800364e:	f402 6200 	and.w	r2, r2, #2048	@ 0x800
 8003652:	4313      	orrs	r3, r2
 8003654:	f006 0602 	and.w	r6, r6, #2
 8003658:	4333      	orrs	r3, r6
 800365a:	6966      	ldr	r6, [r4, #20]
 800365c:	69a1      	ldr	r1, [r4, #24]
 800365e:	6a27      	ldr	r7, [r4, #32]
 8003660:	ea06 060c 	and.w	r6, r6, ip
 8003664:	4333      	orrs	r3, r6
 8003666:	69e6      	ldr	r6, [r4, #28]
 8003668:	f007 0e80 	and.w	lr, r7, #128	@ 0x80
 800366c:	f401 7700 	and.w	r7, r1, #512	@ 0x200
 8003670:	f006 0638 	and.w	r6, r6, #56	@ 0x38
 8003674:	433b      	orrs	r3, r7
  __HAL_SPI_DISABLE(hspi);
 8003676:	6822      	ldr	r2, [r4, #0]
  WRITE_REG(hspi->Instance->CR1, ((hspi->Init.Mode & (SPI_CR1_MSTR | SPI_CR1_SSI)) |
 8003678:	4333      	orrs	r3, r6
 800367a:	ea43 030e 	orr.w	r3, r3, lr
 800367e:	4303      	orrs	r3, r0
  __HAL_SPI_DISABLE(hspi);
 8003680:	6810      	ldr	r0, [r2, #0]
  WRITE_REG(hspi->Instance->CR2, ((hspi->Init.NSS >> 16U) & SPI_CR2_SSOE));
 8003682:	0c09      	lsrs	r1, r1, #16
 8003684:	f001 0104 	and.w	r1, r1, #4
  __HAL_SPI_DISABLE(hspi);
 8003688:	f020 0040 	bic.w	r0, r0, #64	@ 0x40
 800368c:	6010      	str	r0, [r2, #0]
  WRITE_REG(hspi->Instance->CR1, ((hspi->Init.Mode & (SPI_CR1_MSTR | SPI_CR1_SSI)) |
 800368e:	6013      	str	r3, [r2, #0]
  WRITE_REG(hspi->Instance->CR2, ((hspi->Init.NSS >> 16U) & SPI_CR2_SSOE));
 8003690:	6051      	str	r1, [r2, #4]
  CLEAR_BIT(hspi->Instance->I2SCFGR, SPI_I2SCFGR_I2SMOD);
 8003692:	69d3      	ldr	r3, [r2, #28]
  return HAL_OK;
 8003694:	4628      	mov	r0, r5
  CLEAR_BIT(hspi->Instance->I2SCFGR, SPI_I2SCFGR_I2SMOD);
 8003696:	f423 6300 	bic.w	r3, r3, #2048	@ 0x800
 800369a:	61d3      	str	r3, [r2, #28]
  hspi->ErrorCode = HAL_SPI_ERROR_NONE;
 800369c:	6565      	str	r5, [r4, #84]	@ 0x54
  hspi->State     = HAL_SPI_STATE_READY;
 800369e:	f884 c051 	strb.w	ip, [r4, #81]	@ 0x51
}
 80036a2:	bdf8      	pop	{r3, r4, r5, r6, r7, pc}
    if (hspi->Init.Mode == SPI_MODE_MASTER)
 80036a4:	6842      	ldr	r2, [r0, #4]
 80036a6:	f5b2 7f82 	cmp.w	r2, #260	@ 0x104
 80036aa:	d0b9      	beq.n	8003620 <HAL_SPI_Init+0x14>
      hspi->Init.BaudRatePrescaler = SPI_BAUDRATEPRESCALER_2;
 80036ac:	61c3      	str	r3, [r0, #28]
 80036ae:	e7b7      	b.n	8003620 <HAL_SPI_Init+0x14>
    HAL_SPI_MspInit(hspi);
 80036b0:	4620      	mov	r0, r4
    hspi->Lock = HAL_UNLOCKED;
 80036b2:	f884 2050 	strb.w	r2, [r4, #80]	@ 0x50
    HAL_SPI_MspInit(hspi);
 80036b6:	f7fd facd 	bl	8000c54 <HAL_SPI_MspInit>
  WRITE_REG(hspi->Instance->CR1, ((hspi->Init.Mode & (SPI_CR1_MSTR | SPI_CR1_SSI)) |
 80036ba:	6aa0      	ldr	r0, [r4, #40]	@ 0x28
 80036bc:	f400 5000 	and.w	r0, r0, #8192	@ 0x2000
 80036c0:	e7b6      	b.n	8003630 <HAL_SPI_Init+0x24>
    return HAL_ERROR;
 80036c2:	2001      	movs	r0, #1
}
 80036c4:	4770      	bx	lr
 80036c6:	bf00      	nop

080036c8 <HAL_SPI_Transmit>:
{
 80036c8:	e92d 41f0 	stmdb	sp!, {r4, r5, r6, r7, r8, lr}
 80036cc:	4604      	mov	r4, r0
 80036ce:	b084      	sub	sp, #16
 80036d0:	461d      	mov	r5, r3
 80036d2:	460f      	mov	r7, r1
 80036d4:	4690      	mov	r8, r2
  tickstart = HAL_GetTick();
 80036d6:	f7fd fc2b 	bl	8000f30 <HAL_GetTick>
  if (hspi->State != HAL_SPI_STATE_READY)
 80036da:	f894 3051 	ldrb.w	r3, [r4, #81]	@ 0x51
 80036de:	2b01      	cmp	r3, #1
 80036e0:	d17d      	bne.n	80037de <HAL_SPI_Transmit+0x116>
  if ((pData == NULL) || (Size == 0U))
 80036e2:	4606      	mov	r6, r0
 80036e4:	b2d8      	uxtb	r0, r3
 80036e6:	2f00      	cmp	r7, #0
 80036e8:	d076      	beq.n	80037d8 <HAL_SPI_Transmit+0x110>
 80036ea:	f1b8 0f00 	cmp.w	r8, #0
 80036ee:	d073      	beq.n	80037d8 <HAL_SPI_Transmit+0x110>
  __HAL_LOCK(hspi);
 80036f0:	f894 3050 	ldrb.w	r3, [r4, #80]	@ 0x50
 80036f4:	2b01      	cmp	r3, #1
 80036f6:	d072      	beq.n	80037de <HAL_SPI_Transmit+0x116>
  hspi->ErrorCode   = HAL_SPI_ERROR_NONE;
 80036f8:	2300      	movs	r3, #0
  hspi->State       = HAL_SPI_STATE_BUSY_TX;
 80036fa:	2203      	movs	r2, #3
  hspi->pRxBuffPtr  = (uint8_t *)NULL;
 80036fc:	63a3      	str	r3, [r4, #56]	@ 0x38
  hspi->State       = HAL_SPI_STATE_BUSY_TX;
 80036fe:	f884 2051 	strb.w	r2, [r4, #81]	@ 0x51
  hspi->RxXferSize  = 0U;
 8003702:	87a3      	strh	r3, [r4, #60]	@ 0x3c
  hspi->ErrorCode   = HAL_SPI_ERROR_NONE;
 8003704:	6563      	str	r3, [r4, #84]	@ 0x54
  hspi->RxISR       = NULL;
 8003706:	6423      	str	r3, [r4, #64]	@ 0x40
  hspi->TxXferCount = Size;
 8003708:	f8a4 8036 	strh.w	r8, [r4, #54]	@ 0x36
  hspi->RxISR       = NULL;
 800370c:	6463      	str	r3, [r4, #68]	@ 0x44
  hspi->RxXferCount = 0U;
 800370e:	87e3      	strh	r3, [r4, #62]	@ 0x3e
  if (hspi->Init.Direction == SPI_DIRECTION_1LINE)
 8003710:	68a3      	ldr	r3, [r4, #8]
  __HAL_LOCK(hspi);
 8003712:	f884 0050 	strb.w	r0, [r4, #80]	@ 0x50
    __HAL_SPI_DISABLE(hspi);
 8003716:	6820      	ldr	r0, [r4, #0]
  if (hspi->Init.Direction == SPI_DIRECTION_1LINE)
 8003718:	f5b3 4f00 	cmp.w	r3, #32768	@ 0x8000
    __HAL_SPI_DISABLE(hspi);
 800371c:	4601      	mov	r1, r0
  hspi->pTxBuffPtr  = (const uint8_t *)pData;
 800371e:	6327      	str	r7, [r4, #48]	@ 0x30
  hspi->TxXferSize  = Size;
 8003720:	f8a4 8034 	strh.w	r8, [r4, #52]	@ 0x34
  if (hspi->Init.Direction == SPI_DIRECTION_1LINE)
 8003724:	d107      	bne.n	8003736 <HAL_SPI_Transmit+0x6e>
    __HAL_SPI_DISABLE(hspi);
 8003726:	6803      	ldr	r3, [r0, #0]
 8003728:	f023 0340 	bic.w	r3, r3, #64	@ 0x40
 800372c:	6003      	str	r3, [r0, #0]
    SPI_1LINE_TX(hspi);
 800372e:	6803      	ldr	r3, [r0, #0]
 8003730:	f443 4380 	orr.w	r3, r3, #16384	@ 0x4000
 8003734:	6003      	str	r3, [r0, #0]
  if ((hspi->Instance->CR1 & SPI_CR1_SPE) != SPI_CR1_SPE)
 8003736:	6803      	ldr	r3, [r0, #0]
 8003738:	065b      	lsls	r3, r3, #25
 800373a:	d554      	bpl.n	80037e6 <HAL_SPI_Transmit+0x11e>
  if (hspi->Init.DataSize == SPI_DATASIZE_16BIT)
 800373c:	68e3      	ldr	r3, [r4, #12]
    if ((hspi->Init.Mode == SPI_MODE_SLAVE) || (initial_TxXferCount == 0x01U))
 800373e:	6862      	ldr	r2, [r4, #4]
  if (hspi->Init.DataSize == SPI_DATASIZE_16BIT)
 8003740:	f5b3 6f00 	cmp.w	r3, #2048	@ 0x800
 8003744:	d058      	beq.n	80037f8 <HAL_SPI_Transmit+0x130>
    if ((hspi->Init.Mode == SPI_MODE_SLAVE) || (initial_TxXferCount == 0x01U))
 8003746:	2a00      	cmp	r2, #0
 8003748:	f040 8094 	bne.w	8003874 <HAL_SPI_Transmit+0x1ac>
      *((__IO uint8_t *)&hspi->Instance->DR) = *((const uint8_t *)hspi->pTxBuffPtr);
 800374c:	783b      	ldrb	r3, [r7, #0]
 800374e:	7303      	strb	r3, [r0, #12]
      hspi->TxXferCount--;
 8003750:	8ee3      	ldrh	r3, [r4, #54]	@ 0x36
      hspi->pTxBuffPtr += sizeof(uint8_t);
 8003752:	6b22      	ldr	r2, [r4, #48]	@ 0x30
      hspi->TxXferCount--;
 8003754:	3b01      	subs	r3, #1
      hspi->pTxBuffPtr += sizeof(uint8_t);
 8003756:	3201      	adds	r2, #1
      hspi->TxXferCount--;
 8003758:	b29b      	uxth	r3, r3
      hspi->pTxBuffPtr += sizeof(uint8_t);
 800375a:	6322      	str	r2, [r4, #48]	@ 0x30
      hspi->TxXferCount--;
 800375c:	86e3      	strh	r3, [r4, #54]	@ 0x36
    while (hspi->TxXferCount > 0U)
 800375e:	8ee3      	ldrh	r3, [r4, #54]	@ 0x36
 8003760:	b29b      	uxth	r3, r3
 8003762:	b1a3      	cbz	r3, 800378e <HAL_SPI_Transmit+0xc6>
 8003764:	1c68      	adds	r0, r5, #1
 8003766:	d17b      	bne.n	8003860 <HAL_SPI_Transmit+0x198>
      if (__HAL_SPI_GET_FLAG(hspi, SPI_FLAG_TXE))
 8003768:	6823      	ldr	r3, [r4, #0]
 800376a:	689a      	ldr	r2, [r3, #8]
 800376c:	0791      	lsls	r1, r2, #30
 800376e:	f140 8086 	bpl.w	800387e <HAL_SPI_Transmit+0x1b6>
        *((__IO uint8_t *)&hspi->Instance->DR) = *((const uint8_t *)hspi->pTxBuffPtr);
 8003772:	6b22      	ldr	r2, [r4, #48]	@ 0x30
 8003774:	7812      	ldrb	r2, [r2, #0]
 8003776:	731a      	strb	r2, [r3, #12]
        hspi->TxXferCount--;
 8003778:	8ee2      	ldrh	r2, [r4, #54]	@ 0x36
        hspi->pTxBuffPtr += sizeof(uint8_t);
 800377a:	6b23      	ldr	r3, [r4, #48]	@ 0x30
        hspi->TxXferCount--;
 800377c:	3a01      	subs	r2, #1
 800377e:	b292      	uxth	r2, r2
 8003780:	86e2      	strh	r2, [r4, #54]	@ 0x36
    while (hspi->TxXferCount > 0U)
 8003782:	8ee2      	ldrh	r2, [r4, #54]	@ 0x36
        hspi->pTxBuffPtr += sizeof(uint8_t);
 8003784:	3301      	adds	r3, #1
    while (hspi->TxXferCount > 0U)
 8003786:	b292      	uxth	r2, r2
        hspi->pTxBuffPtr += sizeof(uint8_t);
 8003788:	6323      	str	r3, [r4, #48]	@ 0x30
    while (hspi->TxXferCount > 0U)
 800378a:	2a00      	cmp	r2, #0
 800378c:	d1ec      	bne.n	8003768 <HAL_SPI_Transmit+0xa0>
  * @retval HAL status
  */
static HAL_StatusTypeDef SPI_EndRxTxTransaction(SPI_HandleTypeDef *hspi, uint32_t Timeout, uint32_t Tickstart)
{
  /* Wait until TXE flag */
  if (SPI_WaitFlagStateUntilTimeout(hspi, SPI_FLAG_TXE, SET, Timeout, Tickstart) != HAL_OK)
 800378e:	2201      	movs	r2, #1
 8003790:	462b      	mov	r3, r5
 8003792:	2102      	movs	r1, #2
 8003794:	4620      	mov	r0, r4
 8003796:	9600      	str	r6, [sp, #0]
 8003798:	f7ff fe62 	bl	8003460 <SPI_WaitFlagStateUntilTimeout>
 800379c:	4602      	mov	r2, r0
 800379e:	2800      	cmp	r0, #0
 80037a0:	d175      	bne.n	800388e <HAL_SPI_Transmit+0x1c6>
    SET_BIT(hspi->ErrorCode, HAL_SPI_ERROR_FLAG);
    return HAL_TIMEOUT;
  }

  /* Control the BSY flag */
  if (SPI_WaitFlagStateUntilTimeout(hspi, SPI_FLAG_BSY, RESET, Timeout, Tickstart) != HAL_OK)
 80037a2:	462b      	mov	r3, r5
 80037a4:	2180      	movs	r1, #128	@ 0x80
 80037a6:	4620      	mov	r0, r4
 80037a8:	9600      	str	r6, [sp, #0]
 80037aa:	f7ff fe59 	bl	8003460 <SPI_WaitFlagStateUntilTimeout>
 80037ae:	2800      	cmp	r0, #0
 80037b0:	d16d      	bne.n	800388e <HAL_SPI_Transmit+0x1c6>
  if (hspi->Init.Direction == SPI_DIRECTION_2LINES)
 80037b2:	68a3      	ldr	r3, [r4, #8]
 80037b4:	b933      	cbnz	r3, 80037c4 <HAL_SPI_Transmit+0xfc>
    __HAL_SPI_CLEAR_OVRFLAG(hspi);
 80037b6:	6822      	ldr	r2, [r4, #0]
 80037b8:	9303      	str	r3, [sp, #12]
 80037ba:	68d3      	ldr	r3, [r2, #12]
 80037bc:	9303      	str	r3, [sp, #12]
 80037be:	6893      	ldr	r3, [r2, #8]
 80037c0:	9303      	str	r3, [sp, #12]
 80037c2:	9b03      	ldr	r3, [sp, #12]
  hspi->State = HAL_SPI_STATE_READY;
 80037c4:	2201      	movs	r2, #1
  __HAL_UNLOCK(hspi);
 80037c6:	2300      	movs	r3, #0
  hspi->State = HAL_SPI_STATE_READY;
 80037c8:	f884 2051 	strb.w	r2, [r4, #81]	@ 0x51
  if (hspi->ErrorCode != HAL_SPI_ERROR_NONE)
 80037cc:	6d60      	ldr	r0, [r4, #84]	@ 0x54
  __HAL_UNLOCK(hspi);
 80037ce:	f884 3050 	strb.w	r3, [r4, #80]	@ 0x50
  if (hspi->ErrorCode != HAL_SPI_ERROR_NONE)
 80037d2:	1ac0      	subs	r0, r0, r3
 80037d4:	bf18      	it	ne
 80037d6:	2001      	movne	r0, #1
}
 80037d8:	b004      	add	sp, #16
 80037da:	e8bd 81f0 	ldmia.w	sp!, {r4, r5, r6, r7, r8, pc}
    return HAL_BUSY;
 80037de:	2002      	movs	r0, #2
}
 80037e0:	b004      	add	sp, #16
 80037e2:	e8bd 81f0 	ldmia.w	sp!, {r4, r5, r6, r7, r8, pc}
    __HAL_SPI_ENABLE(hspi);
 80037e6:	6803      	ldr	r3, [r0, #0]
    if ((hspi->Init.Mode == SPI_MODE_SLAVE) || (initial_TxXferCount == 0x01U))
 80037e8:	6862      	ldr	r2, [r4, #4]
    __HAL_SPI_ENABLE(hspi);
 80037ea:	f043 0340 	orr.w	r3, r3, #64	@ 0x40
 80037ee:	6003      	str	r3, [r0, #0]
  if (hspi->Init.DataSize == SPI_DATASIZE_16BIT)
 80037f0:	68e3      	ldr	r3, [r4, #12]
 80037f2:	f5b3 6f00 	cmp.w	r3, #2048	@ 0x800
 80037f6:	d1a6      	bne.n	8003746 <HAL_SPI_Transmit+0x7e>
    if ((hspi->Init.Mode == SPI_MODE_SLAVE) || (initial_TxXferCount == 0x01U))
 80037f8:	2a00      	cmp	r2, #0
 80037fa:	d06e      	beq.n	80038da <HAL_SPI_Transmit+0x212>
 80037fc:	f1b8 0f01 	cmp.w	r8, #1
 8003800:	d06b      	beq.n	80038da <HAL_SPI_Transmit+0x212>
    while (hspi->TxXferCount > 0U)
 8003802:	8ee3      	ldrh	r3, [r4, #54]	@ 0x36
 8003804:	b29b      	uxth	r3, r3
 8003806:	2b00      	cmp	r3, #0
 8003808:	d0c1      	beq.n	800378e <HAL_SPI_Transmit+0xc6>
 800380a:	1c6b      	adds	r3, r5, #1
 800380c:	d155      	bne.n	80038ba <HAL_SPI_Transmit+0x1f2>
      if (__HAL_SPI_GET_FLAG(hspi, SPI_FLAG_TXE))
 800380e:	6883      	ldr	r3, [r0, #8]
 8003810:	079f      	lsls	r7, r3, #30
 8003812:	d50f      	bpl.n	8003834 <HAL_SPI_Transmit+0x16c>
        hspi->Instance->DR = *((const uint16_t *)hspi->pTxBuffPtr);
 8003814:	6b22      	ldr	r2, [r4, #48]	@ 0x30
 8003816:	f832 3b02 	ldrh.w	r3, [r2], #2
 800381a:	60c3      	str	r3, [r0, #12]
        hspi->TxXferCount--;
 800381c:	8ee3      	ldrh	r3, [r4, #54]	@ 0x36
        hspi->pTxBuffPtr += sizeof(uint16_t);
 800381e:	6322      	str	r2, [r4, #48]	@ 0x30
        hspi->TxXferCount--;
 8003820:	3b01      	subs	r3, #1
 8003822:	b29b      	uxth	r3, r3
 8003824:	86e3      	strh	r3, [r4, #54]	@ 0x36
    while (hspi->TxXferCount > 0U)
 8003826:	8ee3      	ldrh	r3, [r4, #54]	@ 0x36
 8003828:	b29b      	uxth	r3, r3
 800382a:	2b00      	cmp	r3, #0
 800382c:	d0af      	beq.n	800378e <HAL_SPI_Transmit+0xc6>
      if (__HAL_SPI_GET_FLAG(hspi, SPI_FLAG_TXE))
 800382e:	6883      	ldr	r3, [r0, #8]
 8003830:	079f      	lsls	r7, r3, #30
 8003832:	d4ef      	bmi.n	8003814 <HAL_SPI_Transmit+0x14c>
        if ((((HAL_GetTick() - tickstart) >=  Timeout) && (Timeout != HAL_MAX_DELAY)) || (Timeout == 0U))
 8003834:	f7fd fb7c 	bl	8000f30 <HAL_GetTick>
    while (hspi->TxXferCount > 0U)
 8003838:	8ee3      	ldrh	r3, [r4, #54]	@ 0x36
 800383a:	b29b      	uxth	r3, r3
 800383c:	2b00      	cmp	r3, #0
 800383e:	d0a6      	beq.n	800378e <HAL_SPI_Transmit+0xc6>
 8003840:	6820      	ldr	r0, [r4, #0]
 8003842:	e7e4      	b.n	800380e <HAL_SPI_Transmit+0x146>
        *((__IO uint8_t *)&hspi->Instance->DR) = *((const uint8_t *)hspi->pTxBuffPtr);
 8003844:	6b22      	ldr	r2, [r4, #48]	@ 0x30
 8003846:	7812      	ldrb	r2, [r2, #0]
 8003848:	731a      	strb	r2, [r3, #12]
        hspi->TxXferCount--;
 800384a:	8ee3      	ldrh	r3, [r4, #54]	@ 0x36
        hspi->pTxBuffPtr += sizeof(uint8_t);
 800384c:	6b22      	ldr	r2, [r4, #48]	@ 0x30
        hspi->TxXferCount--;
 800384e:	3b01      	subs	r3, #1
        hspi->pTxBuffPtr += sizeof(uint8_t);
 8003850:	3201      	adds	r2, #1
        hspi->TxXferCount--;
 8003852:	b29b      	uxth	r3, r3
        hspi->pTxBuffPtr += sizeof(uint8_t);
 8003854:	6322      	str	r2, [r4, #48]	@ 0x30
        hspi->TxXferCount--;
 8003856:	86e3      	strh	r3, [r4, #54]	@ 0x36
    while (hspi->TxXferCount > 0U)
 8003858:	8ee3      	ldrh	r3, [r4, #54]	@ 0x36
 800385a:	b29b      	uxth	r3, r3
 800385c:	2b00      	cmp	r3, #0
 800385e:	d096      	beq.n	800378e <HAL_SPI_Transmit+0xc6>
      if (__HAL_SPI_GET_FLAG(hspi, SPI_FLAG_TXE))
 8003860:	6823      	ldr	r3, [r4, #0]
 8003862:	689a      	ldr	r2, [r3, #8]
 8003864:	0792      	lsls	r2, r2, #30
 8003866:	d4ed      	bmi.n	8003844 <HAL_SPI_Transmit+0x17c>
        if ((((HAL_GetTick() - tickstart) >=  Timeout) && (Timeout != HAL_MAX_DELAY)) || (Timeout == 0U))
 8003868:	f7fd fb62 	bl	8000f30 <HAL_GetTick>
 800386c:	1b80      	subs	r0, r0, r6
 800386e:	42a8      	cmp	r0, r5
 8003870:	d3f2      	bcc.n	8003858 <HAL_SPI_Transmit+0x190>
 8003872:	e02a      	b.n	80038ca <HAL_SPI_Transmit+0x202>
    if ((hspi->Init.Mode == SPI_MODE_SLAVE) || (initial_TxXferCount == 0x01U))
 8003874:	f1b8 0f01 	cmp.w	r8, #1
 8003878:	f47f af71 	bne.w	800375e <HAL_SPI_Transmit+0x96>
 800387c:	e766      	b.n	800374c <HAL_SPI_Transmit+0x84>
        if ((((HAL_GetTick() - tickstart) >=  Timeout) && (Timeout != HAL_MAX_DELAY)) || (Timeout == 0U))
 800387e:	f7fd fb57 	bl	8000f30 <HAL_GetTick>
    while (hspi->TxXferCount > 0U)
 8003882:	8ee3      	ldrh	r3, [r4, #54]	@ 0x36
 8003884:	b29b      	uxth	r3, r3
 8003886:	2b00      	cmp	r3, #0
 8003888:	f47f af6e 	bne.w	8003768 <HAL_SPI_Transmit+0xa0>
 800388c:	e77f      	b.n	800378e <HAL_SPI_Transmit+0xc6>
  {
    SET_BIT(hspi->ErrorCode, HAL_SPI_ERROR_FLAG);
 800388e:	6d63      	ldr	r3, [r4, #84]	@ 0x54
 8003890:	f043 0320 	orr.w	r3, r3, #32
 8003894:	6563      	str	r3, [r4, #84]	@ 0x54
    hspi->ErrorCode = HAL_SPI_ERROR_FLAG;
 8003896:	2320      	movs	r3, #32
 8003898:	6563      	str	r3, [r4, #84]	@ 0x54
 800389a:	e78a      	b.n	80037b2 <HAL_SPI_Transmit+0xea>
        hspi->Instance->DR = *((const uint16_t *)hspi->pTxBuffPtr);
 800389c:	6b22      	ldr	r2, [r4, #48]	@ 0x30
 800389e:	f832 3b02 	ldrh.w	r3, [r2], #2
 80038a2:	60cb      	str	r3, [r1, #12]
        hspi->TxXferCount--;
 80038a4:	8ee3      	ldrh	r3, [r4, #54]	@ 0x36
        hspi->pTxBuffPtr += sizeof(uint16_t);
 80038a6:	6322      	str	r2, [r4, #48]	@ 0x30
        hspi->TxXferCount--;
 80038a8:	3b01      	subs	r3, #1
 80038aa:	b29b      	uxth	r3, r3
 80038ac:	86e3      	strh	r3, [r4, #54]	@ 0x36
    while (hspi->TxXferCount > 0U)
 80038ae:	8ee3      	ldrh	r3, [r4, #54]	@ 0x36
 80038b0:	b29b      	uxth	r3, r3
 80038b2:	2b00      	cmp	r3, #0
 80038b4:	f43f af6b 	beq.w	800378e <HAL_SPI_Transmit+0xc6>
      if (__HAL_SPI_GET_FLAG(hspi, SPI_FLAG_TXE))
 80038b8:	6821      	ldr	r1, [r4, #0]
 80038ba:	688b      	ldr	r3, [r1, #8]
 80038bc:	079a      	lsls	r2, r3, #30
 80038be:	d4ed      	bmi.n	800389c <HAL_SPI_Transmit+0x1d4>
        if ((((HAL_GetTick() - tickstart) >=  Timeout) && (Timeout != HAL_MAX_DELAY)) || (Timeout == 0U))
 80038c0:	f7fd fb36 	bl	8000f30 <HAL_GetTick>
 80038c4:	1b83      	subs	r3, r0, r6
 80038c6:	42ab      	cmp	r3, r5
 80038c8:	d3f1      	bcc.n	80038ae <HAL_SPI_Transmit+0x1e6>
          hspi->State = HAL_SPI_STATE_READY;
 80038ca:	2301      	movs	r3, #1
 80038cc:	f884 3051 	strb.w	r3, [r4, #81]	@ 0x51
          __HAL_UNLOCK(hspi);
 80038d0:	2300      	movs	r3, #0
          return HAL_TIMEOUT;
 80038d2:	2003      	movs	r0, #3
          __HAL_UNLOCK(hspi);
 80038d4:	f884 3050 	strb.w	r3, [r4, #80]	@ 0x50
 80038d8:	e77e      	b.n	80037d8 <HAL_SPI_Transmit+0x110>
      hspi->Instance->DR = *((const uint16_t *)hspi->pTxBuffPtr);
 80038da:	f837 3b02 	ldrh.w	r3, [r7], #2
 80038de:	60c3      	str	r3, [r0, #12]
      hspi->TxXferCount--;
 80038e0:	8ee3      	ldrh	r3, [r4, #54]	@ 0x36
      hspi->pTxBuffPtr += sizeof(uint16_t);
 80038e2:	6327      	str	r7, [r4, #48]	@ 0x30
      hspi->TxXferCount--;
 80038e4:	3b01      	subs	r3, #1
 80038e6:	b29b      	uxth	r3, r3
 80038e8:	86e3      	strh	r3, [r4, #54]	@ 0x36
 80038ea:	e78a      	b.n	8003802 <HAL_SPI_Transmit+0x13a>

080038ec <HAL_SPI_TransmitReceive_DMA>:
{
 80038ec:	e92d 41f0 	stmdb	sp!, {r4, r5, r6, r7, r8, lr}
 80038f0:	4604      	mov	r4, r0
  tmp_state           = hspi->State;
 80038f2:	f890 0051 	ldrb.w	r0, [r0, #81]	@ 0x51
  tmp_mode            = hspi->Init.Mode;
 80038f6:	6865      	ldr	r5, [r4, #4]
  if (!((tmp_state == HAL_SPI_STATE_READY) ||
 80038f8:	2801      	cmp	r0, #1
 80038fa:	d00a      	beq.n	8003912 <HAL_SPI_TransmitReceive_DMA+0x26>
 80038fc:	f5b5 7f82 	cmp.w	r5, #260	@ 0x104
 8003900:	d156      	bne.n	80039b0 <HAL_SPI_TransmitReceive_DMA+0xc4>
 8003902:	fa5f fc80 	uxtb.w	ip, r0
        ((tmp_mode == SPI_MODE_MASTER) && (hspi->Init.Direction == SPI_DIRECTION_2LINES) &&
 8003906:	68a0      	ldr	r0, [r4, #8]
 8003908:	2800      	cmp	r0, #0
 800390a:	d151      	bne.n	80039b0 <HAL_SPI_TransmitReceive_DMA+0xc4>
 800390c:	f1bc 0f04 	cmp.w	ip, #4
 8003910:	d14e      	bne.n	80039b0 <HAL_SPI_TransmitReceive_DMA+0xc4>
  if ((pTxData == NULL) || (pRxData == NULL) || (Size == 0U))
 8003912:	2900      	cmp	r1, #0
 8003914:	d04a      	beq.n	80039ac <HAL_SPI_TransmitReceive_DMA+0xc0>
 8003916:	2a00      	cmp	r2, #0
 8003918:	d048      	beq.n	80039ac <HAL_SPI_TransmitReceive_DMA+0xc0>
 800391a:	2b00      	cmp	r3, #0
 800391c:	d046      	beq.n	80039ac <HAL_SPI_TransmitReceive_DMA+0xc0>
  __HAL_LOCK(hspi);
 800391e:	f894 0050 	ldrb.w	r0, [r4, #80]	@ 0x50
 8003922:	2801      	cmp	r0, #1
 8003924:	d044      	beq.n	80039b0 <HAL_SPI_TransmitReceive_DMA+0xc4>
 8003926:	2501      	movs	r5, #1
  if (hspi->State != HAL_SPI_STATE_BUSY_RX)
 8003928:	f894 0051 	ldrb.w	r0, [r4, #81]	@ 0x51
  hspi->ErrorCode   = HAL_SPI_ERROR_NONE;
 800392c:	2600      	movs	r6, #0
  if (hspi->State != HAL_SPI_STATE_BUSY_RX)
 800392e:	2804      	cmp	r0, #4
    hspi->State = HAL_SPI_STATE_BUSY_TX_RX;
 8003930:	bf18      	it	ne
 8003932:	2005      	movne	r0, #5
  if (hspi->State == HAL_SPI_STATE_BUSY_RX)
 8003934:	f643 2c19 	movw	ip, #14873	@ 0x3a19
 8003938:	f643 3e15 	movw	lr, #15125	@ 0x3b15
  __HAL_LOCK(hspi);
 800393c:	f884 5050 	strb.w	r5, [r4, #80]	@ 0x50
  if (hspi->State == HAL_SPI_STATE_BUSY_RX)
 8003940:	f643 2729 	movw	r7, #14889	@ 0x3a29
 8003944:	f643 255d 	movw	r5, #14941	@ 0x3a5d
    hspi->State = HAL_SPI_STATE_BUSY_TX_RX;
 8003948:	bf18      	it	ne
 800394a:	f884 0051 	strbne.w	r0, [r4, #81]	@ 0x51
  hspi->ErrorCode   = HAL_SPI_ERROR_NONE;
 800394e:	6566      	str	r6, [r4, #84]	@ 0x54
  hspi->TxXferCount = Size;
 8003950:	86e3      	strh	r3, [r4, #54]	@ 0x36
  hspi->RxXferCount = Size;
 8003952:	87e3      	strh	r3, [r4, #62]	@ 0x3e
  hspi->TxXferSize  = Size;
 8003954:	86a3      	strh	r3, [r4, #52]	@ 0x34
  hspi->RxXferSize  = Size;
 8003956:	87a3      	strh	r3, [r4, #60]	@ 0x3c
  if (hspi->State == HAL_SPI_STATE_BUSY_RX)
 8003958:	f894 3051 	ldrb.w	r3, [r4, #81]	@ 0x51
 800395c:	f6c0 0c00 	movt	ip, #2048	@ 0x800
 8003960:	2b04      	cmp	r3, #4
 8003962:	f6c0 0e00 	movt	lr, #2048	@ 0x800
  hspi->hdmarx->XferErrorCallback = SPI_DMAError;
 8003966:	f643 2839 	movw	r8, #14905	@ 0x3a39
  if (hspi->State == HAL_SPI_STATE_BUSY_RX)
 800396a:	f6c0 0500 	movt	r5, #2048	@ 0x800
 800396e:	f6c0 0700 	movt	r7, #2048	@ 0x800
 8003972:	bf14      	ite	ne
 8003974:	4675      	movne	r5, lr
 8003976:	4667      	moveq	r7, ip
  hspi->pTxBuffPtr  = (const uint8_t *)pTxData;
 8003978:	6321      	str	r1, [r4, #48]	@ 0x30
    hspi->hdmarx->XferHalfCpltCallback = SPI_DMAHalfReceiveCplt;
 800397a:	6ce0      	ldr	r0, [r4, #76]	@ 0x4c
  if (HAL_OK != HAL_DMA_Start_IT(hspi->hdmarx, (uint32_t)&hspi->Instance->DR, (uint32_t)hspi->pRxBuffPtr,
 800397c:	6821      	ldr	r1, [r4, #0]
                                 hspi->RxXferCount))
 800397e:	8fe3      	ldrh	r3, [r4, #62]	@ 0x3e
  hspi->hdmarx->XferErrorCallback = SPI_DMAError;
 8003980:	f6c0 0800 	movt	r8, #2048	@ 0x800
  hspi->RxISR       = NULL;
 8003984:	e9c4 6610 	strd	r6, r6, [r4, #64]	@ 0x40
  hspi->pRxBuffPtr  = (uint8_t *)pRxData;
 8003988:	63a2      	str	r2, [r4, #56]	@ 0x38
  if (HAL_OK != HAL_DMA_Start_IT(hspi->hdmarx, (uint32_t)&hspi->Instance->DR, (uint32_t)hspi->pRxBuffPtr,
 800398a:	310c      	adds	r1, #12
    hspi->hdmarx->XferCpltCallback     = SPI_DMAReceiveCplt;
 800398c:	e9c0 570a 	strd	r5, r7, [r0, #40]	@ 0x28
  hspi->hdmarx->XferErrorCallback = SPI_DMAError;
 8003990:	f8c0 8030 	str.w	r8, [r0, #48]	@ 0x30
  hspi->hdmarx->XferAbortCallback = NULL;
 8003994:	6346      	str	r6, [r0, #52]	@ 0x34
  if (HAL_OK != HAL_DMA_Start_IT(hspi->hdmarx, (uint32_t)&hspi->Instance->DR, (uint32_t)hspi->pRxBuffPtr,
 8003996:	b29b      	uxth	r3, r3
 8003998:	f7fd fe5a 	bl	8001650 <HAL_DMA_Start_IT>
 800399c:	4605      	mov	r5, r0
 800399e:	b150      	cbz	r0, 80039b6 <HAL_SPI_TransmitReceive_DMA+0xca>
    SET_BIT(hspi->ErrorCode, HAL_SPI_ERROR_DMA);
 80039a0:	6d63      	ldr	r3, [r4, #84]	@ 0x54
    __HAL_UNLOCK(hspi);
 80039a2:	f884 6050 	strb.w	r6, [r4, #80]	@ 0x50
    SET_BIT(hspi->ErrorCode, HAL_SPI_ERROR_DMA);
 80039a6:	f043 0310 	orr.w	r3, r3, #16
 80039aa:	6563      	str	r3, [r4, #84]	@ 0x54
    return HAL_ERROR;
 80039ac:	2001      	movs	r0, #1
 80039ae:	e000      	b.n	80039b2 <HAL_SPI_TransmitReceive_DMA+0xc6>
    return HAL_BUSY;
 80039b0:	2002      	movs	r0, #2
}
 80039b2:	e8bd 81f0 	ldmia.w	sp!, {r4, r5, r6, r7, r8, pc}
  SET_BIT(hspi->Instance->CR2, SPI_CR2_RXDMAEN);
 80039b6:	6822      	ldr	r2, [r4, #0]
  hspi->hdmatx->XferHalfCpltCallback = NULL;
 80039b8:	6ca0      	ldr	r0, [r4, #72]	@ 0x48
  SET_BIT(hspi->Instance->CR2, SPI_CR2_RXDMAEN);
 80039ba:	6853      	ldr	r3, [r2, #4]
  if (HAL_OK != HAL_DMA_Start_IT(hspi->hdmatx, (uint32_t)hspi->pTxBuffPtr, (uint32_t)&hspi->Instance->DR,
 80039bc:	6b21      	ldr	r1, [r4, #48]	@ 0x30
  SET_BIT(hspi->Instance->CR2, SPI_CR2_RXDMAEN);
 80039be:	f043 0301 	orr.w	r3, r3, #1
 80039c2:	6053      	str	r3, [r2, #4]
                                 hspi->TxXferCount))
 80039c4:	8ee3      	ldrh	r3, [r4, #54]	@ 0x36
  if (HAL_OK != HAL_DMA_Start_IT(hspi->hdmatx, (uint32_t)hspi->pTxBuffPtr, (uint32_t)&hspi->Instance->DR,
 80039c6:	320c      	adds	r2, #12
  hspi->hdmatx->XferCpltCallback     = NULL;
 80039c8:	e9c0 550a 	strd	r5, r5, [r0, #40]	@ 0x28
  hspi->hdmatx->XferAbortCallback    = NULL;
 80039cc:	e9c0 550c 	strd	r5, r5, [r0, #48]	@ 0x30
  if (HAL_OK != HAL_DMA_Start_IT(hspi->hdmatx, (uint32_t)hspi->pTxBuffPtr, (uint32_t)&hspi->Instance->DR,
 80039d0:	b29b      	uxth	r3, r3
 80039d2:	f7fd fe3d 	bl	8001650 <HAL_DMA_Start_IT>
 80039d6:	b998      	cbnz	r0, 8003a00 <HAL_SPI_TransmitReceive_DMA+0x114>
  if ((hspi->Instance->CR1 & SPI_CR1_SPE) != SPI_CR1_SPE)
 80039d8:	6823      	ldr	r3, [r4, #0]
 80039da:	681a      	ldr	r2, [r3, #0]
 80039dc:	0652      	lsls	r2, r2, #25
 80039de:	d403      	bmi.n	80039e8 <HAL_SPI_TransmitReceive_DMA+0xfc>
    __HAL_SPI_ENABLE(hspi);
 80039e0:	681a      	ldr	r2, [r3, #0]
 80039e2:	f042 0240 	orr.w	r2, r2, #64	@ 0x40
 80039e6:	601a      	str	r2, [r3, #0]
  __HAL_UNLOCK(hspi);
 80039e8:	2200      	movs	r2, #0
 80039ea:	f884 2050 	strb.w	r2, [r4, #80]	@ 0x50
  __HAL_SPI_ENABLE_IT(hspi, (SPI_IT_ERR));
 80039ee:	685a      	ldr	r2, [r3, #4]
 80039f0:	f042 0220 	orr.w	r2, r2, #32
 80039f4:	605a      	str	r2, [r3, #4]
  SET_BIT(hspi->Instance->CR2, SPI_CR2_TXDMAEN);
 80039f6:	685a      	ldr	r2, [r3, #4]
 80039f8:	f042 0202 	orr.w	r2, r2, #2
 80039fc:	605a      	str	r2, [r3, #4]
  return HAL_OK;
 80039fe:	e7d8      	b.n	80039b2 <HAL_SPI_TransmitReceive_DMA+0xc6>
    SET_BIT(hspi->ErrorCode, HAL_SPI_ERROR_DMA);
 8003a00:	6d63      	ldr	r3, [r4, #84]	@ 0x54
    __HAL_UNLOCK(hspi);
 8003a02:	f884 5050 	strb.w	r5, [r4, #80]	@ 0x50
    SET_BIT(hspi->ErrorCode, HAL_SPI_ERROR_DMA);
 8003a06:	f043 0310 	orr.w	r3, r3, #16
 8003a0a:	6563      	str	r3, [r4, #84]	@ 0x54
    return HAL_ERROR;
 8003a0c:	e7ce      	b.n	80039ac <HAL_SPI_TransmitReceive_DMA+0xc0>
 8003a0e:	bf00      	nop

08003a10 <HAL_SPI_RxCpltCallback>:
__weak void HAL_SPI_RxCpltCallback(SPI_HandleTypeDef *hspi)
 8003a10:	4770      	bx	lr
 8003a12:	bf00      	nop

08003a14 <HAL_SPI_RxHalfCpltCallback>:
__weak void HAL_SPI_RxHalfCpltCallback(SPI_HandleTypeDef *hspi)
 8003a14:	4770      	bx	lr
 8003a16:	bf00      	nop

08003a18 <SPI_DMAHalfReceiveCplt>:
{
 8003a18:	b508      	push	{r3, lr}
  HAL_SPI_RxHalfCpltCallback(hspi);
 8003a1a:	6a40      	ldr	r0, [r0, #36]	@ 0x24
 8003a1c:	f7ff fffa 	bl	8003a14 <HAL_SPI_RxHalfCpltCallback>
}
 8003a20:	bd08      	pop	{r3, pc}
 8003a22:	bf00      	nop

08003a24 <HAL_SPI_TxRxHalfCpltCallback>:
__weak void HAL_SPI_TxRxHalfCpltCallback(SPI_HandleTypeDef *hspi)
 8003a24:	4770      	bx	lr
 8003a26:	bf00      	nop

08003a28 <SPI_DMAHalfTransmitReceiveCplt>:
{
 8003a28:	b508      	push	{r3, lr}
  HAL_SPI_TxRxHalfCpltCallback(hspi);
 8003a2a:	6a40      	ldr	r0, [r0, #36]	@ 0x24
 8003a2c:	f7ff fffa 	bl	8003a24 <HAL_SPI_TxRxHalfCpltCallback>
}
 8003a30:	bd08      	pop	{r3, pc}
 8003a32:	bf00      	nop

08003a34 <HAL_SPI_ErrorCallback>:
__weak void HAL_SPI_ErrorCallback(SPI_HandleTypeDef *hspi)
 8003a34:	4770      	bx	lr
 8003a36:	bf00      	nop

08003a38 <SPI_DMAError>:
  hspi->State = HAL_SPI_STATE_READY;
 8003a38:	2101      	movs	r1, #1
  SPI_HandleTypeDef *hspi = (SPI_HandleTypeDef *)(((DMA_HandleTypeDef *)hdma)->Parent);
 8003a3a:	6a40      	ldr	r0, [r0, #36]	@ 0x24
{
 8003a3c:	b508      	push	{r3, lr}
  CLEAR_BIT(hspi->Instance->CR2, SPI_CR2_TXDMAEN | SPI_CR2_RXDMAEN);
 8003a3e:	6802      	ldr	r2, [r0, #0]
 8003a40:	6853      	ldr	r3, [r2, #4]
 8003a42:	f023 0303 	bic.w	r3, r3, #3
 8003a46:	6053      	str	r3, [r2, #4]
  SET_BIT(hspi->ErrorCode, HAL_SPI_ERROR_DMA);
 8003a48:	6d43      	ldr	r3, [r0, #84]	@ 0x54
 8003a4a:	f043 0310 	orr.w	r3, r3, #16
 8003a4e:	6543      	str	r3, [r0, #84]	@ 0x54
  hspi->State = HAL_SPI_STATE_READY;
 8003a50:	f880 1051 	strb.w	r1, [r0, #81]	@ 0x51
  HAL_SPI_ErrorCallback(hspi);
 8003a54:	f7ff ffee 	bl	8003a34 <HAL_SPI_ErrorCallback>
}
 8003a58:	bd08      	pop	{r3, pc}
 8003a5a:	bf00      	nop

08003a5c <SPI_DMAReceiveCplt>:
{
 8003a5c:	b570      	push	{r4, r5, r6, lr}
 8003a5e:	4605      	mov	r5, r0
  SPI_HandleTypeDef *hspi = (SPI_HandleTypeDef *)(((DMA_HandleTypeDef *)hdma)->Parent);
 8003a60:	6a44      	ldr	r4, [r0, #36]	@ 0x24
  tickstart = HAL_GetTick();
 8003a62:	f7fd fa65 	bl	8000f30 <HAL_GetTick>
  if ((hdma->Instance->CCR & DMA_CCR_CIRC) != DMA_CCR_CIRC)
 8003a66:	682a      	ldr	r2, [r5, #0]
 8003a68:	6812      	ldr	r2, [r2, #0]
 8003a6a:	f012 0220 	ands.w	r2, r2, #32
 8003a6e:	d11c      	bne.n	8003aaa <SPI_DMAReceiveCplt+0x4e>
    __HAL_SPI_DISABLE_IT(hspi, SPI_IT_ERR);
 8003a70:	4603      	mov	r3, r0
 8003a72:	6820      	ldr	r0, [r4, #0]
 8003a74:	6841      	ldr	r1, [r0, #4]
 8003a76:	f021 0120 	bic.w	r1, r1, #32
 8003a7a:	6041      	str	r1, [r0, #4]
    if ((hspi->Init.Direction == SPI_DIRECTION_2LINES) && (hspi->Init.Mode == SPI_MODE_MASTER))
 8003a7c:	e9d4 5101 	ldrd	r5, r1, [r4, #4]
 8003a80:	b1b9      	cbz	r1, 8003ab2 <SPI_DMAReceiveCplt+0x56>
      CLEAR_BIT(hspi->Instance->CR2, SPI_CR2_RXDMAEN);
 8003a82:	6846      	ldr	r6, [r0, #4]
  if ((hspi->Init.Mode == SPI_MODE_MASTER) && ((hspi->Init.Direction == SPI_DIRECTION_1LINE)
 8003a84:	f5b5 7f82 	cmp.w	r5, #260	@ 0x104
      CLEAR_BIT(hspi->Instance->CR2, SPI_CR2_RXDMAEN);
 8003a88:	f026 0601 	bic.w	r6, r6, #1
 8003a8c:	6046      	str	r6, [r0, #4]
  if ((hspi->Init.Mode == SPI_MODE_MASTER) && ((hspi->Init.Direction == SPI_DIRECTION_1LINE)
 8003a8e:	d02b      	beq.n	8003ae8 <SPI_DMAReceiveCplt+0x8c>
    if (SPI_WaitFlagStateUntilTimeout(hspi, SPI_FLAG_BSY, RESET, Timeout, Tickstart) != HAL_OK)
 8003a90:	2200      	movs	r2, #0
 8003a92:	2180      	movs	r1, #128	@ 0x80
 8003a94:	4620      	mov	r0, r4
 8003a96:	f7ff fd4f 	bl	8003538 <SPI_WaitFlagStateUntilTimeout.constprop.0>
 8003a9a:	b9d0      	cbnz	r0, 8003ad2 <SPI_DMAReceiveCplt+0x76>
    hspi->State = HAL_SPI_STATE_READY;
 8003a9c:	2301      	movs	r3, #1
    hspi->RxXferCount = 0U;
 8003a9e:	2200      	movs	r2, #0
 8003aa0:	87e2      	strh	r2, [r4, #62]	@ 0x3e
    hspi->State = HAL_SPI_STATE_READY;
 8003aa2:	f884 3051 	strb.w	r3, [r4, #81]	@ 0x51
    if (hspi->ErrorCode != HAL_SPI_ERROR_NONE)
 8003aa6:	6d63      	ldr	r3, [r4, #84]	@ 0x54
 8003aa8:	b9d3      	cbnz	r3, 8003ae0 <SPI_DMAReceiveCplt+0x84>
  HAL_SPI_RxCpltCallback(hspi);
 8003aaa:	4620      	mov	r0, r4
 8003aac:	f7ff ffb0 	bl	8003a10 <HAL_SPI_RxCpltCallback>
}
 8003ab0:	bd70      	pop	{r4, r5, r6, pc}
      CLEAR_BIT(hspi->Instance->CR2, SPI_CR2_TXDMAEN | SPI_CR2_RXDMAEN);
 8003ab2:	6842      	ldr	r2, [r0, #4]
    if ((hspi->Init.Direction == SPI_DIRECTION_2LINES) && (hspi->Init.Mode == SPI_MODE_MASTER))
 8003ab4:	f5b5 7f82 	cmp.w	r5, #260	@ 0x104
      CLEAR_BIT(hspi->Instance->CR2, SPI_CR2_TXDMAEN | SPI_CR2_RXDMAEN);
 8003ab8:	bf0c      	ite	eq
 8003aba:	f022 0203 	biceq.w	r2, r2, #3
      CLEAR_BIT(hspi->Instance->CR2, SPI_CR2_RXDMAEN);
 8003abe:	f022 0201 	bicne.w	r2, r2, #1
 8003ac2:	6042      	str	r2, [r0, #4]
    if (SPI_WaitFlagStateUntilTimeout(hspi, SPI_FLAG_BSY, RESET, Timeout, Tickstart) != HAL_OK)
 8003ac4:	2180      	movs	r1, #128	@ 0x80
 8003ac6:	2200      	movs	r2, #0
 8003ac8:	4620      	mov	r0, r4
 8003aca:	f7ff fd35 	bl	8003538 <SPI_WaitFlagStateUntilTimeout.constprop.0>
 8003ace:	2800      	cmp	r0, #0
 8003ad0:	d0e4      	beq.n	8003a9c <SPI_DMAReceiveCplt+0x40>
      SET_BIT(hspi->ErrorCode, HAL_SPI_ERROR_FLAG);
 8003ad2:	6d63      	ldr	r3, [r4, #84]	@ 0x54
 8003ad4:	f043 0320 	orr.w	r3, r3, #32
 8003ad8:	6563      	str	r3, [r4, #84]	@ 0x54
      hspi->ErrorCode = HAL_SPI_ERROR_FLAG;
 8003ada:	2320      	movs	r3, #32
 8003adc:	6563      	str	r3, [r4, #84]	@ 0x54
 8003ade:	e7dd      	b.n	8003a9c <SPI_DMAReceiveCplt+0x40>
      HAL_SPI_ErrorCallback(hspi);
 8003ae0:	4620      	mov	r0, r4
 8003ae2:	f7ff ffa7 	bl	8003a34 <HAL_SPI_ErrorCallback>
}
 8003ae6:	bd70      	pop	{r4, r5, r6, pc}
  if ((hspi->Init.Mode == SPI_MODE_MASTER) && ((hspi->Init.Direction == SPI_DIRECTION_1LINE)
 8003ae8:	f5b1 4f00 	cmp.w	r1, #32768	@ 0x8000
 8003aec:	d104      	bne.n	8003af8 <SPI_DMAReceiveCplt+0x9c>
    __HAL_SPI_DISABLE(hspi);
 8003aee:	6802      	ldr	r2, [r0, #0]
 8003af0:	f022 0240 	bic.w	r2, r2, #64	@ 0x40
 8003af4:	6002      	str	r2, [r0, #0]
  if ((hspi->Init.Mode == SPI_MODE_MASTER) && (hspi->Init.Direction == SPI_DIRECTION_2LINES_RXONLY))
 8003af6:	e7cb      	b.n	8003a90 <SPI_DMAReceiveCplt+0x34>
                                               || (hspi->Init.Direction == SPI_DIRECTION_2LINES_RXONLY)))
 8003af8:	f5b1 6f80 	cmp.w	r1, #1024	@ 0x400
 8003afc:	d1c8      	bne.n	8003a90 <SPI_DMAReceiveCplt+0x34>
    __HAL_SPI_DISABLE(hspi);
 8003afe:	6801      	ldr	r1, [r0, #0]
 8003b00:	f021 0140 	bic.w	r1, r1, #64	@ 0x40
 8003b04:	6001      	str	r1, [r0, #0]
    if (SPI_WaitFlagStateUntilTimeout(hspi, SPI_FLAG_RXNE, RESET, Timeout, Tickstart) != HAL_OK)
 8003b06:	2101      	movs	r1, #1
 8003b08:	4620      	mov	r0, r4
 8003b0a:	f7ff fd15 	bl	8003538 <SPI_WaitFlagStateUntilTimeout.constprop.0>
 8003b0e:	2800      	cmp	r0, #0
 8003b10:	d0c4      	beq.n	8003a9c <SPI_DMAReceiveCplt+0x40>
 8003b12:	e7de      	b.n	8003ad2 <SPI_DMAReceiveCplt+0x76>

08003b14 <SPI_DMATransmitReceiveCplt>:
{
 8003b14:	b538      	push	{r3, r4, r5, lr}
 8003b16:	4605      	mov	r5, r0
  SPI_HandleTypeDef *hspi = (SPI_HandleTypeDef *)(((DMA_HandleTypeDef *)hdma)->Parent);
 8003b18:	6a44      	ldr	r4, [r0, #36]	@ 0x24
  tickstart = HAL_GetTick();
 8003b1a:	f7fd fa09 	bl	8000f30 <HAL_GetTick>
  if ((hdma->Instance->CCR & DMA_CCR_CIRC) != DMA_CCR_CIRC)
 8003b1e:	682b      	ldr	r3, [r5, #0]
 8003b20:	681b      	ldr	r3, [r3, #0]
 8003b22:	069b      	lsls	r3, r3, #26
 8003b24:	d420      	bmi.n	8003b68 <SPI_DMATransmitReceiveCplt+0x54>
    __HAL_SPI_DISABLE_IT(hspi, SPI_IT_ERR);
 8003b26:	6821      	ldr	r1, [r4, #0]
  if (SPI_WaitFlagStateUntilTimeout(hspi, SPI_FLAG_TXE, SET, Timeout, Tickstart) != HAL_OK)
 8003b28:	4603      	mov	r3, r0
    __HAL_SPI_DISABLE_IT(hspi, SPI_IT_ERR);
 8003b2a:	684a      	ldr	r2, [r1, #4]
 8003b2c:	4605      	mov	r5, r0
 8003b2e:	f022 0220 	bic.w	r2, r2, #32
 8003b32:	604a      	str	r2, [r1, #4]
  if (SPI_WaitFlagStateUntilTimeout(hspi, SPI_FLAG_TXE, SET, Timeout, Tickstart) != HAL_OK)
 8003b34:	4620      	mov	r0, r4
 8003b36:	2201      	movs	r2, #1
 8003b38:	2102      	movs	r1, #2
 8003b3a:	f7ff fcfd 	bl	8003538 <SPI_WaitFlagStateUntilTimeout.constprop.0>
 8003b3e:	4602      	mov	r2, r0
 8003b40:	b9b0      	cbnz	r0, 8003b70 <SPI_DMATransmitReceiveCplt+0x5c>
  if (SPI_WaitFlagStateUntilTimeout(hspi, SPI_FLAG_BSY, RESET, Timeout, Tickstart) != HAL_OK)
 8003b42:	462b      	mov	r3, r5
 8003b44:	2180      	movs	r1, #128	@ 0x80
 8003b46:	4620      	mov	r0, r4
 8003b48:	f7ff fcf6 	bl	8003538 <SPI_WaitFlagStateUntilTimeout.constprop.0>
 8003b4c:	b980      	cbnz	r0, 8003b70 <SPI_DMATransmitReceiveCplt+0x5c>
    hspi->TxXferCount = 0U;
 8003b4e:	2200      	movs	r2, #0
    hspi->State = HAL_SPI_STATE_READY;
 8003b50:	2001      	movs	r0, #1
    CLEAR_BIT(hspi->Instance->CR2, SPI_CR2_TXDMAEN | SPI_CR2_RXDMAEN);
 8003b52:	6821      	ldr	r1, [r4, #0]
 8003b54:	684b      	ldr	r3, [r1, #4]
 8003b56:	f023 0303 	bic.w	r3, r3, #3
 8003b5a:	604b      	str	r3, [r1, #4]
    hspi->TxXferCount = 0U;
 8003b5c:	86e2      	strh	r2, [r4, #54]	@ 0x36
    hspi->RxXferCount = 0U;
 8003b5e:	87e2      	strh	r2, [r4, #62]	@ 0x3e
    hspi->State = HAL_SPI_STATE_READY;
 8003b60:	f884 0051 	strb.w	r0, [r4, #81]	@ 0x51
    if (hspi->ErrorCode != HAL_SPI_ERROR_NONE)
 8003b64:	6d63      	ldr	r3, [r4, #84]	@ 0x54
 8003b66:	b963      	cbnz	r3, 8003b82 <SPI_DMATransmitReceiveCplt+0x6e>
  HAL_SPI_TxRxCpltCallback(hspi);
 8003b68:	4620      	mov	r0, r4
 8003b6a:	f002 fbd7 	bl	800631c <HAL_SPI_TxRxCpltCallback>
}
 8003b6e:	bd38      	pop	{r3, r4, r5, pc}
    SET_BIT(hspi->ErrorCode, HAL_SPI_ERROR_FLAG);
 8003b70:	6d63      	ldr	r3, [r4, #84]	@ 0x54
 8003b72:	f043 0320 	orr.w	r3, r3, #32
 8003b76:	6563      	str	r3, [r4, #84]	@ 0x54
      SET_BIT(hspi->ErrorCode, HAL_SPI_ERROR_FLAG);
 8003b78:	6d63      	ldr	r3, [r4, #84]	@ 0x54
 8003b7a:	f043 0320 	orr.w	r3, r3, #32
 8003b7e:	6563      	str	r3, [r4, #84]	@ 0x54
 8003b80:	e7e5      	b.n	8003b4e <SPI_DMATransmitReceiveCplt+0x3a>
      HAL_SPI_ErrorCallback(hspi);
 8003b82:	4620      	mov	r0, r4
 8003b84:	f7ff ff56 	bl	8003a34 <HAL_SPI_ErrorCallback>
}
 8003b88:	bd38      	pop	{r3, r4, r5, pc}
 8003b8a:	bf00      	nop

08003b8c <HAL_TIM_Base_Init>:
  * @retval HAL status
  */
HAL_StatusTypeDef HAL_TIM_Base_Init(TIM_HandleTypeDef *htim)
{
  /* Check the TIM handle allocation */
  if (htim == NULL)
 8003b8c:	2800      	cmp	r0, #0
 8003b8e:	d070      	beq.n	8003c72 <HAL_TIM_Base_Init+0xe6>
{
 8003b90:	b570      	push	{r4, r5, r6, lr}
  assert_param(IS_TIM_COUNTER_MODE(htim->Init.CounterMode));
  assert_param(IS_TIM_CLOCKDIVISION_DIV(htim->Init.ClockDivision));
  assert_param(IS_TIM_PERIOD(htim->Init.Period));
  assert_param(IS_TIM_AUTORELOAD_PRELOAD(htim->Init.AutoReloadPreload));

  if (htim->State == HAL_TIM_STATE_RESET)
 8003b92:	f890 303d 	ldrb.w	r3, [r0, #61]	@ 0x3d
 8003b96:	4604      	mov	r4, r0
 8003b98:	f003 02ff 	and.w	r2, r3, #255	@ 0xff
 8003b9c:	2b00      	cmp	r3, #0
 8003b9e:	d063      	beq.n	8003c68 <HAL_TIM_Base_Init+0xdc>
{
  uint32_t tmpcr1;
  tmpcr1 = TIMx->CR1;

  /* Set TIM Time Base Unit parameters ---------------------------------------*/
  if (IS_TIM_COUNTER_MODE_SELECT_INSTANCE(TIMx))
 8003ba0:	f44f 5c30 	mov.w	ip, #11264	@ 0x2c00
  htim->State = HAL_TIM_STATE_BUSY;
 8003ba4:	2302      	movs	r3, #2
  TIM_Base_SetConfig(htim->Instance, &htim->Init);
 8003ba6:	6822      	ldr	r2, [r4, #0]
  if (IS_TIM_COUNTER_MODE_SELECT_INSTANCE(TIMx))
 8003ba8:	f2c4 0c01 	movt	ip, #16385	@ 0x4001
  htim->State = HAL_TIM_STATE_BUSY;
 8003bac:	f884 303d 	strb.w	r3, [r4, #61]	@ 0x3d
  if (IS_TIM_COUNTER_MODE_SELECT_INSTANCE(TIMx))
 8003bb0:	4562      	cmp	r2, ip
    tmpcr1 &= ~TIM_CR1_CKD;
    tmpcr1 |= (uint32_t)Structure->ClockDivision;
  }

  /* Set the auto-reload preload */
  MODIFY_REG(tmpcr1, TIM_CR1_ARPE, Structure->AutoReloadPreload);
 8003bb2:	69a5      	ldr	r5, [r4, #24]

  TIMx->CR1 = tmpcr1;

  /* Set the Autoreload value */
  TIMx->ARR = (uint32_t)Structure->Period ;
 8003bb4:	68e0      	ldr	r0, [r4, #12]

  /* Set the Prescaler value */
  TIMx->PSC = Structure->Prescaler;
 8003bb6:	6861      	ldr	r1, [r4, #4]
  tmpcr1 = TIMx->CR1;
 8003bb8:	6813      	ldr	r3, [r2, #0]
  if (IS_TIM_COUNTER_MODE_SELECT_INSTANCE(TIMx))
 8003bba:	d034      	beq.n	8003c26 <HAL_TIM_Base_Init+0x9a>
 8003bbc:	f1b2 4f80 	cmp.w	r2, #1073741824	@ 0x40000000
 8003bc0:	d031      	beq.n	8003c26 <HAL_TIM_Base_Init+0x9a>
 8003bc2:	f44f 6c80 	mov.w	ip, #1024	@ 0x400
 8003bc6:	f2c4 0c00 	movt	ip, #16384	@ 0x4000
 8003bca:	4562      	cmp	r2, ip
 8003bcc:	d043      	beq.n	8003c56 <HAL_TIM_Base_Init+0xca>
 8003bce:	f44f 6c00 	mov.w	ip, #2048	@ 0x800
 8003bd2:	f2c4 0c00 	movt	ip, #16384	@ 0x4000
 8003bd6:	4562      	cmp	r2, ip
 8003bd8:	d03d      	beq.n	8003c56 <HAL_TIM_Base_Init+0xca>
  MODIFY_REG(tmpcr1, TIM_CR1_ARPE, Structure->AutoReloadPreload);
 8003bda:	f023 0380 	bic.w	r3, r3, #128	@ 0x80
 8003bde:	432b      	orrs	r3, r5
  TIMx->CR1 = tmpcr1;
 8003be0:	6013      	str	r3, [r2, #0]
  TIMx->ARR = (uint32_t)Structure->Period ;
 8003be2:	62d0      	str	r0, [r2, #44]	@ 0x2c
  TIMx->PSC = Structure->Prescaler;
 8003be4:	6291      	str	r1, [r2, #40]	@ 0x28
    TIMx->RCR = Structure->RepetitionCounter;
  }

  /* Generate an update event to reload the Prescaler
     and the repetition counter (only for advanced timer) value immediately */
  TIMx->EGR = TIM_EGR_UG;
 8003be6:	2301      	movs	r3, #1
 8003be8:	6153      	str	r3, [r2, #20]

  /* Check if the update flag is set after the Update Generation, if so clear the UIF flag */
  if (HAL_IS_BIT_SET(TIMx->SR, TIM_FLAG_UPDATE))
 8003bea:	6913      	ldr	r3, [r2, #16]
 8003bec:	07db      	lsls	r3, r3, #31
 8003bee:	d503      	bpl.n	8003bf8 <HAL_TIM_Base_Init+0x6c>
  {
    /* Clear the update flag */
    CLEAR_BIT(TIMx->SR, TIM_FLAG_UPDATE);
 8003bf0:	6913      	ldr	r3, [r2, #16]
 8003bf2:	f023 0301 	bic.w	r3, r3, #1
 8003bf6:	6113      	str	r3, [r2, #16]
  htim->DMABurstState = HAL_DMA_BURST_STATE_READY;
 8003bf8:	2301      	movs	r3, #1
 8003bfa:	f884 3046 	strb.w	r3, [r4, #70]	@ 0x46
  TIM_CHANNEL_STATE_SET_ALL(htim, HAL_TIM_CHANNEL_STATE_READY);
 8003bfe:	f884 303e 	strb.w	r3, [r4, #62]	@ 0x3e
 8003c02:	f884 303f 	strb.w	r3, [r4, #63]	@ 0x3f
 8003c06:	f884 3040 	strb.w	r3, [r4, #64]	@ 0x40
 8003c0a:	f884 3041 	strb.w	r3, [r4, #65]	@ 0x41
  TIM_CHANNEL_N_STATE_SET_ALL(htim, HAL_TIM_CHANNEL_STATE_READY);
 8003c0e:	f884 3042 	strb.w	r3, [r4, #66]	@ 0x42
 8003c12:	f884 3043 	strb.w	r3, [r4, #67]	@ 0x43
 8003c16:	f884 3044 	strb.w	r3, [r4, #68]	@ 0x44
 8003c1a:	f884 3045 	strb.w	r3, [r4, #69]	@ 0x45
  htim->State = HAL_TIM_STATE_READY;
 8003c1e:	f884 303d 	strb.w	r3, [r4, #61]	@ 0x3d
  return HAL_OK;
 8003c22:	2000      	movs	r0, #0
}
 8003c24:	bd70      	pop	{r4, r5, r6, pc}
  if (IS_TIM_REPETITION_COUNTER_INSTANCE(TIMx))
 8003c26:	f44f 5c30 	mov.w	ip, #11264	@ 0x2c00
    tmpcr1 |= Structure->CounterMode;
 8003c2a:	68a6      	ldr	r6, [r4, #8]
    tmpcr1 &= ~(TIM_CR1_DIR | TIM_CR1_CMS);
 8003c2c:	f023 0370 	bic.w	r3, r3, #112	@ 0x70
    tmpcr1 |= Structure->CounterMode;
 8003c30:	4333      	orrs	r3, r6
    tmpcr1 |= (uint32_t)Structure->ClockDivision;
 8003c32:	6926      	ldr	r6, [r4, #16]
    tmpcr1 &= ~TIM_CR1_CKD;
 8003c34:	f423 7340 	bic.w	r3, r3, #768	@ 0x300
    tmpcr1 |= (uint32_t)Structure->ClockDivision;
 8003c38:	4333      	orrs	r3, r6
  MODIFY_REG(tmpcr1, TIM_CR1_ARPE, Structure->AutoReloadPreload);
 8003c3a:	f023 0380 	bic.w	r3, r3, #128	@ 0x80
  if (IS_TIM_REPETITION_COUNTER_INSTANCE(TIMx))
 8003c3e:	f2c4 0c01 	movt	ip, #16385	@ 0x4001
  MODIFY_REG(tmpcr1, TIM_CR1_ARPE, Structure->AutoReloadPreload);
 8003c42:	432b      	orrs	r3, r5
  if (IS_TIM_REPETITION_COUNTER_INSTANCE(TIMx))
 8003c44:	4562      	cmp	r2, ip
  TIMx->CR1 = tmpcr1;
 8003c46:	6013      	str	r3, [r2, #0]
    TIMx->RCR = Structure->RepetitionCounter;
 8003c48:	bf08      	it	eq
 8003c4a:	6963      	ldreq	r3, [r4, #20]
  TIMx->ARR = (uint32_t)Structure->Period ;
 8003c4c:	62d0      	str	r0, [r2, #44]	@ 0x2c
  TIMx->PSC = Structure->Prescaler;
 8003c4e:	6291      	str	r1, [r2, #40]	@ 0x28
    TIMx->RCR = Structure->RepetitionCounter;
 8003c50:	bf08      	it	eq
 8003c52:	6313      	streq	r3, [r2, #48]	@ 0x30
 8003c54:	e7c7      	b.n	8003be6 <HAL_TIM_Base_Init+0x5a>
    tmpcr1 |= Structure->CounterMode;
 8003c56:	68a6      	ldr	r6, [r4, #8]
    tmpcr1 &= ~(TIM_CR1_DIR | TIM_CR1_CMS);
 8003c58:	f023 0370 	bic.w	r3, r3, #112	@ 0x70
    tmpcr1 |= Structure->CounterMode;
 8003c5c:	4333      	orrs	r3, r6
    tmpcr1 |= (uint32_t)Structure->ClockDivision;
 8003c5e:	6926      	ldr	r6, [r4, #16]
    tmpcr1 &= ~TIM_CR1_CKD;
 8003c60:	f423 7340 	bic.w	r3, r3, #768	@ 0x300
    tmpcr1 |= (uint32_t)Structure->ClockDivision;
 8003c64:	4333      	orrs	r3, r6
 8003c66:	e7b8      	b.n	8003bda <HAL_TIM_Base_Init+0x4e>
    htim->Lock = HAL_UNLOCKED;
 8003c68:	f880 203c 	strb.w	r2, [r0, #60]	@ 0x3c
    HAL_TIM_Base_MspInit(htim);
 8003c6c:	f7fd f86e 	bl	8000d4c <HAL_TIM_Base_MspInit>
 8003c70:	e796      	b.n	8003ba0 <HAL_TIM_Base_Init+0x14>
    return HAL_ERROR;
 8003c72:	2001      	movs	r0, #1
}
 8003c74:	4770      	bx	lr
 8003c76:	bf00      	nop

08003c78 <HAL_TIM_Base_Start_IT>:
  if (htim->State != HAL_TIM_STATE_READY)
 8003c78:	f890 303d 	ldrb.w	r3, [r0, #61]	@ 0x3d
 8003c7c:	2b01      	cmp	r3, #1
 8003c7e:	d127      	bne.n	8003cd0 <HAL_TIM_Base_Start_IT+0x58>
  htim->State = HAL_TIM_STATE_BUSY;
 8003c80:	2202      	movs	r2, #2
  if (IS_TIM_SLAVE_INSTANCE(htim->Instance))
 8003c82:	f44f 5130 	mov.w	r1, #11264	@ 0x2c00
  __HAL_TIM_ENABLE_IT(htim, TIM_IT_UPDATE);
 8003c86:	6803      	ldr	r3, [r0, #0]
  htim->State = HAL_TIM_STATE_BUSY;
 8003c88:	f880 203d 	strb.w	r2, [r0, #61]	@ 0x3d
  __HAL_TIM_ENABLE_IT(htim, TIM_IT_UPDATE);
 8003c8c:	68da      	ldr	r2, [r3, #12]
  if (IS_TIM_SLAVE_INSTANCE(htim->Instance))
 8003c8e:	f2c4 0101 	movt	r1, #16385	@ 0x4001
  __HAL_TIM_ENABLE_IT(htim, TIM_IT_UPDATE);
 8003c92:	f042 0201 	orr.w	r2, r2, #1
  if (IS_TIM_SLAVE_INSTANCE(htim->Instance))
 8003c96:	428b      	cmp	r3, r1
  __HAL_TIM_ENABLE_IT(htim, TIM_IT_UPDATE);
 8003c98:	60da      	str	r2, [r3, #12]
  if (IS_TIM_SLAVE_INSTANCE(htim->Instance))
 8003c9a:	d00e      	beq.n	8003cba <HAL_TIM_Base_Start_IT+0x42>
 8003c9c:	f1b3 4f80 	cmp.w	r3, #1073741824	@ 0x40000000
 8003ca0:	d00b      	beq.n	8003cba <HAL_TIM_Base_Start_IT+0x42>
 8003ca2:	f44f 6280 	mov.w	r2, #1024	@ 0x400
 8003ca6:	f2c4 0200 	movt	r2, #16384	@ 0x4000
 8003caa:	4293      	cmp	r3, r2
 8003cac:	d005      	beq.n	8003cba <HAL_TIM_Base_Start_IT+0x42>
 8003cae:	f44f 6200 	mov.w	r2, #2048	@ 0x800
 8003cb2:	f2c4 0200 	movt	r2, #16384	@ 0x4000
 8003cb6:	4293      	cmp	r3, r2
 8003cb8:	d104      	bne.n	8003cc4 <HAL_TIM_Base_Start_IT+0x4c>
    tmpsmcr = htim->Instance->SMCR & TIM_SMCR_SMS;
 8003cba:	689a      	ldr	r2, [r3, #8]
 8003cbc:	f002 0207 	and.w	r2, r2, #7
    if (!IS_TIM_SLAVEMODE_TRIGGER_ENABLED(tmpsmcr))
 8003cc0:	2a06      	cmp	r2, #6
 8003cc2:	d003      	beq.n	8003ccc <HAL_TIM_Base_Start_IT+0x54>
      __HAL_TIM_ENABLE(htim);
 8003cc4:	681a      	ldr	r2, [r3, #0]
 8003cc6:	f042 0201 	orr.w	r2, r2, #1
 8003cca:	601a      	str	r2, [r3, #0]
  return HAL_OK;
 8003ccc:	2000      	movs	r0, #0
 8003cce:	4770      	bx	lr
    return HAL_ERROR;
 8003cd0:	2001      	movs	r0, #1
}
 8003cd2:	4770      	bx	lr

08003cd4 <HAL_TIM_Base_Stop_IT>:
  __HAL_TIM_DISABLE(htim);
 8003cd4:	f241 1c11 	movw	ip, #4369	@ 0x1111
  __HAL_TIM_DISABLE_IT(htim, TIM_IT_UPDATE);
 8003cd8:	6802      	ldr	r2, [r0, #0]
{
 8003cda:	4603      	mov	r3, r0
  __HAL_TIM_DISABLE_IT(htim, TIM_IT_UPDATE);
 8003cdc:	68d1      	ldr	r1, [r2, #12]
 8003cde:	f021 0101 	bic.w	r1, r1, #1
 8003ce2:	60d1      	str	r1, [r2, #12]
  __HAL_TIM_DISABLE(htim);
 8003ce4:	6a11      	ldr	r1, [r2, #32]
 8003ce6:	ea11 0f0c 	tst.w	r1, ip
 8003cea:	d108      	bne.n	8003cfe <HAL_TIM_Base_Stop_IT+0x2a>
 8003cec:	f240 4144 	movw	r1, #1092	@ 0x444
 8003cf0:	6a10      	ldr	r0, [r2, #32]
 8003cf2:	4208      	tst	r0, r1
 8003cf4:	d103      	bne.n	8003cfe <HAL_TIM_Base_Stop_IT+0x2a>
 8003cf6:	6811      	ldr	r1, [r2, #0]
 8003cf8:	f021 0101 	bic.w	r1, r1, #1
 8003cfc:	6011      	str	r1, [r2, #0]
  htim->State = HAL_TIM_STATE_READY;
 8003cfe:	2201      	movs	r2, #1
}
 8003d00:	2000      	movs	r0, #0
  htim->State = HAL_TIM_STATE_READY;
 8003d02:	f883 203d 	strb.w	r2, [r3, #61]	@ 0x3d
}
 8003d06:	4770      	bx	lr

08003d08 <HAL_TIM_ConfigClockSource>:
  __HAL_LOCK(htim);
 8003d08:	f890 203c 	ldrb.w	r2, [r0, #60]	@ 0x3c
 8003d0c:	2a01      	cmp	r2, #1
 8003d0e:	d06e      	beq.n	8003dee <HAL_TIM_ConfigClockSource+0xe6>
 8003d10:	4603      	mov	r3, r0
{
 8003d12:	b430      	push	{r4, r5}
  __HAL_LOCK(htim);
 8003d14:	2001      	movs	r0, #1
  htim->State = HAL_TIM_STATE_BUSY;
 8003d16:	2402      	movs	r4, #2
  tmpsmcr = htim->Instance->SMCR;
 8003d18:	681a      	ldr	r2, [r3, #0]
  __HAL_LOCK(htim);
 8003d1a:	f883 003c 	strb.w	r0, [r3, #60]	@ 0x3c
  htim->State = HAL_TIM_STATE_BUSY;
 8003d1e:	f883 403d 	strb.w	r4, [r3, #61]	@ 0x3d
  tmpsmcr = htim->Instance->SMCR;
 8003d22:	6894      	ldr	r4, [r2, #8]
  tmpsmcr &= ~(TIM_SMCR_ETF | TIM_SMCR_ETPS | TIM_SMCR_ECE | TIM_SMCR_ETP);
 8003d24:	f424 447f 	bic.w	r4, r4, #65280	@ 0xff00
 8003d28:	f024 0477 	bic.w	r4, r4, #119	@ 0x77
  htim->Instance->SMCR = tmpsmcr;
 8003d2c:	6094      	str	r4, [r2, #8]
  switch (sClockSourceConfig->ClockSource)
 8003d2e:	680c      	ldr	r4, [r1, #0]
 8003d30:	2c60      	cmp	r4, #96	@ 0x60
 8003d32:	d076      	beq.n	8003e22 <HAL_TIM_ConfigClockSource+0x11a>
 8003d34:	d811      	bhi.n	8003d5a <HAL_TIM_ConfigClockSource+0x52>
 8003d36:	2c40      	cmp	r4, #64	@ 0x40
 8003d38:	d05b      	beq.n	8003df2 <HAL_TIM_ConfigClockSource+0xea>
 8003d3a:	d82e      	bhi.n	8003d9a <HAL_TIM_ConfigClockSource+0x92>
 8003d3c:	2c20      	cmp	r4, #32
 8003d3e:	d004      	beq.n	8003d4a <HAL_TIM_ConfigClockSource+0x42>
 8003d40:	f200 8088 	bhi.w	8003e54 <HAL_TIM_ConfigClockSource+0x14c>
 8003d44:	f034 0110 	bics.w	r1, r4, #16
 8003d48:	d11f      	bne.n	8003d8a <HAL_TIM_ConfigClockSource+0x82>
static void TIM_ITRx_SetConfig(TIM_TypeDef *TIMx, uint32_t InputTriggerSource)
{
  uint32_t tmpsmcr;

  /* Get the TIMx SMCR register value */
  tmpsmcr = TIMx->SMCR;
 8003d4a:	6891      	ldr	r1, [r2, #8]
  /* Reset the TS Bits */
  tmpsmcr &= ~TIM_SMCR_TS;
 8003d4c:	f021 0170 	bic.w	r1, r1, #112	@ 0x70
  /* Set the Input Trigger source and the slave mode*/
  tmpsmcr |= (InputTriggerSource | TIM_SLAVEMODE_EXTERNAL1);
 8003d50:	4321      	orrs	r1, r4
 8003d52:	f041 0107 	orr.w	r1, r1, #7
  /* Write to TIMx SMCR */
  TIMx->SMCR = tmpsmcr;
 8003d56:	6091      	str	r1, [r2, #8]
}
 8003d58:	e016      	b.n	8003d88 <HAL_TIM_ConfigClockSource+0x80>
  switch (sClockSourceConfig->ClockSource)
 8003d5a:	f5b4 5f80 	cmp.w	r4, #4096	@ 0x1000
 8003d5e:	d013      	beq.n	8003d88 <HAL_TIM_ConfigClockSource+0x80>
 8003d60:	f5b4 5f00 	cmp.w	r4, #8192	@ 0x2000
 8003d64:	d033      	beq.n	8003dce <HAL_TIM_ConfigClockSource+0xc6>
 8003d66:	2c70      	cmp	r4, #112	@ 0x70
 8003d68:	d10f      	bne.n	8003d8a <HAL_TIM_ConfigClockSource+0x82>

  /* Reset the ETR Bits */
  tmpsmcr &= ~(TIM_SMCR_ETF | TIM_SMCR_ETPS | TIM_SMCR_ECE | TIM_SMCR_ETP);

  /* Set the Prescaler, the Filter value and the Polarity */
  tmpsmcr |= (uint32_t)(TIM_ExtTRGPrescaler | (TIM_ExtTRGPolarity | (ExtTRGFilter << 8U)));
 8003d6a:	e9d1 5001 	ldrd	r5, r0, [r1, #4]
  tmpsmcr = TIMx->SMCR;
 8003d6e:	6894      	ldr	r4, [r2, #8]
  tmpsmcr |= (uint32_t)(TIM_ExtTRGPrescaler | (TIM_ExtTRGPolarity | (ExtTRGFilter << 8U)));
 8003d70:	4328      	orrs	r0, r5
 8003d72:	68cd      	ldr	r5, [r1, #12]
  tmpsmcr &= ~(TIM_SMCR_ETF | TIM_SMCR_ETPS | TIM_SMCR_ECE | TIM_SMCR_ETP);
 8003d74:	f424 417f 	bic.w	r1, r4, #65280	@ 0xff00
  tmpsmcr |= (uint32_t)(TIM_ExtTRGPrescaler | (TIM_ExtTRGPolarity | (ExtTRGFilter << 8U)));
 8003d78:	ea40 2005 	orr.w	r0, r0, r5, lsl #8
 8003d7c:	4308      	orrs	r0, r1

  /* Write to TIMx SMCR */
  TIMx->SMCR = tmpsmcr;
 8003d7e:	6090      	str	r0, [r2, #8]
      tmpsmcr = htim->Instance->SMCR;
 8003d80:	6891      	ldr	r1, [r2, #8]
      tmpsmcr |= (TIM_SLAVEMODE_EXTERNAL1 | TIM_CLOCKSOURCE_ETRMODE1);
 8003d82:	f041 0177 	orr.w	r1, r1, #119	@ 0x77
      htim->Instance->SMCR = tmpsmcr;
 8003d86:	6091      	str	r1, [r2, #8]
  HAL_StatusTypeDef status = HAL_OK;
 8003d88:	2000      	movs	r0, #0
  htim->State = HAL_TIM_STATE_READY;
 8003d8a:	2101      	movs	r1, #1
  __HAL_UNLOCK(htim);
 8003d8c:	2200      	movs	r2, #0
  htim->State = HAL_TIM_STATE_READY;
 8003d8e:	f883 103d 	strb.w	r1, [r3, #61]	@ 0x3d
  __HAL_UNLOCK(htim);
 8003d92:	f883 203c 	strb.w	r2, [r3, #60]	@ 0x3c
}
 8003d96:	bc30      	pop	{r4, r5}
 8003d98:	4770      	bx	lr
  switch (sClockSourceConfig->ClockSource)
 8003d9a:	2c50      	cmp	r4, #80	@ 0x50
 8003d9c:	d1f5      	bne.n	8003d8a <HAL_TIM_ConfigClockSource+0x82>
                               sClockSourceConfig->ClockPolarity,
 8003d9e:	6848      	ldr	r0, [r1, #4]
                               sClockSourceConfig->ClockFilter);
 8003da0:	68cc      	ldr	r4, [r1, #12]
  tmpccer = TIMx->CCER;
 8003da2:	6a11      	ldr	r1, [r2, #32]
  tmpccer &= ~(TIM_CCER_CC1P | TIM_CCER_CC1NP);
 8003da4:	f021 010a 	bic.w	r1, r1, #10
  tmpccer |= TIM_ICPolarity;
 8003da8:	4308      	orrs	r0, r1
  TIMx->CCER &= ~TIM_CCER_CC1E;
 8003daa:	6a11      	ldr	r1, [r2, #32]
 8003dac:	f021 0101 	bic.w	r1, r1, #1
 8003db0:	6211      	str	r1, [r2, #32]
  tmpccmr1 = TIMx->CCMR1;
 8003db2:	6991      	ldr	r1, [r2, #24]
  tmpccmr1 &= ~TIM_CCMR1_IC1F;
 8003db4:	f021 01f0 	bic.w	r1, r1, #240	@ 0xf0
  tmpccmr1 |= (TIM_ICFilter << 4U);
 8003db8:	ea41 1104 	orr.w	r1, r1, r4, lsl #4
  TIMx->CCMR1 = tmpccmr1;
 8003dbc:	6191      	str	r1, [r2, #24]
  TIMx->CCER = tmpccer;
 8003dbe:	6210      	str	r0, [r2, #32]
  tmpsmcr = TIMx->SMCR;
 8003dc0:	6891      	ldr	r1, [r2, #8]
  tmpsmcr &= ~TIM_SMCR_TS;
 8003dc2:	f021 0170 	bic.w	r1, r1, #112	@ 0x70
  tmpsmcr |= (InputTriggerSource | TIM_SLAVEMODE_EXTERNAL1);
 8003dc6:	f041 0157 	orr.w	r1, r1, #87	@ 0x57
  TIMx->SMCR = tmpsmcr;
 8003dca:	6091      	str	r1, [r2, #8]
}
 8003dcc:	e7dc      	b.n	8003d88 <HAL_TIM_ConfigClockSource+0x80>
  tmpsmcr |= (uint32_t)(TIM_ExtTRGPrescaler | (TIM_ExtTRGPolarity | (ExtTRGFilter << 8U)));
 8003dce:	e9d1 5001 	ldrd	r5, r0, [r1, #4]
  tmpsmcr = TIMx->SMCR;
 8003dd2:	6894      	ldr	r4, [r2, #8]
  tmpsmcr |= (uint32_t)(TIM_ExtTRGPrescaler | (TIM_ExtTRGPolarity | (ExtTRGFilter << 8U)));
 8003dd4:	4328      	orrs	r0, r5
 8003dd6:	68cd      	ldr	r5, [r1, #12]
  tmpsmcr &= ~(TIM_SMCR_ETF | TIM_SMCR_ETPS | TIM_SMCR_ECE | TIM_SMCR_ETP);
 8003dd8:	f424 417f 	bic.w	r1, r4, #65280	@ 0xff00
  tmpsmcr |= (uint32_t)(TIM_ExtTRGPrescaler | (TIM_ExtTRGPolarity | (ExtTRGFilter << 8U)));
 8003ddc:	ea40 2005 	orr.w	r0, r0, r5, lsl #8
 8003de0:	4308      	orrs	r0, r1
  TIMx->SMCR = tmpsmcr;
 8003de2:	6090      	str	r0, [r2, #8]
      htim->Instance->SMCR |= TIM_SMCR_ECE;
 8003de4:	6891      	ldr	r1, [r2, #8]
 8003de6:	f441 4180 	orr.w	r1, r1, #16384	@ 0x4000
 8003dea:	6091      	str	r1, [r2, #8]
      break;
 8003dec:	e7cc      	b.n	8003d88 <HAL_TIM_ConfigClockSource+0x80>
  __HAL_LOCK(htim);
 8003dee:	2002      	movs	r0, #2
}
 8003df0:	4770      	bx	lr
                               sClockSourceConfig->ClockPolarity,
 8003df2:	6848      	ldr	r0, [r1, #4]
                               sClockSourceConfig->ClockFilter);
 8003df4:	68cc      	ldr	r4, [r1, #12]
  tmpccer = TIMx->CCER;
 8003df6:	6a11      	ldr	r1, [r2, #32]
  tmpccer &= ~(TIM_CCER_CC1P | TIM_CCER_CC1NP);
 8003df8:	f021 010a 	bic.w	r1, r1, #10
  tmpccer |= TIM_ICPolarity;
 8003dfc:	4308      	orrs	r0, r1
  TIMx->CCER &= ~TIM_CCER_CC1E;
 8003dfe:	6a11      	ldr	r1, [r2, #32]
 8003e00:	f021 0101 	bic.w	r1, r1, #1
 8003e04:	6211      	str	r1, [r2, #32]
  tmpccmr1 = TIMx->CCMR1;
 8003e06:	6991      	ldr	r1, [r2, #24]
  tmpccmr1 &= ~TIM_CCMR1_IC1F;
 8003e08:	f021 01f0 	bic.w	r1, r1, #240	@ 0xf0
  tmpccmr1 |= (TIM_ICFilter << 4U);
 8003e0c:	ea41 1104 	orr.w	r1, r1, r4, lsl #4
  TIMx->CCMR1 = tmpccmr1;
 8003e10:	6191      	str	r1, [r2, #24]
  TIMx->CCER = tmpccer;
 8003e12:	6210      	str	r0, [r2, #32]
  tmpsmcr = TIMx->SMCR;
 8003e14:	6891      	ldr	r1, [r2, #8]
  tmpsmcr &= ~TIM_SMCR_TS;
 8003e16:	f021 0170 	bic.w	r1, r1, #112	@ 0x70
  tmpsmcr |= (InputTriggerSource | TIM_SLAVEMODE_EXTERNAL1);
 8003e1a:	f041 0147 	orr.w	r1, r1, #71	@ 0x47
  TIMx->SMCR = tmpsmcr;
 8003e1e:	6091      	str	r1, [r2, #8]
}
 8003e20:	e7b2      	b.n	8003d88 <HAL_TIM_ConfigClockSource+0x80>
                               sClockSourceConfig->ClockPolarity,
 8003e22:	6848      	ldr	r0, [r1, #4]
                               sClockSourceConfig->ClockFilter);
 8003e24:	68cc      	ldr	r4, [r1, #12]
  tmpccer = TIMx->CCER;
 8003e26:	6a11      	ldr	r1, [r2, #32]
  tmpccer &= ~(TIM_CCER_CC2P | TIM_CCER_CC2NP);
 8003e28:	f021 01a0 	bic.w	r1, r1, #160	@ 0xa0
  tmpccer |= (TIM_ICPolarity << 4U);
 8003e2c:	ea41 1100 	orr.w	r1, r1, r0, lsl #4
  TIMx->CCER &= ~TIM_CCER_CC2E;
 8003e30:	6a10      	ldr	r0, [r2, #32]
 8003e32:	f020 0010 	bic.w	r0, r0, #16
 8003e36:	6210      	str	r0, [r2, #32]
  tmpccmr1 = TIMx->CCMR1;
 8003e38:	6990      	ldr	r0, [r2, #24]
  tmpccmr1 &= ~TIM_CCMR1_IC2F;
 8003e3a:	f420 4070 	bic.w	r0, r0, #61440	@ 0xf000
  tmpccmr1 |= (TIM_ICFilter << 12U);
 8003e3e:	ea40 3004 	orr.w	r0, r0, r4, lsl #12
  TIMx->CCMR1 = tmpccmr1 ;
 8003e42:	6190      	str	r0, [r2, #24]
  TIMx->CCER = tmpccer;
 8003e44:	6211      	str	r1, [r2, #32]
  tmpsmcr = TIMx->SMCR;
 8003e46:	6891      	ldr	r1, [r2, #8]
  tmpsmcr &= ~TIM_SMCR_TS;
 8003e48:	f021 0170 	bic.w	r1, r1, #112	@ 0x70
  tmpsmcr |= (InputTriggerSource | TIM_SLAVEMODE_EXTERNAL1);
 8003e4c:	f041 0167 	orr.w	r1, r1, #103	@ 0x67
  TIMx->SMCR = tmpsmcr;
 8003e50:	6091      	str	r1, [r2, #8]
}
 8003e52:	e799      	b.n	8003d88 <HAL_TIM_ConfigClockSource+0x80>
  switch (sClockSourceConfig->ClockSource)
 8003e54:	2c30      	cmp	r4, #48	@ 0x30
 8003e56:	f43f af78 	beq.w	8003d4a <HAL_TIM_ConfigClockSource+0x42>
 8003e5a:	e796      	b.n	8003d8a <HAL_TIM_ConfigClockSource+0x82>

08003e5c <HAL_TIM_OC_DelayElapsedCallback>:
__weak void HAL_TIM_OC_DelayElapsedCallback(TIM_HandleTypeDef *htim)
 8003e5c:	4770      	bx	lr
 8003e5e:	bf00      	nop

08003e60 <HAL_TIM_IC_CaptureCallback>:
__weak void HAL_TIM_IC_CaptureCallback(TIM_HandleTypeDef *htim)
 8003e60:	4770      	bx	lr
 8003e62:	bf00      	nop

08003e64 <HAL_TIM_PWM_PulseFinishedCallback>:
__weak void HAL_TIM_PWM_PulseFinishedCallback(TIM_HandleTypeDef *htim)
 8003e64:	4770      	bx	lr
 8003e66:	bf00      	nop

08003e68 <HAL_TIM_TriggerCallback>:
__weak void HAL_TIM_TriggerCallback(TIM_HandleTypeDef *htim)
 8003e68:	4770      	bx	lr
 8003e6a:	bf00      	nop

08003e6c <HAL_TIM_IRQHandler>:
  uint32_t itsource = htim->Instance->DIER;
 8003e6c:	6803      	ldr	r3, [r0, #0]
{
 8003e6e:	b570      	push	{r4, r5, r6, lr}
  uint32_t itsource = htim->Instance->DIER;
 8003e70:	68de      	ldr	r6, [r3, #12]
  uint32_t itflag   = htim->Instance->SR;
 8003e72:	691d      	ldr	r5, [r3, #16]
{
 8003e74:	4604      	mov	r4, r0
  if ((itflag & (TIM_FLAG_CC1)) == (TIM_FLAG_CC1))
 8003e76:	07a9      	lsls	r1, r5, #30
 8003e78:	d501      	bpl.n	8003e7e <HAL_TIM_IRQHandler+0x12>
    if ((itsource & (TIM_IT_CC1)) == (TIM_IT_CC1))
 8003e7a:	07b2      	lsls	r2, r6, #30
 8003e7c:	d451      	bmi.n	8003f22 <HAL_TIM_IRQHandler+0xb6>
  if ((itflag & (TIM_FLAG_CC2)) == (TIM_FLAG_CC2))
 8003e7e:	0769      	lsls	r1, r5, #29
 8003e80:	d501      	bpl.n	8003e86 <HAL_TIM_IRQHandler+0x1a>
    if ((itsource & (TIM_IT_CC2)) == (TIM_IT_CC2))
 8003e82:	0772      	lsls	r2, r6, #29
 8003e84:	d43a      	bmi.n	8003efc <HAL_TIM_IRQHandler+0x90>
  if ((itflag & (TIM_FLAG_CC3)) == (TIM_FLAG_CC3))
 8003e86:	072b      	lsls	r3, r5, #28
 8003e88:	d501      	bpl.n	8003e8e <HAL_TIM_IRQHandler+0x22>
    if ((itsource & (TIM_IT_CC3)) == (TIM_IT_CC3))
 8003e8a:	0730      	lsls	r0, r6, #28
 8003e8c:	d424      	bmi.n	8003ed8 <HAL_TIM_IRQHandler+0x6c>
  if ((itflag & (TIM_FLAG_CC4)) == (TIM_FLAG_CC4))
 8003e8e:	06ea      	lsls	r2, r5, #27
 8003e90:	d501      	bpl.n	8003e96 <HAL_TIM_IRQHandler+0x2a>
    if ((itsource & (TIM_IT_CC4)) == (TIM_IT_CC4))
 8003e92:	06f3      	lsls	r3, r6, #27
 8003e94:	d410      	bmi.n	8003eb8 <HAL_TIM_IRQHandler+0x4c>
  if ((itflag & (TIM_FLAG_UPDATE)) == (TIM_FLAG_UPDATE))
 8003e96:	07e8      	lsls	r0, r5, #31
 8003e98:	d501      	bpl.n	8003e9e <HAL_TIM_IRQHandler+0x32>
    if ((itsource & (TIM_IT_UPDATE)) == (TIM_IT_UPDATE))
 8003e9a:	07f1      	lsls	r1, r6, #31
 8003e9c:	d457      	bmi.n	8003f4e <HAL_TIM_IRQHandler+0xe2>
  if ((itflag & (TIM_FLAG_BREAK)) == (TIM_FLAG_BREAK))
 8003e9e:	062a      	lsls	r2, r5, #24
 8003ea0:	d501      	bpl.n	8003ea6 <HAL_TIM_IRQHandler+0x3a>
    if ((itsource & (TIM_IT_BREAK)) == (TIM_IT_BREAK))
 8003ea2:	0633      	lsls	r3, r6, #24
 8003ea4:	d45b      	bmi.n	8003f5e <HAL_TIM_IRQHandler+0xf2>
  if ((itflag & (TIM_FLAG_TRIGGER)) == (TIM_FLAG_TRIGGER))
 8003ea6:	0668      	lsls	r0, r5, #25
 8003ea8:	d501      	bpl.n	8003eae <HAL_TIM_IRQHandler+0x42>
    if ((itsource & (TIM_IT_TRIGGER)) == (TIM_IT_TRIGGER))
 8003eaa:	0671      	lsls	r1, r6, #25
 8003eac:	d45f      	bmi.n	8003f6e <HAL_TIM_IRQHandler+0x102>
  if ((itflag & (TIM_FLAG_COM)) == (TIM_FLAG_COM))
 8003eae:	06aa      	lsls	r2, r5, #26
 8003eb0:	d501      	bpl.n	8003eb6 <HAL_TIM_IRQHandler+0x4a>
    if ((itsource & (TIM_IT_COM)) == (TIM_IT_COM))
 8003eb2:	06b3      	lsls	r3, r6, #26
 8003eb4:	d442      	bmi.n	8003f3c <HAL_TIM_IRQHandler+0xd0>
}
 8003eb6:	bd70      	pop	{r4, r5, r6, pc}
      __HAL_TIM_CLEAR_FLAG(htim, TIM_FLAG_CC4);
 8003eb8:	f06f 0110 	mvn.w	r1, #16
      htim->Channel = HAL_TIM_ACTIVE_CHANNEL_4;
 8003ebc:	2208      	movs	r2, #8
      __HAL_TIM_CLEAR_FLAG(htim, TIM_FLAG_CC4);
 8003ebe:	6823      	ldr	r3, [r4, #0]
        HAL_TIM_IC_CaptureCallback(htim);
 8003ec0:	4620      	mov	r0, r4
      __HAL_TIM_CLEAR_FLAG(htim, TIM_FLAG_CC4);
 8003ec2:	6119      	str	r1, [r3, #16]
      htim->Channel = HAL_TIM_ACTIVE_CHANNEL_4;
 8003ec4:	7722      	strb	r2, [r4, #28]
      if ((htim->Instance->CCMR2 & TIM_CCMR2_CC4S) != 0x00U)
 8003ec6:	69db      	ldr	r3, [r3, #28]
 8003ec8:	f413 7f40 	tst.w	r3, #768	@ 0x300
 8003ecc:	d063      	beq.n	8003f96 <HAL_TIM_IRQHandler+0x12a>
        HAL_TIM_IC_CaptureCallback(htim);
 8003ece:	f7ff ffc7 	bl	8003e60 <HAL_TIM_IC_CaptureCallback>
      htim->Channel = HAL_TIM_ACTIVE_CHANNEL_CLEARED;
 8003ed2:	2300      	movs	r3, #0
 8003ed4:	7723      	strb	r3, [r4, #28]
 8003ed6:	e7de      	b.n	8003e96 <HAL_TIM_IRQHandler+0x2a>
      __HAL_TIM_CLEAR_FLAG(htim, TIM_FLAG_CC3);
 8003ed8:	f06f 0108 	mvn.w	r1, #8
      htim->Channel = HAL_TIM_ACTIVE_CHANNEL_3;
 8003edc:	2204      	movs	r2, #4
      __HAL_TIM_CLEAR_FLAG(htim, TIM_FLAG_CC3);
 8003ede:	6823      	ldr	r3, [r4, #0]
        HAL_TIM_IC_CaptureCallback(htim);
 8003ee0:	4620      	mov	r0, r4
      __HAL_TIM_CLEAR_FLAG(htim, TIM_FLAG_CC3);
 8003ee2:	6119      	str	r1, [r3, #16]
      htim->Channel = HAL_TIM_ACTIVE_CHANNEL_3;
 8003ee4:	7722      	strb	r2, [r4, #28]
      if ((htim->Instance->CCMR2 & TIM_CCMR2_CC3S) != 0x00U)
 8003ee6:	69db      	ldr	r3, [r3, #28]
 8003ee8:	0799      	lsls	r1, r3, #30
 8003eea:	d151      	bne.n	8003f90 <HAL_TIM_IRQHandler+0x124>
        HAL_TIM_OC_DelayElapsedCallback(htim);
 8003eec:	f7ff ffb6 	bl	8003e5c <HAL_TIM_OC_DelayElapsedCallback>
        HAL_TIM_PWM_PulseFinishedCallback(htim);
 8003ef0:	4620      	mov	r0, r4
 8003ef2:	f7ff ffb7 	bl	8003e64 <HAL_TIM_PWM_PulseFinishedCallback>
      htim->Channel = HAL_TIM_ACTIVE_CHANNEL_CLEARED;
 8003ef6:	2300      	movs	r3, #0
 8003ef8:	7723      	strb	r3, [r4, #28]
 8003efa:	e7c8      	b.n	8003e8e <HAL_TIM_IRQHandler+0x22>
      __HAL_TIM_CLEAR_FLAG(htim, TIM_FLAG_CC2);
 8003efc:	f06f 0104 	mvn.w	r1, #4
      htim->Channel = HAL_TIM_ACTIVE_CHANNEL_2;
 8003f00:	2202      	movs	r2, #2
      __HAL_TIM_CLEAR_FLAG(htim, TIM_FLAG_CC2);
 8003f02:	6823      	ldr	r3, [r4, #0]
        HAL_TIM_IC_CaptureCallback(htim);
 8003f04:	4620      	mov	r0, r4
      __HAL_TIM_CLEAR_FLAG(htim, TIM_FLAG_CC2);
 8003f06:	6119      	str	r1, [r3, #16]
      htim->Channel = HAL_TIM_ACTIVE_CHANNEL_2;
 8003f08:	7722      	strb	r2, [r4, #28]
      if ((htim->Instance->CCMR1 & TIM_CCMR1_CC2S) != 0x00U)
 8003f0a:	699b      	ldr	r3, [r3, #24]
 8003f0c:	f413 7f40 	tst.w	r3, #768	@ 0x300
 8003f10:	d13b      	bne.n	8003f8a <HAL_TIM_IRQHandler+0x11e>
        HAL_TIM_OC_DelayElapsedCallback(htim);
 8003f12:	f7ff ffa3 	bl	8003e5c <HAL_TIM_OC_DelayElapsedCallback>
        HAL_TIM_PWM_PulseFinishedCallback(htim);
 8003f16:	4620      	mov	r0, r4
 8003f18:	f7ff ffa4 	bl	8003e64 <HAL_TIM_PWM_PulseFinishedCallback>
      htim->Channel = HAL_TIM_ACTIVE_CHANNEL_CLEARED;
 8003f1c:	2300      	movs	r3, #0
 8003f1e:	7723      	strb	r3, [r4, #28]
 8003f20:	e7b1      	b.n	8003e86 <HAL_TIM_IRQHandler+0x1a>
        __HAL_TIM_CLEAR_FLAG(htim, TIM_FLAG_CC1);
 8003f22:	f06f 0202 	mvn.w	r2, #2
 8003f26:	611a      	str	r2, [r3, #16]
        htim->Channel = HAL_TIM_ACTIVE_CHANNEL_1;
 8003f28:	2201      	movs	r2, #1
 8003f2a:	7702      	strb	r2, [r0, #28]
        if ((htim->Instance->CCMR1 & TIM_CCMR1_CC1S) != 0x00U)
 8003f2c:	699b      	ldr	r3, [r3, #24]
 8003f2e:	079b      	lsls	r3, r3, #30
 8003f30:	d025      	beq.n	8003f7e <HAL_TIM_IRQHandler+0x112>
          HAL_TIM_IC_CaptureCallback(htim);
 8003f32:	f7ff ff95 	bl	8003e60 <HAL_TIM_IC_CaptureCallback>
        htim->Channel = HAL_TIM_ACTIVE_CHANNEL_CLEARED;
 8003f36:	2300      	movs	r3, #0
 8003f38:	7723      	strb	r3, [r4, #28]
 8003f3a:	e7a0      	b.n	8003e7e <HAL_TIM_IRQHandler+0x12>
      __HAL_TIM_CLEAR_FLAG(htim, TIM_FLAG_COM);
 8003f3c:	f06f 0220 	mvn.w	r2, #32
 8003f40:	6823      	ldr	r3, [r4, #0]
      HAL_TIMEx_CommutCallback(htim);
 8003f42:	4620      	mov	r0, r4
}
 8003f44:	e8bd 4070 	ldmia.w	sp!, {r4, r5, r6, lr}
      __HAL_TIM_CLEAR_FLAG(htim, TIM_FLAG_COM);
 8003f48:	611a      	str	r2, [r3, #16]
      HAL_TIMEx_CommutCallback(htim);
 8003f4a:	f000 b861 	b.w	8004010 <HAL_TIMEx_CommutCallback>
      __HAL_TIM_CLEAR_FLAG(htim, TIM_FLAG_UPDATE);
 8003f4e:	f06f 0201 	mvn.w	r2, #1
 8003f52:	6823      	ldr	r3, [r4, #0]
      HAL_TIM_PeriodElapsedCallback(htim);
 8003f54:	4620      	mov	r0, r4
      __HAL_TIM_CLEAR_FLAG(htim, TIM_FLAG_UPDATE);
 8003f56:	611a      	str	r2, [r3, #16]
      HAL_TIM_PeriodElapsedCallback(htim);
 8003f58:	f002 f9f4 	bl	8006344 <HAL_TIM_PeriodElapsedCallback>
 8003f5c:	e79f      	b.n	8003e9e <HAL_TIM_IRQHandler+0x32>
      __HAL_TIM_CLEAR_FLAG(htim, TIM_FLAG_BREAK);
 8003f5e:	f06f 0280 	mvn.w	r2, #128	@ 0x80
 8003f62:	6823      	ldr	r3, [r4, #0]
      HAL_TIMEx_BreakCallback(htim);
 8003f64:	4620      	mov	r0, r4
      __HAL_TIM_CLEAR_FLAG(htim, TIM_FLAG_BREAK);
 8003f66:	611a      	str	r2, [r3, #16]
      HAL_TIMEx_BreakCallback(htim);
 8003f68:	f000 f854 	bl	8004014 <HAL_TIMEx_BreakCallback>
 8003f6c:	e79b      	b.n	8003ea6 <HAL_TIM_IRQHandler+0x3a>
      __HAL_TIM_CLEAR_FLAG(htim, TIM_FLAG_TRIGGER);
 8003f6e:	f06f 0240 	mvn.w	r2, #64	@ 0x40
 8003f72:	6823      	ldr	r3, [r4, #0]
      HAL_TIM_TriggerCallback(htim);
 8003f74:	4620      	mov	r0, r4
      __HAL_TIM_CLEAR_FLAG(htim, TIM_FLAG_TRIGGER);
 8003f76:	611a      	str	r2, [r3, #16]
      HAL_TIM_TriggerCallback(htim);
 8003f78:	f7ff ff76 	bl	8003e68 <HAL_TIM_TriggerCallback>
 8003f7c:	e797      	b.n	8003eae <HAL_TIM_IRQHandler+0x42>
          HAL_TIM_OC_DelayElapsedCallback(htim);
 8003f7e:	f7ff ff6d 	bl	8003e5c <HAL_TIM_OC_DelayElapsedCallback>
          HAL_TIM_PWM_PulseFinishedCallback(htim);
 8003f82:	4620      	mov	r0, r4
 8003f84:	f7ff ff6e 	bl	8003e64 <HAL_TIM_PWM_PulseFinishedCallback>
 8003f88:	e7d5      	b.n	8003f36 <HAL_TIM_IRQHandler+0xca>
        HAL_TIM_IC_CaptureCallback(htim);
 8003f8a:	f7ff ff69 	bl	8003e60 <HAL_TIM_IC_CaptureCallback>
 8003f8e:	e7c5      	b.n	8003f1c <HAL_TIM_IRQHandler+0xb0>
        HAL_TIM_IC_CaptureCallback(htim);
 8003f90:	f7ff ff66 	bl	8003e60 <HAL_TIM_IC_CaptureCallback>
 8003f94:	e7af      	b.n	8003ef6 <HAL_TIM_IRQHandler+0x8a>
        HAL_TIM_OC_DelayElapsedCallback(htim);
 8003f96:	f7ff ff61 	bl	8003e5c <HAL_TIM_OC_DelayElapsedCallback>
        HAL_TIM_PWM_PulseFinishedCallback(htim);
 8003f9a:	4620      	mov	r0, r4
 8003f9c:	f7ff ff62 	bl	8003e64 <HAL_TIM_PWM_PulseFinishedCallback>
 8003fa0:	e797      	b.n	8003ed2 <HAL_TIM_IRQHandler+0x66>
 8003fa2:	bf00      	nop

08003fa4 <HAL_TIMEx_MasterConfigSynchronization>:
  assert_param(IS_TIM_MASTER_INSTANCE(htim->Instance));
  assert_param(IS_TIM_TRGO_SOURCE(sMasterConfig->MasterOutputTrigger));
  assert_param(IS_TIM_MSM_STATE(sMasterConfig->MasterSlaveMode));

  /* Check input state */
  __HAL_LOCK(htim);
 8003fa4:	f890 203c 	ldrb.w	r2, [r0, #60]	@ 0x3c
 8003fa8:	2a01      	cmp	r2, #1
 8003faa:	d02f      	beq.n	800400c <HAL_TIMEx_MasterConfigSynchronization+0x68>
 8003fac:	4603      	mov	r3, r0

  /* Change the handler state */
  htim->State = HAL_TIM_STATE_BUSY;
 8003fae:	2002      	movs	r0, #2
  tmpcr2 |=  sMasterConfig->MasterOutputTrigger;

  /* Update TIMx CR2 */
  htim->Instance->CR2 = tmpcr2;

  if (IS_TIM_SLAVE_INSTANCE(htim->Instance))
 8003fb0:	f44f 5c30 	mov.w	ip, #11264	@ 0x2c00
  tmpcr2 = htim->Instance->CR2;
 8003fb4:	681a      	ldr	r2, [r3, #0]
{
 8003fb6:	b410      	push	{r4}
  htim->State = HAL_TIM_STATE_BUSY;
 8003fb8:	f883 003d 	strb.w	r0, [r3, #61]	@ 0x3d
  tmpcr2 = htim->Instance->CR2;
 8003fbc:	6850      	ldr	r0, [r2, #4]
  tmpcr2 |=  sMasterConfig->MasterOutputTrigger;
 8003fbe:	680c      	ldr	r4, [r1, #0]
  if (IS_TIM_SLAVE_INSTANCE(htim->Instance))
 8003fc0:	f2c4 0c01 	movt	ip, #16385	@ 0x4001
  tmpcr2 &= ~TIM_CR2_MMS;
 8003fc4:	f020 0070 	bic.w	r0, r0, #112	@ 0x70
  tmpcr2 |=  sMasterConfig->MasterOutputTrigger;
 8003fc8:	4320      	orrs	r0, r4
  if (IS_TIM_SLAVE_INSTANCE(htim->Instance))
 8003fca:	4562      	cmp	r2, ip
  tmpsmcr = htim->Instance->SMCR;
 8003fcc:	6894      	ldr	r4, [r2, #8]
  htim->Instance->CR2 = tmpcr2;
 8003fce:	6050      	str	r0, [r2, #4]
  if (IS_TIM_SLAVE_INSTANCE(htim->Instance))
 8003fd0:	d00e      	beq.n	8003ff0 <HAL_TIMEx_MasterConfigSynchronization+0x4c>
 8003fd2:	f1b2 4f80 	cmp.w	r2, #1073741824	@ 0x40000000
 8003fd6:	d00b      	beq.n	8003ff0 <HAL_TIMEx_MasterConfigSynchronization+0x4c>
 8003fd8:	f44f 6080 	mov.w	r0, #1024	@ 0x400
 8003fdc:	f2c4 0000 	movt	r0, #16384	@ 0x4000
 8003fe0:	4282      	cmp	r2, r0
 8003fe2:	d005      	beq.n	8003ff0 <HAL_TIMEx_MasterConfigSynchronization+0x4c>
 8003fe4:	f44f 6000 	mov.w	r0, #2048	@ 0x800
 8003fe8:	f2c4 0000 	movt	r0, #16384	@ 0x4000
 8003fec:	4282      	cmp	r2, r0
 8003fee:	d104      	bne.n	8003ffa <HAL_TIMEx_MasterConfigSynchronization+0x56>
  {
    /* Reset the MSM Bit */
    tmpsmcr &= ~TIM_SMCR_MSM;
    /* Set master mode */
    tmpsmcr |= sMasterConfig->MasterSlaveMode;
 8003ff0:	6849      	ldr	r1, [r1, #4]
    tmpsmcr &= ~TIM_SMCR_MSM;
 8003ff2:	f024 0480 	bic.w	r4, r4, #128	@ 0x80
    tmpsmcr |= sMasterConfig->MasterSlaveMode;
 8003ff6:	430c      	orrs	r4, r1

    /* Update TIMx SMCR */
    htim->Instance->SMCR = tmpsmcr;
 8003ff8:	6094      	str	r4, [r2, #8]
  }

  /* Change the htim state */
  htim->State = HAL_TIM_STATE_READY;

  __HAL_UNLOCK(htim);
 8003ffa:	2200      	movs	r2, #0
  htim->State = HAL_TIM_STATE_READY;
 8003ffc:	2101      	movs	r1, #1
  __HAL_UNLOCK(htim);
 8003ffe:	f883 203c 	strb.w	r2, [r3, #60]	@ 0x3c
  htim->State = HAL_TIM_STATE_READY;
 8004002:	f883 103d 	strb.w	r1, [r3, #61]	@ 0x3d

  return HAL_OK;
 8004006:	4610      	mov	r0, r2
}
 8004008:	bc10      	pop	{r4}
 800400a:	4770      	bx	lr
  __HAL_LOCK(htim);
 800400c:	2002      	movs	r0, #2
}
 800400e:	4770      	bx	lr

08004010 <HAL_TIMEx_CommutCallback>:
/**
  * @brief  Commutation callback in non-blocking mode
  * @param  htim TIM handle
  * @retval None
  */
__weak void HAL_TIMEx_CommutCallback(TIM_HandleTypeDef *htim)
 8004010:	4770      	bx	lr
 8004012:	bf00      	nop

08004014 <HAL_TIMEx_BreakCallback>:
/**
  * @brief  Break detection callback in non-blocking mode
  * @param  htim TIM handle
  * @retval None
  */
__weak void HAL_TIMEx_BreakCallback(TIM_HandleTypeDef *htim)
 8004014:	4770      	bx	lr
 8004016:	bf00      	nop

08004018 <USB_CoreInit>:
  * @param  cfg pointer to a USB_CfgTypeDef structure that contains
  *         the configuration information for the specified USBx peripheral.
  * @retval HAL status
  */
HAL_StatusTypeDef USB_CoreInit(USB_TypeDef *USBx, USB_CfgTypeDef cfg)
{
 8004018:	b084      	sub	sp, #16
 800401a:	a804      	add	r0, sp, #16
 800401c:	e900 000e 	stmdb	r0, {r1, r2, r3}
              only by USB OTG FS peripheral.
            - This function is added to ensure compatibility across platforms.
   */

  return HAL_OK;
}
 8004020:	2000      	movs	r0, #0
 8004022:	b004      	add	sp, #16
 8004024:	4770      	bx	lr
 8004026:	bf00      	nop

08004028 <USB_EnableGlobalInt>:
  *         Enables the controller's Global Int in the AHB Config reg
  * @param  USBx Selected device
  * @retval HAL status
  */
HAL_StatusTypeDef USB_EnableGlobalInt(USB_TypeDef *USBx)
{
 8004028:	4603      	mov	r3, r0
  uint32_t winterruptmask;

  /* Clear pending interrupts */
  USBx->ISTR = 0U;
 800402a:	2200      	movs	r2, #0
                   USB_CNTR_SUSPM | USB_CNTR_ERRM |
                   USB_CNTR_SOFM | USB_CNTR_ESOFM |
                   USB_CNTR_RESETM;

  /* Set interrupt mask */
  USBx->CNTR = (uint16_t)winterruptmask;
 800402c:	f44f 413f 	mov.w	r1, #48896	@ 0xbf00
  USBx->ISTR = 0U;
 8004030:	f8a3 2044 	strh.w	r2, [r3, #68]	@ 0x44

  return HAL_OK;
}
 8004034:	4610      	mov	r0, r2
  USBx->CNTR = (uint16_t)winterruptmask;
 8004036:	f8a3 1040 	strh.w	r1, [r3, #64]	@ 0x40
}
 800403a:	4770      	bx	lr

0800403c <USB_DisableGlobalInt>:
  *         Disable the controller's Global Int in the AHB Config reg
  * @param  USBx Selected device
  * @retval HAL status
  */
HAL_StatusTypeDef USB_DisableGlobalInt(USB_TypeDef *USBx)
{
 800403c:	4603      	mov	r3, r0
                   USB_CNTR_SUSPM | USB_CNTR_ERRM |
                   USB_CNTR_SOFM | USB_CNTR_ESOFM |
                   USB_CNTR_RESETM;

  /* Clear interrupt mask */
  USBx->CNTR &= (uint16_t)(~winterruptmask);
 800403e:	f244 02ff 	movw	r2, #16639	@ 0x40ff
 8004042:	f8b3 1040 	ldrh.w	r1, [r3, #64]	@ 0x40

  return HAL_OK;
}
 8004046:	2000      	movs	r0, #0
  USBx->CNTR &= (uint16_t)(~winterruptmask);
 8004048:	400a      	ands	r2, r1
 800404a:	f8a3 2040 	strh.w	r2, [r3, #64]	@ 0x40
}
 800404e:	4770      	bx	lr

08004050 <USB_SetCurrentMode>:
  /* NOTE : - This function is not required by USB Device FS peripheral, it is used
              only by USB OTG FS peripheral.
            - This function is added to ensure compatibility across platforms.
   */
  return HAL_OK;
}
 8004050:	2000      	movs	r0, #0
 8004052:	4770      	bx	lr

08004054 <USB_DevInit>:
  /* Init Device */
  /* CNTR_FRES = 1 */
  USBx->CNTR = (uint16_t)USB_CNTR_FRES;

  /* CNTR_FRES = 0 */
  USBx->CNTR = 0U;
 8004054:	f04f 0c00 	mov.w	ip, #0
{
 8004058:	b510      	push	{r4, lr}
 800405a:	b084      	sub	sp, #16
 800405c:	ac04      	add	r4, sp, #16
 800405e:	e904 000e 	stmdb	r4, {r1, r2, r3}
  USBx->CNTR = (uint16_t)USB_CNTR_FRES;
 8004062:	f04f 0e01 	mov.w	lr, #1
{
 8004066:	4603      	mov	r3, r0

  /*Set Btable Address*/
  USBx->BTABLE = BTABLE_ADDRESS;

  return HAL_OK;
}
 8004068:	4660      	mov	r0, ip
  USBx->CNTR = (uint16_t)USB_CNTR_FRES;
 800406a:	f8a3 e040 	strh.w	lr, [r3, #64]	@ 0x40
  USBx->CNTR = 0U;
 800406e:	f8a3 c040 	strh.w	ip, [r3, #64]	@ 0x40
  USBx->ISTR = 0U;
 8004072:	f8a3 c044 	strh.w	ip, [r3, #68]	@ 0x44
  USBx->BTABLE = BTABLE_ADDRESS;
 8004076:	f8a3 c050 	strh.w	ip, [r3, #80]	@ 0x50
}
 800407a:	b004      	add	sp, #16
 800407c:	bd10      	pop	{r4, pc}
 800407e:	bf00      	nop

08004080 <USB_ActivateEndpoint>:
  * @param  USBx Selected device
  * @param  ep pointer to endpoint structure
  * @retval HAL status
  */
HAL_StatusTypeDef USB_ActivateEndpoint(USB_TypeDef *USBx, USB_EPTypeDef *ep)
{
 8004080:	b570      	push	{r4, r5, r6, lr}
  HAL_StatusTypeDef ret = HAL_OK;
  uint16_t wEpRegVal;

  wEpRegVal = PCD_GET_ENDPOINT(USBx, ep->num) & USB_EP_T_MASK;
 8004082:	780a      	ldrb	r2, [r1, #0]
{
 8004084:	4603      	mov	r3, r0
  wEpRegVal = PCD_GET_ENDPOINT(USBx, ep->num) & USB_EP_T_MASK;
 8004086:	f830 0022 	ldrh.w	r0, [r0, r2, lsl #2]

  /* initialize Endpoint */
  switch (ep->type)
 800408a:	f891 e003 	ldrb.w	lr, [r1, #3]
  wEpRegVal = PCD_GET_ENDPOINT(USBx, ep->num) & USB_EP_T_MASK;
 800408e:	f420 40ec 	bic.w	r0, r0, #30208	@ 0x7600
 8004092:	f020 0070 	bic.w	r0, r0, #112	@ 0x70
 8004096:	0400      	lsls	r0, r0, #16
 8004098:	0c00      	lsrs	r0, r0, #16
  switch (ep->type)
 800409a:	f1be 0f03 	cmp.w	lr, #3
 800409e:	f200 81a2 	bhi.w	80043e6 <USB_ActivateEndpoint+0x366>
 80040a2:	e8df f00e 	tbb	[pc, lr]
 80040a6:	d6d3      	.short	0xd6d3
 80040a8:	0287      	.short	0x0287
    case EP_TYPE_BULK:
      wEpRegVal |= USB_EP_BULK;
      break;

    case EP_TYPE_INTR:
      wEpRegVal |= USB_EP_INTERRUPT;
 80040aa:	f440 60c0 	orr.w	r0, r0, #1536	@ 0x600
    default:
      ret = HAL_ERROR;
      break;
  }

  PCD_SET_ENDPOINT(USBx, ep->num, (wEpRegVal | USB_EP_CTR_RX | USB_EP_CTR_TX));
 80040ae:	f248 0c80 	movw	ip, #32896	@ 0x8080
 80040b2:	ea40 000c 	orr.w	r0, r0, ip
 80040b6:	f823 0022 	strh.w	r0, [r3, r2, lsl #2]

  PCD_SET_EP_ADDRESS(USBx, ep->num, ep->num);
 80040ba:	f833 0022 	ldrh.w	r0, [r3, r2, lsl #2]
 80040be:	f420 40e0 	bic.w	r0, r0, #28672	@ 0x7000
 80040c2:	f020 0070 	bic.w	r0, r0, #112	@ 0x70
 80040c6:	0400      	lsls	r0, r0, #16
 80040c8:	0c00      	lsrs	r0, r0, #16
 80040ca:	4310      	orrs	r0, r2
 80040cc:	ea4c 0c00 	orr.w	ip, ip, r0
 80040d0:	f823 c022 	strh.w	ip, [r3, r2, lsl #2]

  if (ep->doublebuffer == 0U)
 80040d4:	7b08      	ldrb	r0, [r1, #12]
 80040d6:	2800      	cmp	r0, #0
 80040d8:	f000 8081 	beq.w	80041de <USB_ActivateEndpoint+0x15e>
 80040dc:	2000      	movs	r0, #0
      PCD_SET_BULK_EP_DBUF(USBx, ep->num);
    }
    else
    {
      /* Set the ISOC endpoint in double buffer mode */
      PCD_CLEAR_EP_KIND(USBx, ep->num);
 80040de:	f833 c022 	ldrh.w	ip, [r3, r2, lsl #2]
 80040e2:	f42c 4ce2 	bic.w	ip, ip, #28928	@ 0x7100
 80040e6:	f02c 0c70 	bic.w	ip, ip, #112	@ 0x70
 80040ea:	ea4f 4c0c 	mov.w	ip, ip, lsl #16
 80040ee:	ea4f 4c1c 	mov.w	ip, ip, lsr #16
 80040f2:	f44c 4c00 	orr.w	ip, ip, #32768	@ 0x8000
 80040f6:	f04c 0c80 	orr.w	ip, ip, #128	@ 0x80
 80040fa:	f823 c022 	strh.w	ip, [r3, r2, lsl #2]
    }

    /* Set buffer address for double buffered mode */
    PCD_SET_EP_DBUF_ADDR(USBx, ep->num, ep->pmaaddr0, ep->pmaaddr1);
 80040fe:	f8b3 4050 	ldrh.w	r4, [r3, #80]	@ 0x50
 8004102:	f8b1 c008 	ldrh.w	ip, [r1, #8]
 8004106:	eb03 1502 	add.w	r5, r3, r2, lsl #4
 800410a:	b2a4      	uxth	r4, r4
 800410c:	ea4f 0c5c 	mov.w	ip, ip, lsr #1
 8004110:	ea4f 0c4c 	mov.w	ip, ip, lsl #1
 8004114:	442c      	add	r4, r5
 8004116:	f8a4 c400 	strh.w	ip, [r4, #1024]	@ 0x400
 800411a:	894c      	ldrh	r4, [r1, #10]
 800411c:	f8b3 c050 	ldrh.w	ip, [r3, #80]	@ 0x50
 8004120:	0864      	lsrs	r4, r4, #1
 8004122:	fa1f fc8c 	uxth.w	ip, ip
 8004126:	44ac      	add	ip, r5
 8004128:	0064      	lsls	r4, r4, #1
 800412a:	f8ac 4408 	strh.w	r4, [ip, #1032]	@ 0x408

    if (ep->is_in == 0U)
 800412e:	7849      	ldrb	r1, [r1, #1]
 8004130:	2900      	cmp	r1, #0
 8004132:	f040 80e4 	bne.w	80042fe <USB_ActivateEndpoint+0x27e>
    {
      /* Clear the data toggle bits for the endpoint IN/OUT */
      PCD_CLEAR_RX_DTOG(USBx, ep->num);
 8004136:	f833 1022 	ldrh.w	r1, [r3, r2, lsl #2]
 800413a:	044e      	lsls	r6, r1, #17
 800413c:	d50d      	bpl.n	800415a <USB_ActivateEndpoint+0xda>
 800413e:	f833 1022 	ldrh.w	r1, [r3, r2, lsl #2]
 8004142:	f421 41e0 	bic.w	r1, r1, #28672	@ 0x7000
 8004146:	f021 0170 	bic.w	r1, r1, #112	@ 0x70
 800414a:	0409      	lsls	r1, r1, #16
 800414c:	0c09      	lsrs	r1, r1, #16
 800414e:	f441 4140 	orr.w	r1, r1, #49152	@ 0xc000
 8004152:	f041 0180 	orr.w	r1, r1, #128	@ 0x80
 8004156:	f823 1022 	strh.w	r1, [r3, r2, lsl #2]
      PCD_CLEAR_TX_DTOG(USBx, ep->num);
 800415a:	f833 1022 	ldrh.w	r1, [r3, r2, lsl #2]
 800415e:	064d      	lsls	r5, r1, #25
 8004160:	d50d      	bpl.n	800417e <USB_ActivateEndpoint+0xfe>
 8004162:	f833 1022 	ldrh.w	r1, [r3, r2, lsl #2]
 8004166:	f421 41e0 	bic.w	r1, r1, #28672	@ 0x7000
 800416a:	f021 0170 	bic.w	r1, r1, #112	@ 0x70
 800416e:	0409      	lsls	r1, r1, #16
 8004170:	0c09      	lsrs	r1, r1, #16
 8004172:	f441 4100 	orr.w	r1, r1, #32768	@ 0x8000
 8004176:	f041 01c0 	orr.w	r1, r1, #192	@ 0xc0
 800417a:	f823 1022 	strh.w	r1, [r3, r2, lsl #2]

      PCD_SET_EP_RX_STATUS(USBx, ep->num, USB_EP_RX_VALID);
 800417e:	f248 0480 	movw	r4, #32896	@ 0x8080
 8004182:	f833 1022 	ldrh.w	r1, [r3, r2, lsl #2]
 8004186:	f421 4180 	bic.w	r1, r1, #16384	@ 0x4000
 800418a:	f021 0170 	bic.w	r1, r1, #112	@ 0x70
 800418e:	0409      	lsls	r1, r1, #16
 8004190:	0c09      	lsrs	r1, r1, #16
 8004192:	f481 5140 	eor.w	r1, r1, #12288	@ 0x3000
 8004196:	4321      	orrs	r1, r4
 8004198:	f823 1022 	strh.w	r1, [r3, r2, lsl #2]
      PCD_SET_EP_TX_STATUS(USBx, ep->num, USB_EP_TX_DIS);
 800419c:	f833 1022 	ldrh.w	r1, [r3, r2, lsl #2]
 80041a0:	f421 41e0 	bic.w	r1, r1, #28672	@ 0x7000
 80041a4:	f021 0140 	bic.w	r1, r1, #64	@ 0x40
 80041a8:	0409      	lsls	r1, r1, #16
 80041aa:	0c09      	lsrs	r1, r1, #16
 80041ac:	430c      	orrs	r4, r1
 80041ae:	f823 4022 	strh.w	r4, [r3, r2, lsl #2]
    }
  }
#endif /* (USE_USB_DOUBLE_BUFFER == 1U) */

  return ret;
}
 80041b2:	bd70      	pop	{r4, r5, r6, pc}
  PCD_SET_ENDPOINT(USBx, ep->num, (wEpRegVal | USB_EP_CTR_RX | USB_EP_CTR_TX));
 80041b4:	f248 0480 	movw	r4, #32896	@ 0x8080
  PCD_SET_EP_ADDRESS(USBx, ep->num, ep->num);
 80041b8:	f648 758f 	movw	r5, #36751	@ 0x8f8f
  PCD_SET_ENDPOINT(USBx, ep->num, (wEpRegVal | USB_EP_CTR_RX | USB_EP_CTR_TX));
 80041bc:	4320      	orrs	r0, r4
 80041be:	f823 0022 	strh.w	r0, [r3, r2, lsl #2]
  PCD_SET_EP_ADDRESS(USBx, ep->num, ep->num);
 80041c2:	f833 0022 	ldrh.w	r0, [r3, r2, lsl #2]
 80041c6:	f6cf 75ff 	movt	r5, #65535	@ 0xffff
 80041ca:	b280      	uxth	r0, r0
 80041cc:	4028      	ands	r0, r5
 80041ce:	4310      	orrs	r0, r2
 80041d0:	4304      	orrs	r4, r0
 80041d2:	f823 4022 	strh.w	r4, [r3, r2, lsl #2]
  if (ep->doublebuffer == 0U)
 80041d6:	7b08      	ldrb	r0, [r1, #12]
 80041d8:	2800      	cmp	r0, #0
 80041da:	f040 80ea 	bne.w	80043b2 <USB_ActivateEndpoint+0x332>
  HAL_StatusTypeDef ret = HAL_OK;
 80041de:	2000      	movs	r0, #0
      PCD_SET_EP_TX_ADDRESS(USBx, ep->num, ep->pmaadress);
 80041e0:	88cc      	ldrh	r4, [r1, #6]
    if (ep->is_in != 0U)
 80041e2:	784e      	ldrb	r6, [r1, #1]
      PCD_SET_EP_TX_ADDRESS(USBx, ep->num, ep->pmaadress);
 80041e4:	0864      	lsrs	r4, r4, #1
 80041e6:	0064      	lsls	r4, r4, #1
 80041e8:	eb03 1502 	add.w	r5, r3, r2, lsl #4
    if (ep->is_in != 0U)
 80041ec:	2e00      	cmp	r6, #0
 80041ee:	d044      	beq.n	800427a <USB_ActivateEndpoint+0x1fa>
      PCD_SET_EP_TX_ADDRESS(USBx, ep->num, ep->pmaadress);
 80041f0:	f8b3 1050 	ldrh.w	r1, [r3, #80]	@ 0x50
 80041f4:	b289      	uxth	r1, r1
 80041f6:	4429      	add	r1, r5
 80041f8:	f8a1 4400 	strh.w	r4, [r1, #1024]	@ 0x400
      PCD_CLEAR_TX_DTOG(USBx, ep->num);
 80041fc:	f833 1022 	ldrh.w	r1, [r3, r2, lsl #2]
 8004200:	0649      	lsls	r1, r1, #25
 8004202:	d50d      	bpl.n	8004220 <USB_ActivateEndpoint+0x1a0>
 8004204:	f833 1022 	ldrh.w	r1, [r3, r2, lsl #2]
 8004208:	f421 41e0 	bic.w	r1, r1, #28672	@ 0x7000
 800420c:	f021 0170 	bic.w	r1, r1, #112	@ 0x70
 8004210:	0409      	lsls	r1, r1, #16
 8004212:	0c09      	lsrs	r1, r1, #16
 8004214:	f441 4100 	orr.w	r1, r1, #32768	@ 0x8000
 8004218:	f041 01c0 	orr.w	r1, r1, #192	@ 0xc0
 800421c:	f823 1022 	strh.w	r1, [r3, r2, lsl #2]
        PCD_SET_EP_TX_STATUS(USBx, ep->num, USB_EP_TX_NAK);
 8004220:	f833 1022 	ldrh.w	r1, [r3, r2, lsl #2]
      if (ep->type != EP_TYPE_ISOC)
 8004224:	f1be 0f01 	cmp.w	lr, #1
        PCD_SET_EP_TX_STATUS(USBx, ep->num, USB_EP_TX_NAK);
 8004228:	f421 41e0 	bic.w	r1, r1, #28672	@ 0x7000
 800422c:	f021 0140 	bic.w	r1, r1, #64	@ 0x40
 8004230:	ea4f 4101 	mov.w	r1, r1, lsl #16
 8004234:	ea4f 4111 	mov.w	r1, r1, lsr #16
      if (ep->type != EP_TYPE_ISOC)
 8004238:	d018      	beq.n	800426c <USB_ActivateEndpoint+0x1ec>
        PCD_SET_EP_TX_STATUS(USBx, ep->num, USB_EP_TX_NAK);
 800423a:	f081 0120 	eor.w	r1, r1, #32
 800423e:	f441 4100 	orr.w	r1, r1, #32768	@ 0x8000
 8004242:	f041 0180 	orr.w	r1, r1, #128	@ 0x80
 8004246:	f823 1022 	strh.w	r1, [r3, r2, lsl #2]
}
 800424a:	bd70      	pop	{r4, r5, r6, pc}
      wEpRegVal |= USB_EP_CONTROL;
 800424c:	f440 7000 	orr.w	r0, r0, #512	@ 0x200
      break;
 8004250:	e72d      	b.n	80040ae <USB_ActivateEndpoint+0x2e>
      wEpRegVal |= USB_EP_ISOCHRONOUS;
 8004252:	f440 6080 	orr.w	r0, r0, #1024	@ 0x400
      break;
 8004256:	e72a      	b.n	80040ae <USB_ActivateEndpoint+0x2e>
        PCD_SET_EP_RX_STATUS(USBx, ep->num, USB_EP_RX_NAK);
 8004258:	f833 1022 	ldrh.w	r1, [r3, r2, lsl #2]
 800425c:	f421 4180 	bic.w	r1, r1, #16384	@ 0x4000
 8004260:	f021 0170 	bic.w	r1, r1, #112	@ 0x70
 8004264:	0409      	lsls	r1, r1, #16
 8004266:	0c09      	lsrs	r1, r1, #16
 8004268:	f481 5100 	eor.w	r1, r1, #8192	@ 0x2000
 800426c:	f441 4100 	orr.w	r1, r1, #32768	@ 0x8000
 8004270:	f041 0180 	orr.w	r1, r1, #128	@ 0x80
 8004274:	f823 1022 	strh.w	r1, [r3, r2, lsl #2]
}
 8004278:	bd70      	pop	{r4, r5, r6, pc}
      PCD_SET_EP_RX_CNT(USBx, ep->num, ep->maxpacket);
 800427a:	690e      	ldr	r6, [r1, #16]
      PCD_SET_EP_RX_ADDRESS(USBx, ep->num, ep->pmaadress);
 800427c:	f8b3 1050 	ldrh.w	r1, [r3, #80]	@ 0x50
      PCD_SET_EP_RX_CNT(USBx, ep->num, ep->maxpacket);
 8004280:	2e3e      	cmp	r6, #62	@ 0x3e
      PCD_SET_EP_RX_ADDRESS(USBx, ep->num, ep->pmaadress);
 8004282:	b289      	uxth	r1, r1
 8004284:	4429      	add	r1, r5
 8004286:	f8a1 4408 	strh.w	r4, [r1, #1032]	@ 0x408
      PCD_SET_EP_RX_CNT(USBx, ep->num, ep->maxpacket);
 800428a:	f8b3 1050 	ldrh.w	r1, [r3, #80]	@ 0x50
 800428e:	b289      	uxth	r1, r1
 8004290:	4429      	add	r1, r5
 8004292:	f8b1 440c 	ldrh.w	r4, [r1, #1036]	@ 0x40c
 8004296:	f3c4 0409 	ubfx	r4, r4, #0, #10
 800429a:	f8a1 440c 	strh.w	r4, [r1, #1036]	@ 0x40c
 800429e:	d876      	bhi.n	800438e <USB_ActivateEndpoint+0x30e>
 80042a0:	2e00      	cmp	r6, #0
 80042a2:	f040 8092 	bne.w	80043ca <USB_ActivateEndpoint+0x34a>
 80042a6:	f8b1 440c 	ldrh.w	r4, [r1, #1036]	@ 0x40c
 80042aa:	ea6f 4444 	mvn.w	r4, r4, lsl #17
 80042ae:	ea6f 4454 	mvn.w	r4, r4, lsr #17
 80042b2:	b2a4      	uxth	r4, r4
 80042b4:	f8a1 440c 	strh.w	r4, [r1, #1036]	@ 0x40c
      PCD_CLEAR_RX_DTOG(USBx, ep->num);
 80042b8:	f833 1022 	ldrh.w	r1, [r3, r2, lsl #2]
 80042bc:	0449      	lsls	r1, r1, #17
 80042be:	d50d      	bpl.n	80042dc <USB_ActivateEndpoint+0x25c>
 80042c0:	f833 1022 	ldrh.w	r1, [r3, r2, lsl #2]
 80042c4:	f421 41e0 	bic.w	r1, r1, #28672	@ 0x7000
 80042c8:	f021 0170 	bic.w	r1, r1, #112	@ 0x70
 80042cc:	0409      	lsls	r1, r1, #16
 80042ce:	0c09      	lsrs	r1, r1, #16
 80042d0:	f441 4140 	orr.w	r1, r1, #49152	@ 0xc000
 80042d4:	f041 0180 	orr.w	r1, r1, #128	@ 0x80
 80042d8:	f823 1022 	strh.w	r1, [r3, r2, lsl #2]
      if (ep->num == 0U)
 80042dc:	2a00      	cmp	r2, #0
 80042de:	d1bb      	bne.n	8004258 <USB_ActivateEndpoint+0x1d8>
        PCD_SET_EP_RX_STATUS(USBx, ep->num, USB_EP_RX_VALID);
 80042e0:	881a      	ldrh	r2, [r3, #0]
 80042e2:	f422 4280 	bic.w	r2, r2, #16384	@ 0x4000
 80042e6:	f022 0270 	bic.w	r2, r2, #112	@ 0x70
 80042ea:	0412      	lsls	r2, r2, #16
 80042ec:	0c12      	lsrs	r2, r2, #16
 80042ee:	f482 5240 	eor.w	r2, r2, #12288	@ 0x3000
 80042f2:	f442 4200 	orr.w	r2, r2, #32768	@ 0x8000
 80042f6:	f042 0280 	orr.w	r2, r2, #128	@ 0x80
 80042fa:	801a      	strh	r2, [r3, #0]
}
 80042fc:	bd70      	pop	{r4, r5, r6, pc}
      PCD_CLEAR_RX_DTOG(USBx, ep->num);
 80042fe:	f833 1022 	ldrh.w	r1, [r3, r2, lsl #2]
 8004302:	044c      	lsls	r4, r1, #17
 8004304:	d50d      	bpl.n	8004322 <USB_ActivateEndpoint+0x2a2>
 8004306:	f833 1022 	ldrh.w	r1, [r3, r2, lsl #2]
 800430a:	f421 41e0 	bic.w	r1, r1, #28672	@ 0x7000
 800430e:	f021 0170 	bic.w	r1, r1, #112	@ 0x70
 8004312:	0409      	lsls	r1, r1, #16
 8004314:	0c09      	lsrs	r1, r1, #16
 8004316:	f441 4140 	orr.w	r1, r1, #49152	@ 0xc000
 800431a:	f041 0180 	orr.w	r1, r1, #128	@ 0x80
 800431e:	f823 1022 	strh.w	r1, [r3, r2, lsl #2]
      PCD_CLEAR_TX_DTOG(USBx, ep->num);
 8004322:	f833 1022 	ldrh.w	r1, [r3, r2, lsl #2]
 8004326:	0649      	lsls	r1, r1, #25
 8004328:	d50d      	bpl.n	8004346 <USB_ActivateEndpoint+0x2c6>
 800432a:	f833 1022 	ldrh.w	r1, [r3, r2, lsl #2]
 800432e:	f421 41e0 	bic.w	r1, r1, #28672	@ 0x7000
 8004332:	f021 0170 	bic.w	r1, r1, #112	@ 0x70
 8004336:	0409      	lsls	r1, r1, #16
 8004338:	0c09      	lsrs	r1, r1, #16
 800433a:	f441 4100 	orr.w	r1, r1, #32768	@ 0x8000
 800433e:	f041 01c0 	orr.w	r1, r1, #192	@ 0xc0
 8004342:	f823 1022 	strh.w	r1, [r3, r2, lsl #2]
        PCD_SET_EP_TX_STATUS(USBx, ep->num, USB_EP_TX_NAK);
 8004346:	f833 1022 	ldrh.w	r1, [r3, r2, lsl #2]
      if (ep->type != EP_TYPE_ISOC)
 800434a:	f1be 0f01 	cmp.w	lr, #1
        PCD_SET_EP_TX_STATUS(USBx, ep->num, USB_EP_TX_NAK);
 800434e:	f421 41e0 	bic.w	r1, r1, #28672	@ 0x7000
 8004352:	f021 0140 	bic.w	r1, r1, #64	@ 0x40
 8004356:	ea4f 4101 	mov.w	r1, r1, lsl #16
 800435a:	ea4f 4111 	mov.w	r1, r1, lsr #16
 800435e:	bf18      	it	ne
 8004360:	f081 0120 	eorne.w	r1, r1, #32
        PCD_SET_EP_TX_STATUS(USBx, ep->num, USB_EP_TX_DIS);
 8004364:	f441 4100 	orr.w	r1, r1, #32768	@ 0x8000
 8004368:	f041 0180 	orr.w	r1, r1, #128	@ 0x80
 800436c:	f823 1022 	strh.w	r1, [r3, r2, lsl #2]
      PCD_SET_EP_RX_STATUS(USBx, ep->num, USB_EP_RX_DIS);
 8004370:	f833 1022 	ldrh.w	r1, [r3, r2, lsl #2]
 8004374:	f421 4180 	bic.w	r1, r1, #16384	@ 0x4000
 8004378:	f021 0170 	bic.w	r1, r1, #112	@ 0x70
 800437c:	0409      	lsls	r1, r1, #16
 800437e:	0c09      	lsrs	r1, r1, #16
 8004380:	f441 4100 	orr.w	r1, r1, #32768	@ 0x8000
 8004384:	f041 0180 	orr.w	r1, r1, #128	@ 0x80
 8004388:	f823 1022 	strh.w	r1, [r3, r2, lsl #2]
}
 800438c:	bd70      	pop	{r4, r5, r6, pc}
      PCD_SET_EP_RX_CNT(USBx, ep->num, ep->maxpacket);
 800438e:	f8b1 440c 	ldrh.w	r4, [r1, #1036]	@ 0x40c
 8004392:	0975      	lsrs	r5, r6, #5
 8004394:	06f6      	lsls	r6, r6, #27
 8004396:	bf08      	it	eq
 8004398:	f105 35ff 	addeq.w	r5, r5, #4294967295
 800439c:	b2a4      	uxth	r4, r4
 800439e:	ea44 2485 	orr.w	r4, r4, r5, lsl #10
 80043a2:	ea6f 4444 	mvn.w	r4, r4, lsl #17
 80043a6:	ea6f 4454 	mvn.w	r4, r4, lsr #17
 80043aa:	b2a4      	uxth	r4, r4
 80043ac:	f8a1 440c 	strh.w	r4, [r1, #1036]	@ 0x40c
 80043b0:	e782      	b.n	80042b8 <USB_ActivateEndpoint+0x238>
      PCD_SET_BULK_EP_DBUF(USBx, ep->num);
 80043b2:	f833 0022 	ldrh.w	r0, [r3, r2, lsl #2]
 80043b6:	b280      	uxth	r0, r0
 80043b8:	4028      	ands	r0, r5
 80043ba:	f440 4001 	orr.w	r0, r0, #33024	@ 0x8100
 80043be:	f040 0080 	orr.w	r0, r0, #128	@ 0x80
 80043c2:	f823 0022 	strh.w	r0, [r3, r2, lsl #2]
 80043c6:	2000      	movs	r0, #0
 80043c8:	e699      	b.n	80040fe <USB_ActivateEndpoint+0x7e>
      PCD_SET_EP_RX_CNT(USBx, ep->num, ep->maxpacket);
 80043ca:	07f4      	lsls	r4, r6, #31
 80043cc:	f8b1 440c 	ldrh.w	r4, [r1, #1036]	@ 0x40c
 80043d0:	ea4f 0556 	mov.w	r5, r6, lsr #1
 80043d4:	bf48      	it	mi
 80043d6:	3501      	addmi	r5, #1
 80043d8:	b2a4      	uxth	r4, r4
 80043da:	ea44 2485 	orr.w	r4, r4, r5, lsl #10
 80043de:	b2a4      	uxth	r4, r4
 80043e0:	f8a1 440c 	strh.w	r4, [r1, #1036]	@ 0x40c
 80043e4:	e768      	b.n	80042b8 <USB_ActivateEndpoint+0x238>
  PCD_SET_ENDPOINT(USBx, ep->num, (wEpRegVal | USB_EP_CTR_RX | USB_EP_CTR_TX));
 80043e6:	f248 0480 	movw	r4, #32896	@ 0x8080
 80043ea:	4320      	orrs	r0, r4
 80043ec:	f823 0022 	strh.w	r0, [r3, r2, lsl #2]
  PCD_SET_EP_ADDRESS(USBx, ep->num, ep->num);
 80043f0:	f833 0022 	ldrh.w	r0, [r3, r2, lsl #2]
 80043f4:	f420 40e0 	bic.w	r0, r0, #28672	@ 0x7000
 80043f8:	f020 0070 	bic.w	r0, r0, #112	@ 0x70
 80043fc:	0400      	lsls	r0, r0, #16
 80043fe:	0c00      	lsrs	r0, r0, #16
 8004400:	4310      	orrs	r0, r2
 8004402:	4304      	orrs	r4, r0
 8004404:	f823 4022 	strh.w	r4, [r3, r2, lsl #2]
  if (ep->doublebuffer == 0U)
 8004408:	7b08      	ldrb	r0, [r1, #12]
 800440a:	b908      	cbnz	r0, 8004410 <USB_ActivateEndpoint+0x390>
 800440c:	2001      	movs	r0, #1
 800440e:	e6e7      	b.n	80041e0 <USB_ActivateEndpoint+0x160>
 8004410:	2001      	movs	r0, #1
 8004412:	e664      	b.n	80040de <USB_ActivateEndpoint+0x5e>

08004414 <USB_DeactivateEndpoint>:
  * @param  USBx Selected device
  * @param  ep pointer to endpoint structure
  * @retval HAL status
  */
HAL_StatusTypeDef USB_DeactivateEndpoint(USB_TypeDef *USBx, USB_EPTypeDef *ep)
{
 8004414:	b410      	push	{r4}
  if (ep->doublebuffer == 0U)
 8004416:	7b0c      	ldrb	r4, [r1, #12]
  {
    if (ep->is_in != 0U)
 8004418:	784a      	ldrb	r2, [r1, #1]
    {
      PCD_CLEAR_TX_DTOG(USBx, ep->num);
 800441a:	780b      	ldrb	r3, [r1, #0]
  if (ep->doublebuffer == 0U)
 800441c:	b9c4      	cbnz	r4, 8004450 <USB_DeactivateEndpoint+0x3c>
    if (ep->is_in != 0U)
 800441e:	2a00      	cmp	r2, #0
 8004420:	f000 80b2 	beq.w	8004588 <USB_DeactivateEndpoint+0x174>
      PCD_CLEAR_TX_DTOG(USBx, ep->num);
 8004424:	f830 2023 	ldrh.w	r2, [r0, r3, lsl #2]
 8004428:	0654      	lsls	r4, r2, #25
 800442a:	f100 80c6 	bmi.w	80045ba <USB_DeactivateEndpoint+0x1a6>

      /* Configure DISABLE status for the Endpoint */
      PCD_SET_EP_TX_STATUS(USBx, ep->num, USB_EP_TX_DIS);
 800442e:	f830 2023 	ldrh.w	r2, [r0, r3, lsl #2]
 8004432:	f422 42e0 	bic.w	r2, r2, #28672	@ 0x7000
 8004436:	f022 0240 	bic.w	r2, r2, #64	@ 0x40
    else
    {
      PCD_CLEAR_RX_DTOG(USBx, ep->num);

      /* Configure DISABLE status for the Endpoint */
      PCD_SET_EP_RX_STATUS(USBx, ep->num, USB_EP_RX_DIS);
 800443a:	0412      	lsls	r2, r2, #16
 800443c:	0c12      	lsrs	r2, r2, #16
 800443e:	f442 4200 	orr.w	r2, r2, #32768	@ 0x8000
 8004442:	f042 0280 	orr.w	r2, r2, #128	@ 0x80
 8004446:	f820 2023 	strh.w	r2, [r0, r3, lsl #2]
    }
  }
#endif /* (USE_USB_DOUBLE_BUFFER == 1U) */

  return HAL_OK;
}
 800444a:	bc10      	pop	{r4}
 800444c:	2000      	movs	r0, #0
 800444e:	4770      	bx	lr
    if (ep->is_in == 0U)
 8004450:	2a00      	cmp	r2, #0
 8004452:	d14c      	bne.n	80044ee <USB_DeactivateEndpoint+0xda>
      PCD_CLEAR_RX_DTOG(USBx, ep->num);
 8004454:	f830 2023 	ldrh.w	r2, [r0, r3, lsl #2]
 8004458:	0452      	lsls	r2, r2, #17
 800445a:	d50d      	bpl.n	8004478 <USB_DeactivateEndpoint+0x64>
 800445c:	f830 2023 	ldrh.w	r2, [r0, r3, lsl #2]
 8004460:	f422 42e0 	bic.w	r2, r2, #28672	@ 0x7000
 8004464:	f022 0270 	bic.w	r2, r2, #112	@ 0x70
 8004468:	0412      	lsls	r2, r2, #16
 800446a:	0c12      	lsrs	r2, r2, #16
 800446c:	f442 4240 	orr.w	r2, r2, #49152	@ 0xc000
 8004470:	f042 0280 	orr.w	r2, r2, #128	@ 0x80
 8004474:	f820 2023 	strh.w	r2, [r0, r3, lsl #2]
      PCD_CLEAR_TX_DTOG(USBx, ep->num);
 8004478:	f830 2023 	ldrh.w	r2, [r0, r3, lsl #2]
 800447c:	0654      	lsls	r4, r2, #25
 800447e:	d50d      	bpl.n	800449c <USB_DeactivateEndpoint+0x88>
 8004480:	f830 2023 	ldrh.w	r2, [r0, r3, lsl #2]
 8004484:	f422 42e0 	bic.w	r2, r2, #28672	@ 0x7000
 8004488:	f022 0270 	bic.w	r2, r2, #112	@ 0x70
 800448c:	0412      	lsls	r2, r2, #16
 800448e:	0c12      	lsrs	r2, r2, #16
 8004490:	f442 4200 	orr.w	r2, r2, #32768	@ 0x8000
 8004494:	f042 02c0 	orr.w	r2, r2, #192	@ 0xc0
 8004498:	f820 2023 	strh.w	r2, [r0, r3, lsl #2]
      PCD_SET_EP_RX_STATUS(USBx, ep->num, USB_EP_RX_DIS);
 800449c:	f248 0180 	movw	r1, #32896	@ 0x8080
      PCD_TX_DTOG(USBx, ep->num);
 80044a0:	f830 2023 	ldrh.w	r2, [r0, r3, lsl #2]
}
 80044a4:	bc10      	pop	{r4}
      PCD_TX_DTOG(USBx, ep->num);
 80044a6:	f422 42e0 	bic.w	r2, r2, #28672	@ 0x7000
 80044aa:	f022 0270 	bic.w	r2, r2, #112	@ 0x70
 80044ae:	0412      	lsls	r2, r2, #16
 80044b0:	0c12      	lsrs	r2, r2, #16
 80044b2:	f442 4200 	orr.w	r2, r2, #32768	@ 0x8000
 80044b6:	f042 02c0 	orr.w	r2, r2, #192	@ 0xc0
 80044ba:	f820 2023 	strh.w	r2, [r0, r3, lsl #2]
      PCD_SET_EP_RX_STATUS(USBx, ep->num, USB_EP_RX_DIS);
 80044be:	f830 2023 	ldrh.w	r2, [r0, r3, lsl #2]
 80044c2:	f422 4280 	bic.w	r2, r2, #16384	@ 0x4000
 80044c6:	f022 0270 	bic.w	r2, r2, #112	@ 0x70
 80044ca:	0412      	lsls	r2, r2, #16
 80044cc:	0c12      	lsrs	r2, r2, #16
 80044ce:	430a      	orrs	r2, r1
 80044d0:	f820 2023 	strh.w	r2, [r0, r3, lsl #2]
      PCD_SET_EP_TX_STATUS(USBx, ep->num, USB_EP_TX_DIS);
 80044d4:	f830 2023 	ldrh.w	r2, [r0, r3, lsl #2]
 80044d8:	f422 42e0 	bic.w	r2, r2, #28672	@ 0x7000
 80044dc:	f022 0240 	bic.w	r2, r2, #64	@ 0x40
 80044e0:	0412      	lsls	r2, r2, #16
 80044e2:	0c12      	lsrs	r2, r2, #16
 80044e4:	4311      	orrs	r1, r2
 80044e6:	f820 1023 	strh.w	r1, [r0, r3, lsl #2]
}
 80044ea:	2000      	movs	r0, #0
 80044ec:	4770      	bx	lr
      PCD_CLEAR_RX_DTOG(USBx, ep->num);
 80044ee:	f830 2023 	ldrh.w	r2, [r0, r3, lsl #2]
 80044f2:	0451      	lsls	r1, r2, #17
 80044f4:	d50d      	bpl.n	8004512 <USB_DeactivateEndpoint+0xfe>
 80044f6:	f830 2023 	ldrh.w	r2, [r0, r3, lsl #2]
 80044fa:	f422 42e0 	bic.w	r2, r2, #28672	@ 0x7000
 80044fe:	f022 0270 	bic.w	r2, r2, #112	@ 0x70
 8004502:	0412      	lsls	r2, r2, #16
 8004504:	0c12      	lsrs	r2, r2, #16
 8004506:	f442 4240 	orr.w	r2, r2, #49152	@ 0xc000
 800450a:	f042 0280 	orr.w	r2, r2, #128	@ 0x80
 800450e:	f820 2023 	strh.w	r2, [r0, r3, lsl #2]
      PCD_CLEAR_TX_DTOG(USBx, ep->num);
 8004512:	f830 2023 	ldrh.w	r2, [r0, r3, lsl #2]
 8004516:	0652      	lsls	r2, r2, #25
 8004518:	d50d      	bpl.n	8004536 <USB_DeactivateEndpoint+0x122>
 800451a:	f830 2023 	ldrh.w	r2, [r0, r3, lsl #2]
 800451e:	f422 42e0 	bic.w	r2, r2, #28672	@ 0x7000
 8004522:	f022 0270 	bic.w	r2, r2, #112	@ 0x70
 8004526:	0412      	lsls	r2, r2, #16
 8004528:	0c12      	lsrs	r2, r2, #16
 800452a:	f442 4200 	orr.w	r2, r2, #32768	@ 0x8000
 800452e:	f042 02c0 	orr.w	r2, r2, #192	@ 0xc0
 8004532:	f820 2023 	strh.w	r2, [r0, r3, lsl #2]
      PCD_SET_EP_TX_STATUS(USBx, ep->num, USB_EP_TX_DIS);
 8004536:	f248 0180 	movw	r1, #32896	@ 0x8080
      PCD_RX_DTOG(USBx, ep->num);
 800453a:	f830 2023 	ldrh.w	r2, [r0, r3, lsl #2]
}
 800453e:	bc10      	pop	{r4}
      PCD_RX_DTOG(USBx, ep->num);
 8004540:	f422 42e0 	bic.w	r2, r2, #28672	@ 0x7000
 8004544:	f022 0270 	bic.w	r2, r2, #112	@ 0x70
 8004548:	0412      	lsls	r2, r2, #16
 800454a:	0c12      	lsrs	r2, r2, #16
 800454c:	f442 4240 	orr.w	r2, r2, #49152	@ 0xc000
 8004550:	f042 0280 	orr.w	r2, r2, #128	@ 0x80
 8004554:	f820 2023 	strh.w	r2, [r0, r3, lsl #2]
      PCD_SET_EP_TX_STATUS(USBx, ep->num, USB_EP_TX_DIS);
 8004558:	f830 2023 	ldrh.w	r2, [r0, r3, lsl #2]
 800455c:	f422 42e0 	bic.w	r2, r2, #28672	@ 0x7000
 8004560:	f022 0240 	bic.w	r2, r2, #64	@ 0x40
 8004564:	0412      	lsls	r2, r2, #16
 8004566:	0c12      	lsrs	r2, r2, #16
 8004568:	430a      	orrs	r2, r1
 800456a:	f820 2023 	strh.w	r2, [r0, r3, lsl #2]
      PCD_SET_EP_RX_STATUS(USBx, ep->num, USB_EP_RX_DIS);
 800456e:	f830 2023 	ldrh.w	r2, [r0, r3, lsl #2]
 8004572:	f422 4280 	bic.w	r2, r2, #16384	@ 0x4000
 8004576:	f022 0270 	bic.w	r2, r2, #112	@ 0x70
 800457a:	0412      	lsls	r2, r2, #16
 800457c:	0c12      	lsrs	r2, r2, #16
 800457e:	4311      	orrs	r1, r2
 8004580:	f820 1023 	strh.w	r1, [r0, r3, lsl #2]
}
 8004584:	2000      	movs	r0, #0
 8004586:	4770      	bx	lr
      PCD_CLEAR_RX_DTOG(USBx, ep->num);
 8004588:	f830 2023 	ldrh.w	r2, [r0, r3, lsl #2]
 800458c:	0451      	lsls	r1, r2, #17
 800458e:	d50d      	bpl.n	80045ac <USB_DeactivateEndpoint+0x198>
 8004590:	f830 2023 	ldrh.w	r2, [r0, r3, lsl #2]
 8004594:	f422 42e0 	bic.w	r2, r2, #28672	@ 0x7000
 8004598:	f022 0270 	bic.w	r2, r2, #112	@ 0x70
 800459c:	0412      	lsls	r2, r2, #16
 800459e:	0c12      	lsrs	r2, r2, #16
 80045a0:	f442 4240 	orr.w	r2, r2, #49152	@ 0xc000
 80045a4:	f042 0280 	orr.w	r2, r2, #128	@ 0x80
 80045a8:	f820 2023 	strh.w	r2, [r0, r3, lsl #2]
      PCD_SET_EP_RX_STATUS(USBx, ep->num, USB_EP_RX_DIS);
 80045ac:	f830 2023 	ldrh.w	r2, [r0, r3, lsl #2]
 80045b0:	f422 4280 	bic.w	r2, r2, #16384	@ 0x4000
 80045b4:	f022 0270 	bic.w	r2, r2, #112	@ 0x70
 80045b8:	e73f      	b.n	800443a <USB_DeactivateEndpoint+0x26>
      PCD_CLEAR_TX_DTOG(USBx, ep->num);
 80045ba:	f830 2023 	ldrh.w	r2, [r0, r3, lsl #2]
 80045be:	f422 42e0 	bic.w	r2, r2, #28672	@ 0x7000
 80045c2:	f022 0270 	bic.w	r2, r2, #112	@ 0x70
 80045c6:	0412      	lsls	r2, r2, #16
 80045c8:	0c12      	lsrs	r2, r2, #16
 80045ca:	f442 4200 	orr.w	r2, r2, #32768	@ 0x8000
 80045ce:	f042 02c0 	orr.w	r2, r2, #192	@ 0xc0
 80045d2:	f820 2023 	strh.w	r2, [r0, r3, lsl #2]
 80045d6:	e72a      	b.n	800442e <USB_DeactivateEndpoint+0x1a>

080045d8 <USB_EPStartXfer>:
  * @param  USBx Selected device
  * @param  ep pointer to endpoint structure
  * @retval HAL status
  */
HAL_StatusTypeDef USB_EPStartXfer(USB_TypeDef *USBx, USB_EPTypeDef *ep)
{
 80045d8:	e92d 4ff0 	stmdb	sp!, {r4, r5, r6, r7, r8, r9, sl, fp, lr}
  uint16_t pmabuffer;
  uint16_t wEPVal;
#endif /* (USE_USB_DOUBLE_BUFFER == 1U) */

  /* IN endpoint */
  if (ep->is_in == 1U)
 80045dc:	784b      	ldrb	r3, [r1, #1]
    {
      len = ep->xfer_len;
    }

    /* configure and validate Tx endpoint */
    if (ep->doublebuffer == 0U)
 80045de:	7b0c      	ldrb	r4, [r1, #12]
  if (ep->is_in == 1U)
 80045e0:	2b01      	cmp	r3, #1
{
 80045e2:	b083      	sub	sp, #12
  if (ep->is_in == 1U)
 80045e4:	d074      	beq.n	80046d0 <USB_EPStartXfer+0xf8>

    PCD_SET_EP_TX_STATUS(USBx, ep->num, USB_EP_TX_VALID);
  }
  else /* OUT endpoint */
  {
    if (ep->doublebuffer == 0U)
 80045e6:	2c00      	cmp	r4, #0
 80045e8:	d03e      	beq.n	8004668 <USB_EPStartXfer+0x90>
#if (USE_USB_DOUBLE_BUFFER == 1U)
    else
    {
      /* First Transfer Coming From HAL_PCD_EP_Receive & From ISR */
      /* Set the Double buffer counter */
      if (ep->type == EP_TYPE_BULK)
 80045ea:	78ca      	ldrb	r2, [r1, #3]
 80045ec:	2a02      	cmp	r2, #2
 80045ee:	f000 80f3 	beq.w	80047d8 <USB_EPStartXfer+0x200>
            PCD_FREE_USER_BUFFER(USBx, ep->num, 0U);
          }
        }
      }
      /* iso out double */
      else if (ep->type == EP_TYPE_ISOC)
 80045f2:	2a01      	cmp	r2, #1
 80045f4:	f040 80d4 	bne.w	80047a0 <USB_EPStartXfer+0x1c8>
      {
        /* Multi packet transfer */
        if (ep->xfer_len > ep->maxpacket)
 80045f8:	698a      	ldr	r2, [r1, #24]
 80045fa:	690c      	ldr	r4, [r1, #16]
 80045fc:	42a2      	cmp	r2, r4
          ep->xfer_len -= len;
        }
        else
        {
          len = ep->xfer_len;
          ep->xfer_len = 0U;
 80045fe:	bf94      	ite	ls
 8004600:	2500      	movls	r5, #0
          ep->xfer_len -= len;
 8004602:	1b15      	subhi	r5, r2, r4
 8004604:	618d      	str	r5, [r1, #24]
          len = ep->maxpacket;
 8004606:	bf88      	it	hi
 8004608:	4622      	movhi	r2, r4
        }
        PCD_SET_EP_DBUF_CNT(USBx, ep->num, ep->is_in, len);
 800460a:	2b00      	cmp	r3, #0
 800460c:	f040 80e2 	bne.w	80047d4 <USB_EPStartXfer+0x1fc>
 8004610:	f8b0 4050 	ldrh.w	r4, [r0, #80]	@ 0x50
 8004614:	780b      	ldrb	r3, [r1, #0]
 8004616:	b2a4      	uxth	r4, r4
 8004618:	f200 4504 	addw	r5, r0, #1028	@ 0x404
 800461c:	011b      	lsls	r3, r3, #4
 800461e:	4425      	add	r5, r4
 8004620:	5aec      	ldrh	r4, [r5, r3]
 8004622:	2a3e      	cmp	r2, #62	@ 0x3e
 8004624:	f3c4 0409 	ubfx	r4, r4, #0, #10
 8004628:	52ec      	strh	r4, [r5, r3]
 800462a:	f200 460c 	addw	r6, r0, #1036	@ 0x40c
 800462e:	f200 81d7 	bhi.w	80049e0 <USB_EPStartXfer+0x408>
 8004632:	2a00      	cmp	r2, #0
 8004634:	f040 80b8 	bne.w	80047a8 <USB_EPStartXfer+0x1d0>
 8004638:	5aea      	ldrh	r2, [r5, r3]
 800463a:	ea6f 4242 	mvn.w	r2, r2, lsl #17
 800463e:	ea6f 4252 	mvn.w	r2, r2, lsr #17
 8004642:	b292      	uxth	r2, r2
 8004644:	52ea      	strh	r2, [r5, r3]
 8004646:	f8b0 2050 	ldrh.w	r2, [r0, #80]	@ 0x50
 800464a:	b292      	uxth	r2, r2
 800464c:	4432      	add	r2, r6
 800464e:	5ad4      	ldrh	r4, [r2, r3]
 8004650:	f3c4 0409 	ubfx	r4, r4, #0, #10
 8004654:	52d4      	strh	r4, [r2, r3]
 8004656:	5ad4      	ldrh	r4, [r2, r3]
 8004658:	ea6f 4444 	mvn.w	r4, r4, lsl #17
 800465c:	ea6f 4454 	mvn.w	r4, r4, lsr #17
 8004660:	b2a4      	uxth	r4, r4
 8004662:	52d4      	strh	r4, [r2, r3]
 8004664:	780a      	ldrb	r2, [r1, #0]
 8004666:	e01f      	b.n	80046a8 <USB_EPStartXfer+0xd0>
      if (ep->xfer_len > ep->maxpacket)
 8004668:	698a      	ldr	r2, [r1, #24]
 800466a:	690b      	ldr	r3, [r1, #16]
      PCD_SET_EP_RX_CNT(USBx, ep->num, len);
 800466c:	780d      	ldrb	r5, [r1, #0]
      if (ep->xfer_len > ep->maxpacket)
 800466e:	429a      	cmp	r2, r3
        ep->xfer_len -= len;
 8004670:	bf84      	itt	hi
 8004672:	1ad4      	subhi	r4, r2, r3
        len = ep->maxpacket;
 8004674:	461a      	movhi	r2, r3
      PCD_SET_EP_RX_CNT(USBx, ep->num, len);
 8004676:	f8b0 3050 	ldrh.w	r3, [r0, #80]	@ 0x50
 800467a:	618c      	str	r4, [r1, #24]
 800467c:	b29c      	uxth	r4, r3
 800467e:	f200 430c 	addw	r3, r0, #1036	@ 0x40c
 8004682:	012d      	lsls	r5, r5, #4
 8004684:	4423      	add	r3, r4
 8004686:	5aec      	ldrh	r4, [r5, r3]
 8004688:	2a3e      	cmp	r2, #62	@ 0x3e
 800468a:	f3c4 0409 	ubfx	r4, r4, #0, #10
 800468e:	52ec      	strh	r4, [r5, r3]
 8004690:	d87c      	bhi.n	800478c <USB_EPStartXfer+0x1b4>
 8004692:	2a00      	cmp	r2, #0
 8004694:	f040 80eb 	bne.w	800486e <USB_EPStartXfer+0x296>
 8004698:	5aea      	ldrh	r2, [r5, r3]
 800469a:	ea6f 4242 	mvn.w	r2, r2, lsl #17
 800469e:	ea6f 4252 	mvn.w	r2, r2, lsr #17
 80046a2:	b292      	uxth	r2, r2
 80046a4:	52ea      	strh	r2, [r5, r3]
 80046a6:	780a      	ldrb	r2, [r1, #0]
        return HAL_ERROR;
      }
    }
#endif /* (USE_USB_DOUBLE_BUFFER == 1U) */

    PCD_SET_EP_RX_STATUS(USBx, ep->num, USB_EP_RX_VALID);
 80046a8:	f830 3022 	ldrh.w	r3, [r0, r2, lsl #2]
 80046ac:	f423 4380 	bic.w	r3, r3, #16384	@ 0x4000
 80046b0:	f023 0370 	bic.w	r3, r3, #112	@ 0x70
 80046b4:	041b      	lsls	r3, r3, #16
 80046b6:	0c1b      	lsrs	r3, r3, #16
 80046b8:	f483 5340 	eor.w	r3, r3, #12288	@ 0x3000
 80046bc:	f443 4300 	orr.w	r3, r3, #32768	@ 0x8000
 80046c0:	f043 0380 	orr.w	r3, r3, #128	@ 0x80
 80046c4:	f820 3022 	strh.w	r3, [r0, r2, lsl #2]
  }

  return HAL_OK;
 80046c8:	2000      	movs	r0, #0
}
 80046ca:	b003      	add	sp, #12
 80046cc:	e8bd 8ff0 	ldmia.w	sp!, {r4, r5, r6, r7, r8, r9, sl, fp, pc}
    if (ep->xfer_len > ep->maxpacket)
 80046d0:	690d      	ldr	r5, [r1, #16]
 80046d2:	698a      	ldr	r2, [r1, #24]
      USB_WritePMA(USBx, ep->xfer_buff, ep->pmaadress, (uint16_t)len);
 80046d4:	694b      	ldr	r3, [r1, #20]
    if (ep->xfer_len > ep->maxpacket)
 80046d6:	42aa      	cmp	r2, r5
 80046d8:	bf28      	it	cs
 80046da:	462a      	movcs	r2, r5
    if (ep->doublebuffer == 0U)
 80046dc:	f500 6c80 	add.w	ip, r0, #1024	@ 0x400
 80046e0:	b344      	cbz	r4, 8004734 <USB_EPStartXfer+0x15c>
      if (ep->type == EP_TYPE_BULK)
 80046e2:	78cf      	ldrb	r7, [r1, #3]
          PCD_SET_BULK_EP_DBUF(USBx, ep->num);
 80046e4:	780e      	ldrb	r6, [r1, #0]
      if (ep->type == EP_TYPE_BULK)
 80046e6:	2f02      	cmp	r7, #2
        if (ep->xfer_len_db > ep->maxpacket)
 80046e8:	6a0c      	ldr	r4, [r1, #32]
            PCD_SET_EP_DBUF1_CNT(USBx, ep->num, ep->is_in, len);
 80046ea:	ea4f 1e06 	mov.w	lr, r6, lsl #4
      if (ep->type == EP_TYPE_BULK)
 80046ee:	f000 80ca 	beq.w	8004886 <USB_EPStartXfer+0x2ae>
        if ((PCD_GET_ENDPOINT(USBx, ep->num) & USB_EP_DTOG_TX) != 0U)
 80046f2:	f830 5026 	ldrh.w	r5, [r0, r6, lsl #2]
        ep->xfer_len_db -= len;
 80046f6:	1aa4      	subs	r4, r4, r2
          PCD_SET_EP_DBUF1_CNT(USBx, ep->num, ep->is_in, len);
 80046f8:	f8b0 6050 	ldrh.w	r6, [r0, #80]	@ 0x50
        ep->xfer_len_db -= len;
 80046fc:	620c      	str	r4, [r1, #32]
  * @param   wNBytes no. of bytes to be copied.
  * @retval None
  */
void USB_WritePMA(USB_TypeDef const *USBx, uint8_t *pbUsrBuf, uint16_t wPMABufAddr, uint16_t wNBytes)
{
  uint32_t n = ((uint32_t)wNBytes + 1U) >> 1;
 80046fe:	b294      	uxth	r4, r2
 8004700:	3401      	adds	r4, #1
        if ((PCD_GET_ENDPOINT(USBx, ep->num) & USB_EP_DTOG_TX) != 0U)
 8004702:	066f      	lsls	r7, r5, #25
      PCD_SET_EP_TX_CNT(USBx, ep->num, len);
 8004704:	b292      	uxth	r2, r2
  uint32_t n = ((uint32_t)wNBytes + 1U) >> 1;
 8004706:	ea4f 0454 	mov.w	r4, r4, lsr #1
          PCD_SET_EP_DBUF1_CNT(USBx, ep->num, ep->is_in, len);
 800470a:	b2b6      	uxth	r6, r6
        if ((PCD_GET_ENDPOINT(USBx, ep->num) & USB_EP_DTOG_TX) != 0U)
 800470c:	f140 8110 	bpl.w	8004930 <USB_EPStartXfer+0x358>
          PCD_SET_EP_DBUF1_CNT(USBx, ep->num, ep->is_in, len);
 8004710:	f200 450c 	addw	r5, r0, #1036	@ 0x40c
 8004714:	4435      	add	r5, r6
 8004716:	f825 200e 	strh.w	r2, [r5, lr]
  uint32_t count;
  uint16_t WrVal;
  __IO uint16_t *pdwVal;
  uint8_t *pBuf = pbUsrBuf;

  pdwVal = (__IO uint16_t *)(BaseAddr + 0x400U + ((uint32_t)wPMABufAddr * PMA_ACCESS));
 800471a:	894a      	ldrh	r2, [r1, #10]
 800471c:	eb0c 0242 	add.w	r2, ip, r2, lsl #1

  for (count = n; count != 0U; count--)
 8004720:	b314      	cbz	r4, 8004768 <USB_EPStartXfer+0x190>
 8004722:	eb03 0544 	add.w	r5, r3, r4, lsl #1
  {
    WrVal = pBuf[0];
    WrVal |= (uint16_t)pBuf[1] << 8;
 8004726:	f833 4b02 	ldrh.w	r4, [r3], #2
  for (count = n; count != 0U; count--)
 800472a:	42ab      	cmp	r3, r5
    *pdwVal = (WrVal & 0xFFFFU);
 800472c:	f822 4b04 	strh.w	r4, [r2], #4
  for (count = n; count != 0U; count--)
 8004730:	d1f9      	bne.n	8004726 <USB_EPStartXfer+0x14e>
 8004732:	e019      	b.n	8004768 <USB_EPStartXfer+0x190>
  uint32_t n = ((uint32_t)wNBytes + 1U) >> 1;
 8004734:	b296      	uxth	r6, r2
  pdwVal = (__IO uint16_t *)(BaseAddr + 0x400U + ((uint32_t)wPMABufAddr * PMA_ACCESS));
 8004736:	88cc      	ldrh	r4, [r1, #6]
  uint32_t n = ((uint32_t)wNBytes + 1U) >> 1;
 8004738:	3601      	adds	r6, #1
  for (count = n; count != 0U; count--)
 800473a:	0876      	lsrs	r6, r6, #1
  pdwVal = (__IO uint16_t *)(BaseAddr + 0x400U + ((uint32_t)wPMABufAddr * PMA_ACCESS));
 800473c:	eb0c 0444 	add.w	r4, ip, r4, lsl #1
  for (count = n; count != 0U; count--)
 8004740:	bf18      	it	ne
 8004742:	eb03 0646 	addne.w	r6, r3, r6, lsl #1
 8004746:	d005      	beq.n	8004754 <USB_EPStartXfer+0x17c>
    WrVal |= (uint16_t)pBuf[1] << 8;
 8004748:	f833 5b02 	ldrh.w	r5, [r3], #2
  for (count = n; count != 0U; count--)
 800474c:	42b3      	cmp	r3, r6
    *pdwVal = (WrVal & 0xFFFFU);
 800474e:	f824 5b04 	strh.w	r5, [r4], #4
  for (count = n; count != 0U; count--)
 8004752:	d1f9      	bne.n	8004748 <USB_EPStartXfer+0x170>
      PCD_SET_EP_TX_CNT(USBx, ep->num, len);
 8004754:	f8b0 5050 	ldrh.w	r5, [r0, #80]	@ 0x50
 8004758:	780c      	ldrb	r4, [r1, #0]
 800475a:	b2ad      	uxth	r5, r5
 800475c:	f200 4304 	addw	r3, r0, #1028	@ 0x404
 8004760:	0124      	lsls	r4, r4, #4
 8004762:	b292      	uxth	r2, r2
 8004764:	442b      	add	r3, r5
 8004766:	52e2      	strh	r2, [r4, r3]
    PCD_SET_EP_TX_STATUS(USBx, ep->num, USB_EP_TX_VALID);
 8004768:	780a      	ldrb	r2, [r1, #0]
 800476a:	f830 3022 	ldrh.w	r3, [r0, r2, lsl #2]
 800476e:	f423 43e0 	bic.w	r3, r3, #28672	@ 0x7000
 8004772:	f023 0340 	bic.w	r3, r3, #64	@ 0x40
 8004776:	041b      	lsls	r3, r3, #16
 8004778:	0c1b      	lsrs	r3, r3, #16
 800477a:	f083 0330 	eor.w	r3, r3, #48	@ 0x30
 800477e:	f443 4300 	orr.w	r3, r3, #32768	@ 0x8000
 8004782:	f043 0380 	orr.w	r3, r3, #128	@ 0x80
 8004786:	f820 3022 	strh.w	r3, [r0, r2, lsl #2]
 800478a:	e79d      	b.n	80046c8 <USB_EPStartXfer+0xf0>
      PCD_SET_EP_RX_CNT(USBx, ep->num, len);
 800478c:	0954      	lsrs	r4, r2, #5
 800478e:	06d6      	lsls	r6, r2, #27
 8004790:	5aea      	ldrh	r2, [r5, r3]
 8004792:	bf08      	it	eq
 8004794:	f104 34ff 	addeq.w	r4, r4, #4294967295
 8004798:	b292      	uxth	r2, r2
 800479a:	ea42 2284 	orr.w	r2, r2, r4, lsl #10
 800479e:	e77c      	b.n	800469a <USB_EPStartXfer+0xc2>
        return HAL_ERROR;
 80047a0:	2001      	movs	r0, #1
}
 80047a2:	b003      	add	sp, #12
 80047a4:	e8bd 8ff0 	ldmia.w	sp!, {r4, r5, r6, r7, r8, r9, sl, fp, pc}
        PCD_SET_EP_DBUF_CNT(USBx, ep->num, ep->is_in, len);
 80047a8:	0854      	lsrs	r4, r2, #1
 80047aa:	07d2      	lsls	r2, r2, #31
 80047ac:	bf48      	it	mi
 80047ae:	3401      	addmi	r4, #1
 80047b0:	02a2      	lsls	r2, r4, #10
 80047b2:	5aec      	ldrh	r4, [r5, r3]
 80047b4:	b292      	uxth	r2, r2
 80047b6:	b2a4      	uxth	r4, r4
 80047b8:	4314      	orrs	r4, r2
 80047ba:	52ec      	strh	r4, [r5, r3]
 80047bc:	f8b0 4050 	ldrh.w	r4, [r0, #80]	@ 0x50
 80047c0:	b2a4      	uxth	r4, r4
 80047c2:	4434      	add	r4, r6
 80047c4:	5ae5      	ldrh	r5, [r4, r3]
 80047c6:	f3c5 0509 	ubfx	r5, r5, #0, #10
 80047ca:	52e5      	strh	r5, [r4, r3]
 80047cc:	5ae5      	ldrh	r5, [r4, r3]
 80047ce:	b2ad      	uxth	r5, r5
 80047d0:	432a      	orrs	r2, r5
 80047d2:	52e2      	strh	r2, [r4, r3]
 80047d4:	780a      	ldrb	r2, [r1, #0]
 80047d6:	e767      	b.n	80046a8 <USB_EPStartXfer+0xd0>
        PCD_SET_EP_DBUF_CNT(USBx, ep->num, ep->is_in, ep->maxpacket);
 80047d8:	bb53      	cbnz	r3, 8004830 <USB_EPStartXfer+0x258>
 80047da:	f8b0 4050 	ldrh.w	r4, [r0, #80]	@ 0x50
 80047de:	780a      	ldrb	r2, [r1, #0]
 80047e0:	b2a4      	uxth	r4, r4
 80047e2:	f200 4304 	addw	r3, r0, #1028	@ 0x404
 80047e6:	0112      	lsls	r2, r2, #4
 80047e8:	4423      	add	r3, r4
 80047ea:	5a9c      	ldrh	r4, [r3, r2]
 80047ec:	690d      	ldr	r5, [r1, #16]
 80047ee:	f3c4 0409 	ubfx	r4, r4, #0, #10
 80047f2:	2d3e      	cmp	r5, #62	@ 0x3e
 80047f4:	529c      	strh	r4, [r3, r2]
 80047f6:	f200 460c 	addw	r6, r0, #1036	@ 0x40c
 80047fa:	f200 80d3 	bhi.w	80049a4 <USB_EPStartXfer+0x3cc>
 80047fe:	2d00      	cmp	r5, #0
 8004800:	f040 813b 	bne.w	8004a7a <USB_EPStartXfer+0x4a2>
 8004804:	5a9c      	ldrh	r4, [r3, r2]
 8004806:	ea6f 4444 	mvn.w	r4, r4, lsl #17
 800480a:	ea6f 4454 	mvn.w	r4, r4, lsr #17
 800480e:	b2a4      	uxth	r4, r4
 8004810:	529c      	strh	r4, [r3, r2]
 8004812:	f8b0 3050 	ldrh.w	r3, [r0, #80]	@ 0x50
 8004816:	b29b      	uxth	r3, r3
 8004818:	4433      	add	r3, r6
 800481a:	5a9c      	ldrh	r4, [r3, r2]
 800481c:	f3c4 0409 	ubfx	r4, r4, #0, #10
 8004820:	529c      	strh	r4, [r3, r2]
 8004822:	5a9c      	ldrh	r4, [r3, r2]
 8004824:	ea6f 4444 	mvn.w	r4, r4, lsl #17
 8004828:	ea6f 4454 	mvn.w	r4, r4, lsr #17
 800482c:	b2a4      	uxth	r4, r4
 800482e:	529c      	strh	r4, [r3, r2]
        if (ep->xfer_count != 0U)
 8004830:	69cb      	ldr	r3, [r1, #28]
 8004832:	2b00      	cmp	r3, #0
 8004834:	d0ce      	beq.n	80047d4 <USB_EPStartXfer+0x1fc>
          wEPVal = PCD_GET_ENDPOINT(USBx, ep->num);
 8004836:	f244 0340 	movw	r3, #16448	@ 0x4040
 800483a:	780a      	ldrb	r2, [r1, #0]
 800483c:	f830 4022 	ldrh.w	r4, [r0, r2, lsl #2]
          if ((((wEPVal & USB_EP_DTOG_RX) != 0U) && ((wEPVal & USB_EP_DTOG_TX) != 0U)) ||
 8004840:	ea03 0504 	and.w	r5, r3, r4
 8004844:	43a3      	bics	r3, r4
 8004846:	d002      	beq.n	800484e <USB_EPStartXfer+0x276>
 8004848:	2d00      	cmp	r5, #0
 800484a:	f47f af2d 	bne.w	80046a8 <USB_EPStartXfer+0xd0>
            PCD_FREE_USER_BUFFER(USBx, ep->num, 0U);
 800484e:	f830 3022 	ldrh.w	r3, [r0, r2, lsl #2]
 8004852:	f423 43e0 	bic.w	r3, r3, #28672	@ 0x7000
 8004856:	f023 0370 	bic.w	r3, r3, #112	@ 0x70
 800485a:	041b      	lsls	r3, r3, #16
 800485c:	0c1b      	lsrs	r3, r3, #16
 800485e:	f443 4300 	orr.w	r3, r3, #32768	@ 0x8000
 8004862:	f043 03c0 	orr.w	r3, r3, #192	@ 0xc0
 8004866:	f820 3022 	strh.w	r3, [r0, r2, lsl #2]
 800486a:	780a      	ldrb	r2, [r1, #0]
 800486c:	e71c      	b.n	80046a8 <USB_EPStartXfer+0xd0>
      PCD_SET_EP_RX_CNT(USBx, ep->num, len);
 800486e:	0854      	lsrs	r4, r2, #1
 8004870:	07d2      	lsls	r2, r2, #31
 8004872:	5aea      	ldrh	r2, [r5, r3]
 8004874:	bf48      	it	mi
 8004876:	3401      	addmi	r4, #1
 8004878:	b292      	uxth	r2, r2
 800487a:	ea42 2284 	orr.w	r2, r2, r4, lsl #10
 800487e:	b292      	uxth	r2, r2
 8004880:	52ea      	strh	r2, [r5, r3]
 8004882:	780a      	ldrb	r2, [r1, #0]
 8004884:	e710      	b.n	80046a8 <USB_EPStartXfer+0xd0>
        if (ep->xfer_len_db > ep->maxpacket)
 8004886:	42a5      	cmp	r5, r4
 8004888:	f200 4b04 	addw	fp, r0, #1028	@ 0x404
 800488c:	d264      	bcs.n	8004958 <USB_EPStartXfer+0x380>
          PCD_SET_BULK_EP_DBUF(USBx, ep->num);
 800488e:	f830 7026 	ldrh.w	r7, [r0, r6, lsl #2]
          ep->xfer_len_db -= len;
 8004892:	1aa4      	subs	r4, r4, r2
          PCD_SET_BULK_EP_DBUF(USBx, ep->num);
 8004894:	f427 47e0 	bic.w	r7, r7, #28672	@ 0x7000
 8004898:	f027 0770 	bic.w	r7, r7, #112	@ 0x70
 800489c:	043f      	lsls	r7, r7, #16
 800489e:	0c3f      	lsrs	r7, r7, #16
 80048a0:	f447 4701 	orr.w	r7, r7, #33024	@ 0x8100
 80048a4:	f047 0780 	orr.w	r7, r7, #128	@ 0x80
 80048a8:	f820 7026 	strh.w	r7, [r0, r6, lsl #2]
          if ((PCD_GET_ENDPOINT(USBx, ep->num) & USB_EP_DTOG_TX) != 0U)
 80048ac:	f830 7026 	ldrh.w	r7, [r0, r6, lsl #2]
  uint32_t n = ((uint32_t)wNBytes + 1U) >> 1;
 80048b0:	b296      	uxth	r6, r2
          if ((PCD_GET_ENDPOINT(USBx, ep->num) & USB_EP_DTOG_TX) != 0U)
 80048b2:	f017 0f40 	tst.w	r7, #64	@ 0x40
            PCD_SET_EP_DBUF1_CNT(USBx, ep->num, ep->is_in, len);
 80048b6:	f8b0 7050 	ldrh.w	r7, [r0, #80]	@ 0x50
  uint32_t n = ((uint32_t)wNBytes + 1U) >> 1;
 80048ba:	f106 0601 	add.w	r6, r6, #1
          ep->xfer_len_db -= len;
 80048be:	620c      	str	r4, [r1, #32]
  uint32_t n = ((uint32_t)wNBytes + 1U) >> 1;
 80048c0:	ea4f 0656 	mov.w	r6, r6, lsr #1
      PCD_SET_EP_TX_CNT(USBx, ep->num, len);
 80048c4:	fa1f f982 	uxth.w	r9, r2
 80048c8:	f200 4a0c 	addw	sl, r0, #1036	@ 0x40c
            PCD_SET_EP_DBUF1_CNT(USBx, ep->num, ep->is_in, len);
 80048cc:	b2bf      	uxth	r7, r7
          if ((PCD_GET_ENDPOINT(USBx, ep->num) & USB_EP_DTOG_TX) != 0U)
 80048ce:	f000 80a6 	beq.w	8004a1e <USB_EPStartXfer+0x446>
            PCD_SET_EP_DBUF1_CNT(USBx, ep->num, ep->is_in, len);
 80048d2:	4457      	add	r7, sl
 80048d4:	f827 900e 	strh.w	r9, [r7, lr]
  pdwVal = (__IO uint16_t *)(BaseAddr + 0x400U + ((uint32_t)wPMABufAddr * PMA_ACCESS));
 80048d8:	f8b1 800a 	ldrh.w	r8, [r1, #10]
 80048dc:	eb0c 0848 	add.w	r8, ip, r8, lsl #1
  for (count = n; count != 0U; count--)
 80048e0:	b156      	cbz	r6, 80048f8 <USB_EPStartXfer+0x320>
  uint8_t *pBuf = pbUsrBuf;
 80048e2:	461f      	mov	r7, r3
 80048e4:	eb03 0a46 	add.w	sl, r3, r6, lsl #1
 80048e8:	9501      	str	r5, [sp, #4]
    WrVal |= (uint16_t)pBuf[1] << 8;
 80048ea:	f837 5b02 	ldrh.w	r5, [r7], #2
  for (count = n; count != 0U; count--)
 80048ee:	4557      	cmp	r7, sl
    *pdwVal = (WrVal & 0xFFFFU);
 80048f0:	f828 5b04 	strh.w	r5, [r8], #4
  for (count = n; count != 0U; count--)
 80048f4:	d1f9      	bne.n	80048ea <USB_EPStartXfer+0x312>
 80048f6:	9d01      	ldr	r5, [sp, #4]
            ep->xfer_buff += len;
 80048f8:	4413      	add	r3, r2
            if (ep->xfer_len_db > ep->maxpacket)
 80048fa:	42a5      	cmp	r5, r4
            ep->xfer_buff += len;
 80048fc:	614b      	str	r3, [r1, #20]
            if (ep->xfer_len_db > ep->maxpacket)
 80048fe:	f080 80d3 	bcs.w	8004aa8 <USB_EPStartXfer+0x4d0>
              ep->xfer_len_db -= len;
 8004902:	1aa2      	subs	r2, r4, r2
 8004904:	620a      	str	r2, [r1, #32]
            PCD_SET_EP_DBUF0_CNT(USBx, ep->num, ep->is_in, len);
 8004906:	f8b0 2050 	ldrh.w	r2, [r0, #80]	@ 0x50
 800490a:	b292      	uxth	r2, r2
 800490c:	445a      	add	r2, fp
 800490e:	f822 900e 	strh.w	r9, [r2, lr]
  pdwVal = (__IO uint16_t *)(BaseAddr + 0x400U + ((uint32_t)wPMABufAddr * PMA_ACCESS));
 8004912:	890a      	ldrh	r2, [r1, #8]
 8004914:	eb0c 0242 	add.w	r2, ip, r2, lsl #1
  for (count = n; count != 0U; count--)
 8004918:	2e00      	cmp	r6, #0
 800491a:	f43f af25 	beq.w	8004768 <USB_EPStartXfer+0x190>
 800491e:	eb03 0646 	add.w	r6, r3, r6, lsl #1
    WrVal |= (uint16_t)pBuf[1] << 8;
 8004922:	f833 4b02 	ldrh.w	r4, [r3], #2
  for (count = n; count != 0U; count--)
 8004926:	42b3      	cmp	r3, r6
    *pdwVal = (WrVal & 0xFFFFU);
 8004928:	f822 4b04 	strh.w	r4, [r2], #4
  for (count = n; count != 0U; count--)
 800492c:	d1f9      	bne.n	8004922 <USB_EPStartXfer+0x34a>
 800492e:	e71b      	b.n	8004768 <USB_EPStartXfer+0x190>
          PCD_SET_EP_DBUF0_CNT(USBx, ep->num, ep->is_in, len);
 8004930:	f200 4504 	addw	r5, r0, #1028	@ 0x404
 8004934:	4435      	add	r5, r6
 8004936:	f825 200e 	strh.w	r2, [r5, lr]
  pdwVal = (__IO uint16_t *)(BaseAddr + 0x400U + ((uint32_t)wPMABufAddr * PMA_ACCESS));
 800493a:	890a      	ldrh	r2, [r1, #8]
 800493c:	eb0c 0c42 	add.w	ip, ip, r2, lsl #1
  for (count = n; count != 0U; count--)
 8004940:	2c00      	cmp	r4, #0
 8004942:	f43f af11 	beq.w	8004768 <USB_EPStartXfer+0x190>
 8004946:	eb03 0444 	add.w	r4, r3, r4, lsl #1
    WrVal |= (uint16_t)pBuf[1] << 8;
 800494a:	f833 2b02 	ldrh.w	r2, [r3], #2
  for (count = n; count != 0U; count--)
 800494e:	42a3      	cmp	r3, r4
    *pdwVal = (WrVal & 0xFFFFU);
 8004950:	f82c 2b04 	strh.w	r2, [ip], #4
  for (count = n; count != 0U; count--)
 8004954:	d1f9      	bne.n	800494a <USB_EPStartXfer+0x372>
 8004956:	e707      	b.n	8004768 <USB_EPStartXfer+0x190>
          PCD_SET_EP_TX_CNT(USBx, ep->num, len);
 8004958:	b2a5      	uxth	r5, r4
  uint32_t n = ((uint32_t)wNBytes + 1U) >> 1;
 800495a:	462c      	mov	r4, r5
          PCD_CLEAR_BULK_EP_DBUF(USBx, ep->num);
 800495c:	f830 2026 	ldrh.w	r2, [r0, r6, lsl #2]
  uint32_t n = ((uint32_t)wNBytes + 1U) >> 1;
 8004960:	3401      	adds	r4, #1
          PCD_CLEAR_BULK_EP_DBUF(USBx, ep->num);
 8004962:	f422 42e2 	bic.w	r2, r2, #28928	@ 0x7100
 8004966:	f022 0270 	bic.w	r2, r2, #112	@ 0x70
 800496a:	0412      	lsls	r2, r2, #16
 800496c:	0c12      	lsrs	r2, r2, #16
 800496e:	f442 4200 	orr.w	r2, r2, #32768	@ 0x8000
 8004972:	f042 0280 	orr.w	r2, r2, #128	@ 0x80
 8004976:	f820 2026 	strh.w	r2, [r0, r6, lsl #2]
          PCD_SET_EP_TX_CNT(USBx, ep->num, len);
 800497a:	f8b0 2050 	ldrh.w	r2, [r0, #80]	@ 0x50
  for (count = n; count != 0U; count--)
 800497e:	0864      	lsrs	r4, r4, #1
          PCD_SET_EP_TX_CNT(USBx, ep->num, len);
 8004980:	b292      	uxth	r2, r2
 8004982:	445a      	add	r2, fp
 8004984:	f822 500e 	strh.w	r5, [r2, lr]
  pdwVal = (__IO uint16_t *)(BaseAddr + 0x400U + ((uint32_t)wPMABufAddr * PMA_ACCESS));
 8004988:	890a      	ldrh	r2, [r1, #8]
 800498a:	eb0c 0242 	add.w	r2, ip, r2, lsl #1
  for (count = n; count != 0U; count--)
 800498e:	f43f aeeb 	beq.w	8004768 <USB_EPStartXfer+0x190>
 8004992:	eb03 0544 	add.w	r5, r3, r4, lsl #1
    WrVal |= (uint16_t)pBuf[1] << 8;
 8004996:	f833 4b02 	ldrh.w	r4, [r3], #2
  for (count = n; count != 0U; count--)
 800499a:	42ab      	cmp	r3, r5
    *pdwVal = (WrVal & 0xFFFFU);
 800499c:	f822 4b04 	strh.w	r4, [r2], #4
  for (count = n; count != 0U; count--)
 80049a0:	d1f9      	bne.n	8004996 <USB_EPStartXfer+0x3be>
 80049a2:	e6e1      	b.n	8004768 <USB_EPStartXfer+0x190>
        PCD_SET_EP_DBUF_CNT(USBx, ep->num, ep->is_in, ep->maxpacket);
 80049a4:	096c      	lsrs	r4, r5, #5
 80049a6:	06ef      	lsls	r7, r5, #27
 80049a8:	bf08      	it	eq
 80049aa:	f104 34ff 	addeq.w	r4, r4, #4294967295
 80049ae:	5a9d      	ldrh	r5, [r3, r2]
 80049b0:	02a4      	lsls	r4, r4, #10
 80049b2:	b2a4      	uxth	r4, r4
 80049b4:	b2ad      	uxth	r5, r5
 80049b6:	4325      	orrs	r5, r4
 80049b8:	f445 4500 	orr.w	r5, r5, #32768	@ 0x8000
 80049bc:	529d      	strh	r5, [r3, r2]
 80049be:	f8b0 5050 	ldrh.w	r5, [r0, #80]	@ 0x50
 80049c2:	b2ad      	uxth	r5, r5
 80049c4:	4435      	add	r5, r6
 80049c6:	5aab      	ldrh	r3, [r5, r2]
 80049c8:	f3c3 0309 	ubfx	r3, r3, #0, #10
 80049cc:	52ab      	strh	r3, [r5, r2]
 80049ce:	5aab      	ldrh	r3, [r5, r2]
 80049d0:	4323      	orrs	r3, r4
 80049d2:	ea6f 4343 	mvn.w	r3, r3, lsl #17
 80049d6:	ea6f 4353 	mvn.w	r3, r3, lsr #17
 80049da:	b29b      	uxth	r3, r3
 80049dc:	52ab      	strh	r3, [r5, r2]
 80049de:	e727      	b.n	8004830 <USB_EPStartXfer+0x258>
        PCD_SET_EP_DBUF_CNT(USBx, ep->num, ep->is_in, len);
 80049e0:	0954      	lsrs	r4, r2, #5
 80049e2:	06d7      	lsls	r7, r2, #27
 80049e4:	bf08      	it	eq
 80049e6:	f104 34ff 	addeq.w	r4, r4, #4294967295
 80049ea:	02a2      	lsls	r2, r4, #10
 80049ec:	5aec      	ldrh	r4, [r5, r3]
 80049ee:	b292      	uxth	r2, r2
 80049f0:	b2a4      	uxth	r4, r4
 80049f2:	4314      	orrs	r4, r2
 80049f4:	f444 4400 	orr.w	r4, r4, #32768	@ 0x8000
 80049f8:	52ec      	strh	r4, [r5, r3]
 80049fa:	f8b0 4050 	ldrh.w	r4, [r0, #80]	@ 0x50
 80049fe:	b2a4      	uxth	r4, r4
 8004a00:	4434      	add	r4, r6
 8004a02:	5ae5      	ldrh	r5, [r4, r3]
 8004a04:	f3c5 0509 	ubfx	r5, r5, #0, #10
 8004a08:	52e5      	strh	r5, [r4, r3]
 8004a0a:	5ae5      	ldrh	r5, [r4, r3]
 8004a0c:	432a      	orrs	r2, r5
 8004a0e:	ea6f 4242 	mvn.w	r2, r2, lsl #17
 8004a12:	ea6f 4252 	mvn.w	r2, r2, lsr #17
 8004a16:	b292      	uxth	r2, r2
 8004a18:	52e2      	strh	r2, [r4, r3]
 8004a1a:	780a      	ldrb	r2, [r1, #0]
 8004a1c:	e644      	b.n	80046a8 <USB_EPStartXfer+0xd0>
            PCD_SET_EP_DBUF0_CNT(USBx, ep->num, ep->is_in, len);
 8004a1e:	445f      	add	r7, fp
 8004a20:	f827 900e 	strh.w	r9, [r7, lr]
  pdwVal = (__IO uint16_t *)(BaseAddr + 0x400U + ((uint32_t)wPMABufAddr * PMA_ACCESS));
 8004a24:	f8b1 8008 	ldrh.w	r8, [r1, #8]
 8004a28:	eb0c 0848 	add.w	r8, ip, r8, lsl #1
  for (count = n; count != 0U; count--)
 8004a2c:	b156      	cbz	r6, 8004a44 <USB_EPStartXfer+0x46c>
  uint8_t *pBuf = pbUsrBuf;
 8004a2e:	461f      	mov	r7, r3
 8004a30:	eb03 0b46 	add.w	fp, r3, r6, lsl #1
 8004a34:	9501      	str	r5, [sp, #4]
    WrVal |= (uint16_t)pBuf[1] << 8;
 8004a36:	f837 5b02 	ldrh.w	r5, [r7], #2
  for (count = n; count != 0U; count--)
 8004a3a:	455f      	cmp	r7, fp
    *pdwVal = (WrVal & 0xFFFFU);
 8004a3c:	f828 5b04 	strh.w	r5, [r8], #4
  for (count = n; count != 0U; count--)
 8004a40:	d1f9      	bne.n	8004a36 <USB_EPStartXfer+0x45e>
 8004a42:	9d01      	ldr	r5, [sp, #4]
            ep->xfer_buff += len;
 8004a44:	4413      	add	r3, r2
            if (ep->xfer_len_db > ep->maxpacket)
 8004a46:	42a5      	cmp	r5, r4
            ep->xfer_buff += len;
 8004a48:	614b      	str	r3, [r1, #20]
            if (ep->xfer_len_db > ep->maxpacket)
 8004a4a:	d234      	bcs.n	8004ab6 <USB_EPStartXfer+0x4de>
              ep->xfer_len_db -= len;
 8004a4c:	1aa4      	subs	r4, r4, r2
            PCD_SET_EP_DBUF1_CNT(USBx, ep->num, ep->is_in, len);
 8004a4e:	f8b0 2050 	ldrh.w	r2, [r0, #80]	@ 0x50
 8004a52:	620c      	str	r4, [r1, #32]
 8004a54:	b292      	uxth	r2, r2
 8004a56:	4452      	add	r2, sl
 8004a58:	f822 900e 	strh.w	r9, [r2, lr]
  pdwVal = (__IO uint16_t *)(BaseAddr + 0x400U + ((uint32_t)wPMABufAddr * PMA_ACCESS));
 8004a5c:	894a      	ldrh	r2, [r1, #10]
 8004a5e:	eb0c 0242 	add.w	r2, ip, r2, lsl #1
  for (count = n; count != 0U; count--)
 8004a62:	2e00      	cmp	r6, #0
 8004a64:	f43f ae80 	beq.w	8004768 <USB_EPStartXfer+0x190>
 8004a68:	eb03 0646 	add.w	r6, r3, r6, lsl #1
    WrVal |= (uint16_t)pBuf[1] << 8;
 8004a6c:	f833 4b02 	ldrh.w	r4, [r3], #2
  for (count = n; count != 0U; count--)
 8004a70:	42b3      	cmp	r3, r6
    *pdwVal = (WrVal & 0xFFFFU);
 8004a72:	f822 4b04 	strh.w	r4, [r2], #4
  for (count = n; count != 0U; count--)
 8004a76:	d1f9      	bne.n	8004a6c <USB_EPStartXfer+0x494>
 8004a78:	e676      	b.n	8004768 <USB_EPStartXfer+0x190>
        PCD_SET_EP_DBUF_CNT(USBx, ep->num, ep->is_in, ep->maxpacket);
 8004a7a:	086c      	lsrs	r4, r5, #1
 8004a7c:	07ed      	lsls	r5, r5, #31
 8004a7e:	bf48      	it	mi
 8004a80:	3401      	addmi	r4, #1
 8004a82:	5a9d      	ldrh	r5, [r3, r2]
 8004a84:	02a4      	lsls	r4, r4, #10
 8004a86:	b2a4      	uxth	r4, r4
 8004a88:	b2ad      	uxth	r5, r5
 8004a8a:	4325      	orrs	r5, r4
 8004a8c:	529d      	strh	r5, [r3, r2]
 8004a8e:	f8b0 3050 	ldrh.w	r3, [r0, #80]	@ 0x50
 8004a92:	b29b      	uxth	r3, r3
 8004a94:	4433      	add	r3, r6
 8004a96:	5a9d      	ldrh	r5, [r3, r2]
 8004a98:	f3c5 0509 	ubfx	r5, r5, #0, #10
 8004a9c:	529d      	strh	r5, [r3, r2]
 8004a9e:	5a9d      	ldrh	r5, [r3, r2]
 8004aa0:	b2ad      	uxth	r5, r5
 8004aa2:	432c      	orrs	r4, r5
 8004aa4:	529c      	strh	r4, [r3, r2]
 8004aa6:	e6c3      	b.n	8004830 <USB_EPStartXfer+0x258>
  uint32_t n = ((uint32_t)wNBytes + 1U) >> 1;
 8004aa8:	b2a6      	uxth	r6, r4
 8004aaa:	3601      	adds	r6, #1
              ep->xfer_len_db = 0U;
 8004aac:	2200      	movs	r2, #0
            PCD_SET_EP_DBUF0_CNT(USBx, ep->num, ep->is_in, len);
 8004aae:	fa1f f984 	uxth.w	r9, r4
  uint32_t n = ((uint32_t)wNBytes + 1U) >> 1;
 8004ab2:	0876      	lsrs	r6, r6, #1
 8004ab4:	e726      	b.n	8004904 <USB_EPStartXfer+0x32c>
 8004ab6:	b2a6      	uxth	r6, r4
 8004ab8:	3601      	adds	r6, #1
            PCD_SET_EP_DBUF0_CNT(USBx, ep->num, ep->is_in, len);
 8004aba:	fa1f f984 	uxth.w	r9, r4
  uint32_t n = ((uint32_t)wNBytes + 1U) >> 1;
 8004abe:	0876      	lsrs	r6, r6, #1
              ep->xfer_len_db = 0U;
 8004ac0:	2400      	movs	r4, #0
 8004ac2:	e7c4      	b.n	8004a4e <USB_EPStartXfer+0x476>

08004ac4 <USB_EPSetStall>:
  if (ep->is_in != 0U)
 8004ac4:	784b      	ldrb	r3, [r1, #1]
    PCD_SET_EP_TX_STATUS(USBx, ep->num, USB_EP_TX_STALL);
 8004ac6:	780a      	ldrb	r2, [r1, #0]
  if (ep->is_in != 0U)
 8004ac8:	b18b      	cbz	r3, 8004aee <USB_EPSetStall+0x2a>
    PCD_SET_EP_TX_STATUS(USBx, ep->num, USB_EP_TX_STALL);
 8004aca:	f830 3022 	ldrh.w	r3, [r0, r2, lsl #2]
 8004ace:	f423 43e0 	bic.w	r3, r3, #28672	@ 0x7000
 8004ad2:	f023 0340 	bic.w	r3, r3, #64	@ 0x40
 8004ad6:	041b      	lsls	r3, r3, #16
 8004ad8:	0c1b      	lsrs	r3, r3, #16
 8004ada:	f083 0310 	eor.w	r3, r3, #16
 8004ade:	f443 4300 	orr.w	r3, r3, #32768	@ 0x8000
 8004ae2:	f043 0380 	orr.w	r3, r3, #128	@ 0x80
 8004ae6:	f820 3022 	strh.w	r3, [r0, r2, lsl #2]
}
 8004aea:	2000      	movs	r0, #0
 8004aec:	4770      	bx	lr
    PCD_SET_EP_RX_STATUS(USBx, ep->num, USB_EP_RX_STALL);
 8004aee:	f830 3022 	ldrh.w	r3, [r0, r2, lsl #2]
 8004af2:	f423 4380 	bic.w	r3, r3, #16384	@ 0x4000
 8004af6:	f023 0370 	bic.w	r3, r3, #112	@ 0x70
 8004afa:	041b      	lsls	r3, r3, #16
 8004afc:	0c1b      	lsrs	r3, r3, #16
 8004afe:	f483 5380 	eor.w	r3, r3, #4096	@ 0x1000
 8004b02:	f443 4300 	orr.w	r3, r3, #32768	@ 0x8000
 8004b06:	f043 0380 	orr.w	r3, r3, #128	@ 0x80
 8004b0a:	f820 3022 	strh.w	r3, [r0, r2, lsl #2]
}
 8004b0e:	2000      	movs	r0, #0
 8004b10:	4770      	bx	lr
 8004b12:	bf00      	nop

08004b14 <USB_EPClearStall>:
  if (ep->doublebuffer == 0U)
 8004b14:	7b0b      	ldrb	r3, [r1, #12]
 8004b16:	bb3b      	cbnz	r3, 8004b68 <USB_EPClearStall+0x54>
    if (ep->is_in != 0U)
 8004b18:	784b      	ldrb	r3, [r1, #1]
      PCD_CLEAR_TX_DTOG(USBx, ep->num);
 8004b1a:	780a      	ldrb	r2, [r1, #0]
    if (ep->is_in != 0U)
 8004b1c:	b333      	cbz	r3, 8004b6c <USB_EPClearStall+0x58>
      PCD_CLEAR_TX_DTOG(USBx, ep->num);
 8004b1e:	f830 3022 	ldrh.w	r3, [r0, r2, lsl #2]
 8004b22:	065b      	lsls	r3, r3, #25
 8004b24:	d50d      	bpl.n	8004b42 <USB_EPClearStall+0x2e>
 8004b26:	f830 3022 	ldrh.w	r3, [r0, r2, lsl #2]
 8004b2a:	f423 43e0 	bic.w	r3, r3, #28672	@ 0x7000
 8004b2e:	f023 0370 	bic.w	r3, r3, #112	@ 0x70
 8004b32:	041b      	lsls	r3, r3, #16
 8004b34:	0c1b      	lsrs	r3, r3, #16
 8004b36:	f443 4300 	orr.w	r3, r3, #32768	@ 0x8000
 8004b3a:	f043 03c0 	orr.w	r3, r3, #192	@ 0xc0
 8004b3e:	f820 3022 	strh.w	r3, [r0, r2, lsl #2]
      if (ep->type != EP_TYPE_ISOC)
 8004b42:	78cb      	ldrb	r3, [r1, #3]
 8004b44:	2b01      	cmp	r3, #1
 8004b46:	d00f      	beq.n	8004b68 <USB_EPClearStall+0x54>
        PCD_SET_EP_TX_STATUS(USBx, ep->num, USB_EP_TX_NAK);
 8004b48:	f830 3022 	ldrh.w	r3, [r0, r2, lsl #2]
 8004b4c:	f423 43e0 	bic.w	r3, r3, #28672	@ 0x7000
 8004b50:	f023 0340 	bic.w	r3, r3, #64	@ 0x40
 8004b54:	041b      	lsls	r3, r3, #16
 8004b56:	0c1b      	lsrs	r3, r3, #16
 8004b58:	f083 0320 	eor.w	r3, r3, #32
 8004b5c:	f443 4300 	orr.w	r3, r3, #32768	@ 0x8000
 8004b60:	f043 0380 	orr.w	r3, r3, #128	@ 0x80
 8004b64:	f820 3022 	strh.w	r3, [r0, r2, lsl #2]
}
 8004b68:	2000      	movs	r0, #0
 8004b6a:	4770      	bx	lr
      PCD_CLEAR_RX_DTOG(USBx, ep->num);
 8004b6c:	f830 3022 	ldrh.w	r3, [r0, r2, lsl #2]
 8004b70:	045b      	lsls	r3, r3, #17
 8004b72:	d50d      	bpl.n	8004b90 <USB_EPClearStall+0x7c>
 8004b74:	f830 3022 	ldrh.w	r3, [r0, r2, lsl #2]
 8004b78:	f423 43e0 	bic.w	r3, r3, #28672	@ 0x7000
 8004b7c:	f023 0370 	bic.w	r3, r3, #112	@ 0x70
 8004b80:	041b      	lsls	r3, r3, #16
 8004b82:	0c1b      	lsrs	r3, r3, #16
 8004b84:	f443 4340 	orr.w	r3, r3, #49152	@ 0xc000
 8004b88:	f043 0380 	orr.w	r3, r3, #128	@ 0x80
 8004b8c:	f820 3022 	strh.w	r3, [r0, r2, lsl #2]
      PCD_SET_EP_RX_STATUS(USBx, ep->num, USB_EP_RX_VALID);
 8004b90:	f830 3022 	ldrh.w	r3, [r0, r2, lsl #2]
 8004b94:	f423 4380 	bic.w	r3, r3, #16384	@ 0x4000
 8004b98:	f023 0370 	bic.w	r3, r3, #112	@ 0x70
 8004b9c:	041b      	lsls	r3, r3, #16
 8004b9e:	0c1b      	lsrs	r3, r3, #16
 8004ba0:	f483 5340 	eor.w	r3, r3, #12288	@ 0x3000
 8004ba4:	f443 4300 	orr.w	r3, r3, #32768	@ 0x8000
 8004ba8:	f043 0380 	orr.w	r3, r3, #128	@ 0x80
 8004bac:	f820 3022 	strh.w	r3, [r0, r2, lsl #2]
}
 8004bb0:	2000      	movs	r0, #0
 8004bb2:	4770      	bx	lr

08004bb4 <USB_SetDevAddress>:
  if (address == 0U)
 8004bb4:	b911      	cbnz	r1, 8004bbc <USB_SetDevAddress+0x8>
    USBx->DADDR = (uint16_t)USB_DADDR_EF;
 8004bb6:	2380      	movs	r3, #128	@ 0x80
 8004bb8:	f8a0 304c 	strh.w	r3, [r0, #76]	@ 0x4c
}
 8004bbc:	2000      	movs	r0, #0
 8004bbe:	4770      	bx	lr

08004bc0 <USB_DevConnect>:
HAL_StatusTypeDef  USB_DevConnect(USB_TypeDef *USBx)
 8004bc0:	2000      	movs	r0, #0
 8004bc2:	4770      	bx	lr

08004bc4 <USB_DevDisconnect>:
HAL_StatusTypeDef  USB_DevDisconnect(USB_TypeDef *USBx)
 8004bc4:	2000      	movs	r0, #0
 8004bc6:	4770      	bx	lr

08004bc8 <USB_ReadInterrupts>:
  tmpreg = USBx->ISTR;
 8004bc8:	f8b0 0044 	ldrh.w	r0, [r0, #68]	@ 0x44
}
 8004bcc:	b280      	uxth	r0, r0
 8004bce:	4770      	bx	lr

08004bd0 <USB_EP0_OutStart>:
}
 8004bd0:	2000      	movs	r0, #0
 8004bd2:	4770      	bx	lr

08004bd4 <USB_WritePMA>:
  uint32_t n = ((uint32_t)wNBytes + 1U) >> 1;
 8004bd4:	3301      	adds	r3, #1
  pdwVal = (__IO uint16_t *)(BaseAddr + 0x400U + ((uint32_t)wPMABufAddr * PMA_ACCESS));
 8004bd6:	eb00 0042 	add.w	r0, r0, r2, lsl #1
  for (count = n; count != 0U; count--)
 8004bda:	085b      	lsrs	r3, r3, #1
  pdwVal = (__IO uint16_t *)(BaseAddr + 0x400U + ((uint32_t)wPMABufAddr * PMA_ACCESS));
 8004bdc:	f500 6080 	add.w	r0, r0, #1024	@ 0x400
  for (count = n; count != 0U; count--)
 8004be0:	d007      	beq.n	8004bf2 <USB_WritePMA+0x1e>
 8004be2:	eb00 0283 	add.w	r2, r0, r3, lsl #2
    WrVal |= (uint16_t)pBuf[1] << 8;
 8004be6:	f831 3b02 	ldrh.w	r3, [r1], #2
    *pdwVal = (WrVal & 0xFFFFU);
 8004bea:	f820 3b04 	strh.w	r3, [r0], #4
  for (count = n; count != 0U; count--)
 8004bee:	4282      	cmp	r2, r0
 8004bf0:	d1f9      	bne.n	8004be6 <USB_WritePMA+0x12>
#endif /* PMA_ACCESS */

    pBuf++;
    pBuf++;
  }
}
 8004bf2:	4770      	bx	lr

08004bf4 <USB_ReadPMA>:
  * @param   wPMABufAddr address into PMA.
  * @param   wNBytes no. of bytes to be copied.
  * @retval None
  */
void USB_ReadPMA(USB_TypeDef const *USBx, uint8_t *pbUsrBuf, uint16_t wPMABufAddr, uint16_t wNBytes)
{
 8004bf4:	b570      	push	{r4, r5, r6, lr}
  uint32_t count;
  uint32_t RdVal;
  __IO uint16_t *pdwVal;
  uint8_t *pBuf = pbUsrBuf;

  pdwVal = (__IO uint16_t *)(BaseAddr + 0x400U + ((uint32_t)wPMABufAddr * PMA_ACCESS));
 8004bf6:	eb00 0042 	add.w	r0, r0, r2, lsl #1

  for (count = n; count != 0U; count--)
 8004bfa:	085e      	lsrs	r6, r3, #1
  pdwVal = (__IO uint16_t *)(BaseAddr + 0x400U + ((uint32_t)wPMABufAddr * PMA_ACCESS));
 8004bfc:	f500 6580 	add.w	r5, r0, #1024	@ 0x400
  for (count = n; count != 0U; count--)
 8004c00:	d014      	beq.n	8004c2c <USB_ReadPMA+0x38>
  pdwVal = (__IO uint16_t *)(BaseAddr + 0x400U + ((uint32_t)wPMABufAddr * PMA_ACCESS));
 8004c02:	4628      	mov	r0, r5
  for (count = n; count != 0U; count--)
 8004c04:	46b6      	mov	lr, r6
 8004c06:	f101 0c02 	add.w	ip, r1, #2
  {
    RdVal = *(__IO uint16_t *)pdwVal;
 8004c0a:	f830 2b04 	ldrh.w	r2, [r0], #4
  for (count = n; count != 0U; count--)
 8004c0e:	f10c 0c02 	add.w	ip, ip, #2
    RdVal = *(__IO uint16_t *)pdwVal;
 8004c12:	b292      	uxth	r2, r2
    pdwVal++;
    *pBuf = (uint8_t)((RdVal >> 0) & 0xFFU);
    pBuf++;
    *pBuf = (uint8_t)((RdVal >> 8) & 0xFFU);
 8004c14:	0a14      	lsrs	r4, r2, #8
  for (count = n; count != 0U; count--)
 8004c16:	f1be 0e01 	subs.w	lr, lr, #1
    *pBuf = (uint8_t)((RdVal >> 0) & 0xFFU);
 8004c1a:	f80c 2c04 	strb.w	r2, [ip, #-4]
    *pBuf = (uint8_t)((RdVal >> 8) & 0xFFU);
 8004c1e:	f80c 4c03 	strb.w	r4, [ip, #-3]
  for (count = n; count != 0U; count--)
 8004c22:	d1f2      	bne.n	8004c0a <USB_ReadPMA+0x16>
 8004c24:	eb01 0146 	add.w	r1, r1, r6, lsl #1
 8004c28:	eb05 0586 	add.w	r5, r5, r6, lsl #2
#if PMA_ACCESS > 1U
    pdwVal++;
#endif /* PMA_ACCESS */
  }

  if ((wNBytes % 2U) != 0U)
 8004c2c:	07db      	lsls	r3, r3, #31
  {
    RdVal = *pdwVal;
 8004c2e:	bf44      	itt	mi
 8004c30:	882b      	ldrhmi	r3, [r5, #0]
    *pBuf = (uint8_t)((RdVal >> 0) & 0xFFU);
 8004c32:	700b      	strbmi	r3, [r1, #0]
  }
}
 8004c34:	bd70      	pop	{r4, r5, r6, pc}
 8004c36:	bf00      	nop

08004c38 <USBD_CUSTOM_HID_GetFSCfgDesc>:
  * @param  speed : current device speed
  * @param  length : pointer data length
  * @retval pointer to descriptor buffer
  */
static uint8_t  *USBD_CUSTOM_HID_GetFSCfgDesc(uint16_t *length)
{
 8004c38:	4603      	mov	r3, r0
  *length = sizeof(USBD_CUSTOM_HID_CfgFSDesc);
 8004c3a:	2229      	movs	r2, #41	@ 0x29
  return USBD_CUSTOM_HID_CfgFSDesc;
}
 8004c3c:	f240 007c 	movw	r0, #124	@ 0x7c
  *length = sizeof(USBD_CUSTOM_HID_CfgFSDesc);
 8004c40:	801a      	strh	r2, [r3, #0]
}
 8004c42:	f2c2 0000 	movt	r0, #8192	@ 0x2000
 8004c46:	4770      	bx	lr

08004c48 <USBD_CUSTOM_HID_GetHSCfgDesc>:
  * @param  speed : current device speed
  * @param  length : pointer data length
  * @retval pointer to descriptor buffer
  */
static uint8_t  *USBD_CUSTOM_HID_GetHSCfgDesc(uint16_t *length)
{
 8004c48:	4603      	mov	r3, r0
  *length = sizeof(USBD_CUSTOM_HID_CfgHSDesc);
 8004c4a:	2229      	movs	r2, #41	@ 0x29
  return USBD_CUSTOM_HID_CfgHSDesc;
}
 8004c4c:	f240 0050 	movw	r0, #80	@ 0x50
  *length = sizeof(USBD_CUSTOM_HID_CfgHSDesc);
 8004c50:	801a      	strh	r2, [r3, #0]
}
 8004c52:	f2c2 0000 	movt	r0, #8192	@ 0x2000
 8004c56:	4770      	bx	lr

08004c58 <USBD_CUSTOM_HID_GetOtherSpeedCfgDesc>:
  * @param  speed : current device speed
  * @param  length : pointer data length
  * @retval pointer to descriptor buffer
  */
static uint8_t  *USBD_CUSTOM_HID_GetOtherSpeedCfgDesc(uint16_t *length)
{
 8004c58:	4603      	mov	r3, r0
  *length = sizeof(USBD_CUSTOM_HID_OtherSpeedCfgDesc);
 8004c5a:	2229      	movs	r2, #41	@ 0x29
  return USBD_CUSTOM_HID_OtherSpeedCfgDesc;
}
 8004c5c:	f240 0024 	movw	r0, #36	@ 0x24
  *length = sizeof(USBD_CUSTOM_HID_OtherSpeedCfgDesc);
 8004c60:	801a      	strh	r2, [r3, #0]
}
 8004c62:	f2c2 0000 	movt	r0, #8192	@ 0x2000
 8004c66:	4770      	bx	lr

08004c68 <USBD_CUSTOM_HID_DataIn>:
static uint8_t  USBD_CUSTOM_HID_DataIn(USBD_HandleTypeDef *pdev,
                                       uint8_t epnum)
{
  /* Ensure that the FIFO is empty before a new transfer, this condition could
  be caused by  a new transfer before the end of the previous transfer */
  ((USBD_CUSTOM_HID_HandleTypeDef *)pdev->pClassData)->state = CUSTOM_HID_IDLE;
 8004c68:	2300      	movs	r3, #0
 8004c6a:	f8d0 22b8 	ldr.w	r2, [r0, #696]	@ 0x2b8

  return USBD_OK;
}
 8004c6e:	4618      	mov	r0, r3
  ((USBD_CUSTOM_HID_HandleTypeDef *)pdev->pClassData)->state = CUSTOM_HID_IDLE;
 8004c70:	7513      	strb	r3, [r2, #20]
}
 8004c72:	4770      	bx	lr

08004c74 <USBD_CUSTOM_HID_EP0_RxReady>:
  *         Handles control request data.
  * @param  pdev: device instance
  * @retval status
  */
static uint8_t USBD_CUSTOM_HID_EP0_RxReady(USBD_HandleTypeDef *pdev)
{
 8004c74:	b510      	push	{r4, lr}
  USBD_CUSTOM_HID_HandleTypeDef     *hhid = (USBD_CUSTOM_HID_HandleTypeDef *)pdev->pClassData;
 8004c76:	f8d0 42b8 	ldr.w	r4, [r0, #696]	@ 0x2b8

  if (hhid->IsReportAvailable == 1U)
 8004c7a:	6923      	ldr	r3, [r4, #16]
 8004c7c:	2b01      	cmp	r3, #1
 8004c7e:	d107      	bne.n	8004c90 <USBD_CUSTOM_HID_EP0_RxReady+0x1c>
  {
    ((USBD_CUSTOM_HID_ItfTypeDef *)pdev->pUserData)->OutEvent(hhid->Report_buf[0],
 8004c80:	f8d0 32bc 	ldr.w	r3, [r0, #700]	@ 0x2bc
 8004c84:	7861      	ldrb	r1, [r4, #1]
 8004c86:	68db      	ldr	r3, [r3, #12]
 8004c88:	7820      	ldrb	r0, [r4, #0]
 8004c8a:	4798      	blx	r3
                                                              hhid->Report_buf[1]);
    hhid->IsReportAvailable = 0U;
 8004c8c:	2300      	movs	r3, #0
 8004c8e:	6123      	str	r3, [r4, #16]
  }

  return USBD_OK;
}
 8004c90:	2000      	movs	r0, #0
 8004c92:	bd10      	pop	{r4, pc}

08004c94 <USBD_CUSTOM_HID_GetDeviceQualifierDesc>:
*         return Device Qualifier descriptor
* @param  length : pointer data length
* @retval pointer to descriptor buffer
*/
static uint8_t  *USBD_CUSTOM_HID_GetDeviceQualifierDesc(uint16_t *length)
{
 8004c94:	4603      	mov	r3, r0
  *length = sizeof(USBD_CUSTOM_HID_DeviceQualifierDesc);
 8004c96:	220a      	movs	r2, #10
  return USBD_CUSTOM_HID_DeviceQualifierDesc;
}
 8004c98:	f240 000c 	movw	r0, #12
  *length = sizeof(USBD_CUSTOM_HID_DeviceQualifierDesc);
 8004c9c:	801a      	strh	r2, [r3, #0]
}
 8004c9e:	f2c2 0000 	movt	r0, #8192	@ 0x2000
 8004ca2:	4770      	bx	lr

08004ca4 <USBD_CUSTOM_HID_DataOut>:
{
 8004ca4:	b538      	push	{r3, r4, r5, lr}
  ((USBD_CUSTOM_HID_ItfTypeDef *)pdev->pUserData)->OutEvent(hhid->Report_buf[0],
 8004ca6:	e9d0 53ae 	ldrd	r5, r3, [r0, #696]	@ 0x2b8
{
 8004caa:	4604      	mov	r4, r0
  ((USBD_CUSTOM_HID_ItfTypeDef *)pdev->pUserData)->OutEvent(hhid->Report_buf[0],
 8004cac:	7869      	ldrb	r1, [r5, #1]
 8004cae:	68db      	ldr	r3, [r3, #12]
 8004cb0:	7828      	ldrb	r0, [r5, #0]
 8004cb2:	4798      	blx	r3
  USBD_LL_PrepareReceive(pdev, CUSTOM_HID_EPOUT_ADDR, hhid->Report_buf,
 8004cb4:	2302      	movs	r3, #2
 8004cb6:	2101      	movs	r1, #1
 8004cb8:	462a      	mov	r2, r5
 8004cba:	4620      	mov	r0, r4
 8004cbc:	f000 ff70 	bl	8005ba0 <USBD_LL_PrepareReceive>
}
 8004cc0:	2000      	movs	r0, #0
 8004cc2:	bd38      	pop	{r3, r4, r5, pc}

08004cc4 <USBD_CUSTOM_HID_Setup>:
  uint16_t status_info = 0U;
 8004cc4:	2200      	movs	r2, #0
{
 8004cc6:	b510      	push	{r4, lr}
 8004cc8:	b082      	sub	sp, #8
  uint16_t status_info = 0U;
 8004cca:	f8ad 2006 	strh.w	r2, [sp, #6]
 8004cce:	780a      	ldrb	r2, [r1, #0]
{
 8004cd0:	460b      	mov	r3, r1
  switch (req->bmRequest & USB_REQ_TYPE_MASK)
 8004cd2:	f012 0260 	ands.w	r2, r2, #96	@ 0x60
  USBD_CUSTOM_HID_HandleTypeDef *hhid = (USBD_CUSTOM_HID_HandleTypeDef *)pdev->pClassData;
 8004cd6:	f8d0 12b8 	ldr.w	r1, [r0, #696]	@ 0x2b8
  switch (req->bmRequest & USB_REQ_TYPE_MASK)
 8004cda:	d023      	beq.n	8004d24 <USBD_CUSTOM_HID_Setup+0x60>
 8004cdc:	2a20      	cmp	r2, #32
 8004cde:	d005      	beq.n	8004cec <USBD_CUSTOM_HID_Setup+0x28>
            USBD_CtlError(pdev, req);
 8004ce0:	4619      	mov	r1, r3
 8004ce2:	f000 fc91 	bl	8005608 <USBD_CtlError>
      ret = USBD_FAIL;
 8004ce6:	2002      	movs	r0, #2
}
 8004ce8:	b002      	add	sp, #8
 8004cea:	bd10      	pop	{r4, pc}
      switch (req->bRequest)
 8004cec:	785a      	ldrb	r2, [r3, #1]
 8004cee:	3a02      	subs	r2, #2
 8004cf0:	2a09      	cmp	r2, #9
 8004cf2:	d8f5      	bhi.n	8004ce0 <USBD_CUSTOM_HID_Setup+0x1c>
 8004cf4:	f20f 0c04 	addw	ip, pc, #4
 8004cf8:	f85c f022 	ldr.w	pc, [ip, r2, lsl #2]
 8004cfc:	08004d8b 	.word	0x08004d8b
 8004d00:	08004d81 	.word	0x08004d81
 8004d04:	08004ce1 	.word	0x08004ce1
 8004d08:	08004ce1 	.word	0x08004ce1
 8004d0c:	08004ce1 	.word	0x08004ce1
 8004d10:	08004ce1 	.word	0x08004ce1
 8004d14:	08004ce1 	.word	0x08004ce1
 8004d18:	08004d75 	.word	0x08004d75
 8004d1c:	08004d6d 	.word	0x08004d6d
 8004d20:	08004d65 	.word	0x08004d65
      switch (req->bRequest)
 8004d24:	785a      	ldrb	r2, [r3, #1]
 8004d26:	2a0b      	cmp	r2, #11
 8004d28:	d8da      	bhi.n	8004ce0 <USBD_CUSTOM_HID_Setup+0x1c>
 8004d2a:	f20f 0c08 	addw	ip, pc, #8
 8004d2e:	f85c f022 	ldr.w	pc, [ip, r2, lsl #2]
 8004d32:	bf00      	nop
 8004d34:	08004dcb 	.word	0x08004dcb
 8004d38:	08004ce1 	.word	0x08004ce1
 8004d3c:	08004ce1 	.word	0x08004ce1
 8004d40:	08004ce1 	.word	0x08004ce1
 8004d44:	08004ce1 	.word	0x08004ce1
 8004d48:	08004ce1 	.word	0x08004ce1
 8004d4c:	08004db5 	.word	0x08004db5
 8004d50:	08004ce1 	.word	0x08004ce1
 8004d54:	08004ce1 	.word	0x08004ce1
 8004d58:	08004ce1 	.word	0x08004ce1
 8004d5c:	08004da3 	.word	0x08004da3
 8004d60:	08004d95 	.word	0x08004d95
          hhid->Protocol = (uint8_t)(req->wValue);
 8004d64:	789b      	ldrb	r3, [r3, #2]
 8004d66:	604b      	str	r3, [r1, #4]
  uint8_t ret = USBD_OK;
 8004d68:	2000      	movs	r0, #0
 8004d6a:	e7bd      	b.n	8004ce8 <USBD_CUSTOM_HID_Setup+0x24>
          hhid->IdleState = (uint8_t)(req->wValue >> 8);
 8004d6c:	885b      	ldrh	r3, [r3, #2]
 8004d6e:	0a1b      	lsrs	r3, r3, #8
 8004d70:	608b      	str	r3, [r1, #8]
          break;
 8004d72:	e7f9      	b.n	8004d68 <USBD_CUSTOM_HID_Setup+0xa4>
          hhid->IsReportAvailable = 1U;
 8004d74:	2401      	movs	r4, #1
          USBD_CtlPrepareRx(pdev, hhid->Report_buf, req->wLength);
 8004d76:	88da      	ldrh	r2, [r3, #6]
          hhid->IsReportAvailable = 1U;
 8004d78:	610c      	str	r4, [r1, #16]
          USBD_CtlPrepareRx(pdev, hhid->Report_buf, req->wLength);
 8004d7a:	f000 fc91 	bl	80056a0 <USBD_CtlPrepareRx>
          break;
 8004d7e:	e7f3      	b.n	8004d68 <USBD_CUSTOM_HID_Setup+0xa4>
          USBD_CtlSendData(pdev, (uint8_t *)(void *)&hhid->Protocol, 1U);
 8004d80:	2201      	movs	r2, #1
 8004d82:	3104      	adds	r1, #4
 8004d84:	f000 fc74 	bl	8005670 <USBD_CtlSendData>
          break;
 8004d88:	e7ee      	b.n	8004d68 <USBD_CUSTOM_HID_Setup+0xa4>
          USBD_CtlSendData(pdev, (uint8_t *)(void *)&hhid->IdleState, 1U);
 8004d8a:	2201      	movs	r2, #1
 8004d8c:	3108      	adds	r1, #8
 8004d8e:	f000 fc6f 	bl	8005670 <USBD_CtlSendData>
          break;
 8004d92:	e7e9      	b.n	8004d68 <USBD_CUSTOM_HID_Setup+0xa4>
          if (pdev->dev_state == USBD_STATE_CONFIGURED)
 8004d94:	f890 229c 	ldrb.w	r2, [r0, #668]	@ 0x29c
 8004d98:	2a03      	cmp	r2, #3
 8004d9a:	d1a1      	bne.n	8004ce0 <USBD_CUSTOM_HID_Setup+0x1c>
            hhid->AltSetting = (uint8_t)(req->wValue);
 8004d9c:	789b      	ldrb	r3, [r3, #2]
 8004d9e:	60cb      	str	r3, [r1, #12]
 8004da0:	e7e2      	b.n	8004d68 <USBD_CUSTOM_HID_Setup+0xa4>
          if (pdev->dev_state == USBD_STATE_CONFIGURED)
 8004da2:	f890 229c 	ldrb.w	r2, [r0, #668]	@ 0x29c
 8004da6:	2a03      	cmp	r2, #3
 8004da8:	d19a      	bne.n	8004ce0 <USBD_CUSTOM_HID_Setup+0x1c>
            USBD_CtlSendData(pdev, (uint8_t *)(void *)&hhid->AltSetting, 1U);
 8004daa:	2201      	movs	r2, #1
 8004dac:	310c      	adds	r1, #12
 8004dae:	f000 fc5f 	bl	8005670 <USBD_CtlSendData>
 8004db2:	e7d9      	b.n	8004d68 <USBD_CUSTOM_HID_Setup+0xa4>
          if (req->wValue >> 8 == CUSTOM_HID_REPORT_DESC)
 8004db4:	885a      	ldrh	r2, [r3, #2]
 8004db6:	0a12      	lsrs	r2, r2, #8
 8004db8:	2a22      	cmp	r2, #34	@ 0x22
 8004dba:	d010      	beq.n	8004dde <USBD_CUSTOM_HID_Setup+0x11a>
            if (req->wValue >> 8 == CUSTOM_HID_DESCRIPTOR_TYPE)
 8004dbc:	2a21      	cmp	r2, #33	@ 0x21
 8004dbe:	d016      	beq.n	8004dee <USBD_CUSTOM_HID_Setup+0x12a>
  uint8_t  *pbuf = NULL;
 8004dc0:	2100      	movs	r1, #0
  uint16_t len = 0U;
 8004dc2:	460a      	mov	r2, r1
          USBD_CtlSendData(pdev, pbuf, len);
 8004dc4:	f000 fc54 	bl	8005670 <USBD_CtlSendData>
          break;
 8004dc8:	e7ce      	b.n	8004d68 <USBD_CUSTOM_HID_Setup+0xa4>
          if (pdev->dev_state == USBD_STATE_CONFIGURED)
 8004dca:	f890 229c 	ldrb.w	r2, [r0, #668]	@ 0x29c
 8004dce:	2a03      	cmp	r2, #3
 8004dd0:	d186      	bne.n	8004ce0 <USBD_CUSTOM_HID_Setup+0x1c>
            USBD_CtlSendData(pdev, (uint8_t *)(void *)&status_info, 2U);
 8004dd2:	2202      	movs	r2, #2
 8004dd4:	f10d 0106 	add.w	r1, sp, #6
 8004dd8:	f000 fc4a 	bl	8005670 <USBD_CtlSendData>
 8004ddc:	e7c4      	b.n	8004d68 <USBD_CUSTOM_HID_Setup+0xa4>
            len = MIN(USBD_CUSTOM_HID_REPORT_DESC_SIZE, req->wLength);
 8004dde:	88da      	ldrh	r2, [r3, #6]
            pbuf = ((USBD_CUSTOM_HID_ItfTypeDef *)pdev->pUserData)->pReport;
 8004de0:	f8d0 32bc 	ldr.w	r3, [r0, #700]	@ 0x2bc
            len = MIN(USBD_CUSTOM_HID_REPORT_DESC_SIZE, req->wLength);
 8004de4:	2a50      	cmp	r2, #80	@ 0x50
 8004de6:	bf28      	it	cs
 8004de8:	2250      	movcs	r2, #80	@ 0x50
            pbuf = ((USBD_CUSTOM_HID_ItfTypeDef *)pdev->pUserData)->pReport;
 8004dea:	6819      	ldr	r1, [r3, #0]
 8004dec:	e7ea      	b.n	8004dc4 <USBD_CUSTOM_HID_Setup+0x100>
              pbuf = USBD_CUSTOM_HID_Desc;
 8004dee:	f240 0118 	movw	r1, #24
              len = MIN(USB_CUSTOM_HID_DESC_SIZ, req->wLength);
 8004df2:	88da      	ldrh	r2, [r3, #6]
              pbuf = USBD_CUSTOM_HID_Desc;
 8004df4:	f2c2 0100 	movt	r1, #8192	@ 0x2000
              len = MIN(USB_CUSTOM_HID_DESC_SIZ, req->wLength);
 8004df8:	2a09      	cmp	r2, #9
 8004dfa:	bf28      	it	cs
 8004dfc:	2209      	movcs	r2, #9
 8004dfe:	e7e1      	b.n	8004dc4 <USBD_CUSTOM_HID_Setup+0x100>

08004e00 <USBD_CUSTOM_HID_DeInit>:
{
 8004e00:	b538      	push	{r3, r4, r5, lr}
 8004e02:	4604      	mov	r4, r0
  pdev->ep_in[CUSTOM_HID_EPIN_ADDR & 0xFU].is_used = 0U;
 8004e04:	2500      	movs	r5, #0
  USBD_LL_CloseEP(pdev, CUSTOM_HID_EPIN_ADDR);
 8004e06:	2181      	movs	r1, #129	@ 0x81
 8004e08:	f000 fe7a 	bl	8005b00 <USBD_LL_CloseEP>
  USBD_LL_CloseEP(pdev, CUSTOM_HID_EPOUT_ADDR);
 8004e0c:	2101      	movs	r1, #1
 8004e0e:	4620      	mov	r0, r4
  pdev->ep_in[CUSTOM_HID_EPIN_ADDR & 0xFU].is_used = 0U;
 8004e10:	62e5      	str	r5, [r4, #44]	@ 0x2c
  USBD_LL_CloseEP(pdev, CUSTOM_HID_EPOUT_ADDR);
 8004e12:	f000 fe75 	bl	8005b00 <USBD_LL_CloseEP>
  if (pdev->pClassData != NULL)
 8004e16:	f8d4 32b8 	ldr.w	r3, [r4, #696]	@ 0x2b8
  pdev->ep_out[CUSTOM_HID_EPOUT_ADDR & 0xFU].is_used = 0U;
 8004e1a:	f8c4 516c 	str.w	r5, [r4, #364]	@ 0x16c
  if (pdev->pClassData != NULL)
 8004e1e:	b14b      	cbz	r3, 8004e34 <USBD_CUSTOM_HID_DeInit+0x34>
    ((USBD_CUSTOM_HID_ItfTypeDef *)pdev->pUserData)->DeInit();
 8004e20:	f8d4 32bc 	ldr.w	r3, [r4, #700]	@ 0x2bc
 8004e24:	689b      	ldr	r3, [r3, #8]
 8004e26:	4798      	blx	r3
    USBD_free(pdev->pClassData);
 8004e28:	f8d4 02b8 	ldr.w	r0, [r4, #696]	@ 0x2b8
 8004e2c:	f000 feca 	bl	8005bc4 <USBD_static_free>
    pdev->pClassData = NULL;
 8004e30:	f8c4 52b8 	str.w	r5, [r4, #696]	@ 0x2b8
}
 8004e34:	2000      	movs	r0, #0
 8004e36:	bd38      	pop	{r3, r4, r5, pc}

08004e38 <USBD_CUSTOM_HID_Init>:
{
 8004e38:	b5f8      	push	{r3, r4, r5, r6, r7, lr}
 8004e3a:	4604      	mov	r4, r0
  pdev->ep_in[CUSTOM_HID_EPIN_ADDR & 0xFU].is_used = 1U;
 8004e3c:	2601      	movs	r6, #1
  USBD_LL_OpenEP(pdev, CUSTOM_HID_EPIN_ADDR, USBD_EP_TYPE_INTR,
 8004e3e:	2340      	movs	r3, #64	@ 0x40
 8004e40:	2203      	movs	r2, #3
 8004e42:	2181      	movs	r1, #129	@ 0x81
 8004e44:	f000 fe4e 	bl	8005ae4 <USBD_LL_OpenEP>
  USBD_LL_OpenEP(pdev, CUSTOM_HID_EPOUT_ADDR, USBD_EP_TYPE_INTR,
 8004e48:	2340      	movs	r3, #64	@ 0x40
 8004e4a:	2203      	movs	r2, #3
 8004e4c:	4631      	mov	r1, r6
 8004e4e:	4620      	mov	r0, r4
  pdev->ep_in[CUSTOM_HID_EPIN_ADDR & 0xFU].is_used = 1U;
 8004e50:	62e6      	str	r6, [r4, #44]	@ 0x2c
  USBD_LL_OpenEP(pdev, CUSTOM_HID_EPOUT_ADDR, USBD_EP_TYPE_INTR,
 8004e52:	f000 fe47 	bl	8005ae4 <USBD_LL_OpenEP>
  pdev->pClassData = USBD_malloc(sizeof(USBD_CUSTOM_HID_HandleTypeDef));
 8004e56:	2018      	movs	r0, #24
  pdev->ep_out[CUSTOM_HID_EPOUT_ADDR & 0xFU].is_used = 1U;
 8004e58:	f8c4 616c 	str.w	r6, [r4, #364]	@ 0x16c
  pdev->pClassData = USBD_malloc(sizeof(USBD_CUSTOM_HID_HandleTypeDef));
 8004e5c:	f000 feac 	bl	8005bb8 <USBD_static_malloc>
 8004e60:	f8c4 02b8 	str.w	r0, [r4, #696]	@ 0x2b8
  if (pdev->pClassData == NULL)
 8004e64:	b170      	cbz	r0, 8004e84 <USBD_CUSTOM_HID_Init+0x4c>
    hhid->state = CUSTOM_HID_IDLE;
 8004e66:	2700      	movs	r7, #0
 8004e68:	4605      	mov	r5, r0
 8004e6a:	7507      	strb	r7, [r0, #20]
    ((USBD_CUSTOM_HID_ItfTypeDef *)pdev->pUserData)->Init();
 8004e6c:	f8d4 32bc 	ldr.w	r3, [r4, #700]	@ 0x2bc
 8004e70:	685b      	ldr	r3, [r3, #4]
 8004e72:	4798      	blx	r3
    USBD_LL_PrepareReceive(pdev, CUSTOM_HID_EPOUT_ADDR, hhid->Report_buf,
 8004e74:	2302      	movs	r3, #2
 8004e76:	462a      	mov	r2, r5
 8004e78:	4631      	mov	r1, r6
 8004e7a:	4620      	mov	r0, r4
 8004e7c:	f000 fe90 	bl	8005ba0 <USBD_LL_PrepareReceive>
  uint8_t ret = 0U;
 8004e80:	4638      	mov	r0, r7
}
 8004e82:	bdf8      	pop	{r3, r4, r5, r6, r7, pc}
    ret = 1U;
 8004e84:	4630      	mov	r0, r6
}
 8004e86:	bdf8      	pop	{r3, r4, r5, r6, r7, pc}

08004e88 <USBD_CUSTOM_HID_SendReport>:
  if (pdev->dev_state == USBD_STATE_CONFIGURED)
 8004e88:	f890 329c 	ldrb.w	r3, [r0, #668]	@ 0x29c
 8004e8c:	2b03      	cmp	r3, #3
 8004e8e:	d001      	beq.n	8004e94 <USBD_CUSTOM_HID_SendReport+0xc>
  return USBD_OK;
 8004e90:	2000      	movs	r0, #0
}
 8004e92:	4770      	bx	lr
{
 8004e94:	b510      	push	{r4, lr}
  USBD_CUSTOM_HID_HandleTypeDef     *hhid = (USBD_CUSTOM_HID_HandleTypeDef *)pdev->pClassData;
 8004e96:	f8d0 42b8 	ldr.w	r4, [r0, #696]	@ 0x2b8
    if (hhid->state == CUSTOM_HID_IDLE)
 8004e9a:	7d23      	ldrb	r3, [r4, #20]
 8004e9c:	b10b      	cbz	r3, 8004ea2 <USBD_CUSTOM_HID_SendReport+0x1a>
      return USBD_BUSY;
 8004e9e:	2001      	movs	r0, #1
}
 8004ea0:	bd10      	pop	{r4, pc}
      hhid->state = CUSTOM_HID_BUSY;
 8004ea2:	f04f 0c01 	mov.w	ip, #1
      USBD_LL_Transmit(pdev, CUSTOM_HID_EPIN_ADDR, report, len);
 8004ea6:	4613      	mov	r3, r2
      hhid->state = CUSTOM_HID_BUSY;
 8004ea8:	f884 c014 	strb.w	ip, [r4, #20]
      USBD_LL_Transmit(pdev, CUSTOM_HID_EPIN_ADDR, report, len);
 8004eac:	460a      	mov	r2, r1
 8004eae:	2181      	movs	r1, #129	@ 0x81
 8004eb0:	f000 fe6a 	bl	8005b88 <USBD_LL_Transmit>
  return USBD_OK;
 8004eb4:	2000      	movs	r0, #0
}
 8004eb6:	bd10      	pop	{r4, pc}

08004eb8 <USBD_CUSTOM_HID_RegisterInterface>:
  * @param  fops: CUSTOMHID Interface callback
  * @retval status
  */
uint8_t  USBD_CUSTOM_HID_RegisterInterface(USBD_HandleTypeDef   *pdev,
                                           USBD_CUSTOM_HID_ItfTypeDef *fops)
{
 8004eb8:	4603      	mov	r3, r0
  uint8_t  ret = USBD_FAIL;

  if (fops != NULL)
 8004eba:	b119      	cbz	r1, 8004ec4 <USBD_CUSTOM_HID_RegisterInterface+0xc>
  {
    pdev->pUserData = fops;
    ret = USBD_OK;
 8004ebc:	2000      	movs	r0, #0
    pdev->pUserData = fops;
 8004ebe:	f8c3 12bc 	str.w	r1, [r3, #700]	@ 0x2bc
    ret = USBD_OK;
 8004ec2:	4770      	bx	lr
  uint8_t  ret = USBD_FAIL;
 8004ec4:	2002      	movs	r0, #2
  }

  return ret;
}
 8004ec6:	4770      	bx	lr

08004ec8 <USBD_Init>:
*/
USBD_StatusTypeDef USBD_Init(USBD_HandleTypeDef *pdev,
                             USBD_DescriptorsTypeDef *pdesc, uint8_t id)
{
  /* Check whether the USB Host handle is valid */
  if (pdev == NULL)
 8004ec8:	b188      	cbz	r0, 8004eee <USBD_Init+0x26>
{
 8004eca:	b508      	push	{r3, lr}
#endif
    return USBD_FAIL;
  }

  /* Unlink previous class*/
  if (pdev->pClass != NULL)
 8004ecc:	f8d0 32b4 	ldr.w	r3, [r0, #692]	@ 0x2b4
 8004ed0:	b113      	cbz	r3, 8004ed8 <USBD_Init+0x10>
  {
    pdev->pClass = NULL;
 8004ed2:	2300      	movs	r3, #0
 8004ed4:	f8c0 32b4 	str.w	r3, [r0, #692]	@ 0x2b4
  }

  /* Assign USBD Descriptors */
  if (pdesc != NULL)
 8004ed8:	b109      	cbz	r1, 8004ede <USBD_Init+0x16>
  {
    pdev->pDesc = pdesc;
 8004eda:	f8c0 12b0 	str.w	r1, [r0, #688]	@ 0x2b0
  }

  /* Set Device initial State */
  pdev->dev_state = USBD_STATE_DEFAULT;
 8004ede:	2301      	movs	r3, #1
  pdev->id = id;
 8004ee0:	7002      	strb	r2, [r0, #0]
  pdev->dev_state = USBD_STATE_DEFAULT;
 8004ee2:	f880 329c 	strb.w	r3, [r0, #668]	@ 0x29c
  /* Initialize low level driver */
  USBD_LL_Init(pdev);
 8004ee6:	f000 fdb1 	bl	8005a4c <USBD_LL_Init>

  return USBD_OK;
 8004eea:	2000      	movs	r0, #0
}
 8004eec:	bd08      	pop	{r3, pc}
    return USBD_FAIL;
 8004eee:	2002      	movs	r0, #2
}
 8004ef0:	4770      	bx	lr
 8004ef2:	bf00      	nop

08004ef4 <USBD_RegisterClass>:
  * @param  pDevice : Device Handle
  * @param  pclass: Class handle
  * @retval USBD Status
  */
USBD_StatusTypeDef  USBD_RegisterClass(USBD_HandleTypeDef *pdev, USBD_ClassTypeDef *pclass)
{
 8004ef4:	4603      	mov	r3, r0
  USBD_StatusTypeDef status = USBD_OK;
  if (pclass != NULL)
 8004ef6:	b119      	cbz	r1, 8004f00 <USBD_RegisterClass+0xc>
  {
    /* link the class to the USB Device handle */
    pdev->pClass = pclass;
    status = USBD_OK;
 8004ef8:	2000      	movs	r0, #0
    pdev->pClass = pclass;
 8004efa:	f8c3 12b4 	str.w	r1, [r3, #692]	@ 0x2b4
    status = USBD_OK;
 8004efe:	4770      	bx	lr
  else
  {
#if (USBD_DEBUG_LEVEL > 1U)
    USBD_ErrLog("Invalid Class handle");
#endif
    status = USBD_FAIL;
 8004f00:	2002      	movs	r0, #2
  }

  return status;
}
 8004f02:	4770      	bx	lr

08004f04 <USBD_Start>:
  *         Start the USB Device Core.
  * @param  pdev: Device Handle
  * @retval USBD Status
  */
USBD_StatusTypeDef  USBD_Start(USBD_HandleTypeDef *pdev)
{
 8004f04:	b508      	push	{r3, lr}
  /* Start the low level driver  */
  USBD_LL_Start(pdev);
 8004f06:	f000 fde1 	bl	8005acc <USBD_LL_Start>

  return USBD_OK;
}
 8004f0a:	2000      	movs	r0, #0
 8004f0c:	bd08      	pop	{r3, pc}
 8004f0e:	bf00      	nop

08004f10 <USBD_SetClassConfig>:
* @param  cfgidx: configuration index
* @retval status
*/

USBD_StatusTypeDef USBD_SetClassConfig(USBD_HandleTypeDef  *pdev, uint8_t cfgidx)
{
 8004f10:	b508      	push	{r3, lr}
  USBD_StatusTypeDef ret = USBD_FAIL;

  if (pdev->pClass != NULL)
 8004f12:	f8d0 32b4 	ldr.w	r3, [r0, #692]	@ 0x2b4
 8004f16:	b133      	cbz	r3, 8004f26 <USBD_SetClassConfig+0x16>
  {
    /* Set configuration  and Start the Class*/
    if (pdev->pClass->Init(pdev, cfgidx) == 0U)
 8004f18:	681b      	ldr	r3, [r3, #0]
 8004f1a:	4798      	blx	r3
 8004f1c:	3800      	subs	r0, #0
 8004f1e:	bf18      	it	ne
 8004f20:	2001      	movne	r0, #1
 8004f22:	0040      	lsls	r0, r0, #1
      ret = USBD_OK;
    }
  }

  return ret;
}
 8004f24:	bd08      	pop	{r3, pc}
  USBD_StatusTypeDef ret = USBD_FAIL;
 8004f26:	2002      	movs	r0, #2
}
 8004f28:	bd08      	pop	{r3, pc}
 8004f2a:	bf00      	nop

08004f2c <USBD_ClrClassConfig>:
* @param  pdev: device instance
* @param  cfgidx: configuration index
* @retval status: USBD_StatusTypeDef
*/
USBD_StatusTypeDef USBD_ClrClassConfig(USBD_HandleTypeDef  *pdev, uint8_t cfgidx)
{
 8004f2c:	b508      	push	{r3, lr}
  /* Clear configuration  and De-initialize the Class process*/
  pdev->pClass->DeInit(pdev, cfgidx);
 8004f2e:	f8d0 32b4 	ldr.w	r3, [r0, #692]	@ 0x2b4
 8004f32:	685b      	ldr	r3, [r3, #4]
 8004f34:	4798      	blx	r3

  return USBD_OK;
}
 8004f36:	2000      	movs	r0, #0
 8004f38:	bd08      	pop	{r3, pc}
 8004f3a:	bf00      	nop

08004f3c <USBD_LL_SetupStage>:
*         Handle the setup stage
* @param  pdev: device instance
* @retval status
*/
USBD_StatusTypeDef USBD_LL_SetupStage(USBD_HandleTypeDef *pdev, uint8_t *psetup)
{
 8004f3c:	b538      	push	{r3, r4, r5, lr}
 8004f3e:	4604      	mov	r4, r0
  USBD_ParseSetupRequest(&pdev->request, psetup);
 8004f40:	f500 752a 	add.w	r5, r0, #680	@ 0x2a8
 8004f44:	4628      	mov	r0, r5
 8004f46:	f000 fb53 	bl	80055f0 <USBD_ParseSetupRequest>

  pdev->ep0_state = USBD_EP0_SETUP;
 8004f4a:	2301      	movs	r3, #1

  pdev->ep0_data_len = pdev->request.wLength;

  switch (pdev->request.bmRequest & 0x1FU)
 8004f4c:	f894 12a8 	ldrb.w	r1, [r4, #680]	@ 0x2a8
  pdev->ep0_data_len = pdev->request.wLength;
 8004f50:	f8b4 22ae 	ldrh.w	r2, [r4, #686]	@ 0x2ae
  pdev->ep0_state = USBD_EP0_SETUP;
 8004f54:	f8c4 3294 	str.w	r3, [r4, #660]	@ 0x294
  pdev->ep0_data_len = pdev->request.wLength;
 8004f58:	f001 031f 	and.w	r3, r1, #31
  switch (pdev->request.bmRequest & 0x1FU)
 8004f5c:	2b01      	cmp	r3, #1
  pdev->ep0_data_len = pdev->request.wLength;
 8004f5e:	f8c4 2298 	str.w	r2, [r4, #664]	@ 0x298
  switch (pdev->request.bmRequest & 0x1FU)
 8004f62:	d00e      	beq.n	8004f82 <USBD_LL_SetupStage+0x46>
 8004f64:	2b02      	cmp	r3, #2
 8004f66:	d006      	beq.n	8004f76 <USBD_LL_SetupStage+0x3a>
 8004f68:	b98b      	cbnz	r3, 8004f8e <USBD_LL_SetupStage+0x52>
  {
    case USB_REQ_RECIPIENT_DEVICE:
      USBD_StdDevReq(pdev, &pdev->request);
 8004f6a:	4629      	mov	r1, r5
 8004f6c:	4620      	mov	r0, r4
 8004f6e:	f000 f8fd 	bl	800516c <USBD_StdDevReq>
      USBD_LL_StallEP(pdev, (pdev->request.bmRequest & 0x80U));
      break;
  }

  return USBD_OK;
}
 8004f72:	2000      	movs	r0, #0
 8004f74:	bd38      	pop	{r3, r4, r5, pc}
      USBD_StdEPReq(pdev, &pdev->request);
 8004f76:	4629      	mov	r1, r5
 8004f78:	4620      	mov	r0, r4
 8004f7a:	f000 fa9f 	bl	80054bc <USBD_StdEPReq>
}
 8004f7e:	2000      	movs	r0, #0
 8004f80:	bd38      	pop	{r3, r4, r5, pc}
      USBD_StdItfReq(pdev, &pdev->request);
 8004f82:	4629      	mov	r1, r5
 8004f84:	4620      	mov	r0, r4
 8004f86:	f000 fa65 	bl	8005454 <USBD_StdItfReq>
}
 8004f8a:	2000      	movs	r0, #0
 8004f8c:	bd38      	pop	{r3, r4, r5, pc}
      USBD_LL_StallEP(pdev, (pdev->request.bmRequest & 0x80U));
 8004f8e:	4620      	mov	r0, r4
 8004f90:	f001 0180 	and.w	r1, r1, #128	@ 0x80
 8004f94:	f000 fdc0 	bl	8005b18 <USBD_LL_StallEP>
}
 8004f98:	2000      	movs	r0, #0
 8004f9a:	bd38      	pop	{r3, r4, r5, pc}

08004f9c <USBD_LL_DataOutStage>:
* @param  epnum: endpoint index
* @retval status
*/
USBD_StatusTypeDef USBD_LL_DataOutStage(USBD_HandleTypeDef *pdev,
                                        uint8_t epnum, uint8_t *pdata)
{
 8004f9c:	b510      	push	{r4, lr}
 8004f9e:	4604      	mov	r4, r0
  USBD_EndpointTypeDef *pep;

  if (epnum == 0U)
 8004fa0:	b959      	cbnz	r1, 8004fba <USBD_LL_DataOutStage+0x1e>
 8004fa2:	4694      	mov	ip, r2
  {
    pep = &pdev->ep_out[0];

    if (pdev->ep0_state == USBD_EP0_DATA_OUT)
 8004fa4:	f8d0 2294 	ldr.w	r2, [r0, #660]	@ 0x294
 8004fa8:	2a03      	cmp	r2, #3
 8004faa:	d013      	beq.n	8004fd4 <USBD_LL_DataOutStage+0x38>
        USBD_CtlSendStatus(pdev);
      }
    }
    else
    {
      if (pdev->ep0_state == USBD_EP0_STATUS_OUT)
 8004fac:	2a05      	cmp	r2, #5
 8004fae:	d10d      	bne.n	8004fcc <USBD_LL_DataOutStage+0x30>
      {
        /*
         * STATUS PHASE completed, update ep0_state to idle
         */
        pdev->ep0_state = USBD_EP0_IDLE;
 8004fb0:	f8c4 1294 	str.w	r1, [r4, #660]	@ 0x294
        USBD_LL_StallEP(pdev, 0U);
 8004fb4:	f000 fdb0 	bl	8005b18 <USBD_LL_StallEP>
 8004fb8:	e008      	b.n	8004fcc <USBD_LL_DataOutStage+0x30>
      }
    }
  }
  else if ((pdev->pClass->DataOut != NULL) &&
 8004fba:	f8d0 32b4 	ldr.w	r3, [r0, #692]	@ 0x2b4
 8004fbe:	699b      	ldr	r3, [r3, #24]
 8004fc0:	b133      	cbz	r3, 8004fd0 <USBD_LL_DataOutStage+0x34>
 8004fc2:	f890 229c 	ldrb.w	r2, [r0, #668]	@ 0x29c
 8004fc6:	2a03      	cmp	r2, #3
 8004fc8:	d102      	bne.n	8004fd0 <USBD_LL_DataOutStage+0x34>
           (pdev->dev_state == USBD_STATE_CONFIGURED))
  {
    pdev->pClass->DataOut(pdev, epnum);
 8004fca:	4798      	blx	r3
  {
    /* should never be in this condition */
    return USBD_FAIL;
  }

  return USBD_OK;
 8004fcc:	2000      	movs	r0, #0
}
 8004fce:	bd10      	pop	{r4, pc}
    return USBD_FAIL;
 8004fd0:	2002      	movs	r0, #2
}
 8004fd2:	bd10      	pop	{r4, pc}
      if (pep->rem_length > pep->maxpacket)
 8004fd4:	e9d0 3258 	ldrd	r3, r2, [r0, #352]	@ 0x160
 8004fd8:	4293      	cmp	r3, r2
 8004fda:	d90a      	bls.n	8004ff2 <USBD_LL_DataOutStage+0x56>
        pep->rem_length -= pep->maxpacket;
 8004fdc:	1a9b      	subs	r3, r3, r2
        USBD_CtlContinueRx(pdev, pdata,
 8004fde:	429a      	cmp	r2, r3
 8004fe0:	4661      	mov	r1, ip
        pep->rem_length -= pep->maxpacket;
 8004fe2:	f8c0 3160 	str.w	r3, [r0, #352]	@ 0x160
        USBD_CtlContinueRx(pdev, pdata,
 8004fe6:	bf8c      	ite	hi
 8004fe8:	b29a      	uxthhi	r2, r3
 8004fea:	b292      	uxthls	r2, r2
 8004fec:	f000 fb66 	bl	80056bc <USBD_CtlContinueRx>
 8004ff0:	e7ec      	b.n	8004fcc <USBD_LL_DataOutStage+0x30>
        if ((pdev->pClass->EP0_RxReady != NULL) &&
 8004ff2:	f8d0 32b4 	ldr.w	r3, [r0, #692]	@ 0x2b4
 8004ff6:	691b      	ldr	r3, [r3, #16]
 8004ff8:	b11b      	cbz	r3, 8005002 <USBD_LL_DataOutStage+0x66>
 8004ffa:	f890 229c 	ldrb.w	r2, [r0, #668]	@ 0x29c
 8004ffe:	2a03      	cmp	r2, #3
 8005000:	d003      	beq.n	800500a <USBD_LL_DataOutStage+0x6e>
        USBD_CtlSendStatus(pdev);
 8005002:	4620      	mov	r0, r4
 8005004:	f000 fb64 	bl	80056d0 <USBD_CtlSendStatus>
 8005008:	e7e0      	b.n	8004fcc <USBD_LL_DataOutStage+0x30>
          pdev->pClass->EP0_RxReady(pdev);
 800500a:	4798      	blx	r3
 800500c:	e7f9      	b.n	8005002 <USBD_LL_DataOutStage+0x66>
 800500e:	bf00      	nop

08005010 <USBD_LL_DataInStage>:
* @param  epnum: endpoint index
* @retval status
*/
USBD_StatusTypeDef USBD_LL_DataInStage(USBD_HandleTypeDef *pdev,
                                       uint8_t epnum, uint8_t *pdata)
{
 8005010:	b570      	push	{r4, r5, r6, lr}
 8005012:	4604      	mov	r4, r0
  USBD_EndpointTypeDef *pep;

  if (epnum == 0U)
 8005014:	b991      	cbnz	r1, 800503c <USBD_LL_DataInStage+0x2c>
  {
    pep = &pdev->ep_in[0];

    if (pdev->ep0_state == USBD_EP0_DATA_IN)
 8005016:	f8d0 3294 	ldr.w	r3, [r0, #660]	@ 0x294
 800501a:	2b02      	cmp	r3, #2
 800501c:	d01b      	beq.n	8005056 <USBD_LL_DataInStage+0x46>
        }
      }
    }
    else
    {
      if ((pdev->ep0_state == USBD_EP0_STATUS_IN) ||
 800501e:	f033 0304 	bics.w	r3, r3, #4
 8005022:	d102      	bne.n	800502a <USBD_LL_DataInStage+0x1a>
          (pdev->ep0_state == USBD_EP0_IDLE))
      {
        USBD_LL_StallEP(pdev, 0x80U);
 8005024:	2180      	movs	r1, #128	@ 0x80
 8005026:	f000 fd77 	bl	8005b18 <USBD_LL_StallEP>
      }
    }

    if (pdev->dev_test_mode == 1U)
 800502a:	f894 32a0 	ldrb.w	r3, [r4, #672]	@ 0x2a0
 800502e:	2b01      	cmp	r3, #1
 8005030:	d102      	bne.n	8005038 <USBD_LL_DataInStage+0x28>
    {
      USBD_RunTestMode(pdev);
      pdev->dev_test_mode = 0U;
 8005032:	2300      	movs	r3, #0
 8005034:	f884 32a0 	strb.w	r3, [r4, #672]	@ 0x2a0
  {
    /* should never be in this condition */
    return USBD_FAIL;
  }

  return USBD_OK;
 8005038:	2000      	movs	r0, #0
}
 800503a:	bd70      	pop	{r4, r5, r6, pc}
  else if ((pdev->pClass->DataIn != NULL) &&
 800503c:	f8d0 32b4 	ldr.w	r3, [r0, #692]	@ 0x2b4
 8005040:	695b      	ldr	r3, [r3, #20]
 8005042:	b133      	cbz	r3, 8005052 <USBD_LL_DataInStage+0x42>
 8005044:	f890 229c 	ldrb.w	r2, [r0, #668]	@ 0x29c
 8005048:	2a03      	cmp	r2, #3
 800504a:	d102      	bne.n	8005052 <USBD_LL_DataInStage+0x42>
    pdev->pClass->DataIn(pdev, epnum);
 800504c:	4798      	blx	r3
  return USBD_OK;
 800504e:	2000      	movs	r0, #0
 8005050:	e7f3      	b.n	800503a <USBD_LL_DataInStage+0x2a>
    return USBD_FAIL;
 8005052:	2002      	movs	r0, #2
}
 8005054:	bd70      	pop	{r4, r5, r6, pc}
      if (pep->rem_length > pep->maxpacket)
 8005056:	e9d0 3608 	ldrd	r3, r6, [r0, #32]
 800505a:	42b3      	cmp	r3, r6
 800505c:	d827      	bhi.n	80050ae <USBD_LL_DataInStage+0x9e>
        if ((pep->total_length % pep->maxpacket == 0U) &&
 800505e:	69c3      	ldr	r3, [r0, #28]
 8005060:	fbb3 f5f6 	udiv	r5, r3, r6
 8005064:	fb06 3515 	mls	r5, r6, r5, r3
 8005068:	b98d      	cbnz	r5, 800508e <USBD_LL_DataInStage+0x7e>
 800506a:	429e      	cmp	r6, r3
 800506c:	d80f      	bhi.n	800508e <USBD_LL_DataInStage+0x7e>
            (pep->total_length >= pep->maxpacket) &&
 800506e:	f8d0 2298 	ldr.w	r2, [r0, #664]	@ 0x298
 8005072:	4293      	cmp	r3, r2
 8005074:	d20b      	bcs.n	800508e <USBD_LL_DataInStage+0x7e>
          USBD_CtlContinueSendData(pdev, NULL, 0U);
 8005076:	462a      	mov	r2, r5
 8005078:	f000 fb08 	bl	800568c <USBD_CtlContinueSendData>
          USBD_LL_PrepareReceive(pdev, 0U, NULL, 0U);
 800507c:	462b      	mov	r3, r5
 800507e:	462a      	mov	r2, r5
 8005080:	4629      	mov	r1, r5
 8005082:	4620      	mov	r0, r4
          pdev->ep0_data_len = 0U;
 8005084:	f8c4 5298 	str.w	r5, [r4, #664]	@ 0x298
          USBD_LL_PrepareReceive(pdev, 0U, NULL, 0U);
 8005088:	f000 fd8a 	bl	8005ba0 <USBD_LL_PrepareReceive>
 800508c:	e7cd      	b.n	800502a <USBD_LL_DataInStage+0x1a>
          if ((pdev->pClass->EP0_TxSent != NULL) &&
 800508e:	f8d4 32b4 	ldr.w	r3, [r4, #692]	@ 0x2b4
 8005092:	68db      	ldr	r3, [r3, #12]
 8005094:	b11b      	cbz	r3, 800509e <USBD_LL_DataInStage+0x8e>
 8005096:	f894 229c 	ldrb.w	r2, [r4, #668]	@ 0x29c
 800509a:	2a03      	cmp	r2, #3
 800509c:	d015      	beq.n	80050ca <USBD_LL_DataInStage+0xba>
          USBD_LL_StallEP(pdev, 0x80U);
 800509e:	2180      	movs	r1, #128	@ 0x80
 80050a0:	4620      	mov	r0, r4
 80050a2:	f000 fd39 	bl	8005b18 <USBD_LL_StallEP>
          USBD_CtlReceiveStatus(pdev);
 80050a6:	4620      	mov	r0, r4
 80050a8:	f000 fb1e 	bl	80056e8 <USBD_CtlReceiveStatus>
 80050ac:	e7bd      	b.n	800502a <USBD_LL_DataInStage+0x1a>
        pep->rem_length -= pep->maxpacket;
 80050ae:	460d      	mov	r5, r1
 80050b0:	1b9b      	subs	r3, r3, r6
        USBD_CtlContinueSendData(pdev, pdata, (uint16_t)pep->rem_length);
 80050b2:	4611      	mov	r1, r2
        pep->rem_length -= pep->maxpacket;
 80050b4:	6203      	str	r3, [r0, #32]
        USBD_CtlContinueSendData(pdev, pdata, (uint16_t)pep->rem_length);
 80050b6:	b29a      	uxth	r2, r3
 80050b8:	f000 fae8 	bl	800568c <USBD_CtlContinueSendData>
        USBD_LL_PrepareReceive(pdev, 0U, NULL, 0U);
 80050bc:	462b      	mov	r3, r5
 80050be:	462a      	mov	r2, r5
 80050c0:	4629      	mov	r1, r5
 80050c2:	4620      	mov	r0, r4
 80050c4:	f000 fd6c 	bl	8005ba0 <USBD_LL_PrepareReceive>
 80050c8:	e7af      	b.n	800502a <USBD_LL_DataInStage+0x1a>
            pdev->pClass->EP0_TxSent(pdev);
 80050ca:	4620      	mov	r0, r4
 80050cc:	4798      	blx	r3
 80050ce:	e7e6      	b.n	800509e <USBD_LL_DataInStage+0x8e>

080050d0 <USBD_LL_Reset>:
*/

USBD_StatusTypeDef USBD_LL_Reset(USBD_HandleTypeDef *pdev)
{
  /* Open EP0 OUT */
  USBD_LL_OpenEP(pdev, 0x00U, USBD_EP_TYPE_CTRL, USB_MAX_EP0_SIZE);
 80050d0:	2200      	movs	r2, #0
{
 80050d2:	b570      	push	{r4, r5, r6, lr}
 80050d4:	4604      	mov	r4, r0
  pdev->ep_out[0x00U & 0xFU].is_used = 1U;

  pdev->ep_out[0].maxpacket = USB_MAX_EP0_SIZE;
 80050d6:	2640      	movs	r6, #64	@ 0x40
  pdev->ep_out[0x00U & 0xFU].is_used = 1U;
 80050d8:	2501      	movs	r5, #1
  USBD_LL_OpenEP(pdev, 0x00U, USBD_EP_TYPE_CTRL, USB_MAX_EP0_SIZE);
 80050da:	4611      	mov	r1, r2
 80050dc:	2340      	movs	r3, #64	@ 0x40
 80050de:	f000 fd01 	bl	8005ae4 <USBD_LL_OpenEP>

  /* Open EP0 IN */
  USBD_LL_OpenEP(pdev, 0x80U, USBD_EP_TYPE_CTRL, USB_MAX_EP0_SIZE);
 80050e2:	2180      	movs	r1, #128	@ 0x80
 80050e4:	4633      	mov	r3, r6
 80050e6:	2200      	movs	r2, #0
 80050e8:	4620      	mov	r0, r4
  pdev->ep_out[0x00U & 0xFU].is_used = 1U;
 80050ea:	f8c4 5158 	str.w	r5, [r4, #344]	@ 0x158
  pdev->ep_out[0].maxpacket = USB_MAX_EP0_SIZE;
 80050ee:	f8c4 6164 	str.w	r6, [r4, #356]	@ 0x164
  USBD_LL_OpenEP(pdev, 0x80U, USBD_EP_TYPE_CTRL, USB_MAX_EP0_SIZE);
 80050f2:	f000 fcf7 	bl	8005ae4 <USBD_LL_OpenEP>

  pdev->ep_in[0].maxpacket = USB_MAX_EP0_SIZE;

  /* Upon Reset call user call back */
  pdev->dev_state = USBD_STATE_DEFAULT;
  pdev->ep0_state = USBD_EP0_IDLE;
 80050f6:	2100      	movs	r1, #0
  pdev->dev_config = 0U;
  pdev->dev_remote_wakeup = 0U;

  if (pdev->pClassData)
 80050f8:	f8d4 32b8 	ldr.w	r3, [r4, #696]	@ 0x2b8
  pdev->ep_in[0x80U & 0xFU].is_used = 1U;
 80050fc:	61a5      	str	r5, [r4, #24]
  pdev->ep_in[0].maxpacket = USB_MAX_EP0_SIZE;
 80050fe:	6266      	str	r6, [r4, #36]	@ 0x24
  pdev->dev_state = USBD_STATE_DEFAULT;
 8005100:	f884 529c 	strb.w	r5, [r4, #668]	@ 0x29c
  pdev->ep0_state = USBD_EP0_IDLE;
 8005104:	f8c4 1294 	str.w	r1, [r4, #660]	@ 0x294
  pdev->dev_config = 0U;
 8005108:	6061      	str	r1, [r4, #4]
  pdev->dev_remote_wakeup = 0U;
 800510a:	f8c4 12a4 	str.w	r1, [r4, #676]	@ 0x2a4
  if (pdev->pClassData)
 800510e:	b123      	cbz	r3, 800511a <USBD_LL_Reset+0x4a>
  {
    pdev->pClass->DeInit(pdev, (uint8_t)pdev->dev_config);
 8005110:	f8d4 32b4 	ldr.w	r3, [r4, #692]	@ 0x2b4
 8005114:	4620      	mov	r0, r4
 8005116:	685b      	ldr	r3, [r3, #4]
 8005118:	4798      	blx	r3
  }

  return USBD_OK;
}
 800511a:	2000      	movs	r0, #0
 800511c:	bd70      	pop	{r4, r5, r6, pc}
 800511e:	bf00      	nop

08005120 <USBD_LL_SetSpeed>:
* @param  pdev: device instance
* @retval status
*/
USBD_StatusTypeDef USBD_LL_SetSpeed(USBD_HandleTypeDef *pdev,
                                    USBD_SpeedTypeDef speed)
{
 8005120:	4603      	mov	r3, r0
  pdev->dev_speed = speed;

  return USBD_OK;
}
 8005122:	2000      	movs	r0, #0
  pdev->dev_speed = speed;
 8005124:	7419      	strb	r1, [r3, #16]
}
 8005126:	4770      	bx	lr

08005128 <USBD_LL_Suspend>:
* @param  pdev: device instance
* @retval status
*/

USBD_StatusTypeDef USBD_LL_Suspend(USBD_HandleTypeDef *pdev)
{
 8005128:	4603      	mov	r3, r0
  pdev->dev_old_state =  pdev->dev_state;
  pdev->dev_state  = USBD_STATE_SUSPENDED;
 800512a:	2104      	movs	r1, #4
  pdev->dev_old_state =  pdev->dev_state;
 800512c:	f893 229c 	ldrb.w	r2, [r3, #668]	@ 0x29c

  return USBD_OK;
}
 8005130:	2000      	movs	r0, #0
  pdev->dev_state  = USBD_STATE_SUSPENDED;
 8005132:	f883 129c 	strb.w	r1, [r3, #668]	@ 0x29c
  pdev->dev_old_state =  pdev->dev_state;
 8005136:	f883 229d 	strb.w	r2, [r3, #669]	@ 0x29d
}
 800513a:	4770      	bx	lr

0800513c <USBD_LL_Resume>:
* @retval status
*/

USBD_StatusTypeDef USBD_LL_Resume(USBD_HandleTypeDef *pdev)
{
  if (pdev->dev_state == USBD_STATE_SUSPENDED)
 800513c:	f890 329c 	ldrb.w	r3, [r0, #668]	@ 0x29c
 8005140:	2b04      	cmp	r3, #4
  {
    pdev->dev_state = pdev->dev_old_state;
 8005142:	bf04      	itt	eq
 8005144:	f890 329d 	ldrbeq.w	r3, [r0, #669]	@ 0x29d
 8005148:	f880 329c 	strbeq.w	r3, [r0, #668]	@ 0x29c
  }

  return USBD_OK;
}
 800514c:	2000      	movs	r0, #0
 800514e:	4770      	bx	lr

08005150 <USBD_LL_SOF>:
* @retval status
*/

USBD_StatusTypeDef USBD_LL_SOF(USBD_HandleTypeDef *pdev)
{
  if (pdev->dev_state == USBD_STATE_CONFIGURED)
 8005150:	f890 229c 	ldrb.w	r2, [r0, #668]	@ 0x29c
 8005154:	2a03      	cmp	r2, #3
 8005156:	d001      	beq.n	800515c <USBD_LL_SOF+0xc>
      pdev->pClass->SOF(pdev);
    }
  }

  return USBD_OK;
}
 8005158:	2000      	movs	r0, #0
 800515a:	4770      	bx	lr
{
 800515c:	b508      	push	{r3, lr}
    if (pdev->pClass->SOF != NULL)
 800515e:	f8d0 32b4 	ldr.w	r3, [r0, #692]	@ 0x2b4
 8005162:	69db      	ldr	r3, [r3, #28]
 8005164:	b103      	cbz	r3, 8005168 <USBD_LL_SOF+0x18>
      pdev->pClass->SOF(pdev);
 8005166:	4798      	blx	r3
}
 8005168:	2000      	movs	r0, #0
 800516a:	bd08      	pop	{r3, pc}

0800516c <USBD_StdDevReq>:
* @param  req: usb request
* @retval status
*/
USBD_StatusTypeDef  USBD_StdDevReq(USBD_HandleTypeDef *pdev,
                                   USBD_SetupReqTypedef *req)
{
 800516c:	b570      	push	{r4, r5, r6, lr}
 800516e:	780b      	ldrb	r3, [r1, #0]
 8005170:	460d      	mov	r5, r1
 8005172:	f003 0360 	and.w	r3, r3, #96	@ 0x60
  USBD_StatusTypeDef ret = USBD_OK;

  switch (req->bmRequest & USB_REQ_TYPE_MASK)
 8005176:	2b20      	cmp	r3, #32
{
 8005178:	4604      	mov	r4, r0
 800517a:	b082      	sub	sp, #8
  switch (req->bmRequest & USB_REQ_TYPE_MASK)
 800517c:	d028      	beq.n	80051d0 <USBD_StdDevReq+0x64>
 800517e:	2b40      	cmp	r3, #64	@ 0x40
 8005180:	d026      	beq.n	80051d0 <USBD_StdDevReq+0x64>
 8005182:	b153      	cbz	r3, 800519a <USBD_StdDevReq+0x2e>
*/

void USBD_CtlError(USBD_HandleTypeDef *pdev,
                   USBD_SetupReqTypedef *req)
{
  USBD_LL_StallEP(pdev, 0x80U);
 8005184:	2180      	movs	r1, #128	@ 0x80
 8005186:	4620      	mov	r0, r4
 8005188:	f000 fcc6 	bl	8005b18 <USBD_LL_StallEP>
  USBD_LL_StallEP(pdev, 0U);
 800518c:	2100      	movs	r1, #0
 800518e:	4620      	mov	r0, r4
 8005190:	f000 fcc2 	bl	8005b18 <USBD_LL_StallEP>
}
 8005194:	2000      	movs	r0, #0
 8005196:	b002      	add	sp, #8
 8005198:	bd70      	pop	{r4, r5, r6, pc}
      switch (req->bRequest)
 800519a:	784b      	ldrb	r3, [r1, #1]
 800519c:	2b09      	cmp	r3, #9
 800519e:	d8f1      	bhi.n	8005184 <USBD_StdDevReq+0x18>
 80051a0:	a201      	add	r2, pc, #4	@ (adr r2, 80051a8 <USBD_StdDevReq+0x3c>)
 80051a2:	f852 f023 	ldr.w	pc, [r2, r3, lsl #2]
 80051a6:	bf00      	nop
 80051a8:	0800521b 	.word	0x0800521b
 80051ac:	08005243 	.word	0x08005243
 80051b0:	08005185 	.word	0x08005185
 80051b4:	08005261 	.word	0x08005261
 80051b8:	08005185 	.word	0x08005185
 80051bc:	08005269 	.word	0x08005269
 80051c0:	080052a3 	.word	0x080052a3
 80051c4:	08005185 	.word	0x08005185
 80051c8:	080052d9 	.word	0x080052d9
 80051cc:	080051e3 	.word	0x080051e3
      pdev->pClass->Setup(pdev, req);
 80051d0:	f8d4 32b4 	ldr.w	r3, [r4, #692]	@ 0x2b4
 80051d4:	4629      	mov	r1, r5
 80051d6:	4620      	mov	r0, r4
 80051d8:	689b      	ldr	r3, [r3, #8]
 80051da:	4798      	blx	r3
}
 80051dc:	2000      	movs	r0, #0
 80051de:	b002      	add	sp, #8
 80051e0:	bd70      	pop	{r4, r5, r6, pc}
  cfgidx = (uint8_t)(req->wValue);
 80051e2:	f240 76f4 	movw	r6, #2036	@ 0x7f4
 80051e6:	7889      	ldrb	r1, [r1, #2]
 80051e8:	f2c2 0600 	movt	r6, #8192	@ 0x2000
  if (cfgidx > USBD_MAX_NUM_CONFIGURATION)
 80051ec:	2901      	cmp	r1, #1
  cfgidx = (uint8_t)(req->wValue);
 80051ee:	7031      	strb	r1, [r6, #0]
  if (cfgidx > USBD_MAX_NUM_CONFIGURATION)
 80051f0:	d8c8      	bhi.n	8005184 <USBD_StdDevReq+0x18>
    switch (pdev->dev_state)
 80051f2:	f890 329c 	ldrb.w	r3, [r0, #668]	@ 0x29c
 80051f6:	2b02      	cmp	r3, #2
 80051f8:	f000 810c 	beq.w	8005414 <USBD_StdDevReq+0x2a8>
 80051fc:	2b03      	cmp	r3, #3
 80051fe:	f000 80fa 	beq.w	80053f6 <USBD_StdDevReq+0x28a>
  USBD_LL_StallEP(pdev, 0x80U);
 8005202:	2180      	movs	r1, #128	@ 0x80
 8005204:	f000 fc88 	bl	8005b18 <USBD_LL_StallEP>
  USBD_LL_StallEP(pdev, 0U);
 8005208:	2100      	movs	r1, #0
 800520a:	4620      	mov	r0, r4
 800520c:	f000 fc84 	bl	8005b18 <USBD_LL_StallEP>
        USBD_ClrClassConfig(pdev, cfgidx);
 8005210:	4620      	mov	r0, r4
 8005212:	7831      	ldrb	r1, [r6, #0]
 8005214:	f7ff fe8a 	bl	8004f2c <USBD_ClrClassConfig>
        break;
 8005218:	e7bc      	b.n	8005194 <USBD_StdDevReq+0x28>
  switch (pdev->dev_state)
 800521a:	f890 329c 	ldrb.w	r3, [r0, #668]	@ 0x29c
 800521e:	3b01      	subs	r3, #1
 8005220:	2b02      	cmp	r3, #2
 8005222:	d8af      	bhi.n	8005184 <USBD_StdDevReq+0x18>
      if (req->wLength != 0x2U)
 8005224:	88ca      	ldrh	r2, [r1, #6]
 8005226:	2a02      	cmp	r2, #2
 8005228:	d1ac      	bne.n	8005184 <USBD_StdDevReq+0x18>
      if (pdev->dev_remote_wakeup)
 800522a:	f8d0 32a4 	ldr.w	r3, [r0, #676]	@ 0x2a4
 800522e:	4601      	mov	r1, r0
 8005230:	3b00      	subs	r3, #0
 8005232:	bf18      	it	ne
 8005234:	2301      	movne	r3, #1
 8005236:	005b      	lsls	r3, r3, #1
 8005238:	f841 3f0c 	str.w	r3, [r1, #12]!
      USBD_CtlSendData(pdev, (uint8_t *)(void *)&pdev->dev_config_status, 2U);
 800523c:	f000 fa18 	bl	8005670 <USBD_CtlSendData>
      break;
 8005240:	e7a8      	b.n	8005194 <USBD_StdDevReq+0x28>
  switch (pdev->dev_state)
 8005242:	f890 329c 	ldrb.w	r3, [r0, #668]	@ 0x29c
 8005246:	3b01      	subs	r3, #1
 8005248:	2b02      	cmp	r3, #2
 800524a:	d89b      	bhi.n	8005184 <USBD_StdDevReq+0x18>
      if (req->wValue == USB_FEATURE_REMOTE_WAKEUP)
 800524c:	884b      	ldrh	r3, [r1, #2]
 800524e:	2b01      	cmp	r3, #1
 8005250:	d1a0      	bne.n	8005194 <USBD_StdDevReq+0x28>
        pdev->dev_remote_wakeup = 0U;
 8005252:	2300      	movs	r3, #0
        USBD_CtlSendStatus(pdev);
 8005254:	4620      	mov	r0, r4
        pdev->dev_remote_wakeup = 0U;
 8005256:	f8c4 32a4 	str.w	r3, [r4, #676]	@ 0x2a4
        USBD_CtlSendStatus(pdev);
 800525a:	f000 fa39 	bl	80056d0 <USBD_CtlSendStatus>
 800525e:	e799      	b.n	8005194 <USBD_StdDevReq+0x28>
  if (req->wValue == USB_FEATURE_REMOTE_WAKEUP)
 8005260:	884b      	ldrh	r3, [r1, #2]
 8005262:	2b01      	cmp	r3, #1
 8005264:	d196      	bne.n	8005194 <USBD_StdDevReq+0x28>
 8005266:	e7f5      	b.n	8005254 <USBD_StdDevReq+0xe8>
  if ((req->wIndex == 0U) && (req->wLength == 0U) && (req->wValue < 128U))
 8005268:	888b      	ldrh	r3, [r1, #4]
 800526a:	2b00      	cmp	r3, #0
 800526c:	d18a      	bne.n	8005184 <USBD_StdDevReq+0x18>
 800526e:	88cb      	ldrh	r3, [r1, #6]
 8005270:	2b00      	cmp	r3, #0
 8005272:	d187      	bne.n	8005184 <USBD_StdDevReq+0x18>
 8005274:	884b      	ldrh	r3, [r1, #2]
 8005276:	2b7f      	cmp	r3, #127	@ 0x7f
 8005278:	d884      	bhi.n	8005184 <USBD_StdDevReq+0x18>
    if (pdev->dev_state == USBD_STATE_CONFIGURED)
 800527a:	f890 229c 	ldrb.w	r2, [r0, #668]	@ 0x29c
 800527e:	2a03      	cmp	r2, #3
 8005280:	d080      	beq.n	8005184 <USBD_StdDevReq+0x18>
    dev_addr = (uint8_t)(req->wValue) & 0x7FU;
 8005282:	b2dd      	uxtb	r5, r3
      USBD_LL_SetUSBAddress(pdev, dev_addr);
 8005284:	4629      	mov	r1, r5
      pdev->dev_address = dev_addr;
 8005286:	f880 529e 	strb.w	r5, [r0, #670]	@ 0x29e
      USBD_LL_SetUSBAddress(pdev, dev_addr);
 800528a:	f000 fc71 	bl	8005b70 <USBD_LL_SetUSBAddress>
      USBD_CtlSendStatus(pdev);
 800528e:	4620      	mov	r0, r4
 8005290:	f000 fa1e 	bl	80056d0 <USBD_CtlSendStatus>
      if (dev_addr != 0U)
 8005294:	2d00      	cmp	r5, #0
 8005296:	f000 80d8 	beq.w	800544a <USBD_StdDevReq+0x2de>
        pdev->dev_state = USBD_STATE_ADDRESSED;
 800529a:	2302      	movs	r3, #2
 800529c:	f884 329c 	strb.w	r3, [r4, #668]	@ 0x29c
 80052a0:	e778      	b.n	8005194 <USBD_StdDevReq+0x28>
  uint16_t len = 0U;
 80052a2:	2100      	movs	r1, #0
  switch (req->wValue >> 8)
 80052a4:	886a      	ldrh	r2, [r5, #2]
  uint16_t len = 0U;
 80052a6:	f8ad 1006 	strh.w	r1, [sp, #6]
  switch (req->wValue >> 8)
 80052aa:	0a13      	lsrs	r3, r2, #8
 80052ac:	3b01      	subs	r3, #1
 80052ae:	2b06      	cmp	r3, #6
 80052b0:	f63f af68 	bhi.w	8005184 <USBD_StdDevReq+0x18>
 80052b4:	a101      	add	r1, pc, #4	@ (adr r1, 80052bc <USBD_StdDevReq+0x150>)
 80052b6:	f851 f023 	ldr.w	pc, [r1, r3, lsl #2]
 80052ba:	bf00      	nop
 80052bc:	0800536b 	.word	0x0800536b
 80052c0:	08005353 	.word	0x08005353
 80052c4:	08005341 	.word	0x08005341
 80052c8:	08005185 	.word	0x08005185
 80052cc:	08005185 	.word	0x08005185
 80052d0:	0800532b 	.word	0x0800532b
 80052d4:	080052fd 	.word	0x080052fd
  if (req->wLength != 1U)
 80052d8:	88ca      	ldrh	r2, [r1, #6]
 80052da:	2a01      	cmp	r2, #1
 80052dc:	f47f af52 	bne.w	8005184 <USBD_StdDevReq+0x18>
    switch (pdev->dev_state)
 80052e0:	f890 329c 	ldrb.w	r3, [r0, #668]	@ 0x29c
 80052e4:	2b02      	cmp	r3, #2
 80052e6:	d87f      	bhi.n	80053e8 <USBD_StdDevReq+0x27c>
 80052e8:	2b00      	cmp	r3, #0
 80052ea:	f43f af4b 	beq.w	8005184 <USBD_StdDevReq+0x18>
        pdev->dev_default_config = 0U;
 80052ee:	4601      	mov	r1, r0
 80052f0:	2300      	movs	r3, #0
 80052f2:	f841 3f08 	str.w	r3, [r1, #8]!
        USBD_CtlSendData(pdev, (uint8_t *)(void *)&pdev->dev_default_config, 1U);
 80052f6:	f000 f9bb 	bl	8005670 <USBD_CtlSendData>
        break;
 80052fa:	e74b      	b.n	8005194 <USBD_StdDevReq+0x28>
      if (pdev->dev_speed == USBD_SPEED_HIGH)
 80052fc:	7c03      	ldrb	r3, [r0, #16]
 80052fe:	2b00      	cmp	r3, #0
 8005300:	f47f af40 	bne.w	8005184 <USBD_StdDevReq+0x18>
        pbuf = pdev->pClass->GetOtherSpeedConfigDescriptor(&len);
 8005304:	f8d0 32b4 	ldr.w	r3, [r0, #692]	@ 0x2b4
 8005308:	f10d 0006 	add.w	r0, sp, #6
 800530c:	6b1b      	ldr	r3, [r3, #48]	@ 0x30
 800530e:	4798      	blx	r3
        pbuf[1] = USB_DESC_TYPE_OTHER_SPEED_CONFIGURATION;
 8005310:	2307      	movs	r3, #7
 8005312:	7043      	strb	r3, [r0, #1]
    if ((len != 0U) && (req->wLength != 0U))
 8005314:	f8bd 3006 	ldrh.w	r3, [sp, #6]
 8005318:	88ea      	ldrh	r2, [r5, #6]
 800531a:	2b00      	cmp	r3, #0
 800531c:	d060      	beq.n	80053e0 <USBD_StdDevReq+0x274>
 800531e:	2a00      	cmp	r2, #0
 8005320:	d154      	bne.n	80053cc <USBD_StdDevReq+0x260>
          USBD_CtlSendStatus(pdev);
 8005322:	4620      	mov	r0, r4
 8005324:	f000 f9d4 	bl	80056d0 <USBD_CtlSendStatus>
 8005328:	e734      	b.n	8005194 <USBD_StdDevReq+0x28>
      if (pdev->dev_speed == USBD_SPEED_HIGH)
 800532a:	7c03      	ldrb	r3, [r0, #16]
 800532c:	2b00      	cmp	r3, #0
 800532e:	f47f af29 	bne.w	8005184 <USBD_StdDevReq+0x18>
        pbuf = pdev->pClass->GetDeviceQualifierDescriptor(&len);
 8005332:	f8d0 32b4 	ldr.w	r3, [r0, #692]	@ 0x2b4
 8005336:	f10d 0006 	add.w	r0, sp, #6
 800533a:	6b5b      	ldr	r3, [r3, #52]	@ 0x34
 800533c:	4798      	blx	r3
  if (err != 0U)
 800533e:	e7e9      	b.n	8005314 <USBD_StdDevReq+0x1a8>
      switch ((uint8_t)(req->wValue))
 8005340:	b2d2      	uxtb	r2, r2
 8005342:	2a05      	cmp	r2, #5
 8005344:	f63f af1e 	bhi.w	8005184 <USBD_StdDevReq+0x18>
 8005348:	e8df f002 	tbb	[pc, r2]
 800534c:	282e343a 	.word	0x282e343a
 8005350:	1722      	.short	0x1722
      if (pdev->dev_speed == USBD_SPEED_HIGH)
 8005352:	7c02      	ldrb	r2, [r0, #16]
      pdev->pClass->Setup(pdev, req);
 8005354:	f8d0 32b4 	ldr.w	r3, [r0, #692]	@ 0x2b4
      if (pdev->dev_speed == USBD_SPEED_HIGH)
 8005358:	2a00      	cmp	r2, #0
 800535a:	d168      	bne.n	800542e <USBD_StdDevReq+0x2c2>
        pbuf = pdev->pClass->GetHSConfigDescriptor(&len);
 800535c:	6a9b      	ldr	r3, [r3, #40]	@ 0x28
 800535e:	f10d 0006 	add.w	r0, sp, #6
 8005362:	4798      	blx	r3
        pbuf[1] = USB_DESC_TYPE_CONFIGURATION;
 8005364:	2302      	movs	r3, #2
 8005366:	7043      	strb	r3, [r0, #1]
  if (err != 0U)
 8005368:	e7d4      	b.n	8005314 <USBD_StdDevReq+0x1a8>
      pbuf = pdev->pDesc->GetDeviceDescriptor(pdev->dev_speed, &len);
 800536a:	f8d0 32b0 	ldr.w	r3, [r0, #688]	@ 0x2b0
 800536e:	f10d 0106 	add.w	r1, sp, #6
 8005372:	681b      	ldr	r3, [r3, #0]
 8005374:	7c00      	ldrb	r0, [r0, #16]
 8005376:	4798      	blx	r3
  if (err != 0U)
 8005378:	e7cc      	b.n	8005314 <USBD_StdDevReq+0x1a8>
          if (pdev->pDesc->GetInterfaceStrDescriptor != NULL)
 800537a:	f8d0 32b0 	ldr.w	r3, [r0, #688]	@ 0x2b0
 800537e:	699b      	ldr	r3, [r3, #24]
 8005380:	2b00      	cmp	r3, #0
 8005382:	f43f aeff 	beq.w	8005184 <USBD_StdDevReq+0x18>
            pbuf = pdev->pDesc->GetInterfaceStrDescriptor(pdev->dev_speed, &len);
 8005386:	7c20      	ldrb	r0, [r4, #16]
 8005388:	f10d 0106 	add.w	r1, sp, #6
 800538c:	4798      	blx	r3
  if (err != 0U)
 800538e:	e7c1      	b.n	8005314 <USBD_StdDevReq+0x1a8>
          if (pdev->pDesc->GetConfigurationStrDescriptor != NULL)
 8005390:	f8d0 32b0 	ldr.w	r3, [r0, #688]	@ 0x2b0
 8005394:	695b      	ldr	r3, [r3, #20]
 8005396:	2b00      	cmp	r3, #0
 8005398:	d1f5      	bne.n	8005386 <USBD_StdDevReq+0x21a>
 800539a:	e6f3      	b.n	8005184 <USBD_StdDevReq+0x18>
          if (pdev->pDesc->GetSerialStrDescriptor != NULL)
 800539c:	f8d0 32b0 	ldr.w	r3, [r0, #688]	@ 0x2b0
 80053a0:	691b      	ldr	r3, [r3, #16]
 80053a2:	2b00      	cmp	r3, #0
 80053a4:	d1ef      	bne.n	8005386 <USBD_StdDevReq+0x21a>
 80053a6:	e6ed      	b.n	8005184 <USBD_StdDevReq+0x18>
          if (pdev->pDesc->GetProductStrDescriptor != NULL)
 80053a8:	f8d0 32b0 	ldr.w	r3, [r0, #688]	@ 0x2b0
 80053ac:	68db      	ldr	r3, [r3, #12]
 80053ae:	2b00      	cmp	r3, #0
 80053b0:	d1e9      	bne.n	8005386 <USBD_StdDevReq+0x21a>
 80053b2:	e6e7      	b.n	8005184 <USBD_StdDevReq+0x18>
          if (pdev->pDesc->GetManufacturerStrDescriptor != NULL)
 80053b4:	f8d0 32b0 	ldr.w	r3, [r0, #688]	@ 0x2b0
 80053b8:	689b      	ldr	r3, [r3, #8]
 80053ba:	2b00      	cmp	r3, #0
 80053bc:	d1e3      	bne.n	8005386 <USBD_StdDevReq+0x21a>
 80053be:	e6e1      	b.n	8005184 <USBD_StdDevReq+0x18>
          if (pdev->pDesc->GetLangIDStrDescriptor != NULL)
 80053c0:	f8d0 32b0 	ldr.w	r3, [r0, #688]	@ 0x2b0
 80053c4:	685b      	ldr	r3, [r3, #4]
 80053c6:	2b00      	cmp	r3, #0
 80053c8:	d1dd      	bne.n	8005386 <USBD_StdDevReq+0x21a>
 80053ca:	e6db      	b.n	8005184 <USBD_StdDevReq+0x18>
      len = MIN(len, req->wLength);
 80053cc:	429a      	cmp	r2, r3
 80053ce:	bf28      	it	cs
 80053d0:	461a      	movcs	r2, r3
      (void)USBD_CtlSendData(pdev, pbuf, len);
 80053d2:	4601      	mov	r1, r0
 80053d4:	4620      	mov	r0, r4
      len = MIN(len, req->wLength);
 80053d6:	f8ad 2006 	strh.w	r2, [sp, #6]
      (void)USBD_CtlSendData(pdev, pbuf, len);
 80053da:	f000 f949 	bl	8005670 <USBD_CtlSendData>
 80053de:	88ea      	ldrh	r2, [r5, #6]
    if (req->wLength == 0U)
 80053e0:	2a00      	cmp	r2, #0
 80053e2:	f47f aed7 	bne.w	8005194 <USBD_StdDevReq+0x28>
 80053e6:	e79c      	b.n	8005322 <USBD_StdDevReq+0x1b6>
    switch (pdev->dev_state)
 80053e8:	2b03      	cmp	r3, #3
 80053ea:	f47f aecb 	bne.w	8005184 <USBD_StdDevReq+0x18>
        USBD_CtlSendData(pdev, (uint8_t *)(void *)&pdev->dev_config, 1U);
 80053ee:	1d01      	adds	r1, r0, #4
 80053f0:	f000 f93e 	bl	8005670 <USBD_CtlSendData>
        break;
 80053f4:	e6ce      	b.n	8005194 <USBD_StdDevReq+0x28>
        if (cfgidx == 0U)
 80053f6:	b309      	cbz	r1, 800543c <USBD_StdDevReq+0x2d0>
        else if (cfgidx != pdev->dev_config)
 80053f8:	6841      	ldr	r1, [r0, #4]
 80053fa:	2901      	cmp	r1, #1
 80053fc:	d091      	beq.n	8005322 <USBD_StdDevReq+0x1b6>
          USBD_ClrClassConfig(pdev, (uint8_t)pdev->dev_config);
 80053fe:	b2c9      	uxtb	r1, r1
 8005400:	f7ff fd94 	bl	8004f2c <USBD_ClrClassConfig>
          pdev->dev_config = cfgidx;
 8005404:	7831      	ldrb	r1, [r6, #0]
          if (USBD_SetClassConfig(pdev, cfgidx) == USBD_FAIL)
 8005406:	4620      	mov	r0, r4
          pdev->dev_config = cfgidx;
 8005408:	6061      	str	r1, [r4, #4]
          if (USBD_SetClassConfig(pdev, cfgidx) == USBD_FAIL)
 800540a:	f7ff fd81 	bl	8004f10 <USBD_SetClassConfig>
 800540e:	2802      	cmp	r0, #2
 8005410:	d187      	bne.n	8005322 <USBD_StdDevReq+0x1b6>
 8005412:	e6b7      	b.n	8005184 <USBD_StdDevReq+0x18>
        if (cfgidx)
 8005414:	2900      	cmp	r1, #0
 8005416:	d084      	beq.n	8005322 <USBD_StdDevReq+0x1b6>
          pdev->dev_config = cfgidx;
 8005418:	2101      	movs	r1, #1
          pdev->dev_state = USBD_STATE_CONFIGURED;
 800541a:	2303      	movs	r3, #3
          pdev->dev_config = cfgidx;
 800541c:	6041      	str	r1, [r0, #4]
          pdev->dev_state = USBD_STATE_CONFIGURED;
 800541e:	f880 329c 	strb.w	r3, [r0, #668]	@ 0x29c
          if (USBD_SetClassConfig(pdev, cfgidx) == USBD_FAIL)
 8005422:	f7ff fd75 	bl	8004f10 <USBD_SetClassConfig>
 8005426:	2802      	cmp	r0, #2
 8005428:	f47f af7b 	bne.w	8005322 <USBD_StdDevReq+0x1b6>
 800542c:	e6aa      	b.n	8005184 <USBD_StdDevReq+0x18>
        pbuf = pdev->pClass->GetFSConfigDescriptor(&len);
 800542e:	6adb      	ldr	r3, [r3, #44]	@ 0x2c
 8005430:	f10d 0006 	add.w	r0, sp, #6
 8005434:	4798      	blx	r3
        pbuf[1] = USB_DESC_TYPE_CONFIGURATION;
 8005436:	2302      	movs	r3, #2
 8005438:	7043      	strb	r3, [r0, #1]
  if (err != 0U)
 800543a:	e76b      	b.n	8005314 <USBD_StdDevReq+0x1a8>
          pdev->dev_state = USBD_STATE_ADDRESSED;
 800543c:	2302      	movs	r3, #2
          pdev->dev_config = cfgidx;
 800543e:	6041      	str	r1, [r0, #4]
          pdev->dev_state = USBD_STATE_ADDRESSED;
 8005440:	f880 329c 	strb.w	r3, [r0, #668]	@ 0x29c
          USBD_ClrClassConfig(pdev, cfgidx);
 8005444:	f7ff fd72 	bl	8004f2c <USBD_ClrClassConfig>
 8005448:	e76b      	b.n	8005322 <USBD_StdDevReq+0x1b6>
        pdev->dev_state = USBD_STATE_DEFAULT;
 800544a:	2301      	movs	r3, #1
 800544c:	f884 329c 	strb.w	r3, [r4, #668]	@ 0x29c
 8005450:	e6a0      	b.n	8005194 <USBD_StdDevReq+0x28>
 8005452:	bf00      	nop

08005454 <USBD_StdItfReq>:
{
 8005454:	b538      	push	{r3, r4, r5, lr}
  switch (req->bmRequest & USB_REQ_TYPE_MASK)
 8005456:	780b      	ldrb	r3, [r1, #0]
{
 8005458:	460d      	mov	r5, r1
  switch (req->bmRequest & USB_REQ_TYPE_MASK)
 800545a:	065a      	lsls	r2, r3, #25
{
 800545c:	4604      	mov	r4, r0
  switch (req->bmRequest & USB_REQ_TYPE_MASK)
 800545e:	d50c      	bpl.n	800547a <USBD_StdItfReq+0x26>
 8005460:	f003 0260 	and.w	r2, r3, #96	@ 0x60
 8005464:	2a40      	cmp	r2, #64	@ 0x40
 8005466:	d008      	beq.n	800547a <USBD_StdItfReq+0x26>
  USBD_LL_StallEP(pdev, 0x80U);
 8005468:	2180      	movs	r1, #128	@ 0x80
 800546a:	f000 fb55 	bl	8005b18 <USBD_LL_StallEP>
  USBD_LL_StallEP(pdev, 0U);
 800546e:	2100      	movs	r1, #0
 8005470:	4620      	mov	r0, r4
 8005472:	f000 fb51 	bl	8005b18 <USBD_LL_StallEP>
}
 8005476:	2000      	movs	r0, #0
 8005478:	bd38      	pop	{r3, r4, r5, pc}
      switch (pdev->dev_state)
 800547a:	f894 329c 	ldrb.w	r3, [r4, #668]	@ 0x29c
 800547e:	3b01      	subs	r3, #1
 8005480:	2b02      	cmp	r3, #2
 8005482:	d811      	bhi.n	80054a8 <USBD_StdItfReq+0x54>
          if (LOBYTE(req->wIndex) <= USBD_MAX_NUM_INTERFACES)
 8005484:	792b      	ldrb	r3, [r5, #4]
 8005486:	2b02      	cmp	r3, #2
 8005488:	d80e      	bhi.n	80054a8 <USBD_StdItfReq+0x54>
            ret = (USBD_StatusTypeDef)pdev->pClass->Setup(pdev, req);
 800548a:	f8d4 32b4 	ldr.w	r3, [r4, #692]	@ 0x2b4
 800548e:	4629      	mov	r1, r5
 8005490:	689b      	ldr	r3, [r3, #8]
 8005492:	4620      	mov	r0, r4
 8005494:	4798      	blx	r3
            if ((req->wLength == 0U) && (ret == USBD_OK))
 8005496:	88eb      	ldrh	r3, [r5, #6]
 8005498:	2b00      	cmp	r3, #0
 800549a:	d1ec      	bne.n	8005476 <USBD_StdItfReq+0x22>
 800549c:	2800      	cmp	r0, #0
 800549e:	d1ea      	bne.n	8005476 <USBD_StdItfReq+0x22>
              USBD_CtlSendStatus(pdev);
 80054a0:	4620      	mov	r0, r4
 80054a2:	f000 f915 	bl	80056d0 <USBD_CtlSendStatus>
 80054a6:	e7e6      	b.n	8005476 <USBD_StdItfReq+0x22>
  USBD_LL_StallEP(pdev, 0x80U);
 80054a8:	2180      	movs	r1, #128	@ 0x80
 80054aa:	4620      	mov	r0, r4
 80054ac:	f000 fb34 	bl	8005b18 <USBD_LL_StallEP>
  USBD_LL_StallEP(pdev, 0U);
 80054b0:	2100      	movs	r1, #0
 80054b2:	4620      	mov	r0, r4
 80054b4:	f000 fb30 	bl	8005b18 <USBD_LL_StallEP>
}
 80054b8:	2000      	movs	r0, #0
 80054ba:	bd38      	pop	{r3, r4, r5, pc}

080054bc <USBD_StdEPReq>:
{
 80054bc:	b570      	push	{r4, r5, r6, lr}
 80054be:	780b      	ldrb	r3, [r1, #0]
 80054c0:	4604      	mov	r4, r0
  ep_addr  = LOBYTE(req->wIndex);
 80054c2:	f003 0360 	and.w	r3, r3, #96	@ 0x60
  switch (req->bmRequest & USB_REQ_TYPE_MASK)
 80054c6:	2b20      	cmp	r3, #32
  ep_addr  = LOBYTE(req->wIndex);
 80054c8:	888a      	ldrh	r2, [r1, #4]
  switch (req->bmRequest & USB_REQ_TYPE_MASK)
 80054ca:	d03c      	beq.n	8005546 <USBD_StdEPReq+0x8a>
 80054cc:	2b40      	cmp	r3, #64	@ 0x40
 80054ce:	d03a      	beq.n	8005546 <USBD_StdEPReq+0x8a>
 80054d0:	b14b      	cbz	r3, 80054e6 <USBD_StdEPReq+0x2a>
  USBD_LL_StallEP(pdev, 0x80U);
 80054d2:	2180      	movs	r1, #128	@ 0x80
 80054d4:	4620      	mov	r0, r4
 80054d6:	f000 fb1f 	bl	8005b18 <USBD_LL_StallEP>
  USBD_LL_StallEP(pdev, 0U);
 80054da:	2100      	movs	r1, #0
 80054dc:	4620      	mov	r0, r4
 80054de:	f000 fb1b 	bl	8005b18 <USBD_LL_StallEP>
}
 80054e2:	2000      	movs	r0, #0
 80054e4:	bd70      	pop	{r4, r5, r6, pc}
      switch (req->bRequest)
 80054e6:	784b      	ldrb	r3, [r1, #1]
  ep_addr  = LOBYTE(req->wIndex);
 80054e8:	b2d5      	uxtb	r5, r2
      switch (req->bRequest)
 80054ea:	2b01      	cmp	r3, #1
 80054ec:	d042      	beq.n	8005574 <USBD_StdEPReq+0xb8>
 80054ee:	2b03      	cmp	r3, #3
 80054f0:	d030      	beq.n	8005554 <USBD_StdEPReq+0x98>
 80054f2:	2b00      	cmp	r3, #0
 80054f4:	d1ed      	bne.n	80054d2 <USBD_StdEPReq+0x16>
          switch (pdev->dev_state)
 80054f6:	f890 329c 	ldrb.w	r3, [r0, #668]	@ 0x29c
 80054fa:	2b02      	cmp	r3, #2
 80054fc:	d053      	beq.n	80055a6 <USBD_StdEPReq+0xea>
 80054fe:	2b03      	cmp	r3, #3
 8005500:	d1e7      	bne.n	80054d2 <USBD_StdEPReq+0x16>
                if (pdev->ep_in[ep_addr & 0xFU].is_used == 0U)
 8005502:	f005 030f 	and.w	r3, r5, #15
 8005506:	eb03 0383 	add.w	r3, r3, r3, lsl #2
              if ((ep_addr & 0x80U) == 0x80U)
 800550a:	0612      	lsls	r2, r2, #24
                if (pdev->ep_in[ep_addr & 0xFU].is_used == 0U)
 800550c:	eb00 0383 	add.w	r3, r0, r3, lsl #2
              if ((ep_addr & 0x80U) == 0x80U)
 8005510:	d458      	bmi.n	80055c4 <USBD_StdEPReq+0x108>
                if (pdev->ep_out[ep_addr & 0xFU].is_used == 0U)
 8005512:	f8d3 3158 	ldr.w	r3, [r3, #344]	@ 0x158
 8005516:	2b00      	cmp	r3, #0
 8005518:	d0db      	beq.n	80054d2 <USBD_StdEPReq+0x16>
              pep = ((ep_addr & 0x80U) == 0x80U) ? &pdev->ep_in[ep_addr & 0x7FU] : \
 800551a:	eb05 0685 	add.w	r6, r5, r5, lsl #2
 800551e:	eb00 0686 	add.w	r6, r0, r6, lsl #2
 8005522:	f506 76aa 	add.w	r6, r6, #340	@ 0x154
              if ((ep_addr == 0x00U) || (ep_addr == 0x80U))
 8005526:	2d00      	cmp	r5, #0
 8005528:	d058      	beq.n	80055dc <USBD_StdEPReq+0x120>
              else if (USBD_LL_IsStallEP(pdev, ep_addr))
 800552a:	4629      	mov	r1, r5
 800552c:	4620      	mov	r0, r4
 800552e:	f000 fb0b 	bl	8005b48 <USBD_LL_IsStallEP>
 8005532:	2800      	cmp	r0, #0
 8005534:	d059      	beq.n	80055ea <USBD_StdEPReq+0x12e>
                pep->status = 0x0001U;
 8005536:	2301      	movs	r3, #1
 8005538:	6033      	str	r3, [r6, #0]
              USBD_CtlSendData(pdev, (uint8_t *)(void *)&pep->status, 2U);
 800553a:	2202      	movs	r2, #2
 800553c:	4631      	mov	r1, r6
 800553e:	4620      	mov	r0, r4
 8005540:	f000 f896 	bl	8005670 <USBD_CtlSendData>
              break;
 8005544:	e7cd      	b.n	80054e2 <USBD_StdEPReq+0x26>
      pdev->pClass->Setup(pdev, req);
 8005546:	f8d4 32b4 	ldr.w	r3, [r4, #692]	@ 0x2b4
 800554a:	4620      	mov	r0, r4
 800554c:	689b      	ldr	r3, [r3, #8]
 800554e:	4798      	blx	r3
}
 8005550:	2000      	movs	r0, #0
 8005552:	bd70      	pop	{r4, r5, r6, pc}
          switch (pdev->dev_state)
 8005554:	f890 329c 	ldrb.w	r3, [r0, #668]	@ 0x29c
 8005558:	2b02      	cmp	r3, #2
 800555a:	d01a      	beq.n	8005592 <USBD_StdEPReq+0xd6>
 800555c:	2b03      	cmp	r3, #3
 800555e:	d1b8      	bne.n	80054d2 <USBD_StdEPReq+0x16>
              if (req->wValue == USB_FEATURE_EP_HALT)
 8005560:	884b      	ldrh	r3, [r1, #2]
 8005562:	b993      	cbnz	r3, 800558a <USBD_StdEPReq+0xce>
                if ((ep_addr != 0x00U) &&
 8005564:	066a      	lsls	r2, r5, #25
 8005566:	d010      	beq.n	800558a <USBD_StdEPReq+0xce>
                    (ep_addr != 0x80U) && (req->wLength == 0x00U))
 8005568:	88cb      	ldrh	r3, [r1, #6]
 800556a:	b973      	cbnz	r3, 800558a <USBD_StdEPReq+0xce>
                  USBD_LL_StallEP(pdev, ep_addr);
 800556c:	4629      	mov	r1, r5
 800556e:	f000 fad3 	bl	8005b18 <USBD_LL_StallEP>
 8005572:	e00a      	b.n	800558a <USBD_StdEPReq+0xce>
          switch (pdev->dev_state)
 8005574:	f890 329c 	ldrb.w	r3, [r0, #668]	@ 0x29c
 8005578:	2b02      	cmp	r3, #2
 800557a:	d00a      	beq.n	8005592 <USBD_StdEPReq+0xd6>
 800557c:	2b03      	cmp	r3, #3
 800557e:	d1a8      	bne.n	80054d2 <USBD_StdEPReq+0x16>
              if (req->wValue == USB_FEATURE_EP_HALT)
 8005580:	884b      	ldrh	r3, [r1, #2]
 8005582:	2b00      	cmp	r3, #0
 8005584:	d1ad      	bne.n	80054e2 <USBD_StdEPReq+0x26>
                if ((ep_addr & 0x7FU) != 0x00U)
 8005586:	066e      	lsls	r6, r5, #25
 8005588:	d12b      	bne.n	80055e2 <USBD_StdEPReq+0x126>
              USBD_CtlSendStatus(pdev);
 800558a:	4620      	mov	r0, r4
 800558c:	f000 f8a0 	bl	80056d0 <USBD_CtlSendStatus>
              break;
 8005590:	e7a7      	b.n	80054e2 <USBD_StdEPReq+0x26>
              if ((ep_addr != 0x00U) && (ep_addr != 0x80U))
 8005592:	066b      	lsls	r3, r5, #25
 8005594:	d09d      	beq.n	80054d2 <USBD_StdEPReq+0x16>
                USBD_LL_StallEP(pdev, ep_addr);
 8005596:	4629      	mov	r1, r5
 8005598:	f000 fabe 	bl	8005b18 <USBD_LL_StallEP>
                USBD_LL_StallEP(pdev, 0x80U);
 800559c:	2180      	movs	r1, #128	@ 0x80
 800559e:	4620      	mov	r0, r4
 80055a0:	f000 faba 	bl	8005b18 <USBD_LL_StallEP>
 80055a4:	e79d      	b.n	80054e2 <USBD_StdEPReq+0x26>
              if ((ep_addr != 0x00U) && (ep_addr != 0x80U))
 80055a6:	0668      	lsls	r0, r5, #25
 80055a8:	d193      	bne.n	80054d2 <USBD_StdEPReq+0x16>
              pep->status = 0x0000U;
 80055aa:	2300      	movs	r3, #0
              pep = ((ep_addr & 0x80U) == 0x80U) ? &pdev->ep_in[ep_addr & 0x7FU] : \
 80055ac:	0611      	lsls	r1, r2, #24
 80055ae:	bf4c      	ite	mi
 80055b0:	f104 0114 	addmi.w	r1, r4, #20
 80055b4:	f504 71aa 	addpl.w	r1, r4, #340	@ 0x154
              USBD_CtlSendData(pdev, (uint8_t *)(void *)&pep->status, 2U);
 80055b8:	2202      	movs	r2, #2
 80055ba:	4620      	mov	r0, r4
              pep->status = 0x0000U;
 80055bc:	600b      	str	r3, [r1, #0]
              USBD_CtlSendData(pdev, (uint8_t *)(void *)&pep->status, 2U);
 80055be:	f000 f857 	bl	8005670 <USBD_CtlSendData>
              break;
 80055c2:	e78e      	b.n	80054e2 <USBD_StdEPReq+0x26>
                if (pdev->ep_in[ep_addr & 0xFU].is_used == 0U)
 80055c4:	699b      	ldr	r3, [r3, #24]
 80055c6:	2b00      	cmp	r3, #0
 80055c8:	d083      	beq.n	80054d2 <USBD_StdEPReq+0x16>
              pep = ((ep_addr & 0x80U) == 0x80U) ? &pdev->ep_in[ep_addr & 0x7FU] : \
 80055ca:	f005 067f 	and.w	r6, r5, #127	@ 0x7f
 80055ce:	3601      	adds	r6, #1
 80055d0:	eb06 0686 	add.w	r6, r6, r6, lsl #2
              if ((ep_addr == 0x00U) || (ep_addr == 0x80U))
 80055d4:	2d80      	cmp	r5, #128	@ 0x80
              pep = ((ep_addr & 0x80U) == 0x80U) ? &pdev->ep_in[ep_addr & 0x7FU] : \
 80055d6:	eb00 0686 	add.w	r6, r0, r6, lsl #2
              if ((ep_addr == 0x00U) || (ep_addr == 0x80U))
 80055da:	d1a6      	bne.n	800552a <USBD_StdEPReq+0x6e>
                pep->status = 0x0000U;
 80055dc:	2300      	movs	r3, #0
 80055de:	6033      	str	r3, [r6, #0]
 80055e0:	e7ab      	b.n	800553a <USBD_StdEPReq+0x7e>
                  USBD_LL_ClearStallEP(pdev, ep_addr);
 80055e2:	4629      	mov	r1, r5
 80055e4:	f000 faa4 	bl	8005b30 <USBD_LL_ClearStallEP>
 80055e8:	e7cf      	b.n	800558a <USBD_StdEPReq+0xce>
                pep->status = 0x0000U;
 80055ea:	6030      	str	r0, [r6, #0]
 80055ec:	e7a5      	b.n	800553a <USBD_StdEPReq+0x7e>
 80055ee:	bf00      	nop

080055f0 <USBD_ParseSetupRequest>:
  req->bmRequest = *(uint8_t *)(pdata);
 80055f0:	780b      	ldrb	r3, [r1, #0]
 80055f2:	7003      	strb	r3, [r0, #0]
  req->bRequest = *(uint8_t *)(pdata + 1U);
 80055f4:	784b      	ldrb	r3, [r1, #1]
 80055f6:	7043      	strb	r3, [r0, #1]
  req->wValue = SWAPBYTE(pdata + 2U);
 80055f8:	884b      	ldrh	r3, [r1, #2]
 80055fa:	8043      	strh	r3, [r0, #2]
  req->wIndex = SWAPBYTE(pdata + 4U);
 80055fc:	888b      	ldrh	r3, [r1, #4]
 80055fe:	8083      	strh	r3, [r0, #4]
  req->wLength = SWAPBYTE(pdata + 6U);
 8005600:	88cb      	ldrh	r3, [r1, #6]
 8005602:	80c3      	strh	r3, [r0, #6]
}
 8005604:	4770      	bx	lr
 8005606:	bf00      	nop

08005608 <USBD_CtlError>:
{
 8005608:	b510      	push	{r4, lr}
 800560a:	4604      	mov	r4, r0
  USBD_LL_StallEP(pdev, 0x80U);
 800560c:	2180      	movs	r1, #128	@ 0x80
 800560e:	f000 fa83 	bl	8005b18 <USBD_LL_StallEP>
  USBD_LL_StallEP(pdev, 0U);
 8005612:	4620      	mov	r0, r4
}
 8005614:	e8bd 4010 	ldmia.w	sp!, {r4, lr}
  USBD_LL_StallEP(pdev, 0U);
 8005618:	2100      	movs	r1, #0
 800561a:	f000 ba7d 	b.w	8005b18 <USBD_LL_StallEP>
 800561e:	bf00      	nop

08005620 <USBD_GetString>:
  */
void USBD_GetString(uint8_t *desc, uint8_t *unicode, uint16_t *len)
{
  uint8_t idx = 0U;

  if (desc != NULL)
 8005620:	b308      	cbz	r0, 8005666 <USBD_GetString+0x46>
{
 8005622:	b570      	push	{r4, r5, r6, lr}
  */
static uint8_t USBD_GetLen(uint8_t *buf)
{
  uint8_t  len = 0U;

  while (*buf != '\0')
 8005624:	7803      	ldrb	r3, [r0, #0]
 8005626:	4605      	mov	r5, r0
 8005628:	460e      	mov	r6, r1
 800562a:	4614      	mov	r4, r2
 800562c:	b1e3      	cbz	r3, 8005668 <USBD_GetString+0x48>
 800562e:	3001      	adds	r0, #1
 8005630:	f7fa fd8c 	bl	800014c <strlen>
    *len = (uint16_t)USBD_GetLen(desc) * 2U + 2U;
 8005634:	1c43      	adds	r3, r0, #1
 8005636:	b2db      	uxtb	r3, r3
 8005638:	3301      	adds	r3, #1
 800563a:	005b      	lsls	r3, r3, #1
 800563c:	b2da      	uxtb	r2, r3
 800563e:	8023      	strh	r3, [r4, #0]
    unicode[idx++] = USB_DESC_TYPE_STRING;
 8005640:	2303      	movs	r3, #3
    unicode[idx++] = *(uint8_t *)(void *)len;
 8005642:	7032      	strb	r2, [r6, #0]
    unicode[idx++] = USB_DESC_TYPE_STRING;
 8005644:	7073      	strb	r3, [r6, #1]
    while (*desc != '\0')
 8005646:	782c      	ldrb	r4, [r5, #0]
 8005648:	b164      	cbz	r4, 8005664 <USBD_GetString+0x44>
 800564a:	4628      	mov	r0, r5
    unicode[idx++] = USB_DESC_TYPE_STRING;
 800564c:	2302      	movs	r3, #2
      unicode[idx++] =  0U;
 800564e:	2100      	movs	r1, #0
      unicode[idx++] = *desc++;
 8005650:	1c5a      	adds	r2, r3, #1
 8005652:	b2d2      	uxtb	r2, r2
 8005654:	54f4      	strb	r4, [r6, r3]
      unicode[idx++] =  0U;
 8005656:	54b1      	strb	r1, [r6, r2]
    while (*desc != '\0')
 8005658:	f810 4f01 	ldrb.w	r4, [r0, #1]!
      unicode[idx++] =  0U;
 800565c:	3302      	adds	r3, #2
 800565e:	b2db      	uxtb	r3, r3
    while (*desc != '\0')
 8005660:	2c00      	cmp	r4, #0
 8005662:	d1f5      	bne.n	8005650 <USBD_GetString+0x30>
}
 8005664:	bd70      	pop	{r4, r5, r6, pc}
 8005666:	4770      	bx	lr
  while (*buf != '\0')
 8005668:	2202      	movs	r2, #2
 800566a:	4613      	mov	r3, r2
 800566c:	e7e7      	b.n	800563e <USBD_GetString+0x1e>
 800566e:	bf00      	nop

08005670 <USBD_CtlSendData>:
* @param  len: length of data to be sent
* @retval status
*/
USBD_StatusTypeDef USBD_CtlSendData(USBD_HandleTypeDef *pdev,
                                    uint8_t *pbuf, uint16_t len)
{
 8005670:	b510      	push	{r4, lr}
 8005672:	4613      	mov	r3, r2
  /* Set EP0 State */
  pdev->ep0_state = USBD_EP0_DATA_IN;
 8005674:	2402      	movs	r4, #2
{
 8005676:	460a      	mov	r2, r1
  pdev->ep_in[0].total_length = len;
 8005678:	e9c0 3307 	strd	r3, r3, [r0, #28]
  pdev->ep_in[0].rem_length   = len;

  /* Start the transfer */
  USBD_LL_Transmit(pdev, 0x00U, pbuf, len);
 800567c:	2100      	movs	r1, #0
  pdev->ep0_state = USBD_EP0_DATA_IN;
 800567e:	f8c0 4294 	str.w	r4, [r0, #660]	@ 0x294
  USBD_LL_Transmit(pdev, 0x00U, pbuf, len);
 8005682:	f000 fa81 	bl	8005b88 <USBD_LL_Transmit>

  return USBD_OK;
}
 8005686:	2000      	movs	r0, #0
 8005688:	bd10      	pop	{r4, pc}
 800568a:	bf00      	nop

0800568c <USBD_CtlContinueSendData>:
* @param  len: length of data to be sent
* @retval status
*/
USBD_StatusTypeDef USBD_CtlContinueSendData(USBD_HandleTypeDef *pdev,
                                            uint8_t *pbuf, uint16_t len)
{
 800568c:	468c      	mov	ip, r1
 800568e:	b508      	push	{r3, lr}
  /* Start the next transfer */
  USBD_LL_Transmit(pdev, 0x00U, pbuf, len);
 8005690:	2100      	movs	r1, #0
{
 8005692:	4613      	mov	r3, r2
  USBD_LL_Transmit(pdev, 0x00U, pbuf, len);
 8005694:	4662      	mov	r2, ip
 8005696:	f000 fa77 	bl	8005b88 <USBD_LL_Transmit>

  return USBD_OK;
}
 800569a:	2000      	movs	r0, #0
 800569c:	bd08      	pop	{r3, pc}
 800569e:	bf00      	nop

080056a0 <USBD_CtlPrepareRx>:
* @param  len: length of data to be received
* @retval status
*/
USBD_StatusTypeDef USBD_CtlPrepareRx(USBD_HandleTypeDef *pdev,
                                     uint8_t *pbuf, uint16_t len)
{
 80056a0:	b510      	push	{r4, lr}
 80056a2:	4613      	mov	r3, r2
  /* Set EP0 State */
  pdev->ep0_state = USBD_EP0_DATA_OUT;
 80056a4:	2403      	movs	r4, #3
{
 80056a6:	460a      	mov	r2, r1
  pdev->ep_out[0].total_length = len;
 80056a8:	e9c0 3357 	strd	r3, r3, [r0, #348]	@ 0x15c
  pdev->ep_out[0].rem_length   = len;

  /* Start the transfer */
  USBD_LL_PrepareReceive(pdev, 0U, pbuf, len);
 80056ac:	2100      	movs	r1, #0
  pdev->ep0_state = USBD_EP0_DATA_OUT;
 80056ae:	f8c0 4294 	str.w	r4, [r0, #660]	@ 0x294
  USBD_LL_PrepareReceive(pdev, 0U, pbuf, len);
 80056b2:	f000 fa75 	bl	8005ba0 <USBD_LL_PrepareReceive>

  return USBD_OK;
}
 80056b6:	2000      	movs	r0, #0
 80056b8:	bd10      	pop	{r4, pc}
 80056ba:	bf00      	nop

080056bc <USBD_CtlContinueRx>:
* @param  len: length of data to be received
* @retval status
*/
USBD_StatusTypeDef USBD_CtlContinueRx(USBD_HandleTypeDef *pdev,
                                      uint8_t *pbuf, uint16_t len)
{
 80056bc:	468c      	mov	ip, r1
 80056be:	b508      	push	{r3, lr}
  USBD_LL_PrepareReceive(pdev, 0U, pbuf, len);
 80056c0:	2100      	movs	r1, #0
{
 80056c2:	4613      	mov	r3, r2
  USBD_LL_PrepareReceive(pdev, 0U, pbuf, len);
 80056c4:	4662      	mov	r2, ip
 80056c6:	f000 fa6b 	bl	8005ba0 <USBD_LL_PrepareReceive>

  return USBD_OK;
}
 80056ca:	2000      	movs	r0, #0
 80056cc:	bd08      	pop	{r3, pc}
 80056ce:	bf00      	nop

080056d0 <USBD_CtlSendStatus>:
*         send zero lzngth packet on the ctl pipe
* @param  pdev: device instance
* @retval status
*/
USBD_StatusTypeDef USBD_CtlSendStatus(USBD_HandleTypeDef *pdev)
{
 80056d0:	b508      	push	{r3, lr}
  /* Set EP0 State */
  pdev->ep0_state = USBD_EP0_STATUS_IN;
 80056d2:	2104      	movs	r1, #4

  /* Start the transfer */
  USBD_LL_Transmit(pdev, 0x00U, NULL, 0U);
 80056d4:	2300      	movs	r3, #0
  pdev->ep0_state = USBD_EP0_STATUS_IN;
 80056d6:	f8c0 1294 	str.w	r1, [r0, #660]	@ 0x294
  USBD_LL_Transmit(pdev, 0x00U, NULL, 0U);
 80056da:	461a      	mov	r2, r3
 80056dc:	4619      	mov	r1, r3
 80056de:	f000 fa53 	bl	8005b88 <USBD_LL_Transmit>

  return USBD_OK;
}
 80056e2:	2000      	movs	r0, #0
 80056e4:	bd08      	pop	{r3, pc}
 80056e6:	bf00      	nop

080056e8 <USBD_CtlReceiveStatus>:
*         receive zero lzngth packet on the ctl pipe
* @param  pdev: device instance
* @retval status
*/
USBD_StatusTypeDef USBD_CtlReceiveStatus(USBD_HandleTypeDef *pdev)
{
 80056e8:	b508      	push	{r3, lr}
  /* Set EP0 State */
  pdev->ep0_state = USBD_EP0_STATUS_OUT;
 80056ea:	2105      	movs	r1, #5

  /* Start the transfer */
  USBD_LL_PrepareReceive(pdev, 0U, NULL, 0U);
 80056ec:	2300      	movs	r3, #0
  pdev->ep0_state = USBD_EP0_STATUS_OUT;
 80056ee:	f8c0 1294 	str.w	r1, [r0, #660]	@ 0x294
  USBD_LL_PrepareReceive(pdev, 0U, NULL, 0U);
 80056f2:	461a      	mov	r2, r3
 80056f4:	4619      	mov	r1, r3
 80056f6:	f000 fa53 	bl	8005ba0 <USBD_LL_PrepareReceive>

  return USBD_OK;
}
 80056fa:	2000      	movs	r0, #0
 80056fc:	bd08      	pop	{r3, pc}
 80056fe:	bf00      	nop

08005700 <MX_USB_DEVICE_Init>:
  /* USER CODE BEGIN USB_DEVICE_Init_PreTreatment */

  /* USER CODE END USB_DEVICE_Init_PreTreatment */

  /* Init Device Library, add supported class and start the library. */
  if (USBD_Init(&hUsbDeviceFS, &FS_Desc, DEVICE_FS) != USBD_OK)
 8005700:	f240 1174 	movw	r1, #372	@ 0x174
 8005704:	f240 70f8 	movw	r0, #2040	@ 0x7f8
{
 8005708:	b508      	push	{r3, lr}
  if (USBD_Init(&hUsbDeviceFS, &FS_Desc, DEVICE_FS) != USBD_OK)
 800570a:	2200      	movs	r2, #0
 800570c:	f2c2 0100 	movt	r1, #8192	@ 0x2000
 8005710:	f2c2 0000 	movt	r0, #8192	@ 0x2000
 8005714:	f7ff fbd8 	bl	8004ec8 <USBD_Init>
 8005718:	b9e8      	cbnz	r0, 8005756 <MX_USB_DEVICE_Init+0x56>
  {
    Error_Handler();
  }
  if (USBD_RegisterClass(&hUsbDeviceFS, &USBD_CUSTOM_HID) != USBD_OK)
 800571a:	f240 01a8 	movw	r1, #168	@ 0xa8
 800571e:	f240 70f8 	movw	r0, #2040	@ 0x7f8
 8005722:	f2c2 0100 	movt	r1, #8192	@ 0x2000
 8005726:	f2c2 0000 	movt	r0, #8192	@ 0x2000
 800572a:	f7ff fbe3 	bl	8004ef4 <USBD_RegisterClass>
 800572e:	b9e0      	cbnz	r0, 800576a <MX_USB_DEVICE_Init+0x6a>
  {
    Error_Handler();
  }
  if (USBD_CUSTOM_HID_RegisterInterface(&hUsbDeviceFS, &USBD_CustomHID_fops_FS) != USBD_OK)
 8005730:	f240 01e0 	movw	r1, #224	@ 0xe0
 8005734:	f240 70f8 	movw	r0, #2040	@ 0x7f8
 8005738:	f2c2 0100 	movt	r1, #8192	@ 0x2000
 800573c:	f2c2 0000 	movt	r0, #8192	@ 0x2000
 8005740:	f7ff fbba 	bl	8004eb8 <USBD_CUSTOM_HID_RegisterInterface>
 8005744:	b970      	cbnz	r0, 8005764 <MX_USB_DEVICE_Init+0x64>
  {
    Error_Handler();
  }
  if (USBD_Start(&hUsbDeviceFS) != USBD_OK)
 8005746:	f240 70f8 	movw	r0, #2040	@ 0x7f8
 800574a:	f2c2 0000 	movt	r0, #8192	@ 0x2000
 800574e:	f7ff fbd9 	bl	8004f04 <USBD_Start>
 8005752:	b918      	cbnz	r0, 800575c <MX_USB_DEVICE_Init+0x5c>
  }

  /* USER CODE BEGIN USB_DEVICE_Init_PostTreatment */

  /* USER CODE END USB_DEVICE_Init_PostTreatment */
}
 8005754:	bd08      	pop	{r3, pc}
    Error_Handler();
 8005756:	f7fb f9f3 	bl	8000b40 <Error_Handler>
 800575a:	e7de      	b.n	800571a <MX_USB_DEVICE_Init+0x1a>
}
 800575c:	e8bd 4008 	ldmia.w	sp!, {r3, lr}
    Error_Handler();
 8005760:	f7fb b9ee 	b.w	8000b40 <Error_Handler>
    Error_Handler();
 8005764:	f7fb f9ec 	bl	8000b40 <Error_Handler>
 8005768:	e7ed      	b.n	8005746 <MX_USB_DEVICE_Init+0x46>
    Error_Handler();
 800576a:	f7fb f9e9 	bl	8000b40 <Error_Handler>
 800576e:	e7df      	b.n	8005730 <MX_USB_DEVICE_Init+0x30>

08005770 <CUSTOM_HID_Init_FS>:
static int8_t CUSTOM_HID_Init_FS(void)
{
  /* USER CODE BEGIN 4 */
	return (USBD_OK);
  /* USER CODE END 4 */
}
 8005770:	2000      	movs	r0, #0
 8005772:	4770      	bx	lr

08005774 <CUSTOM_HID_OutEvent_FS>:
static int8_t CUSTOM_HID_OutEvent_FS(uint8_t event_idx, uint8_t state)
{
  /* USER CODE BEGIN 6 */
	return (USBD_OK);
  /* USER CODE END 6 */
}
 8005774:	2000      	movs	r0, #0
 8005776:	4770      	bx	lr

08005778 <CUSTOM_HID_DeInit_FS>:
static int8_t CUSTOM_HID_DeInit_FS(void)
 8005778:	2000      	movs	r0, #0
 800577a:	4770      	bx	lr

0800577c <USBD_FS_DeviceDescriptor>:
  * @retval Pointer to descriptor buffer
  */
uint8_t * USBD_FS_DeviceDescriptor(USBD_SpeedTypeDef speed, uint16_t *length)
{
  UNUSED(speed);
  *length = sizeof(USBD_FS_DeviceDesc);
 800577c:	2312      	movs	r3, #18
  return USBD_FS_DeviceDesc;
}
 800577e:	f240 1060 	movw	r0, #352	@ 0x160
  *length = sizeof(USBD_FS_DeviceDesc);
 8005782:	800b      	strh	r3, [r1, #0]
}
 8005784:	f2c2 0000 	movt	r0, #8192	@ 0x2000
 8005788:	4770      	bx	lr
 800578a:	bf00      	nop

0800578c <USBD_FS_LangIDStrDescriptor>:
  * @retval Pointer to descriptor buffer
  */
uint8_t * USBD_FS_LangIDStrDescriptor(USBD_SpeedTypeDef speed, uint16_t *length)
{
  UNUSED(speed);
  *length = sizeof(USBD_LangIDDesc);
 800578c:	2304      	movs	r3, #4
  return USBD_LangIDDesc;
}
 800578e:	f240 105c 	movw	r0, #348	@ 0x15c
  *length = sizeof(USBD_LangIDDesc);
 8005792:	800b      	strh	r3, [r1, #0]
}
 8005794:	f2c2 0000 	movt	r0, #8192	@ 0x2000
 8005798:	4770      	bx	lr
 800579a:	bf00      	nop

0800579c <USBD_FS_ManufacturerStrDescriptor>:
  * @param  speed : Current device speed
  * @param  length : Pointer to data length variable
  * @retval Pointer to descriptor buffer
  */
uint8_t * USBD_FS_ManufacturerStrDescriptor(USBD_SpeedTypeDef speed, uint16_t *length)
{
 800579c:	b510      	push	{r4, lr}
  UNUSED(speed);
  USBD_GetString((uint8_t *)USBD_MANUFACTURER_STRING, USBD_StrDesc, length);
 800579e:	f640 24bc 	movw	r4, #2748	@ 0xabc
 80057a2:	f646 2048 	movw	r0, #27208	@ 0x6a48
 80057a6:	f2c2 0400 	movt	r4, #8192	@ 0x2000
{
 80057aa:	460a      	mov	r2, r1
  USBD_GetString((uint8_t *)USBD_MANUFACTURER_STRING, USBD_StrDesc, length);
 80057ac:	f6c0 0000 	movt	r0, #2048	@ 0x800
 80057b0:	4621      	mov	r1, r4
 80057b2:	f7ff ff35 	bl	8005620 <USBD_GetString>
  return USBD_StrDesc;
}
 80057b6:	4620      	mov	r0, r4
 80057b8:	bd10      	pop	{r4, pc}
 80057ba:	bf00      	nop

080057bc <USBD_FS_ProductStrDescriptor>:
{
 80057bc:	b510      	push	{r4, lr}
    USBD_GetString((uint8_t *)USBD_PRODUCT_STRING_FS, USBD_StrDesc, length);
 80057be:	f640 24bc 	movw	r4, #2748	@ 0xabc
 80057c2:	f646 205c 	movw	r0, #27228	@ 0x6a5c
 80057c6:	f2c2 0400 	movt	r4, #8192	@ 0x2000
{
 80057ca:	460a      	mov	r2, r1
    USBD_GetString((uint8_t *)USBD_PRODUCT_STRING_FS, USBD_StrDesc, length);
 80057cc:	f6c0 0000 	movt	r0, #2048	@ 0x800
 80057d0:	4621      	mov	r1, r4
 80057d2:	f7ff ff25 	bl	8005620 <USBD_GetString>
}
 80057d6:	4620      	mov	r0, r4
 80057d8:	bd10      	pop	{r4, pc}
 80057da:	bf00      	nop

080057dc <USBD_FS_ConfigStrDescriptor>:
  * @param  speed : Current device speed
  * @param  length : Pointer to data length variable
  * @retval Pointer to descriptor buffer
  */
uint8_t * USBD_FS_ConfigStrDescriptor(USBD_SpeedTypeDef speed, uint16_t *length)
{
 80057dc:	b510      	push	{r4, lr}
  if(speed == USBD_SPEED_HIGH)
  {
    USBD_GetString((uint8_t *)USBD_CONFIGURATION_STRING_FS, USBD_StrDesc, length);
 80057de:	f640 24bc 	movw	r4, #2748	@ 0xabc
 80057e2:	f646 207c 	movw	r0, #27260	@ 0x6a7c
 80057e6:	f2c2 0400 	movt	r4, #8192	@ 0x2000
{
 80057ea:	460a      	mov	r2, r1
    USBD_GetString((uint8_t *)USBD_CONFIGURATION_STRING_FS, USBD_StrDesc, length);
 80057ec:	f6c0 0000 	movt	r0, #2048	@ 0x800
 80057f0:	4621      	mov	r1, r4
 80057f2:	f7ff ff15 	bl	8005620 <USBD_GetString>
  else
  {
    USBD_GetString((uint8_t *)USBD_CONFIGURATION_STRING_FS, USBD_StrDesc, length);
  }
  return USBD_StrDesc;
}
 80057f6:	4620      	mov	r0, r4
 80057f8:	bd10      	pop	{r4, pc}
 80057fa:	bf00      	nop

080057fc <USBD_FS_InterfaceStrDescriptor>:
  * @param  speed : Current device speed
  * @param  length : Pointer to data length variable
  * @retval Pointer to descriptor buffer
  */
uint8_t * USBD_FS_InterfaceStrDescriptor(USBD_SpeedTypeDef speed, uint16_t *length)
{
 80057fc:	b510      	push	{r4, lr}
  if(speed == 0)
  {
    USBD_GetString((uint8_t *)USBD_INTERFACE_STRING_FS, USBD_StrDesc, length);
 80057fe:	f640 24bc 	movw	r4, #2748	@ 0xabc
 8005802:	f646 2090 	movw	r0, #27280	@ 0x6a90
 8005806:	f2c2 0400 	movt	r4, #8192	@ 0x2000
{
 800580a:	460a      	mov	r2, r1
    USBD_GetString((uint8_t *)USBD_INTERFACE_STRING_FS, USBD_StrDesc, length);
 800580c:	f6c0 0000 	movt	r0, #2048	@ 0x800
 8005810:	4621      	mov	r1, r4
 8005812:	f7ff ff05 	bl	8005620 <USBD_GetString>
  else
  {
    USBD_GetString((uint8_t *)USBD_INTERFACE_STRING_FS, USBD_StrDesc, length);
  }
  return USBD_StrDesc;
}
 8005816:	4620      	mov	r0, r4
 8005818:	bd10      	pop	{r4, pc}
 800581a:	bf00      	nop

0800581c <USBD_FS_SerialStrDescriptor>:
{
  uint32_t deviceserial0;
  uint32_t deviceserial1;
  uint32_t deviceserial2;

  deviceserial0 = *(uint32_t *) DEVICE_ID1;
 800581c:	f44f 4270 	mov.w	r2, #61440	@ 0xf000
  *length = USB_SIZ_STRING_SERIAL;
 8005820:	f04f 0c1a 	mov.w	ip, #26
  deviceserial0 = *(uint32_t *) DEVICE_ID1;
 8005824:	f6c1 72ff 	movt	r2, #8191	@ 0x1fff
 8005828:	f8d2 37e8 	ldr.w	r3, [r2, #2024]	@ 0x7e8
  deviceserial1 = *(uint32_t *) DEVICE_ID2;
  deviceserial2 = *(uint32_t *) DEVICE_ID3;

  deviceserial0 += deviceserial2;
 800582c:	f8d2 07f0 	ldr.w	r0, [r2, #2032]	@ 0x7f0
  *length = USB_SIZ_STRING_SERIAL;
 8005830:	f8a1 c000 	strh.w	ip, [r1]

  if (deviceserial0 != 0)
 8005834:	181b      	adds	r3, r3, r0
 8005836:	d104      	bne.n	8005842 <USBD_FS_SerialStrDescriptor+0x26>
}
 8005838:	f240 1040 	movw	r0, #320	@ 0x140
 800583c:	f2c2 0000 	movt	r0, #8192	@ 0x2000
 8005840:	4770      	bx	lr
{
  uint8_t idx = 0;

  for (idx = 0; idx < len; idx++)
  {
    if (((value >> 28)) < 0xA)
 8005842:	f3c3 6c03 	ubfx	ip, r3, #24, #4
  deviceserial1 = *(uint32_t *) DEVICE_ID2;
 8005846:	f8d2 17ec 	ldr.w	r1, [r2, #2028]	@ 0x7ec
    {
      pbuf[2 * idx] = (value >> 28) + '0';
 800584a:	4660      	mov	r0, ip
 800584c:	f240 1240 	movw	r2, #320	@ 0x140
{
 8005850:	b510      	push	{r4, lr}
    if (((value >> 28)) < 0xA)
 8005852:	f1b3 4f20 	cmp.w	r3, #2684354560	@ 0xa0000000
      pbuf[2 * idx] = (value >> 28) + '0';
 8005856:	ea4f 7e13 	mov.w	lr, r3, lsr #28
    }
    else
    {
      pbuf[2 * idx] = (value >> 28) + 'A' - 10;
 800585a:	bf2c      	ite	cs
 800585c:	f10e 0e37 	addcs.w	lr, lr, #55	@ 0x37
      pbuf[2 * idx] = (value >> 28) + '0';
 8005860:	f10e 0e30 	addcc.w	lr, lr, #48	@ 0x30
    if (((value >> 28)) < 0xA)
 8005864:	f1bc 0f09 	cmp.w	ip, #9
      pbuf[2 * idx] = (value >> 28) + '0';
 8005868:	f2c2 0200 	movt	r2, #8192	@ 0x2000
      pbuf[2 * idx] = (value >> 28) + 'A' - 10;
 800586c:	bf8c      	ite	hi
 800586e:	3037      	addhi	r0, #55	@ 0x37
      pbuf[2 * idx] = (value >> 28) + '0';
 8005870:	3030      	addls	r0, #48	@ 0x30
    if (((value >> 28)) < 0xA)
 8005872:	f3c3 5c03 	ubfx	ip, r3, #20, #4
      pbuf[2 * idx] = (value >> 28) + '0';
 8005876:	7110      	strb	r0, [r2, #4]
 8005878:	4660      	mov	r0, ip
    if (((value >> 28)) < 0xA)
 800587a:	f1bc 0f09 	cmp.w	ip, #9
      pbuf[2 * idx] = (value >> 28) + 'A' - 10;
 800587e:	bf8c      	ite	hi
 8005880:	3037      	addhi	r0, #55	@ 0x37
      pbuf[2 * idx] = (value >> 28) + '0';
 8005882:	3030      	addls	r0, #48	@ 0x30
    if (((value >> 28)) < 0xA)
 8005884:	f3c3 4c03 	ubfx	ip, r3, #16, #4
      pbuf[2 * idx] = (value >> 28) + '0';
 8005888:	7190      	strb	r0, [r2, #6]
 800588a:	4660      	mov	r0, ip
    if (((value >> 28)) < 0xA)
 800588c:	f1bc 0f09 	cmp.w	ip, #9
      pbuf[2 * idx] = (value >> 28) + 'A' - 10;
 8005890:	bf8c      	ite	hi
 8005892:	3037      	addhi	r0, #55	@ 0x37
      pbuf[2 * idx] = (value >> 28) + '0';
 8005894:	3030      	addls	r0, #48	@ 0x30
    if (((value >> 28)) < 0xA)
 8005896:	f3c3 3c03 	ubfx	ip, r3, #12, #4
      pbuf[2 * idx] = (value >> 28) + '0';
 800589a:	7210      	strb	r0, [r2, #8]
 800589c:	4660      	mov	r0, ip
    if (((value >> 28)) < 0xA)
 800589e:	f1bc 0f09 	cmp.w	ip, #9
      pbuf[2 * idx] = (value >> 28) + 'A' - 10;
 80058a2:	bf8c      	ite	hi
 80058a4:	3037      	addhi	r0, #55	@ 0x37
      pbuf[2 * idx] = (value >> 28) + '0';
 80058a6:	3030      	addls	r0, #48	@ 0x30
    if (((value >> 28)) < 0xA)
 80058a8:	f3c3 2c03 	ubfx	ip, r3, #8, #4
      pbuf[2 * idx] = (value >> 28) + '0';
 80058ac:	7290      	strb	r0, [r2, #10]
 80058ae:	4660      	mov	r0, ip
    if (((value >> 28)) < 0xA)
 80058b0:	f1bc 0f09 	cmp.w	ip, #9
      pbuf[2 * idx] = (value >> 28) + 'A' - 10;
 80058b4:	bf8c      	ite	hi
 80058b6:	3037      	addhi	r0, #55	@ 0x37
      pbuf[2 * idx] = (value >> 28) + '0';
 80058b8:	3030      	addls	r0, #48	@ 0x30
    if (((value >> 28)) < 0xA)
 80058ba:	f3c3 1c03 	ubfx	ip, r3, #4, #4
      pbuf[2 * idx] = (value >> 28) + '0';
 80058be:	7310      	strb	r0, [r2, #12]
 80058c0:	4660      	mov	r0, ip
 80058c2:	f882 e002 	strb.w	lr, [r2, #2]
    }

    value = value << 4;

    pbuf[2 * idx + 1] = 0;
 80058c6:	f04f 0e00 	mov.w	lr, #0
    if (((value >> 28)) < 0xA)
 80058ca:	f1bc 0f09 	cmp.w	ip, #9
      pbuf[2 * idx] = (value >> 28) + 'A' - 10;
 80058ce:	bf8c      	ite	hi
 80058d0:	3037      	addhi	r0, #55	@ 0x37
      pbuf[2 * idx] = (value >> 28) + '0';
 80058d2:	3030      	addls	r0, #48	@ 0x30
 80058d4:	7390      	strb	r0, [r2, #14]
    if (((value >> 28)) < 0xA)
 80058d6:	f003 000f 	and.w	r0, r3, #15
      pbuf[2 * idx] = (value >> 28) + '0';
 80058da:	4603      	mov	r3, r0
    if (((value >> 28)) < 0xA)
 80058dc:	2809      	cmp	r0, #9
    pbuf[2 * idx + 1] = 0;
 80058de:	f04f 0000 	mov.w	r0, #0
 80058e2:	f04f 0400 	mov.w	r4, #0
 80058e6:	f882 e005 	strb.w	lr, [r2, #5]
 80058ea:	f04f 0e00 	mov.w	lr, #0
      pbuf[2 * idx] = (value >> 28) + '0';
 80058ee:	bf94      	ite	ls
 80058f0:	3330      	addls	r3, #48	@ 0x30
      pbuf[2 * idx] = (value >> 28) + 'A' - 10;
 80058f2:	3337      	addhi	r3, #55	@ 0x37
      pbuf[2 * idx] = (value >> 28) + '0';
 80058f4:	7413      	strb	r3, [r2, #16]
    if (((value >> 28)) < 0xA)
 80058f6:	f1b1 4f20 	cmp.w	r1, #2684354560	@ 0xa0000000
      pbuf[2 * idx] = (value >> 28) + '0';
 80058fa:	ea4f 7311 	mov.w	r3, r1, lsr #28
      pbuf[2 * idx] = (value >> 28) + 'A' - 10;
 80058fe:	bf2c      	ite	cs
 8005900:	3337      	addcs	r3, #55	@ 0x37
      pbuf[2 * idx] = (value >> 28) + '0';
 8005902:	3330      	addcc	r3, #48	@ 0x30
    pbuf[2 * idx + 1] = 0;
 8005904:	7450      	strb	r0, [r2, #17]
    if (((value >> 28)) < 0xA)
 8005906:	f3c1 6003 	ubfx	r0, r1, #24, #4
      pbuf[2 * idx] = (value >> 28) + '0';
 800590a:	7493      	strb	r3, [r2, #18]
 800590c:	4603      	mov	r3, r0
    pbuf[2 * idx + 1] = 0;
 800590e:	70d4      	strb	r4, [r2, #3]
 8005910:	f882 e007 	strb.w	lr, [r2, #7]
 8005914:	2400      	movs	r4, #0
 8005916:	f04f 0e00 	mov.w	lr, #0
    if (((value >> 28)) < 0xA)
 800591a:	2809      	cmp	r0, #9
      pbuf[2 * idx] = (value >> 28) + 'A' - 10;
 800591c:	bf8c      	ite	hi
 800591e:	3337      	addhi	r3, #55	@ 0x37
      pbuf[2 * idx] = (value >> 28) + '0';
 8005920:	3330      	addls	r3, #48	@ 0x30
    if (((value >> 28)) < 0xA)
 8005922:	f3c1 5003 	ubfx	r0, r1, #20, #4
      pbuf[2 * idx] = (value >> 28) + '0';
 8005926:	7513      	strb	r3, [r2, #20]
 8005928:	4603      	mov	r3, r0
    pbuf[2 * idx + 1] = 0;
 800592a:	f882 e009 	strb.w	lr, [r2, #9]
 800592e:	74d4      	strb	r4, [r2, #19]
 8005930:	f04f 0e00 	mov.w	lr, #0
 8005934:	2400      	movs	r4, #0
    if (((value >> 28)) < 0xA)
 8005936:	2809      	cmp	r0, #9
      pbuf[2 * idx] = (value >> 28) + 'A' - 10;
 8005938:	bf8c      	ite	hi
 800593a:	3337      	addhi	r3, #55	@ 0x37
      pbuf[2 * idx] = (value >> 28) + '0';
 800593c:	3330      	addls	r3, #48	@ 0x30
    if (((value >> 28)) < 0xA)
 800593e:	f3c1 4003 	ubfx	r0, r1, #16, #4
      pbuf[2 * idx] = (value >> 28) + '0';
 8005942:	7593      	strb	r3, [r2, #22]
 8005944:	4603      	mov	r3, r0
    pbuf[2 * idx + 1] = 0;
 8005946:	f04f 0c00 	mov.w	ip, #0
 800594a:	2100      	movs	r1, #0
 800594c:	f882 e00b 	strb.w	lr, [r2, #11]
 8005950:	7554      	strb	r4, [r2, #21]
 8005952:	f04f 0e00 	mov.w	lr, #0
 8005956:	2400      	movs	r4, #0
    if (((value >> 28)) < 0xA)
 8005958:	2809      	cmp	r0, #9
}
 800595a:	f240 1040 	movw	r0, #320	@ 0x140
      pbuf[2 * idx] = (value >> 28) + '0';
 800595e:	bf94      	ite	ls
 8005960:	3330      	addls	r3, #48	@ 0x30
      pbuf[2 * idx] = (value >> 28) + 'A' - 10;
 8005962:	3337      	addhi	r3, #55	@ 0x37
    pbuf[2 * idx + 1] = 0;
 8005964:	f882 e00d 	strb.w	lr, [r2, #13]
 8005968:	f882 c00f 	strb.w	ip, [r2, #15]
 800596c:	75d4      	strb	r4, [r2, #23]
      pbuf[2 * idx] = (value >> 28) + '0';
 800596e:	7613      	strb	r3, [r2, #24]
    pbuf[2 * idx + 1] = 0;
 8005970:	7651      	strb	r1, [r2, #25]
}
 8005972:	f2c2 0000 	movt	r0, #8192	@ 0x2000
 8005976:	bd10      	pop	{r4, pc}

08005978 <HAL_PCD_MspInit>:
*******************************************************************************/
/* MSP Init */

void HAL_PCD_MspInit(PCD_HandleTypeDef* pcdHandle)
{
  if(pcdHandle->Instance==USB)
 8005978:	f44f 43b8 	mov.w	r3, #23552	@ 0x5c00
 800597c:	6802      	ldr	r2, [r0, #0]
 800597e:	f2c4 0300 	movt	r3, #16384	@ 0x4000
 8005982:	429a      	cmp	r2, r3
 8005984:	d000      	beq.n	8005988 <HAL_PCD_MspInit+0x10>
 8005986:	4770      	bx	lr
  {
  /* USER CODE BEGIN USB_MspInit 0 */

  /* USER CODE END USB_MspInit 0 */
    /* Peripheral clock enable */
    __HAL_RCC_USB_CLK_ENABLE();
 8005988:	f44f 5380 	mov.w	r3, #4096	@ 0x1000

    /* Peripheral interrupt init */
    HAL_NVIC_SetPriority(USB_LP_CAN1_RX0_IRQn, 0, 0);
 800598c:	2200      	movs	r2, #0
{
 800598e:	b510      	push	{r4, lr}
    __HAL_RCC_USB_CLK_ENABLE();
 8005990:	f2c4 0302 	movt	r3, #16386	@ 0x4002
 8005994:	69dc      	ldr	r4, [r3, #28]
{
 8005996:	b082      	sub	sp, #8
    __HAL_RCC_USB_CLK_ENABLE();
 8005998:	f444 0400 	orr.w	r4, r4, #8388608	@ 0x800000
 800599c:	61dc      	str	r4, [r3, #28]
 800599e:	69db      	ldr	r3, [r3, #28]
    HAL_NVIC_SetPriority(USB_LP_CAN1_RX0_IRQn, 0, 0);
 80059a0:	2014      	movs	r0, #20
    __HAL_RCC_USB_CLK_ENABLE();
 80059a2:	f403 0300 	and.w	r3, r3, #8388608	@ 0x800000
 80059a6:	9301      	str	r3, [sp, #4]
    HAL_NVIC_SetPriority(USB_LP_CAN1_RX0_IRQn, 0, 0);
 80059a8:	4611      	mov	r1, r2
    __HAL_RCC_USB_CLK_ENABLE();
 80059aa:	9b01      	ldr	r3, [sp, #4]
    HAL_NVIC_SetPriority(USB_LP_CAN1_RX0_IRQn, 0, 0);
 80059ac:	f7fb fdae 	bl	800150c <HAL_NVIC_SetPriority>
    HAL_NVIC_EnableIRQ(USB_LP_CAN1_RX0_IRQn);
 80059b0:	2014      	movs	r0, #20
  /* USER CODE BEGIN USB_MspInit 1 */

  /* USER CODE END USB_MspInit 1 */
  }
}
 80059b2:	b002      	add	sp, #8
 80059b4:	e8bd 4010 	ldmia.w	sp!, {r4, lr}
    HAL_NVIC_EnableIRQ(USB_LP_CAN1_RX0_IRQn);
 80059b8:	f7fb bde6 	b.w	8001588 <HAL_NVIC_EnableIRQ>

080059bc <HAL_PCD_SetupStageCallback>:
#if (USE_HAL_PCD_REGISTER_CALLBACKS == 1U)
static void PCD_SetupStageCallback(PCD_HandleTypeDef *hpcd)
#else
void HAL_PCD_SetupStageCallback(PCD_HandleTypeDef *hpcd)
#endif /* USE_HAL_PCD_REGISTER_CALLBACKS */
{
 80059bc:	4601      	mov	r1, r0
  USBD_LL_SetupStage((USBD_HandleTypeDef*)hpcd->pData, (uint8_t *)hpcd->Setup);
 80059be:	f8d0 02d4 	ldr.w	r0, [r0, #724]	@ 0x2d4
 80059c2:	f501 7126 	add.w	r1, r1, #664	@ 0x298
 80059c6:	f7ff bab9 	b.w	8004f3c <USBD_LL_SetupStage>
 80059ca:	bf00      	nop

080059cc <HAL_PCD_DataOutStageCallback>:
static void PCD_DataOutStageCallback(PCD_HandleTypeDef *hpcd, uint8_t epnum)
#else
void HAL_PCD_DataOutStageCallback(PCD_HandleTypeDef *hpcd, uint8_t epnum)
#endif /* USE_HAL_PCD_REGISTER_CALLBACKS */
{
  USBD_LL_DataOutStage((USBD_HandleTypeDef*)hpcd->pData, epnum, hpcd->OUT_ep[epnum].xfer_buff);
 80059cc:	eb01 0381 	add.w	r3, r1, r1, lsl #2
 80059d0:	eb00 03c3 	add.w	r3, r0, r3, lsl #3
 80059d4:	f8d3 2164 	ldr.w	r2, [r3, #356]	@ 0x164
 80059d8:	f8d0 02d4 	ldr.w	r0, [r0, #724]	@ 0x2d4
 80059dc:	f7ff bade 	b.w	8004f9c <USBD_LL_DataOutStage>

080059e0 <HAL_PCD_DataInStageCallback>:
static void PCD_DataInStageCallback(PCD_HandleTypeDef *hpcd, uint8_t epnum)
#else
void HAL_PCD_DataInStageCallback(PCD_HandleTypeDef *hpcd, uint8_t epnum)
#endif /* USE_HAL_PCD_REGISTER_CALLBACKS */
{
  USBD_LL_DataInStage((USBD_HandleTypeDef*)hpcd->pData, epnum, hpcd->IN_ep[epnum].xfer_buff);
 80059e0:	eb01 0381 	add.w	r3, r1, r1, lsl #2
 80059e4:	eb00 03c3 	add.w	r3, r0, r3, lsl #3
 80059e8:	6a5a      	ldr	r2, [r3, #36]	@ 0x24
 80059ea:	f8d0 02d4 	ldr.w	r0, [r0, #724]	@ 0x2d4
 80059ee:	f7ff bb0f 	b.w	8005010 <USBD_LL_DataInStage>
 80059f2:	bf00      	nop

080059f4 <HAL_PCD_SOFCallback>:
static void PCD_SOFCallback(PCD_HandleTypeDef *hpcd)
#else
void HAL_PCD_SOFCallback(PCD_HandleTypeDef *hpcd)
#endif /* USE_HAL_PCD_REGISTER_CALLBACKS */
{
  USBD_LL_SOF((USBD_HandleTypeDef*)hpcd->pData);
 80059f4:	f8d0 02d4 	ldr.w	r0, [r0, #724]	@ 0x2d4
 80059f8:	f7ff bbaa 	b.w	8005150 <USBD_LL_SOF>

080059fc <HAL_PCD_ResetCallback>:
#if (USE_HAL_PCD_REGISTER_CALLBACKS == 1U)
static void PCD_ResetCallback(PCD_HandleTypeDef *hpcd)
#else
void HAL_PCD_ResetCallback(PCD_HandleTypeDef *hpcd)
#endif /* USE_HAL_PCD_REGISTER_CALLBACKS */
{
 80059fc:	b510      	push	{r4, lr}
  USBD_SpeedTypeDef speed = USBD_SPEED_FULL;

  if ( hpcd->Init.speed != PCD_SPEED_FULL)
 80059fe:	7983      	ldrb	r3, [r0, #6]
{
 8005a00:	4604      	mov	r4, r0
  if ( hpcd->Init.speed != PCD_SPEED_FULL)
 8005a02:	2b02      	cmp	r3, #2
 8005a04:	d001      	beq.n	8005a0a <HAL_PCD_ResetCallback+0xe>
  {
    Error_Handler();
 8005a06:	f7fb f89b 	bl	8000b40 <Error_Handler>
  }
    /* Set Speed. */
  USBD_LL_SetSpeed((USBD_HandleTypeDef*)hpcd->pData, speed);
 8005a0a:	f8d4 02d4 	ldr.w	r0, [r4, #724]	@ 0x2d4
 8005a0e:	2101      	movs	r1, #1
 8005a10:	f7ff fb86 	bl	8005120 <USBD_LL_SetSpeed>

  /* Reset Device. */
  USBD_LL_Reset((USBD_HandleTypeDef*)hpcd->pData);
 8005a14:	f8d4 02d4 	ldr.w	r0, [r4, #724]	@ 0x2d4
}
 8005a18:	e8bd 4010 	ldmia.w	sp!, {r4, lr}
  USBD_LL_Reset((USBD_HandleTypeDef*)hpcd->pData);
 8005a1c:	f7ff bb58 	b.w	80050d0 <USBD_LL_Reset>

08005a20 <HAL_PCD_SuspendCallback>:
#if (USE_HAL_PCD_REGISTER_CALLBACKS == 1U)
static void PCD_SuspendCallback(PCD_HandleTypeDef *hpcd)
#else
void HAL_PCD_SuspendCallback(PCD_HandleTypeDef *hpcd)
#endif /* USE_HAL_PCD_REGISTER_CALLBACKS */
{
 8005a20:	b510      	push	{r4, lr}
 8005a22:	4604      	mov	r4, r0
  /* Inform USB library that core enters in suspend Mode. */
  USBD_LL_Suspend((USBD_HandleTypeDef*)hpcd->pData);
 8005a24:	f8d0 02d4 	ldr.w	r0, [r0, #724]	@ 0x2d4
 8005a28:	f7ff fb7e 	bl	8005128 <USBD_LL_Suspend>
  /* Enter in STOP mode. */
  /* USER CODE BEGIN 2 */
  if (hpcd->Init.low_power_enable)
 8005a2c:	7aa3      	ldrb	r3, [r4, #10]
 8005a2e:	b13b      	cbz	r3, 8005a40 <HAL_PCD_SuspendCallback+0x20>
  {
    /* Set SLEEPDEEP bit and SleepOnExit of Cortex System Control Register. */
    SCB->SCR |= (uint32_t)((uint32_t)(SCB_SCR_SLEEPDEEP_Msk | SCB_SCR_SLEEPONEXIT_Msk));
 8005a30:	f44f 436d 	mov.w	r3, #60672	@ 0xed00
 8005a34:	f2ce 0300 	movt	r3, #57344	@ 0xe000
 8005a38:	691a      	ldr	r2, [r3, #16]
 8005a3a:	f042 0206 	orr.w	r2, r2, #6
 8005a3e:	611a      	str	r2, [r3, #16]
  }
  /* USER CODE END 2 */
}
 8005a40:	bd10      	pop	{r4, pc}
 8005a42:	bf00      	nop

08005a44 <HAL_PCD_ResumeCallback>:
#endif /* USE_HAL_PCD_REGISTER_CALLBACKS */
{
  /* USER CODE BEGIN 3 */

  /* USER CODE END 3 */
  USBD_LL_Resume((USBD_HandleTypeDef*)hpcd->pData);
 8005a44:	f8d0 02d4 	ldr.w	r0, [r0, #724]	@ 0x2d4
 8005a48:	f7ff bb78 	b.w	800513c <USBD_LL_Resume>

08005a4c <USBD_LL_Init>:
  */
USBD_StatusTypeDef USBD_LL_Init(USBD_HandleTypeDef *pdev)
{
  /* Init USB Ip. */
  /* Link the driver to the stack. */
  hpcd_USB_FS.pData = pdev;
 8005a4c:	f640 43d8 	movw	r3, #3288	@ 0xcd8
{
 8005a50:	b510      	push	{r4, lr}
  pdev->pData = &hpcd_USB_FS;

  hpcd_USB_FS.Instance = USB;
 8005a52:	f44f 41b8 	mov.w	r1, #23552	@ 0x5c00
{
 8005a56:	4604      	mov	r4, r0
  hpcd_USB_FS.Init.dev_endpoints = 8;
  hpcd_USB_FS.Init.speed = PCD_SPEED_FULL;
  hpcd_USB_FS.Init.low_power_enable = DISABLE;
 8005a58:	2200      	movs	r2, #0
  hpcd_USB_FS.Init.dev_endpoints = 8;
 8005a5a:	f04f 0c08 	mov.w	ip, #8
  hpcd_USB_FS.Init.speed = PCD_SPEED_FULL;
 8005a5e:	f04f 0e02 	mov.w	lr, #2
  hpcd_USB_FS.pData = pdev;
 8005a62:	f2c2 0300 	movt	r3, #8192	@ 0x2000
  hpcd_USB_FS.Instance = USB;
 8005a66:	f2c4 0100 	movt	r1, #16384	@ 0x4000
  hpcd_USB_FS.pData = pdev;
 8005a6a:	f8c3 42d4 	str.w	r4, [r3, #724]	@ 0x2d4
  hpcd_USB_FS.Init.lpm_enable = DISABLE;
  hpcd_USB_FS.Init.battery_charging_enable = DISABLE;
  if (HAL_PCD_Init(&hpcd_USB_FS) != HAL_OK)
 8005a6e:	4618      	mov	r0, r3
  pdev->pData = &hpcd_USB_FS;
 8005a70:	f8c4 32c0 	str.w	r3, [r4, #704]	@ 0x2c0
  hpcd_USB_FS.Init.speed = PCD_SPEED_FULL;
 8005a74:	f883 e006 	strb.w	lr, [r3, #6]
  hpcd_USB_FS.Instance = USB;
 8005a78:	6019      	str	r1, [r3, #0]
  hpcd_USB_FS.Init.dev_endpoints = 8;
 8005a7a:	f883 c004 	strb.w	ip, [r3, #4]
  hpcd_USB_FS.Init.low_power_enable = DISABLE;
 8005a7e:	815a      	strh	r2, [r3, #10]
  hpcd_USB_FS.Init.battery_charging_enable = DISABLE;
 8005a80:	731a      	strb	r2, [r3, #12]
  if (HAL_PCD_Init(&hpcd_USB_FS) != HAL_OK)
 8005a82:	f7fc f94f 	bl	8001d24 <HAL_PCD_Init>
 8005a86:	b9e8      	cbnz	r0, 8005ac4 <USBD_LL_Init+0x78>
  HAL_PCD_RegisterDataInStageCallback(&hpcd_USB_FS, PCD_DataInStageCallback);
  HAL_PCD_RegisterIsoOutIncpltCallback(&hpcd_USB_FS, PCD_ISOOUTIncompleteCallback);
  HAL_PCD_RegisterIsoInIncpltCallback(&hpcd_USB_FS, PCD_ISOINIncompleteCallback);
#endif /* USE_HAL_PCD_REGISTER_CALLBACKS */
  /* USER CODE BEGIN EndPoint_Configuration */
  HAL_PCDEx_PMAConfig((PCD_HandleTypeDef*)pdev->pData , 0x00 , PCD_SNG_BUF, 0x18);
 8005a88:	2200      	movs	r2, #0
 8005a8a:	2318      	movs	r3, #24
 8005a8c:	4611      	mov	r1, r2
 8005a8e:	f8d4 02c0 	ldr.w	r0, [r4, #704]	@ 0x2c0
 8005a92:	f7fd f91d 	bl	8002cd0 <HAL_PCDEx_PMAConfig>
  HAL_PCDEx_PMAConfig((PCD_HandleTypeDef*)pdev->pData , 0x80 , PCD_SNG_BUF, 0x58);
 8005a96:	2358      	movs	r3, #88	@ 0x58
 8005a98:	2200      	movs	r2, #0
 8005a9a:	2180      	movs	r1, #128	@ 0x80
 8005a9c:	f8d4 02c0 	ldr.w	r0, [r4, #704]	@ 0x2c0
 8005aa0:	f7fd f916 	bl	8002cd0 <HAL_PCDEx_PMAConfig>
  /* USER CODE END EndPoint_Configuration */
  /* USER CODE BEGIN EndPoint_Configuration_CUSTOM_HID */
  HAL_PCDEx_PMAConfig((PCD_HandleTypeDef*)pdev->pData , CUSTOM_HID_EPIN_ADDR , PCD_SNG_BUF, 0x98);
 8005aa4:	2398      	movs	r3, #152	@ 0x98
 8005aa6:	2200      	movs	r2, #0
 8005aa8:	2181      	movs	r1, #129	@ 0x81
 8005aaa:	f8d4 02c0 	ldr.w	r0, [r4, #704]	@ 0x2c0
 8005aae:	f7fd f90f 	bl	8002cd0 <HAL_PCDEx_PMAConfig>
  HAL_PCDEx_PMAConfig((PCD_HandleTypeDef*)pdev->pData , CUSTOM_HID_EPOUT_ADDR , PCD_SNG_BUF, 0xD8);
 8005ab2:	23d8      	movs	r3, #216	@ 0xd8
 8005ab4:	2200      	movs	r2, #0
 8005ab6:	2101      	movs	r1, #1
 8005ab8:	f8d4 02c0 	ldr.w	r0, [r4, #704]	@ 0x2c0
 8005abc:	f7fd f908 	bl	8002cd0 <HAL_PCDEx_PMAConfig>
  /* USER CODE END EndPoint_Configuration_CUSTOM_HID */
  return USBD_OK;
}
 8005ac0:	2000      	movs	r0, #0
 8005ac2:	bd10      	pop	{r4, pc}
    Error_Handler( );
 8005ac4:	f7fb f83c 	bl	8000b40 <Error_Handler>
 8005ac8:	e7de      	b.n	8005a88 <USBD_LL_Init+0x3c>
 8005aca:	bf00      	nop

08005acc <USBD_LL_Start>:
  * @brief  Starts the low level portion of the device driver.
  * @param  pdev: Device handle
  * @retval USBD status
  */
USBD_StatusTypeDef USBD_LL_Start(USBD_HandleTypeDef *pdev)
{
 8005acc:	b508      	push	{r3, lr}
  HAL_StatusTypeDef hal_status = HAL_OK;
  USBD_StatusTypeDef usb_status = USBD_OK;

  hal_status = HAL_PCD_Start(pdev->pData);
 8005ace:	f8d0 02c0 	ldr.w	r0, [r0, #704]	@ 0x2c0
 8005ad2:	f7fc fa1f 	bl	8001f14 <HAL_PCD_Start>
  */
USBD_StatusTypeDef USBD_Get_USB_Status(HAL_StatusTypeDef hal_status)
{
  USBD_StatusTypeDef usb_status = USBD_OK;

  switch (hal_status)
 8005ad6:	b118      	cbz	r0, 8005ae0 <USBD_LL_Start+0x14>
 8005ad8:	2802      	cmp	r0, #2
 8005ada:	bf0c      	ite	eq
 8005adc:	2001      	moveq	r0, #1
 8005ade:	2002      	movne	r0, #2
}
 8005ae0:	bd08      	pop	{r3, pc}
 8005ae2:	bf00      	nop

08005ae4 <USBD_LL_OpenEP>:
{
 8005ae4:	4694      	mov	ip, r2
 8005ae6:	b508      	push	{r3, lr}
 8005ae8:	461a      	mov	r2, r3
  hal_status = HAL_PCD_EP_Open(pdev->pData, ep_addr, ep_mps, ep_type);
 8005aea:	f8d0 02c0 	ldr.w	r0, [r0, #704]	@ 0x2c0
 8005aee:	4663      	mov	r3, ip
 8005af0:	f7fc ffdc 	bl	8002aac <HAL_PCD_EP_Open>
  switch (hal_status)
 8005af4:	b118      	cbz	r0, 8005afe <USBD_LL_OpenEP+0x1a>
 8005af6:	2802      	cmp	r0, #2
 8005af8:	bf0c      	ite	eq
 8005afa:	2001      	moveq	r0, #1
 8005afc:	2002      	movne	r0, #2
}
 8005afe:	bd08      	pop	{r3, pc}

08005b00 <USBD_LL_CloseEP>:
{
 8005b00:	b508      	push	{r3, lr}
  hal_status = HAL_PCD_EP_Close(pdev->pData, ep_addr);
 8005b02:	f8d0 02c0 	ldr.w	r0, [r0, #704]	@ 0x2c0
 8005b06:	f7fd f807 	bl	8002b18 <HAL_PCD_EP_Close>
  switch (hal_status)
 8005b0a:	b118      	cbz	r0, 8005b14 <USBD_LL_CloseEP+0x14>
 8005b0c:	2802      	cmp	r0, #2
 8005b0e:	bf0c      	ite	eq
 8005b10:	2001      	moveq	r0, #1
 8005b12:	2002      	movne	r0, #2
}
 8005b14:	bd08      	pop	{r3, pc}
 8005b16:	bf00      	nop

08005b18 <USBD_LL_StallEP>:
{
 8005b18:	b508      	push	{r3, lr}
  hal_status = HAL_PCD_EP_SetStall(pdev->pData, ep_addr);
 8005b1a:	f8d0 02c0 	ldr.w	r0, [r0, #704]	@ 0x2c0
 8005b1e:	f7fd f85f 	bl	8002be0 <HAL_PCD_EP_SetStall>
  switch (hal_status)
 8005b22:	b118      	cbz	r0, 8005b2c <USBD_LL_StallEP+0x14>
 8005b24:	2802      	cmp	r0, #2
 8005b26:	bf0c      	ite	eq
 8005b28:	2001      	moveq	r0, #1
 8005b2a:	2002      	movne	r0, #2
}
 8005b2c:	bd08      	pop	{r3, pc}
 8005b2e:	bf00      	nop

08005b30 <USBD_LL_ClearStallEP>:
{
 8005b30:	b508      	push	{r3, lr}
  hal_status = HAL_PCD_EP_ClrStall(pdev->pData, ep_addr);
 8005b32:	f8d0 02c0 	ldr.w	r0, [r0, #704]	@ 0x2c0
 8005b36:	f7fd f893 	bl	8002c60 <HAL_PCD_EP_ClrStall>
  switch (hal_status)
 8005b3a:	b118      	cbz	r0, 8005b44 <USBD_LL_ClearStallEP+0x14>
 8005b3c:	2802      	cmp	r0, #2
 8005b3e:	bf0c      	ite	eq
 8005b40:	2001      	moveq	r0, #1
 8005b42:	2002      	movne	r0, #2
}
 8005b44:	bd08      	pop	{r3, pc}
 8005b46:	bf00      	nop

08005b48 <USBD_LL_IsStallEP>:
  if((ep_addr & 0x80) == 0x80)
 8005b48:	060a      	lsls	r2, r1, #24
  PCD_HandleTypeDef *hpcd = (PCD_HandleTypeDef*) pdev->pData;
 8005b4a:	f8d0 32c0 	ldr.w	r3, [r0, #704]	@ 0x2c0
  if((ep_addr & 0x80) == 0x80)
 8005b4e:	d406      	bmi.n	8005b5e <USBD_LL_IsStallEP+0x16>
    return hpcd->OUT_ep[ep_addr & 0x7F].is_stall;
 8005b50:	eb01 0181 	add.w	r1, r1, r1, lsl #2
 8005b54:	eb03 03c1 	add.w	r3, r3, r1, lsl #3
 8005b58:	f893 0152 	ldrb.w	r0, [r3, #338]	@ 0x152
}
 8005b5c:	4770      	bx	lr
    return hpcd->IN_ep[ep_addr & 0x7F].is_stall;
 8005b5e:	f001 017f 	and.w	r1, r1, #127	@ 0x7f
 8005b62:	eb01 0181 	add.w	r1, r1, r1, lsl #2
 8005b66:	eb03 03c1 	add.w	r3, r3, r1, lsl #3
 8005b6a:	7c98      	ldrb	r0, [r3, #18]
 8005b6c:	4770      	bx	lr
 8005b6e:	bf00      	nop

08005b70 <USBD_LL_SetUSBAddress>:
{
 8005b70:	b508      	push	{r3, lr}
  hal_status = HAL_PCD_SetAddress(pdev->pData, dev_addr);
 8005b72:	f8d0 02c0 	ldr.w	r0, [r0, #704]	@ 0x2c0
 8005b76:	f7fc ff85 	bl	8002a84 <HAL_PCD_SetAddress>
  switch (hal_status)
 8005b7a:	b118      	cbz	r0, 8005b84 <USBD_LL_SetUSBAddress+0x14>
 8005b7c:	2802      	cmp	r0, #2
 8005b7e:	bf0c      	ite	eq
 8005b80:	2001      	moveq	r0, #1
 8005b82:	2002      	movne	r0, #2
}
 8005b84:	bd08      	pop	{r3, pc}
 8005b86:	bf00      	nop

08005b88 <USBD_LL_Transmit>:
{
 8005b88:	b508      	push	{r3, lr}
  hal_status = HAL_PCD_EP_Transmit(pdev->pData, ep_addr, pbuf, size);
 8005b8a:	f8d0 02c0 	ldr.w	r0, [r0, #704]	@ 0x2c0
 8005b8e:	f7fd f809 	bl	8002ba4 <HAL_PCD_EP_Transmit>
  switch (hal_status)
 8005b92:	b118      	cbz	r0, 8005b9c <USBD_LL_Transmit+0x14>
 8005b94:	2802      	cmp	r0, #2
 8005b96:	bf0c      	ite	eq
 8005b98:	2001      	moveq	r0, #1
 8005b9a:	2002      	movne	r0, #2
}
 8005b9c:	bd08      	pop	{r3, pc}
 8005b9e:	bf00      	nop

08005ba0 <USBD_LL_PrepareReceive>:
{
 8005ba0:	b508      	push	{r3, lr}
  hal_status = HAL_PCD_EP_Receive(pdev->pData, ep_addr, pbuf, size);
 8005ba2:	f8d0 02c0 	ldr.w	r0, [r0, #704]	@ 0x2c0
 8005ba6:	f7fc ffe5 	bl	8002b74 <HAL_PCD_EP_Receive>
  switch (hal_status)
 8005baa:	b118      	cbz	r0, 8005bb4 <USBD_LL_PrepareReceive+0x14>
 8005bac:	2802      	cmp	r0, #2
 8005bae:	bf0c      	ite	eq
 8005bb0:	2001      	moveq	r0, #1
 8005bb2:	2002      	movne	r0, #2
}
 8005bb4:	bd08      	pop	{r3, pc}
 8005bb6:	bf00      	nop

08005bb8 <USBD_static_malloc>:
}
 8005bb8:	f640 40bc 	movw	r0, #3260	@ 0xcbc
 8005bbc:	f2c2 0000 	movt	r0, #8192	@ 0x2000
 8005bc0:	4770      	bx	lr
 8005bc2:	bf00      	nop

08005bc4 <USBD_static_free>:
}
 8005bc4:	4770      	bx	lr
 8005bc6:	bf00      	nop

08005bc8 <HAL_PCDEx_SetConnectionState>:
}
 8005bc8:	4770      	bx	lr
 8005bca:	bf00      	nop

08005bcc <app_usb_hid_SOF_CB>:
/* 		CALLBACKS 		*/
// Replaces the dynamically called SOF function of the USB interface
// Is called when a Start Of Frame packet is recieved (1KHz)
// Used to check how many milliseconds the deferred processing wasn't active, for error checking
static uint8_t app_usb_hid_SOF_CB(USBD_HandleTypeDef *pdev) {
	if (wheel.hUsbHid->processing_state == USB_IS_PROCESSING) {
 8005bcc:	f640 72c8 	movw	r2, #4040	@ 0xfc8
 8005bd0:	f2c2 0200 	movt	r2, #8192	@ 0x2000
 8005bd4:	6991      	ldr	r1, [r2, #24]
 8005bd6:	7a8b      	ldrb	r3, [r1, #10]
 8005bd8:	2b01      	cmp	r3, #1
 8005bda:	d012      	beq.n	8005c02 <app_usb_hid_SOF_CB+0x36>
		wheel.hUsbHid->processing_state = USB_NOT_PROCESSING;
		wheel.hUsbHid->unsent_reports = 0;
		return USBD_OK;
	} else {
		wheel.hUsbHid->unsent_reports++;
 8005bdc:	7acb      	ldrb	r3, [r1, #11]
 8005bde:	3301      	adds	r3, #1
 8005be0:	b2db      	uxtb	r3, r3
		if (wheel.hUsbHid->unsent_reports
 8005be2:	2b18      	cmp	r3, #24
		wheel.hUsbHid->unsent_reports++;
 8005be4:	72cb      	strb	r3, [r1, #11]
		if (wheel.hUsbHid->unsent_reports
 8005be6:	d90a      	bls.n	8005bfe <app_usb_hid_SOF_CB+0x32>
				>= DEFERRED_PROCESSING_UNSENT_REPORT_THRESHOLD) {
			wheel.hUsbHid->error_count++;
			__HAL_GPIO_EXTI_GENERATE_SWIT(wheel.hSwit.usb_process_data_pin);
 8005be8:	f44f 6380 	mov.w	r3, #1024	@ 0x400
			wheel.hUsbHid->error_count++;
 8005bec:	8988      	ldrh	r0, [r1, #12]
			__HAL_GPIO_EXTI_GENERATE_SWIT(wheel.hSwit.usb_process_data_pin);
 8005bee:	f2c4 0301 	movt	r3, #16385	@ 0x4001
			wheel.hUsbHid->error_count++;
 8005bf2:	3001      	adds	r0, #1
			__HAL_GPIO_EXTI_GENERATE_SWIT(wheel.hSwit.usb_process_data_pin);
 8005bf4:	8a52      	ldrh	r2, [r2, #18]
			wheel.hUsbHid->error_count++;
 8005bf6:	8188      	strh	r0, [r1, #12]
			__HAL_GPIO_EXTI_GENERATE_SWIT(wheel.hSwit.usb_process_data_pin);
 8005bf8:	6919      	ldr	r1, [r3, #16]
 8005bfa:	430a      	orrs	r2, r1
 8005bfc:	611a      	str	r2, [r3, #16]
		}
		return USBD_OK;
	}
}
 8005bfe:	2000      	movs	r0, #0
 8005c00:	4770      	bx	lr
		wheel.hUsbHid->processing_state = USB_NOT_PROCESSING;
 8005c02:	2300      	movs	r3, #0
}
 8005c04:	2000      	movs	r0, #0
		wheel.hUsbHid->processing_state = USB_NOT_PROCESSING;
 8005c06:	814b      	strh	r3, [r1, #10]
}
 8005c08:	4770      	bx	lr
 8005c0a:	bf00      	nop

08005c0c <app_usb_hid_DataInStage_CB>:
// Replaces the dynamically called DataIn function of the USB interface
// Is called when the EP finishes successful a Tx transfer
// Creates an interrupt on the EXTI line
static uint8_t app_usb_hid_DataInStage_CB(USBD_HandleTypeDef *pdev,
		uint8_t epnum) {
	((USBD_CUSTOM_HID_HandleTypeDef*) pdev->pClassData)->state =
 8005c0c:	2100      	movs	r1, #0
			CUSTOM_HID_IDLE; // Enable the next report to be sent
	__HAL_GPIO_EXTI_GENERATE_SWIT(wheel.hSwit.usb_process_data_pin); // Create a software interrupt for deferred processing
 8005c0e:	f44f 6380 	mov.w	r3, #1024	@ 0x400
 8005c12:	f640 72c8 	movw	r2, #4040	@ 0xfc8
		uint8_t epnum) {
 8005c16:	b410      	push	{r4}
	((USBD_CUSTOM_HID_HandleTypeDef*) pdev->pClassData)->state =
 8005c18:	f8d0 42b8 	ldr.w	r4, [r0, #696]	@ 0x2b8
	__HAL_GPIO_EXTI_GENERATE_SWIT(wheel.hSwit.usb_process_data_pin); // Create a software interrupt for deferred processing
 8005c1c:	f2c4 0301 	movt	r3, #16385	@ 0x4001
	((USBD_CUSTOM_HID_HandleTypeDef*) pdev->pClassData)->state =
 8005c20:	7521      	strb	r1, [r4, #20]
	__HAL_GPIO_EXTI_GENERATE_SWIT(wheel.hSwit.usb_process_data_pin); // Create a software interrupt for deferred processing
 8005c22:	f2c2 0200 	movt	r2, #8192	@ 0x2000
	return USBD_OK;
}
 8005c26:	4608      	mov	r0, r1
	__HAL_GPIO_EXTI_GENERATE_SWIT(wheel.hSwit.usb_process_data_pin); // Create a software interrupt for deferred processing
 8005c28:	6919      	ldr	r1, [r3, #16]
 8005c2a:	8a52      	ldrh	r2, [r2, #18]
}
 8005c2c:	bc10      	pop	{r4}
	__HAL_GPIO_EXTI_GENERATE_SWIT(wheel.hSwit.usb_process_data_pin); // Create a software interrupt for deferred processing
 8005c2e:	430a      	orrs	r2, r1
 8005c30:	611a      	str	r2, [r3, #16]
}
 8005c32:	4770      	bx	lr

08005c34 <app_usb_hid_init>:
	if (hUsbHid == 0) {
 8005c34:	4603      	mov	r3, r0
 8005c36:	b130      	cbz	r0, 8005c46 <app_usb_hid_init+0x12>
	hUsbHid->usb_device = &hUsbDeviceFS;
 8005c38:	f240 72f8 	movw	r2, #2040	@ 0x7f8
 8005c3c:	f2c2 0200 	movt	r2, #8192	@ 0x2000
	return WHEEL_OK;
 8005c40:	2000      	movs	r0, #0
	hUsbHid->usb_device = &hUsbDeviceFS;
 8005c42:	611a      	str	r2, [r3, #16]
	return WHEEL_OK;
 8005c44:	4770      	bx	lr
		return WHEEL_ERROR;
 8005c46:	2001      	movs	r0, #1
}
 8005c48:	4770      	bx	lr
 8005c4a:	bf00      	nop

08005c4c <app_usb_hid_start>:
	wheel.hUsbHid->usb_device->pClass->SOF = app_usb_hid_SOF_CB;
 8005c4c:	f640 71c8 	movw	r1, #4040	@ 0xfc8
 8005c50:	f645 32cd 	movw	r2, #23501	@ 0x5bcd
	wheel.hUsbHid->usb_device->pClass->DataIn = app_usb_hid_DataInStage_CB;
 8005c54:	f645 430d 	movw	r3, #23565	@ 0x5c0d
	wheel.hUsbHid->usb_device->pClass->SOF = app_usb_hid_SOF_CB;
 8005c58:	f2c2 0100 	movt	r1, #8192	@ 0x2000
 8005c5c:	6989      	ldr	r1, [r1, #24]
 8005c5e:	f6c0 0200 	movt	r2, #2048	@ 0x800
 8005c62:	6909      	ldr	r1, [r1, #16]
	wheel.hUsbHid->usb_device->pClass->DataIn = app_usb_hid_DataInStage_CB;
 8005c64:	f6c0 0300 	movt	r3, #2048	@ 0x800
	wheel.hUsbHid->usb_device->pClass->SOF = app_usb_hid_SOF_CB;
 8005c68:	f8d1 12b4 	ldr.w	r1, [r1, #692]	@ 0x2b4
}
 8005c6c:	2000      	movs	r0, #0
	wheel.hUsbHid->usb_device->pClass->SOF = app_usb_hid_SOF_CB;
 8005c6e:	61ca      	str	r2, [r1, #28]
	wheel.hUsbHid->usb_device->pClass->DataIn = app_usb_hid_DataInStage_CB;
 8005c70:	614b      	str	r3, [r1, #20]
}
 8005c72:	4770      	bx	lr

08005c74 <app_usb_hid_deferred_processing>:
void app_usb_hid_deferred_processing() {
 8005c74:	b510      	push	{r4, lr}
	wheel.hUsbHid->processing_state = USB_IS_PROCESSING;
 8005c76:	f640 74c8 	movw	r4, #4040	@ 0xfc8
 8005c7a:	2201      	movs	r2, #1
 8005c7c:	f2c2 0400 	movt	r4, #8192	@ 0x2000
 8005c80:	69a3      	ldr	r3, [r4, #24]
 8005c82:	729a      	strb	r2, [r3, #10]
	if (wheel_get_all_component_states() == WHEEL_ERROR) {
 8005c84:	f000 fb0e 	bl	80062a4 <wheel_get_all_component_states>
 8005c88:	2801      	cmp	r0, #1
 8005c8a:	d00b      	beq.n	8005ca4 <app_usb_hid_deferred_processing+0x30>
	wheel.hUsbHid->report_state = USB_REPORT_IS_READY;
 8005c8c:	2101      	movs	r1, #1
	__HAL_GPIO_EXTI_GENERATE_SWIT(wheel.hSwit.usb_send_report_swit_pin);
 8005c8e:	f44f 6380 	mov.w	r3, #1024	@ 0x400
	wheel.hUsbHid->report_state = USB_REPORT_IS_READY;
 8005c92:	69a2      	ldr	r2, [r4, #24]
	__HAL_GPIO_EXTI_GENERATE_SWIT(wheel.hSwit.usb_send_report_swit_pin);
 8005c94:	f2c4 0301 	movt	r3, #16385	@ 0x4001
	wheel.hUsbHid->report_state = USB_REPORT_IS_READY;
 8005c98:	7251      	strb	r1, [r2, #9]
	__HAL_GPIO_EXTI_GENERATE_SWIT(wheel.hSwit.usb_send_report_swit_pin);
 8005c9a:	6919      	ldr	r1, [r3, #16]
 8005c9c:	8a22      	ldrh	r2, [r4, #16]
 8005c9e:	430a      	orrs	r2, r1
 8005ca0:	611a      	str	r2, [r3, #16]
}
 8005ca2:	bd10      	pop	{r4, pc}
		Error_Handler();
 8005ca4:	f7fa ff4c 	bl	8000b40 <Error_Handler>
 8005ca8:	e7f0      	b.n	8005c8c <app_usb_hid_deferred_processing+0x18>
 8005caa:	bf00      	nop

08005cac <app_usb_hid_send_report>:
void app_usb_hid_send_report() {
 8005cac:	b570      	push	{r4, r5, r6, lr}
	if (wheel.hUsbHid->report_state == USB_REPORT_NOT_READY) {
 8005cae:	f640 74c8 	movw	r4, #4040	@ 0xfc8
 8005cb2:	f2c2 0400 	movt	r4, #8192	@ 0x2000
 8005cb6:	69a1      	ldr	r1, [r4, #24]
 8005cb8:	7a4b      	ldrb	r3, [r1, #9]
 8005cba:	b903      	cbnz	r3, 8005cbe <app_usb_hid_send_report+0x12>
}
 8005cbc:	bd70      	pop	{r4, r5, r6, pc}
	tx[0] = 0;
 8005cbe:	2300      	movs	r3, #0
 8005cc0:	700b      	strb	r3, [r1, #0]
	tx[0] |= 0x0F & hat_switch_from_msb(wheel.hButtons->buttons_state);
 8005cc2:	6823      	ldr	r3, [r4, #0]
 8005cc4:	f8d3 2354 	ldr.w	r2, [r3, #852]	@ 0x354
	uint8_t left = (byte & 0x20u) ? 1u : 0u; // bit 5
 8005cc8:	f3c2 1540 	ubfx	r5, r2, #5, #1
	uint8_t right = (byte & 0x80u) ? 1u : 0u; // bit 7
 8005ccc:	f3c2 10c0 	ubfx	r0, r2, #7, #1
	uint8_t down = (byte & 0x10u) ? 1u : 0u; // bit 4
 8005cd0:	f3c2 1300 	ubfx	r3, r2, #4, #1
	uint8_t up = (byte & 0x40u) ? 1u : 0u; // bit 6
 8005cd4:	f3c2 1680 	ubfx	r6, r2, #6, #1
	int8_t dpadY = (int8_t) down - (int8_t) up; // +1 = Down,  1 = Up
 8005cd8:	1b9b      	subs	r3, r3, r6
	int8_t dpadX = (int8_t) right - (int8_t) left; // +1 = Right, 1 = Left
 8005cda:	eba0 0e05 	sub.w	lr, r0, r5
	if ((right && left))
 8005cde:	b108      	cbz	r0, 8005ce4 <app_usb_hid_send_report+0x38>
 8005ce0:	2d00      	cmp	r5, #0
 8005ce2:	d148      	bne.n	8005d76 <app_usb_hid_send_report+0xca>
	return hat_table[dpadY + 1][dpadX + 1];
 8005ce4:	f10e 0e01 	add.w	lr, lr, #1
 8005ce8:	fa4f fe8e 	sxtb.w	lr, lr
	if ((up && down))
 8005cec:	f002 0250 	and.w	r2, r2, #80	@ 0x50
 8005cf0:	2a50      	cmp	r2, #80	@ 0x50
 8005cf2:	bf08      	it	eq
 8005cf4:	2301      	moveq	r3, #1
	return hat_table[dpadY + 1][dpadX + 1];
 8005cf6:	f646 2ca8 	movw	ip, #27304	@ 0x6aa8
	tx[3] = 1U<<wheel.hShifter->speed;
 8005cfa:	f04f 0501 	mov.w	r5, #1
	return hat_table[dpadY + 1][dpadX + 1];
 8005cfe:	bf1c      	itt	ne
 8005d00:	3301      	addne	r3, #1
 8005d02:	b25b      	sxtbne	r3, r3
 8005d04:	eb03 0343 	add.w	r3, r3, r3, lsl #1
 8005d08:	f6c0 0c00 	movt	ip, #2048	@ 0x800
 8005d0c:	449c      	add	ip, r3
 8005d0e:	f81c 300e 	ldrb.w	r3, [ip, lr]
	USBD_CUSTOM_HID_SendReport(&hUsbDeviceFS, tx,
 8005d12:	f240 70f8 	movw	r0, #2040	@ 0x7f8
 8005d16:	f003 030f 	and.w	r3, r3, #15
	tx[0] |= 0x0F & hat_switch_from_msb(wheel.hButtons->buttons_state);
 8005d1a:	700b      	strb	r3, [r1, #0]
	tx[0] |= 0xF0 & (wheel.hButtons->buttons_state << 4);
 8005d1c:	6826      	ldr	r6, [r4, #0]
	USBD_CUSTOM_HID_SendReport(&hUsbDeviceFS, tx,
 8005d1e:	2209      	movs	r2, #9
	tx[0] |= 0xF0 & (wheel.hButtons->buttons_state << 4);
 8005d20:	f8d6 6354 	ldr.w	r6, [r6, #852]	@ 0x354
	USBD_CUSTOM_HID_SendReport(&hUsbDeviceFS, tx,
 8005d24:	f2c2 0000 	movt	r0, #8192	@ 0x2000
	tx[0] |= 0xF0 & (wheel.hButtons->buttons_state << 4);
 8005d28:	ea43 1306 	orr.w	r3, r3, r6, lsl #4
 8005d2c:	700b      	strb	r3, [r1, #0]
	tx[1] = wheel.hButtons->buttons_state >> 8;
 8005d2e:	6823      	ldr	r3, [r4, #0]
 8005d30:	f8d3 3354 	ldr.w	r3, [r3, #852]	@ 0x354
 8005d34:	0a1b      	lsrs	r3, r3, #8
 8005d36:	704b      	strb	r3, [r1, #1]
	tx[2] = wheel.hButtons->buttons_state >> 16;
 8005d38:	6823      	ldr	r3, [r4, #0]
 8005d3a:	f8b3 3356 	ldrh.w	r3, [r3, #854]	@ 0x356
 8005d3e:	708b      	strb	r3, [r1, #2]
	tx[3] = 1U<<wheel.hShifter->speed;
 8005d40:	68e3      	ldr	r3, [r4, #12]
 8005d42:	7e1b      	ldrb	r3, [r3, #24]
 8005d44:	fa05 f303 	lsl.w	r3, r5, r3
 8005d48:	70cb      	strb	r3, [r1, #3]
	tx[4] = wheel.hSensor->virtual_axis;
 8005d4a:	6863      	ldr	r3, [r4, #4]
 8005d4c:	8a1b      	ldrh	r3, [r3, #16]
 8005d4e:	710b      	strb	r3, [r1, #4]
	tx[5] = wheel.hSensor->virtual_axis >> 8;
 8005d50:	6863      	ldr	r3, [r4, #4]
 8005d52:	f993 3011 	ldrsb.w	r3, [r3, #17]
 8005d56:	714b      	strb	r3, [r1, #5]
	tx[6] = wheel.hPedals->clutch;
 8005d58:	68a3      	ldr	r3, [r4, #8]
 8005d5a:	7b1b      	ldrb	r3, [r3, #12]
 8005d5c:	718b      	strb	r3, [r1, #6]
	tx[7] = wheel.hPedals->brake;
 8005d5e:	68a3      	ldr	r3, [r4, #8]
 8005d60:	7b5b      	ldrb	r3, [r3, #13]
 8005d62:	71cb      	strb	r3, [r1, #7]
	tx[8] = wheel.hPedals->throtle;
 8005d64:	68a3      	ldr	r3, [r4, #8]
 8005d66:	7b9b      	ldrb	r3, [r3, #14]
 8005d68:	720b      	strb	r3, [r1, #8]
	USBD_CUSTOM_HID_SendReport(&hUsbDeviceFS, tx,
 8005d6a:	f7ff f88d 	bl	8004e88 <USBD_CUSTOM_HID_SendReport>
	wheel.hUsbHid->report_state = USB_REPORT_NOT_READY;
 8005d6e:	2200      	movs	r2, #0
 8005d70:	69a3      	ldr	r3, [r4, #24]
 8005d72:	725a      	strb	r2, [r3, #9]
}
 8005d74:	bd70      	pop	{r4, r5, r6, pc}
 8005d76:	f04f 0e01 	mov.w	lr, #1
 8005d7a:	e7b7      	b.n	8005cec <app_usb_hid_send_report+0x40>

08005d7c <Analog_INIT>:

Pedals_HandleTypeDef hPedals = { Pedals_INIT, Pedals_DeINIT, Pedals_GetState };

static Wheel_Status Analog_INIT(Analog_HandleTypeDef *analog,
		Analog_ConfigHandleTypeDef *config) {
	if (config->hadc == 0) {
 8005d7c:	680a      	ldr	r2, [r1, #0]
		Analog_ConfigHandleTypeDef *config) {
 8005d7e:	4603      	mov	r3, r0
	if (config->hadc == 0) {
 8005d80:	b112      	cbz	r2, 8005d88 <Analog_INIT+0xc>
		return WHEEL_ERROR;
	}
	analog->hadc = config->hadc;
	return WHEEL_OK;
 8005d82:	2000      	movs	r0, #0
	analog->hadc = config->hadc;
 8005d84:	625a      	str	r2, [r3, #36]	@ 0x24
	return WHEEL_OK;
 8005d86:	4770      	bx	lr
		return WHEEL_ERROR;
 8005d88:	2001      	movs	r0, #1
}
 8005d8a:	4770      	bx	lr

08005d8c <Pedals_INIT>:
	return WHEEL_OK;
}

static Wheel_Status Pedals_INIT(Pedals_HandleTypeDef *pedals,
		Pedals_ConfigHandleTypeDef *config) {
	if (config->hw_analog == 0) {
 8005d8c:	680a      	ldr	r2, [r1, #0]
		Pedals_ConfigHandleTypeDef *config) {
 8005d8e:	4603      	mov	r3, r0
	if (config->hw_analog == 0) {
 8005d90:	b112      	cbz	r2, 8005d98 <Pedals_INIT+0xc>
		return WHEEL_ERROR;
	}
	pedals->hw_analog = config->hw_analog;
	return WHEEL_OK;
 8005d92:	2000      	movs	r0, #0
	pedals->hw_analog = config->hw_analog;
 8005d94:	611a      	str	r2, [r3, #16]
	return WHEEL_OK;
 8005d96:	4770      	bx	lr
		return WHEEL_ERROR;
 8005d98:	2001      	movs	r0, #1
}
 8005d9a:	4770      	bx	lr

08005d9c <Pedals_GetState>:
	}
	pedals->hw_analog = 0;
	return WHEEL_OK;
}

static Wheel_Status Pedals_GetState(Pedals_HandleTypeDef *pedals) {
 8005d9c:	4603      	mov	r3, r0
	pedals->clutch = 0xFF - (pedals->hw_analog->axis[PEDALS_IDX] >> 8);
 8005d9e:	691a      	ldr	r2, [r3, #16]
	pedals->brake = 0xFF - (pedals->hw_analog->axis[PEDALS_IDX+1] >> 8);
	pedals->throtle = 0xFF - (pedals->hw_analog->axis[PEDALS_IDX+2] >> 8);
	return WHEEL_OK;
}
 8005da0:	2000      	movs	r0, #0
	pedals->clutch = 0xFF - (pedals->hw_analog->axis[PEDALS_IDX] >> 8);
 8005da2:	6911      	ldr	r1, [r2, #16]
 8005da4:	ea6f 2111 	mvn.w	r1, r1, lsr #8
 8005da8:	7319      	strb	r1, [r3, #12]
	pedals->brake = 0xFF - (pedals->hw_analog->axis[PEDALS_IDX+1] >> 8);
 8005daa:	6951      	ldr	r1, [r2, #20]
 8005dac:	ea6f 2111 	mvn.w	r1, r1, lsr #8
 8005db0:	7359      	strb	r1, [r3, #13]
	pedals->throtle = 0xFF - (pedals->hw_analog->axis[PEDALS_IDX+2] >> 8);
 8005db2:	6992      	ldr	r2, [r2, #24]
 8005db4:	ea6f 2212 	mvn.w	r2, r2, lsr #8
 8005db8:	739a      	strb	r2, [r3, #14]
}
 8005dba:	4770      	bx	lr

08005dbc <Analog_Stop>:
static Wheel_Status Analog_Stop(Analog_HandleTypeDef *analog) {
 8005dbc:	b508      	push	{r3, lr}
	HAL_ADC_Stop_DMA(analog->hadc);
 8005dbe:	6a40      	ldr	r0, [r0, #36]	@ 0x24
 8005dc0:	f7fb f992 	bl	80010e8 <HAL_ADC_Stop_DMA>
}
 8005dc4:	2000      	movs	r0, #0
 8005dc6:	bd08      	pop	{r3, pc}

08005dc8 <Analog_Start_CONTINIOUS_SCAN_DMA>:
		Analog_HandleTypeDef *analog) {
 8005dc8:	4601      	mov	r1, r0
 8005dca:	b508      	push	{r3, lr}
	HAL_ADC_Start_DMA(analog->hadc, analog->axis, ANALOG_INPUT_NUM);
 8005dcc:	2205      	movs	r2, #5
 8005dce:	3110      	adds	r1, #16
 8005dd0:	6a40      	ldr	r0, [r0, #36]	@ 0x24
 8005dd2:	f7fb faf1 	bl	80013b8 <HAL_ADC_Start_DMA>
}
 8005dd6:	2000      	movs	r0, #0
 8005dd8:	bd08      	pop	{r3, pc}
 8005dda:	bf00      	nop

08005ddc <Pedals_DeINIT>:
static Wheel_Status Pedals_DeINIT(Pedals_HandleTypeDef *pedals) {
 8005ddc:	b510      	push	{r4, lr}
 8005dde:	4604      	mov	r4, r0
	if (pedals->hw_analog->DeINIT(pedals->hw_analog) == WHEEL_ERROR) {
 8005de0:	6900      	ldr	r0, [r0, #16]
 8005de2:	6843      	ldr	r3, [r0, #4]
 8005de4:	4798      	blx	r3
 8005de6:	2801      	cmp	r0, #1
 8005de8:	d002      	beq.n	8005df0 <Pedals_DeINIT+0x14>
	pedals->hw_analog = 0;
 8005dea:	2000      	movs	r0, #0
 8005dec:	6120      	str	r0, [r4, #16]
}
 8005dee:	bd10      	pop	{r4, pc}
		Error_Handler();
 8005df0:	f7fa fea6 	bl	8000b40 <Error_Handler>
	pedals->hw_analog = 0;
 8005df4:	2000      	movs	r0, #0
 8005df6:	6120      	str	r0, [r4, #16]
}
 8005df8:	bd10      	pop	{r4, pc}
 8005dfa:	bf00      	nop

08005dfc <Analog_DeINIT>:
static Wheel_Status Analog_DeINIT(Analog_HandleTypeDef *analog) {
 8005dfc:	b510      	push	{r4, lr}
 8005dfe:	4604      	mov	r4, r0
	if (HAL_ADC_Stop_DMA(analog->hadc) == HAL_ERROR) {
 8005e00:	6a40      	ldr	r0, [r0, #36]	@ 0x24
 8005e02:	f7fb f971 	bl	80010e8 <HAL_ADC_Stop_DMA>
 8005e06:	2801      	cmp	r0, #1
 8005e08:	d007      	beq.n	8005e1a <Analog_DeINIT+0x1e>
		analog->axis[i] = 0;
 8005e0a:	2300      	movs	r3, #0
	analog->hadc = 0;
 8005e0c:	4618      	mov	r0, r3
		analog->axis[i] = 0;
 8005e0e:	e9c4 3304 	strd	r3, r3, [r4, #16]
 8005e12:	e9c4 3306 	strd	r3, r3, [r4, #24]
	analog->hadc = 0;
 8005e16:	e9c4 3308 	strd	r3, r3, [r4, #32]
}
 8005e1a:	bd10      	pop	{r4, pc}

08005e1c <DigitalInput_INIT>:
DigitalInput_HandleTypeDef hG29Buttons = {DigitalInput_INIT, DigitalInput_DeINIT,
		DigitalInput_ReadState};

static Wheel_Status DigitalInput_INIT(DigitalInput_HandleTypeDef *buttons,
		DigitalInput_ConfigHandleTypeDef *config) {
	if (config->buttons_port == 0 || config->clk_pin == 0 || config->in_pin == 0
 8005e1c:	688a      	ldr	r2, [r1, #8]
 8005e1e:	b18a      	cbz	r2, 8005e44 <DigitalInput_INIT+0x28>
		DigitalInput_ConfigHandleTypeDef *config) {
 8005e20:	b430      	push	{r4, r5}
	if (config->buttons_port == 0 || config->clk_pin == 0 || config->in_pin == 0
 8005e22:	880c      	ldrh	r4, [r1, #0]
 8005e24:	b15c      	cbz	r4, 8005e3e <DigitalInput_INIT+0x22>
 8005e26:	888d      	ldrh	r5, [r1, #4]
 8005e28:	b14d      	cbz	r5, 8005e3e <DigitalInput_INIT+0x22>
			|| config->lock_pin == 0) {
 8005e2a:	8849      	ldrh	r1, [r1, #2]
 8005e2c:	b139      	cbz	r1, 8005e3e <DigitalInput_INIT+0x22>
 8005e2e:	4603      	mov	r3, r0
		return WHEEL_ERROR;
	}
	buttons->buttons_port = config->buttons_port;
 8005e30:	6142      	str	r2, [r0, #20]
	buttons->clk_pin = config->clk_pin;
	buttons->in_pin = config->in_pin;
	buttons->lock_pin = config->lock_pin;
	return WHEEL_OK;
 8005e32:	2000      	movs	r0, #0
	buttons->clk_pin = config->clk_pin;
 8005e34:	819c      	strh	r4, [r3, #12]
	buttons->in_pin = config->in_pin;
 8005e36:	821d      	strh	r5, [r3, #16]
	buttons->lock_pin = config->lock_pin;
 8005e38:	81d9      	strh	r1, [r3, #14]
}
 8005e3a:	bc30      	pop	{r4, r5}
 8005e3c:	4770      	bx	lr
		return WHEEL_ERROR;
 8005e3e:	2001      	movs	r0, #1
}
 8005e40:	bc30      	pop	{r4, r5}
 8005e42:	4770      	bx	lr
		return WHEEL_ERROR;
 8005e44:	2001      	movs	r0, #1
}
 8005e46:	4770      	bx	lr

08005e48 <DigitalInput_DeINIT>:

static Wheel_Status DigitalInput_DeINIT(DigitalInput_HandleTypeDef *buttons) {
 8005e48:	4603      	mov	r3, r0
	buttons->buttons_port = 0;
 8005e4a:	2200      	movs	r2, #0
	buttons->clk_pin = 0;
	buttons->in_pin = 0;
	buttons->lock_pin = 0;
	return WHEEL_ERROR;
}
 8005e4c:	2001      	movs	r0, #1
	buttons->buttons_port = 0;
 8005e4e:	615a      	str	r2, [r3, #20]
	buttons->in_pin = 0;
 8005e50:	821a      	strh	r2, [r3, #16]
	buttons->clk_pin = 0;
 8005e52:	60da      	str	r2, [r3, #12]
}
 8005e54:	4770      	bx	lr
 8005e56:	bf00      	nop

08005e58 <DigitalInput_ReadState>:

static Wheel_Status DigitalInput_ReadState(DigitalInput_HandleTypeDef *buttons) {
 8005e58:	b570      	push	{r4, r5, r6, lr}
 8005e5a:	4604      	mov	r4, r0
	buttons->buttons_state = 0;
 8005e5c:	2500      	movs	r5, #0
	HAL_GPIO_WritePin(buttons->buttons_port, buttons->clk_pin, 0); //clock low
 8005e5e:	8981      	ldrh	r1, [r0, #12]
 8005e60:	462a      	mov	r2, r5
 8005e62:	6940      	ldr	r0, [r0, #20]
	buttons->buttons_state = 0;
 8005e64:	61a5      	str	r5, [r4, #24]
	HAL_GPIO_WritePin(buttons->buttons_port, buttons->clk_pin, 0); //clock low
 8005e66:	f7fb ff4b 	bl	8001d00 <HAL_GPIO_WritePin>
	HAL_GPIO_WritePin(buttons->buttons_port, buttons->lock_pin, 1); //lock buttons
 8005e6a:	2201      	movs	r2, #1
 8005e6c:	89e1      	ldrh	r1, [r4, #14]
 8005e6e:	6960      	ldr	r0, [r4, #20]
 8005e70:	f7fb ff46 	bl	8001d00 <HAL_GPIO_WritePin>
	for (uint8_t i = 0; i < BUTTONS_NUM; i++) {
		HAL_GPIO_WritePin(buttons->buttons_port, buttons->clk_pin, 0); //clock low
		if (HAL_GPIO_ReadPin(buttons->buttons_port, buttons->in_pin)) { // read
			SET_BIT(buttons->buttons_state, (1U << i));
		}
		HAL_GPIO_WritePin(buttons->buttons_port, buttons->clk_pin, 1); //clock high
 8005e74:	2601      	movs	r6, #1
		HAL_GPIO_WritePin(buttons->buttons_port, buttons->clk_pin, 0); //clock low
 8005e76:	2200      	movs	r2, #0
 8005e78:	89a1      	ldrh	r1, [r4, #12]
 8005e7a:	6960      	ldr	r0, [r4, #20]
 8005e7c:	f7fb ff40 	bl	8001d00 <HAL_GPIO_WritePin>
		if (HAL_GPIO_ReadPin(buttons->buttons_port, buttons->in_pin)) { // read
 8005e80:	8a21      	ldrh	r1, [r4, #16]
 8005e82:	6960      	ldr	r0, [r4, #20]
 8005e84:	f7fb ff36 	bl	8001cf4 <HAL_GPIO_ReadPin>
			SET_BIT(buttons->buttons_state, (1U << i));
 8005e88:	fa06 f105 	lsl.w	r1, r6, r5
		if (HAL_GPIO_ReadPin(buttons->buttons_port, buttons->in_pin)) { // read
 8005e8c:	b188      	cbz	r0, 8005eb2 <DigitalInput_ReadState+0x5a>
			SET_BIT(buttons->buttons_state, (1U << i));
 8005e8e:	69a3      	ldr	r3, [r4, #24]
		HAL_GPIO_WritePin(buttons->buttons_port, buttons->clk_pin, 1); //clock high
 8005e90:	2201      	movs	r2, #1
			SET_BIT(buttons->buttons_state, (1U << i));
 8005e92:	430b      	orrs	r3, r1
		HAL_GPIO_WritePin(buttons->buttons_port, buttons->clk_pin, 1); //clock high
 8005e94:	6960      	ldr	r0, [r4, #20]
 8005e96:	89a1      	ldrh	r1, [r4, #12]
			SET_BIT(buttons->buttons_state, (1U << i));
 8005e98:	61a3      	str	r3, [r4, #24]
	for (uint8_t i = 0; i < BUTTONS_NUM; i++) {
 8005e9a:	3501      	adds	r5, #1
		HAL_GPIO_WritePin(buttons->buttons_port, buttons->clk_pin, 1); //clock high
 8005e9c:	f7fb ff30 	bl	8001d00 <HAL_GPIO_WritePin>
	for (uint8_t i = 0; i < BUTTONS_NUM; i++) {
 8005ea0:	2d18      	cmp	r5, #24
 8005ea2:	d1e8      	bne.n	8005e76 <DigitalInput_ReadState+0x1e>
	}
	HAL_GPIO_WritePin(buttons->buttons_port, buttons->lock_pin, 0); //unlock buttons
 8005ea4:	6960      	ldr	r0, [r4, #20]
 8005ea6:	2200      	movs	r2, #0
 8005ea8:	89e1      	ldrh	r1, [r4, #14]
 8005eaa:	f7fb ff29 	bl	8001d00 <HAL_GPIO_WritePin>
	return WHEEL_OK;
}
 8005eae:	2000      	movs	r0, #0
 8005eb0:	bd70      	pop	{r4, r5, r6, pc}
		HAL_GPIO_WritePin(buttons->buttons_port, buttons->clk_pin, 1); //clock high
 8005eb2:	2201      	movs	r2, #1
 8005eb4:	89a1      	ldrh	r1, [r4, #12]
 8005eb6:	6960      	ldr	r0, [r4, #20]
	for (uint8_t i = 0; i < BUTTONS_NUM; i++) {
 8005eb8:	3501      	adds	r5, #1
		HAL_GPIO_WritePin(buttons->buttons_port, buttons->clk_pin, 1); //clock high
 8005eba:	f7fb ff21 	bl	8001d00 <HAL_GPIO_WritePin>
	for (uint8_t i = 0; i < BUTTONS_NUM; i++) {
 8005ebe:	2d18      	cmp	r5, #24
 8005ec0:	d1d9      	bne.n	8005e76 <DigitalInput_ReadState+0x1e>
 8005ec2:	e7ef      	b.n	8005ea4 <DigitalInput_ReadState+0x4c>

08005ec4 <MLX90363_INIT>:
static void reset_roll_counter(Magnetometer_HandleTypeDef *sensor);
static uint8_t getData(Magnetometer_HandleTypeDef *sensor);

static Wheel_Status MLX90363_INIT(Magnetometer_HandleTypeDef *sensor,
		Magnetometer_ConfigHandleTypeDef *config) {
	if (config->SS_pin == 0 || config->SS_port == 0 || config->hspi == 0
 8005ec4:	880a      	ldrh	r2, [r1, #0]
 8005ec6:	b18a      	cbz	r2, 8005eec <MLX90363_INIT+0x28>
		Magnetometer_ConfigHandleTypeDef *config) {
 8005ec8:	b430      	push	{r4, r5}
	if (config->SS_pin == 0 || config->SS_port == 0 || config->hspi == 0
 8005eca:	684c      	ldr	r4, [r1, #4]
 8005ecc:	b15c      	cbz	r4, 8005ee6 <MLX90363_INIT+0x22>
 8005ece:	688d      	ldr	r5, [r1, #8]
 8005ed0:	b14d      	cbz	r5, 8005ee6 <MLX90363_INIT+0x22>
			|| config->htim == 0) {
 8005ed2:	68c9      	ldr	r1, [r1, #12]
 8005ed4:	b139      	cbz	r1, 8005ee6 <MLX90363_INIT+0x22>
 8005ed6:	4603      	mov	r3, r0
		return WHEEL_ERROR;
	}
	sensor->SS_pin = config->SS_pin;
 8005ed8:	8602      	strh	r2, [r0, #48]	@ 0x30
	sensor->SS_port = config->SS_port;
	sensor->hspi = config->hspi;
	sensor->htim = config->htim;
	return WHEEL_OK;
 8005eda:	2000      	movs	r0, #0
	sensor->hspi = config->hspi;
 8005edc:	e9c3 450d 	strd	r4, r5, [r3, #52]	@ 0x34
}
 8005ee0:	bc30      	pop	{r4, r5}
	sensor->htim = config->htim;
 8005ee2:	63d9      	str	r1, [r3, #60]	@ 0x3c
}
 8005ee4:	4770      	bx	lr
		return WHEEL_ERROR;
 8005ee6:	2001      	movs	r0, #1
}
 8005ee8:	bc30      	pop	{r4, r5}
 8005eea:	4770      	bx	lr
		return WHEEL_ERROR;
 8005eec:	2001      	movs	r0, #1
}
 8005eee:	4770      	bx	lr

08005ef0 <MLX90363_Stop>:
	sensor->roll_cnt = 0;
	HAL_TIM_Base_Start_IT(sensor->htim);
	return WHEEL_OK;
}

static Wheel_Status MLX90363_Stop(Magnetometer_HandleTypeDef *sensor) {
 8005ef0:	b508      	push	{r3, lr}
	HAL_TIM_Base_Stop_IT(sensor->htim);
 8005ef2:	6bc0      	ldr	r0, [r0, #60]	@ 0x3c
 8005ef4:	f7fd feee 	bl	8003cd4 <HAL_TIM_Base_Stop_IT>
	return WHEEL_OK;
}
 8005ef8:	2000      	movs	r0, #0
 8005efa:	bd08      	pop	{r3, pc}

08005efc <MLX90363_DeINIT>:
static Wheel_Status MLX90363_DeINIT(Magnetometer_HandleTypeDef *sensor) {
 8005efc:	b510      	push	{r4, lr}
 8005efe:	4604      	mov	r4, r0
	HAL_TIM_Base_Stop_IT(sensor->htim);
 8005f00:	6bc0      	ldr	r0, [r0, #60]	@ 0x3c
 8005f02:	f7fd fee7 	bl	8003cd4 <HAL_TIM_Base_Stop_IT>
	sensor->SS_pin = 0;
 8005f06:	2000      	movs	r0, #0
	sensor->SS_port = 0;
 8005f08:	e9c4 000d 	strd	r0, r0, [r4, #52]	@ 0x34
	sensor->SS_pin = 0;
 8005f0c:	8620      	strh	r0, [r4, #48]	@ 0x30
	sensor->htim = 0;
 8005f0e:	63e0      	str	r0, [r4, #60]	@ 0x3c
}
 8005f10:	bd10      	pop	{r4, pc}
 8005f12:	bf00      	nop

08005f14 <MLX90363_TxRxDone_CB>:
	HAL_SPI_TransmitReceive_DMA(sensor->hspi, sensor->SPI_Tx_buffer,
			sensor->SPI_Rx_buffer, 8);
	return WHEEL_OK;
}

static Wheel_Status MLX90363_TxRxDone_CB(Magnetometer_HandleTypeDef *sensor) {
 8005f14:	b538      	push	{r3, r4, r5, lr}
 8005f16:	4604      	mov	r4, r0
	HAL_GPIO_WritePin(sensor->SS_port, sensor->SS_pin, 1);
 8005f18:	2201      	movs	r2, #1
 8005f1a:	8e01      	ldrh	r1, [r0, #48]	@ 0x30
 8005f1c:	6b40      	ldr	r0, [r0, #52]	@ 0x34
 8005f1e:	f7fb feef 	bl	8001d00 <HAL_GPIO_WritePin>
	sensor->transfer_is_done = 1;
 8005f22:	2301      	movs	r3, #1
	if (!sensor->transfer_is_done) {
		return -1;
	}

	// Check the marker if Alpha (0), otherwise ignore
	if ((RxBuffer[6] >> 6) != 0) {
 8005f24:	7fa2      	ldrb	r2, [r4, #30]
	sensor->transfer_is_done = 1;
 8005f26:	f884 302a 	strb.w	r3, [r4, #42]	@ 0x2a
	if ((RxBuffer[6] >> 6) != 0) {
 8005f2a:	0993      	lsrs	r3, r2, #6
 8005f2c:	d14c      	bne.n	8005fc8 <MLX90363_TxRxDone_CB+0xb4>
		sensor->err_packets_cnt++;
		return -1; // Not Alpha result
	}

	// Check if bits 2,3,5 if they are 0x00
	if (RxBuffer[2] != 0x00 || RxBuffer[3] != 0x00 || RxBuffer[5] != 0x00) {
 8005f2e:	7ea3      	ldrb	r3, [r4, #26]
 8005f30:	2b00      	cmp	r3, #0
 8005f32:	d149      	bne.n	8005fc8 <MLX90363_TxRxDone_CB+0xb4>
 8005f34:	7ee3      	ldrb	r3, [r4, #27]
 8005f36:	2b00      	cmp	r3, #0
 8005f38:	d146      	bne.n	8005fc8 <MLX90363_TxRxDone_CB+0xb4>
 8005f3a:	7f63      	ldrb	r3, [r4, #29]
 8005f3c:	2b00      	cmp	r3, #0
 8005f3e:	d143      	bne.n	8005fc8 <MLX90363_TxRxDone_CB+0xb4>
		sensor->err_packets_cnt++;
		return -1; // Probably wrong data
	}

	// Virtual Gain at 0?
	if (RxBuffer[4] == 0x00) {
 8005f40:	7f21      	ldrb	r1, [r4, #28]
 8005f42:	2900      	cmp	r1, #0
 8005f44:	d040      	beq.n	8005fc8 <MLX90363_TxRxDone_CB+0xb4>

	// Extract the rolling counter
	uint8_t rollcnt = RxBuffer[6] & 0x3F;
	// calculate the difference between the internal sensor's roll counter and the roll counter
	uint8_t last_rollcnt = sensor->roll_cnt;
	uint8_t diff = (rollcnt - last_rollcnt + 64) % 64;
 8005f46:	f894 302f 	ldrb.w	r3, [r4, #47]	@ 0x2f
 8005f4a:	1ad3      	subs	r3, r2, r3
 8005f4c:	3340      	adds	r3, #64	@ 0x40
 8005f4e:	4258      	negs	r0, r3
 8005f50:	f000 003f 	and.w	r0, r0, #63	@ 0x3f
 8005f54:	f003 033f 	and.w	r3, r3, #63	@ 0x3f
 8005f58:	bf58      	it	pl
 8005f5a:	4243      	negpl	r3, r0
 8005f5c:	b2db      	uxtb	r3, r3
	if (diff > 1) {
 8005f5e:	2b01      	cmp	r3, #1
 8005f60:	d903      	bls.n	8005f6a <MLX90363_TxRxDone_CB+0x56>
		sensor->err_packets_cnt += diff - 1; // We expect diff=1 usually (no lost packets)
 8005f62:	8da0      	ldrh	r0, [r4, #44]	@ 0x2c
 8005f64:	3801      	subs	r0, #1
 8005f66:	4403      	add	r3, r0
 8005f68:	85a3      	strh	r3, [r4, #44]	@ 0x2c
	crc = cba_256_TAB[message[0] ^ crc];
 8005f6a:	7e20      	ldrb	r0, [r4, #24]
 8005f6c:	f646 23b4 	movw	r3, #27316	@ 0x6ab4
 8005f70:	ea6f 0e00 	mvn.w	lr, r0
 8005f74:	f6c0 0300 	movt	r3, #2048	@ 0x800
 8005f78:	fa5f fe8e 	uxtb.w	lr, lr
	crc = cba_256_TAB[message[1] ^ crc];
 8005f7c:	f813 e00e 	ldrb.w	lr, [r3, lr]
 8005f80:	f894 c019 	ldrb.w	ip, [r4, #25]
	}
	sensor->roll_cnt = rollcnt;
 8005f84:	f884 202f 	strb.w	r2, [r4, #47]	@ 0x2f
	crc = cba_256_TAB[message[1] ^ crc];
 8005f88:	ea8c 0e0e 	eor.w	lr, ip, lr
	crc = cba_256_TAB[message[2] ^ crc];
 8005f8c:	f813 e00e 	ldrb.w	lr, [r3, lr]

	// Check the checksum of the message
	if (RxBuffer[7] != calculate_crc(RxBuffer)) {
 8005f90:	7fe5      	ldrb	r5, [r4, #31]
	crc = cba_256_TAB[message[3] ^ crc];
 8005f92:	f813 e00e 	ldrb.w	lr, [r3, lr]
	crc = cba_256_TAB[message[4] ^ crc];
 8005f96:	f813 e00e 	ldrb.w	lr, [r3, lr]
 8005f9a:	ea81 010e 	eor.w	r1, r1, lr
	crc = cba_256_TAB[message[5] ^ crc];
 8005f9e:	5c59      	ldrb	r1, [r3, r1]
	crc = cba_256_TAB[message[6] ^ crc];
 8005fa0:	5c59      	ldrb	r1, [r3, r1]
 8005fa2:	404a      	eors	r2, r1
 8005fa4:	5c9b      	ldrb	r3, [r3, r2]
	crc = ~crc;
 8005fa6:	43db      	mvns	r3, r3
	if (RxBuffer[7] != calculate_crc(RxBuffer)) {
 8005fa8:	b2db      	uxtb	r3, r3
 8005faa:	429d      	cmp	r5, r3
 8005fac:	d10c      	bne.n	8005fc8 <MLX90363_TxRxDone_CB+0xb4>
		return -1; // CRC not valid
	}

	/* 		EXTRACTING THE DATA 		*/
	// Extract and convert the angle to degrees
	sensor->alpha = (((RxBuffer[1] & 0x3F) << 8) + RxBuffer[0])<<2;
 8005fae:	ea4f 230c 	mov.w	r3, ip, lsl #8
 8005fb2:	f403 537c 	and.w	r3, r3, #16128	@ 0x3f00
 8005fb6:	4418      	add	r0, r3
	// Extract the error bits
	sensor->diagnostic_bits = RxBuffer[1] >> 6;
 8005fb8:	ea4f 1c9c 	mov.w	ip, ip, lsr #6
	sensor->alpha = (((RxBuffer[1] & 0x3F) << 8) + RxBuffer[0])<<2;
 8005fbc:	0080      	lsls	r0, r0, #2
	sensor->diagnostic_bits = RxBuffer[1] >> 6;
 8005fbe:	f884 c02e 	strb.w	ip, [r4, #46]	@ 0x2e
	sensor->alpha = (((RxBuffer[1] & 0x3F) << 8) + RxBuffer[0])<<2;
 8005fc2:	8520      	strh	r0, [r4, #40]	@ 0x28
}
 8005fc4:	2000      	movs	r0, #0
 8005fc6:	bd38      	pop	{r3, r4, r5, pc}
		sensor->err_packets_cnt++;
 8005fc8:	8da3      	ldrh	r3, [r4, #44]	@ 0x2c
}
 8005fca:	2000      	movs	r0, #0
		sensor->err_packets_cnt++;
 8005fcc:	3301      	adds	r3, #1
 8005fce:	85a3      	strh	r3, [r4, #44]	@ 0x2c
}
 8005fd0:	bd38      	pop	{r3, r4, r5, pc}
 8005fd2:	bf00      	nop

08005fd4 <MLX90363_TransmitRecieve_DMA>:
	if (sensor->hspi == 0) {
 8005fd4:	6b83      	ldr	r3, [r0, #56]	@ 0x38
 8005fd6:	b1db      	cbz	r3, 8006010 <MLX90363_TransmitRecieve_DMA+0x3c>
		Magnetometer_HandleTypeDef *sensor) {
 8005fd8:	b570      	push	{r4, r5, r6, lr}
	sensor->SPI_Tx_buffer[0] = NULL_DATA;
 8005fda:	2600      	movs	r6, #0
 8005fdc:	4633      	mov	r3, r6
 8005fde:	4604      	mov	r4, r0
	sensor->transfer_is_done = 0;
 8005fe0:	4635      	mov	r5, r6
	sensor->SPI_Tx_buffer[0] = NULL_DATA;
 8005fe2:	f6ce 2313 	movt	r3, #59923	@ 0xea13
 8005fe6:	f6cf 76ff 	movt	r6, #65535	@ 0xffff
	HAL_GPIO_WritePin(sensor->SS_port, sensor->SS_pin, 0);
 8005fea:	8e01      	ldrh	r1, [r0, #48]	@ 0x30
 8005fec:	462a      	mov	r2, r5
 8005fee:	6b40      	ldr	r0, [r0, #52]	@ 0x34
	sensor->SPI_Tx_buffer[0] = NULL_DATA;
 8005ff0:	e9c4 6308 	strd	r6, r3, [r4, #32]
	sensor->transfer_is_done = 0;
 8005ff4:	f884 502a 	strb.w	r5, [r4, #42]	@ 0x2a
	HAL_GPIO_WritePin(sensor->SS_port, sensor->SS_pin, 0);
 8005ff8:	f7fb fe82 	bl	8001d00 <HAL_GPIO_WritePin>
	HAL_SPI_TransmitReceive_DMA(sensor->hspi, sensor->SPI_Tx_buffer,
 8005ffc:	2308      	movs	r3, #8
 8005ffe:	6ba0      	ldr	r0, [r4, #56]	@ 0x38
 8006000:	f104 0218 	add.w	r2, r4, #24
 8006004:	f104 0120 	add.w	r1, r4, #32
 8006008:	f7fd fc70 	bl	80038ec <HAL_SPI_TransmitReceive_DMA>
 800600c:	4628      	mov	r0, r5
}
 800600e:	bd70      	pop	{r4, r5, r6, pc}
		return WHEEL_ERROR;
 8006010:	2001      	movs	r0, #1
}
 8006012:	4770      	bx	lr

08006014 <MLX90363_Start_TIM>:
	if (sensor->htim == 0) {
 8006014:	6bc3      	ldr	r3, [r0, #60]	@ 0x3c
 8006016:	2b00      	cmp	r3, #0
 8006018:	d046      	beq.n	80060a8 <MLX90363_Start_TIM+0x94>
	if (sensor->hspi == 0) {
 800601a:	6b83      	ldr	r3, [r0, #56]	@ 0x38
static Wheel_Status MLX90363_Start_TIM(Magnetometer_HandleTypeDef *sensor) {
 800601c:	b570      	push	{r4, r5, r6, lr}
 800601e:	4604      	mov	r4, r0
	if (sensor->hspi == 0) {
 8006020:	2b00      	cmp	r3, #0
 8006022:	d03f      	beq.n	80060a4 <MLX90363_Start_TIM+0x90>
	sensor->SPI_Tx_buffer[0] = NULL_DATA;
 8006024:	2300      	movs	r3, #0
 8006026:	f44f 7680 	mov.w	r6, #256	@ 0x100
	HAL_GPIO_WritePin(sensor->SS_port, sensor->SS_pin, 0);
 800602a:	461a      	mov	r2, r3
	sensor->SPI_Tx_buffer[0] = NULL_DATA;
 800602c:	f6cf 76ff 	movt	r6, #65535	@ 0xffff
 8006030:	f6cb 6313 	movt	r3, #48659	@ 0xbe13
	HAL_GPIO_WritePin(sensor->SS_port, sensor->SS_pin, 0);
 8006034:	8e01      	ldrh	r1, [r0, #48]	@ 0x30
 8006036:	f100 0520 	add.w	r5, r0, #32
 800603a:	6b40      	ldr	r0, [r0, #52]	@ 0x34
	sensor->SPI_Tx_buffer[0] = NULL_DATA;
 800603c:	6263      	str	r3, [r4, #36]	@ 0x24
 800603e:	6226      	str	r6, [r4, #32]
	HAL_GPIO_WritePin(sensor->SS_port, sensor->SS_pin, 0);
 8006040:	f7fb fe5e 	bl	8001d00 <HAL_GPIO_WritePin>
	HAL_SPI_Transmit(sensor->hspi, sensor->SPI_Tx_buffer, 8,
 8006044:	f04f 33ff 	mov.w	r3, #4294967295
 8006048:	4629      	mov	r1, r5
 800604a:	2208      	movs	r2, #8
 800604c:	6ba0      	ldr	r0, [r4, #56]	@ 0x38
 800604e:	f7fd fb3b 	bl	80036c8 <HAL_SPI_Transmit>
	HAL_GPIO_WritePin(sensor->SS_port, sensor->SS_pin, 1);
 8006052:	8e21      	ldrh	r1, [r4, #48]	@ 0x30
 8006054:	2201      	movs	r2, #1
 8006056:	6b60      	ldr	r0, [r4, #52]	@ 0x34
 8006058:	f7fb fe52 	bl	8001d00 <HAL_GPIO_WritePin>
	HAL_Delay(1);
 800605c:	2001      	movs	r0, #1
 800605e:	f7fa ff6d 	bl	8000f3c <HAL_Delay>
	sensor->SPI_Tx_buffer[0] = NULL_DATA;
 8006062:	2100      	movs	r1, #0
 8006064:	460b      	mov	r3, r1
	HAL_GPIO_WritePin(sensor->SS_port, sensor->SS_pin, 0);
 8006066:	460a      	mov	r2, r1
	sensor->SPI_Tx_buffer[0] = NULL_DATA;
 8006068:	f6ca 33d0 	movt	r3, #43984	@ 0xabd0
 800606c:	f6ca 21aa 	movt	r1, #43690	@ 0xaaaa
 8006070:	e9c4 1308 	strd	r1, r3, [r4, #32]
	HAL_GPIO_WritePin(sensor->SS_port, sensor->SS_pin, 0);
 8006074:	6b60      	ldr	r0, [r4, #52]	@ 0x34
 8006076:	8e21      	ldrh	r1, [r4, #48]	@ 0x30
 8006078:	f7fb fe42 	bl	8001d00 <HAL_GPIO_WritePin>
	HAL_SPI_Transmit(sensor->hspi, sensor->SPI_Tx_buffer, 8,
 800607c:	4629      	mov	r1, r5
	sensor->roll_cnt = 0;
 800607e:	2500      	movs	r5, #0
	HAL_SPI_Transmit(sensor->hspi, sensor->SPI_Tx_buffer, 8,
 8006080:	f04f 33ff 	mov.w	r3, #4294967295
 8006084:	2208      	movs	r2, #8
 8006086:	6ba0      	ldr	r0, [r4, #56]	@ 0x38
 8006088:	f7fd fb1e 	bl	80036c8 <HAL_SPI_Transmit>
	HAL_GPIO_WritePin(sensor->SS_port, sensor->SS_pin, 1);
 800608c:	2201      	movs	r2, #1
 800608e:	8e21      	ldrh	r1, [r4, #48]	@ 0x30
 8006090:	6b60      	ldr	r0, [r4, #52]	@ 0x34
 8006092:	f7fb fe35 	bl	8001d00 <HAL_GPIO_WritePin>
	HAL_TIM_Base_Start_IT(sensor->htim);
 8006096:	6be0      	ldr	r0, [r4, #60]	@ 0x3c
	sensor->roll_cnt = 0;
 8006098:	f884 502f 	strb.w	r5, [r4, #47]	@ 0x2f
	HAL_TIM_Base_Start_IT(sensor->htim);
 800609c:	f7fd fdec 	bl	8003c78 <HAL_TIM_Base_Start_IT>
 80060a0:	4628      	mov	r0, r5
}
 80060a2:	bd70      	pop	{r4, r5, r6, pc}
		return WHEEL_ERROR;
 80060a4:	2001      	movs	r0, #1
}
 80060a6:	bd70      	pop	{r4, r5, r6, pc}
		return WHEEL_ERROR;
 80060a8:	2001      	movs	r0, #1
}
 80060aa:	4770      	bx	lr

080060ac <wheel_startup>:
	}
}

static void init_analog() {
	Analog_ConfigHandleTypeDef config1 = { 0 };
	config1.hadc = &hadc1;
 80060ac:	f240 73c0 	movw	r3, #1984	@ 0x7c0
	hAnalog.INIT(&hAnalog, &config1);
 80060b0:	f240 15a4 	movw	r5, #420	@ 0x1a4

	Pedals_ConfigHandleTypeDef config2 = { 0 };
	config2.hw_analog = &hAnalog;
	hPedals.INIT(&hPedals, &config2);
 80060b4:	f240 1490 	movw	r4, #400	@ 0x190
void wheel_startup() {
 80060b8:	b580      	push	{r7, lr}
	hAnalog.INIT(&hAnalog, &config1);
 80060ba:	f2c2 0500 	movt	r5, #8192	@ 0x2000
void wheel_startup() {
 80060be:	b088      	sub	sp, #32
	config1.hadc = &hadc1;
 80060c0:	f2c2 0300 	movt	r3, #8192	@ 0x2000
	hAnalog.INIT(&hAnalog, &config1);
 80060c4:	682a      	ldr	r2, [r5, #0]
 80060c6:	4628      	mov	r0, r5
 80060c8:	a901      	add	r1, sp, #4
	config1.hadc = &hadc1;
 80060ca:	9301      	str	r3, [sp, #4]
	hPedals.INIT(&hPedals, &config2);
 80060cc:	f2c2 0400 	movt	r4, #8192	@ 0x2000
	hAnalog.INIT(&hAnalog, &config1);
 80060d0:	4790      	blx	r2
	hPedals.INIT(&hPedals, &config2);
 80060d2:	6823      	ldr	r3, [r4, #0]
 80060d4:	a902      	add	r1, sp, #8
	config2.hw_analog = &hAnalog;
 80060d6:	9502      	str	r5, [sp, #8]
	hPedals.INIT(&hPedals, &config2);
 80060d8:	4620      	mov	r0, r4
 80060da:	4798      	blx	r3

	Shifter_ConfigHandleTypeDef config3 = { 0 };
	config3.hw_analog = &hAnalog;
	config3.modifier_port = SHIFTER_MODIFIER_GPIO_Port;
	config3.modifier_pin = SHIFTER_MODIFIER_Pin;
	hShifter.INIT(&hShifter, &config3);
 80060dc:	f240 56c4 	movw	r6, #1476	@ 0x5c4
	config3.modifier_port = SHIFTER_MODIFIER_GPIO_Port;
 80060e0:	f44f 6340 	mov.w	r3, #3072	@ 0xc00
	config3.modifier_pin = SHIFTER_MODIFIER_Pin;
 80060e4:	f44f 7200 	mov.w	r2, #512	@ 0x200
	hShifter.INIT(&hShifter, &config3);
 80060e8:	f2c2 0600 	movt	r6, #8192	@ 0x2000
	config3.modifier_port = SHIFTER_MODIFIER_GPIO_Port;
 80060ec:	f2c4 0301 	movt	r3, #16385	@ 0x4001
	config3.modifier_pin = SHIFTER_MODIFIER_Pin;
 80060f0:	9205      	str	r2, [sp, #20]
	config3.hw_analog = &hAnalog;
 80060f2:	9504      	str	r5, [sp, #16]
	config3.modifier_port = SHIFTER_MODIFIER_GPIO_Port;
 80060f4:	9306      	str	r3, [sp, #24]
	hShifter.INIT(&hShifter, &config3);
 80060f6:	a904      	add	r1, sp, #16
 80060f8:	6833      	ldr	r3, [r6, #0]
 80060fa:	4630      	mov	r0, r6
 80060fc:	4798      	blx	r3
	if (hG29Buttons.INIT(&hG29Buttons, &config1) == WHEEL_ERROR) {
 80060fe:	f240 15cc 	movw	r5, #460	@ 0x1cc
	config1.clk_pin = BUTTON_CLK_Pin;
 8006102:	f44f 5300 	mov.w	r3, #8192	@ 0x2000
	config1.buttons_port = GPIOC;
 8006106:	f44f 5280 	mov.w	r2, #4096	@ 0x1000
	config1.in_pin = BUTTON_IN_Pin;
 800610a:	f44f 4100 	mov.w	r1, #32768	@ 0x8000
	if (hG29Buttons.INIT(&hG29Buttons, &config1) == WHEEL_ERROR) {
 800610e:	f2c2 0500 	movt	r5, #8192	@ 0x2000
	config1.clk_pin = BUTTON_CLK_Pin;
 8006112:	f2c4 0300 	movt	r3, #16384	@ 0x4000
	config1.buttons_port = GPIOC;
 8006116:	f2c4 0201 	movt	r2, #16385	@ 0x4001
	config1.in_pin = BUTTON_IN_Pin;
 800611a:	9105      	str	r1, [sp, #20]
	config1.clk_pin = BUTTON_CLK_Pin;
 800611c:	9304      	str	r3, [sp, #16]
	if (hG29Buttons.INIT(&hG29Buttons, &config1) == WHEEL_ERROR) {
 800611e:	4628      	mov	r0, r5
 8006120:	682b      	ldr	r3, [r5, #0]
	config1.buttons_port = GPIOC;
 8006122:	9206      	str	r2, [sp, #24]
	if (hG29Buttons.INIT(&hG29Buttons, &config1) == WHEEL_ERROR) {
 8006124:	a904      	add	r1, sp, #16
 8006126:	4798      	blx	r3
 8006128:	2801      	cmp	r0, #1
 800612a:	f000 80ae 	beq.w	800628a <wheel_startup+0x1de>
	if (hButtons.INIT(&hButtons, &config2) == WHEEL_ERROR) {
 800612e:	f240 2828 	movw	r8, #552	@ 0x228
	config2.htim = &htim3;
 8006132:	f240 634c 	movw	r3, #1612	@ 0x64c
	if (hButtons.INIT(&hButtons, &config2) == WHEEL_ERROR) {
 8006136:	f2c2 0800 	movt	r8, #8192	@ 0x2000
	config2.htim = &htim3;
 800613a:	f2c2 0300 	movt	r3, #8192	@ 0x2000
 800613e:	9302      	str	r3, [sp, #8]
	if (hButtons.INIT(&hButtons, &config2) == WHEEL_ERROR) {
 8006140:	4640      	mov	r0, r8
 8006142:	f8d8 3000 	ldr.w	r3, [r8]
	config2.hw_buttons = &hG29Buttons;
 8006146:	9503      	str	r5, [sp, #12]
	if (hButtons.INIT(&hButtons, &config2) == WHEEL_ERROR) {
 8006148:	a902      	add	r1, sp, #8
 800614a:	4798      	blx	r3
 800614c:	2801      	cmp	r0, #1
 800614e:	f000 80a5 	beq.w	800629c <wheel_startup+0x1f0>
	config1.hspi = &hspi2;
 8006152:	f240 7220 	movw	r2, #1824	@ 0x720
	config1.htim = &htim4;
 8006156:	f240 6304 	movw	r3, #1540	@ 0x604
	config1.SS_port = SPI2_SS_GPIO_Port;
 800615a:	f44f 6040 	mov.w	r0, #3072	@ 0xc00
	if (hmlx90363.INIT(&hmlx90363, &config1) == WHEEL_ERROR) {
 800615e:	f240 15e8 	movw	r5, #488	@ 0x1e8
	config1.SS_pin = SPI2_SS_Pin;
 8006162:	f44f 5780 	mov.w	r7, #4096	@ 0x1000
	if (hmlx90363.INIT(&hmlx90363, &config1) == WHEEL_ERROR) {
 8006166:	f2c2 0500 	movt	r5, #8192	@ 0x2000
	config1.hspi = &hspi2;
 800616a:	f2c2 0200 	movt	r2, #8192	@ 0x2000
	config1.htim = &htim4;
 800616e:	f2c2 0300 	movt	r3, #8192	@ 0x2000
	config1.SS_port = SPI2_SS_GPIO_Port;
 8006172:	f2c4 0001 	movt	r0, #16385	@ 0x4001
	config1.htim = &htim4;
 8006176:	9307      	str	r3, [sp, #28]
	config1.SS_port = SPI2_SS_GPIO_Port;
 8006178:	9005      	str	r0, [sp, #20]
	if (hmlx90363.INIT(&hmlx90363, &config1) == WHEEL_ERROR) {
 800617a:	682b      	ldr	r3, [r5, #0]
 800617c:	4628      	mov	r0, r5
 800617e:	a904      	add	r1, sp, #16
	config1.SS_pin = SPI2_SS_Pin;
 8006180:	9704      	str	r7, [sp, #16]
	config1.hspi = &hspi2;
 8006182:	9206      	str	r2, [sp, #24]
	if (hmlx90363.INIT(&hmlx90363, &config1) == WHEEL_ERROR) {
 8006184:	4798      	blx	r3
 8006186:	2801      	cmp	r0, #1
 8006188:	f000 8085 	beq.w	8006296 <wheel_startup+0x1ea>
	if (hSensor.INIT(&hSensor, &config2) == WHEEL_ERROR) {
 800618c:	f240 5790 	movw	r7, #1424	@ 0x590
 8006190:	f2c2 0700 	movt	r7, #8192	@ 0x2000
 8006194:	4638      	mov	r0, r7
 8006196:	683b      	ldr	r3, [r7, #0]
 8006198:	a902      	add	r1, sp, #8
	config2.hw_magnetometer = &hmlx90363;
 800619a:	9502      	str	r5, [sp, #8]
	if (hSensor.INIT(&hSensor, &config2) == WHEEL_ERROR) {
 800619c:	4798      	blx	r3
 800619e:	2801      	cmp	r0, #1
 80061a0:	d076      	beq.n	8006290 <wheel_startup+0x1e4>
}

static void configure_software_exti() {
	wheel.hSwit.usb_send_report_swit_pin = SWIT_0_Pin;
 80061a2:	f640 75c8 	movw	r5, #4040	@ 0xfc8
	wheel.hSwit.usb_process_data_pin = SWIT_1_Pin;
	for (uint8_t i = 0; i < 3; i++) {
		CLEAR_BIT(EXTI->RTSR, (0x1UL << i));  // Clear rising edge
 80061a6:	f44f 6380 	mov.w	r3, #1024	@ 0x400
	wheel.hSwit.usb_send_report_swit_pin = SWIT_0_Pin;
 80061aa:	2201      	movs	r2, #1
		CLEAR_BIT(EXTI->RTSR, (0x1UL << i));  // Clear rising edge
 80061ac:	f2c4 0301 	movt	r3, #16385	@ 0x4001
	wheel.hSwit.usb_send_report_swit_pin = SWIT_0_Pin;
 80061b0:	f2c2 0500 	movt	r5, #8192	@ 0x2000
 80061b4:	f2c0 0202 	movt	r2, #2
 80061b8:	612a      	str	r2, [r5, #16]
		CLEAR_BIT(EXTI->RTSR, (0x1UL << i));  // Clear rising edge
 80061ba:	689a      	ldr	r2, [r3, #8]
	app_usb_hid_init(&hUsbHid);
 80061bc:	f640 79b4 	movw	r9, #4020	@ 0xfb4
		CLEAR_BIT(EXTI->RTSR, (0x1UL << i));  // Clear rising edge
 80061c0:	f022 0201 	bic.w	r2, r2, #1
 80061c4:	609a      	str	r2, [r3, #8]
		CLEAR_BIT(EXTI->FTSR, (0x1UL << i));  // Clear falling edge
 80061c6:	68da      	ldr	r2, [r3, #12]
	app_usb_hid_init(&hUsbHid);
 80061c8:	f2c2 0900 	movt	r9, #8192	@ 0x2000
		CLEAR_BIT(EXTI->FTSR, (0x1UL << i));  // Clear falling edge
 80061cc:	f022 0201 	bic.w	r2, r2, #1
 80061d0:	60da      	str	r2, [r3, #12]
		SET_BIT(EXTI->IMR, (0x1UL << i));  // Already enabled by CubeMX
 80061d2:	681a      	ldr	r2, [r3, #0]
	app_usb_hid_init(&hUsbHid);
 80061d4:	4648      	mov	r0, r9
		SET_BIT(EXTI->IMR, (0x1UL << i));  // Already enabled by CubeMX
 80061d6:	f042 0201 	orr.w	r2, r2, #1
 80061da:	601a      	str	r2, [r3, #0]
		SET_BIT(EXTI->PR, (0x1UL << i));  // Clear any pending interrupts
 80061dc:	695a      	ldr	r2, [r3, #20]
 80061de:	f042 0201 	orr.w	r2, r2, #1
 80061e2:	615a      	str	r2, [r3, #20]
		CLEAR_BIT(EXTI->RTSR, (0x1UL << i));  // Clear rising edge
 80061e4:	689a      	ldr	r2, [r3, #8]
 80061e6:	f022 0202 	bic.w	r2, r2, #2
 80061ea:	609a      	str	r2, [r3, #8]
		CLEAR_BIT(EXTI->FTSR, (0x1UL << i));  // Clear falling edge
 80061ec:	68da      	ldr	r2, [r3, #12]
 80061ee:	f022 0202 	bic.w	r2, r2, #2
 80061f2:	60da      	str	r2, [r3, #12]
		SET_BIT(EXTI->IMR, (0x1UL << i));  // Already enabled by CubeMX
 80061f4:	681a      	ldr	r2, [r3, #0]
 80061f6:	f042 0202 	orr.w	r2, r2, #2
 80061fa:	601a      	str	r2, [r3, #0]
		SET_BIT(EXTI->PR, (0x1UL << i));  // Clear any pending interrupts
 80061fc:	695a      	ldr	r2, [r3, #20]
 80061fe:	f042 0202 	orr.w	r2, r2, #2
 8006202:	615a      	str	r2, [r3, #20]
		CLEAR_BIT(EXTI->RTSR, (0x1UL << i));  // Clear rising edge
 8006204:	689a      	ldr	r2, [r3, #8]
 8006206:	f022 0204 	bic.w	r2, r2, #4
 800620a:	609a      	str	r2, [r3, #8]
		CLEAR_BIT(EXTI->FTSR, (0x1UL << i));  // Clear falling edge
 800620c:	68da      	ldr	r2, [r3, #12]
 800620e:	f022 0204 	bic.w	r2, r2, #4
 8006212:	60da      	str	r2, [r3, #12]
		SET_BIT(EXTI->IMR, (0x1UL << i));  // Already enabled by CubeMX
 8006214:	681a      	ldr	r2, [r3, #0]
 8006216:	f042 0204 	orr.w	r2, r2, #4
 800621a:	601a      	str	r2, [r3, #0]
		SET_BIT(EXTI->PR, (0x1UL << i));  // Clear any pending interrupts
 800621c:	695a      	ldr	r2, [r3, #20]
 800621e:	f042 0204 	orr.w	r2, r2, #4
 8006222:	615a      	str	r2, [r3, #20]
	app_usb_hid_init(&hUsbHid);
 8006224:	f7ff fd06 	bl	8005c34 <app_usb_hid_init>
	wheel.hPedals->hw_analog->Start_CONTINIOUS_SCAN_DMA(
 8006228:	6920      	ldr	r0, [r4, #16]

static void init_wheel_handle() {
	wheel.hButtons = &hButtons;
	wheel.hSensor = &hSensor;
	wheel.hPedals = &hPedals;
	wheel.hShifter = &hShifter;
 800622a:	e9c5 4602 	strd	r4, r6, [r5, #8]
	wheel.hPedals->hw_analog->Start_CONTINIOUS_SCAN_DMA(
 800622e:	6883      	ldr	r3, [r0, #8]
	wheel.hSensor = &hSensor;
 8006230:	e9c5 8700 	strd	r8, r7, [r5]
	wheel.hUsbHid = &hUsbHid;
 8006234:	f8c5 9018 	str.w	r9, [r5, #24]
	wheel.hPedals->hw_analog->Start_CONTINIOUS_SCAN_DMA(
 8006238:	4798      	blx	r3
	wheel.hButtons->Start_TIM(wheel.hButtons);
 800623a:	6828      	ldr	r0, [r5, #0]
				/ (wheel.hSensor->distance / 2);
 800623c:	f44f 467e 	mov.w	r6, #65024	@ 0xfe00
	wheel.hButtons->Start_TIM(wheel.hButtons);
 8006240:	6883      	ldr	r3, [r0, #8]
 8006242:	4798      	blx	r3
	wheel.hSensor->hw_magnetometer->Start_TIM(wheel.hSensor->hw_magnetometer);
 8006244:	686b      	ldr	r3, [r5, #4]
				/ (wheel.hSensor->distance / 2);
 8006246:	f2c4 66ff 	movt	r6, #18175	@ 0x46ff
	wheel.hSensor->hw_magnetometer->Start_TIM(wheel.hSensor->hw_magnetometer);
 800624a:	6b18      	ldr	r0, [r3, #48]	@ 0x30
 800624c:	6883      	ldr	r3, [r0, #8]
 800624e:	4798      	blx	r3
	app_usb_hid_start();
 8006250:	f7ff fcfc 	bl	8005c4c <app_usb_hid_start>
	wheel.hSensor->min = 1;
 8006254:	2301      	movs	r3, #1
	wheel.hSensor->max = 1;
 8006256:	461a      	mov	r2, r3
 8006258:	4619      	mov	r1, r3
	wheel.hSensor->min = 1;
 800625a:	686c      	ldr	r4, [r5, #4]
	wheel.hSensor->max = 1;
 800625c:	e9c4 3308 	strd	r3, r3, [r4, #32]
		if (wheel.hSensor->steering_pos < wheel.hSensor->min) {
 8006260:	69a3      	ldr	r3, [r4, #24]
				/ (wheel.hSensor->distance / 2);
 8006262:	8d60      	ldrh	r0, [r4, #42]	@ 0x2a
		if (wheel.hSensor->steering_pos < wheel.hSensor->min) {
 8006264:	428b      	cmp	r3, r1
			wheel.hSensor->min = wheel.hSensor->steering_pos;
 8006266:	bfb8      	it	lt
 8006268:	6223      	strlt	r3, [r4, #32]
		if (wheel.hSensor->steering_pos > wheel.hSensor->max) {
 800626a:	4293      	cmp	r3, r2
			wheel.hSensor->max = wheel.hSensor->steering_pos;
 800626c:	bfc8      	it	gt
 800626e:	6263      	strgt	r3, [r4, #36]	@ 0x24
				/ (wheel.hSensor->distance / 2);
 8006270:	0840      	lsrs	r0, r0, #1
 8006272:	f7fa f82d 	bl	80002d0 <__aeabi_i2f>
 8006276:	4601      	mov	r1, r0
 8006278:	4630      	mov	r0, r6
 800627a:	f7fa f931 	bl	80004e0 <__aeabi_fdiv>
		wheel.hSensor->axis_scale = (float) (0xFFFF / 2)
 800627e:	62e0      	str	r0, [r4, #44]	@ 0x2c
		__WFI();
 8006280:	bf30      	wfi
		if (wheel.hSensor->steering_pos < wheel.hSensor->min) {
 8006282:	686c      	ldr	r4, [r5, #4]
		if (wheel.hSensor->steering_pos > wheel.hSensor->max) {
 8006284:	e9d4 1208 	ldrd	r1, r2, [r4, #32]
		if (wheel.hSensor->steering_pos < wheel.hSensor->min) {
 8006288:	e7ea      	b.n	8006260 <wheel_startup+0x1b4>
		Error_Handler();
 800628a:	f7fa fc59 	bl	8000b40 <Error_Handler>
 800628e:	e74e      	b.n	800612e <wheel_startup+0x82>
		Error_Handler();
 8006290:	f7fa fc56 	bl	8000b40 <Error_Handler>
 8006294:	e785      	b.n	80061a2 <wheel_startup+0xf6>
		Error_Handler();
 8006296:	f7fa fc53 	bl	8000b40 <Error_Handler>
 800629a:	e777      	b.n	800618c <wheel_startup+0xe0>
		Error_Handler();
 800629c:	f7fa fc50 	bl	8000b40 <Error_Handler>
 80062a0:	e757      	b.n	8006152 <wheel_startup+0xa6>
 80062a2:	bf00      	nop

080062a4 <wheel_get_all_component_states>:
}

/* 		APPLICATION SPECIFIC FUNCTIONS 		*/
Wheel_Status wheel_get_all_component_states() {
 80062a4:	b510      	push	{r4, lr}
	if (wheel.hPedals->hw_analog->hadc == 0) {
 80062a6:	f640 74c8 	movw	r4, #4040	@ 0xfc8
 80062aa:	f2c2 0400 	movt	r4, #8192	@ 0x2000
 80062ae:	68a3      	ldr	r3, [r4, #8]
 80062b0:	691b      	ldr	r3, [r3, #16]
 80062b2:	6a5b      	ldr	r3, [r3, #36]	@ 0x24
 80062b4:	b1c3      	cbz	r3, 80062e8 <wheel_get_all_component_states+0x44>
		return WHEEL_ERROR;
	}
	if (wheel.hButtons->hw_buttons->buttons_port == 0
 80062b6:	6820      	ldr	r0, [r4, #0]
 80062b8:	f8d0 3364 	ldr.w	r3, [r0, #868]	@ 0x364
 80062bc:	695b      	ldr	r3, [r3, #20]
 80062be:	b19b      	cbz	r3, 80062e8 <wheel_get_all_component_states+0x44>
			|| wheel.hButtons->htim == 0) {
 80062c0:	f8d0 3360 	ldr.w	r3, [r0, #864]	@ 0x360
 80062c4:	b183      	cbz	r3, 80062e8 <wheel_get_all_component_states+0x44>
		return WHEEL_ERROR;
	}
	if (wheel.hSensor->hw_magnetometer->hspi == 0) {
 80062c6:	6863      	ldr	r3, [r4, #4]
 80062c8:	6b1b      	ldr	r3, [r3, #48]	@ 0x30
 80062ca:	6b9b      	ldr	r3, [r3, #56]	@ 0x38
 80062cc:	b163      	cbz	r3, 80062e8 <wheel_get_all_component_states+0x44>
		return WHEEL_ERROR;
	}
	wheel.hButtons->GetState(wheel.hButtons);
 80062ce:	6943      	ldr	r3, [r0, #20]
 80062d0:	4798      	blx	r3
	wheel.hPedals->GetState(wheel.hPedals);
 80062d2:	68a0      	ldr	r0, [r4, #8]
 80062d4:	6883      	ldr	r3, [r0, #8]
 80062d6:	4798      	blx	r3
	wheel.hSensor->GetAxis(wheel.hSensor);
 80062d8:	6860      	ldr	r0, [r4, #4]
 80062da:	68c3      	ldr	r3, [r0, #12]
 80062dc:	4798      	blx	r3
	wheel.hShifter->GetSpeed(wheel.hShifter);
 80062de:	68e0      	ldr	r0, [r4, #12]
 80062e0:	6883      	ldr	r3, [r0, #8]
 80062e2:	4798      	blx	r3
	return WHEEL_OK;
 80062e4:	2000      	movs	r0, #0
}
 80062e6:	bd10      	pop	{r4, pc}
		return WHEEL_ERROR;
 80062e8:	2001      	movs	r0, #1
}
 80062ea:	bd10      	pop	{r4, pc}

080062ec <HAL_GPIO_EXTI_Callback>:

/*		HARDWARE CALLBACK FUNCTIONS		 	*/
// The custom software interrupt implementation using the EXTI line callbacks
void HAL_GPIO_EXTI_Callback(uint16_t GPIO_Pin) {
 80062ec:	b538      	push	{r3, r4, r5, lr}
	if (GPIO_Pin == wheel.hSwit.usb_send_report_swit_pin) {
 80062ee:	f640 75c8 	movw	r5, #4040	@ 0xfc8
 80062f2:	f2c2 0500 	movt	r5, #8192	@ 0x2000
 80062f6:	8a2b      	ldrh	r3, [r5, #16]
void HAL_GPIO_EXTI_Callback(uint16_t GPIO_Pin) {
 80062f8:	4604      	mov	r4, r0
	if (GPIO_Pin == wheel.hSwit.usb_send_report_swit_pin) {
 80062fa:	4283      	cmp	r3, r0
 80062fc:	d003      	beq.n	8006306 <HAL_GPIO_EXTI_Callback+0x1a>
		app_usb_hid_send_report();
	}
	if (GPIO_Pin == wheel.hSwit.usb_process_data_pin) {
 80062fe:	8a6b      	ldrh	r3, [r5, #18]
 8006300:	42a3      	cmp	r3, r4
 8006302:	d005      	beq.n	8006310 <HAL_GPIO_EXTI_Callback+0x24>
		app_usb_hid_deferred_processing();
	}
}
 8006304:	bd38      	pop	{r3, r4, r5, pc}
		app_usb_hid_send_report();
 8006306:	f7ff fcd1 	bl	8005cac <app_usb_hid_send_report>
	if (GPIO_Pin == wheel.hSwit.usb_process_data_pin) {
 800630a:	8a6b      	ldrh	r3, [r5, #18]
 800630c:	42a3      	cmp	r3, r4
 800630e:	d1f9      	bne.n	8006304 <HAL_GPIO_EXTI_Callback+0x18>
}
 8006310:	e8bd 4038 	ldmia.w	sp!, {r3, r4, r5, lr}
		app_usb_hid_deferred_processing();
 8006314:	f7ff bcae 	b.w	8005c74 <app_usb_hid_deferred_processing>

08006318 <HAL_ADC_ConvCpltCallback>:

void HAL_ADC_ConvCpltCallback(ADC_HandleTypeDef *hadc) {
	UNUSED(hadc);
}
 8006318:	4770      	bx	lr
 800631a:	bf00      	nop

0800631c <HAL_SPI_TxRxCpltCallback>:

// Called at the end of a transfer to process the raw data received by the sensor
void HAL_SPI_TxRxCpltCallback(SPI_HandleTypeDef *hspi) {
 800631c:	b510      	push	{r4, lr}
	if (wheel.hSensor->hw_magnetometer->hspi->Instance == hspi->Instance) {
 800631e:	f640 74c8 	movw	r4, #4040	@ 0xfc8
 8006322:	f2c2 0400 	movt	r4, #8192	@ 0x2000
 8006326:	6862      	ldr	r2, [r4, #4]
 8006328:	6803      	ldr	r3, [r0, #0]
 800632a:	6b10      	ldr	r0, [r2, #48]	@ 0x30
 800632c:	6b82      	ldr	r2, [r0, #56]	@ 0x38
 800632e:	6812      	ldr	r2, [r2, #0]
 8006330:	429a      	cmp	r2, r3
 8006332:	d000      	beq.n	8006336 <HAL_SPI_TxRxCpltCallback+0x1a>
		wheel.hSensor->hw_magnetometer->TxRxDone_CB(
				wheel.hSensor->hw_magnetometer);
		wheel.hSensor->Update(wheel.hSensor);
	}
}
 8006334:	bd10      	pop	{r4, pc}
		wheel.hSensor->hw_magnetometer->TxRxDone_CB(
 8006336:	6943      	ldr	r3, [r0, #20]
 8006338:	4798      	blx	r3
		wheel.hSensor->Update(wheel.hSensor);
 800633a:	6860      	ldr	r0, [r4, #4]
}
 800633c:	e8bd 4010 	ldmia.w	sp!, {r4, lr}
		wheel.hSensor->Update(wheel.hSensor);
 8006340:	6883      	ldr	r3, [r0, #8]
 8006342:	4718      	bx	r3

08006344 <HAL_TIM_PeriodElapsedCallback>:

// 1. Used to start, periodically, the transmission with the sensor
// 2. Used to periodically read the buttons state
void HAL_TIM_PeriodElapsedCallback(TIM_HandleTypeDef *htim) {
 8006344:	b538      	push	{r3, r4, r5, lr}
	if (wheel.hSensor->hw_magnetometer->htim->Instance == htim->Instance) {
 8006346:	f640 74c8 	movw	r4, #4040	@ 0xfc8
void HAL_TIM_PeriodElapsedCallback(TIM_HandleTypeDef *htim) {
 800634a:	4605      	mov	r5, r0
	if (wheel.hSensor->hw_magnetometer->htim->Instance == htim->Instance) {
 800634c:	f2c2 0400 	movt	r4, #8192	@ 0x2000
 8006350:	6863      	ldr	r3, [r4, #4]
 8006352:	6b18      	ldr	r0, [r3, #48]	@ 0x30
 8006354:	6bc3      	ldr	r3, [r0, #60]	@ 0x3c
 8006356:	681a      	ldr	r2, [r3, #0]
 8006358:	682b      	ldr	r3, [r5, #0]
 800635a:	429a      	cmp	r2, r3
 800635c:	d015      	beq.n	800638a <HAL_TIM_PeriodElapsedCallback+0x46>
		wheel.hSensor->hw_magnetometer->TransmitRecieve_DMA(
				wheel.hSensor->hw_magnetometer);
	}
	if (wheel.hButtons->htim->Instance == htim->Instance) {
 800635e:	6822      	ldr	r2, [r4, #0]
 8006360:	f8d2 1360 	ldr.w	r1, [r2, #864]	@ 0x360
 8006364:	6809      	ldr	r1, [r1, #0]
 8006366:	4299      	cmp	r1, r3
 8006368:	d000      	beq.n	800636c <HAL_TIM_PeriodElapsedCallback+0x28>
		wheel.hButtons->hw_buttons->ReadState(wheel.hButtons->hw_buttons);
		wheel.hButtons->Update(wheel.hButtons);
		time_ms++;
	}
}
 800636a:	bd38      	pop	{r3, r4, r5, pc}
		wheel.hButtons->hw_buttons->ReadState(wheel.hButtons->hw_buttons);
 800636c:	f8d2 0364 	ldr.w	r0, [r2, #868]	@ 0x364
 8006370:	6883      	ldr	r3, [r0, #8]
 8006372:	4798      	blx	r3
		wheel.hButtons->Update(wheel.hButtons);
 8006374:	6820      	ldr	r0, [r4, #0]
 8006376:	6903      	ldr	r3, [r0, #16]
 8006378:	4798      	blx	r3
		time_ms++;
 800637a:	f640 73b0 	movw	r3, #4016	@ 0xfb0
 800637e:	f2c2 0300 	movt	r3, #8192	@ 0x2000
 8006382:	681a      	ldr	r2, [r3, #0]
 8006384:	3201      	adds	r2, #1
 8006386:	601a      	str	r2, [r3, #0]
}
 8006388:	bd38      	pop	{r3, r4, r5, pc}
		wheel.hSensor->hw_magnetometer->TransmitRecieve_DMA(
 800638a:	6903      	ldr	r3, [r0, #16]
 800638c:	4798      	blx	r3
	if (wheel.hButtons->htim->Instance == htim->Instance) {
 800638e:	682b      	ldr	r3, [r5, #0]
 8006390:	e7e5      	b.n	800635e <HAL_TIM_PeriodElapsedCallback+0x1a>
 8006392:	bf00      	nop

08006394 <Buttons_INIT>:
Buttons_HandleTypeDef hButtons = { Buttons_INIT, Buttons_DeINIT,
		Buttons_Start_TIM, Buttons_Stop, Buttons_Update, Buttons_GetState };

static Wheel_Status Buttons_INIT(Buttons_HandleTypeDef *buttons,
		Buttons_ConfigHandleTypeDef *config) {
	if (config->htim == 0 || config->hw_buttons == 0) {
 8006394:	680a      	ldr	r2, [r1, #0]
		Buttons_ConfigHandleTypeDef *config) {
 8006396:	4603      	mov	r3, r0
	if (config->htim == 0 || config->hw_buttons == 0) {
 8006398:	b12a      	cbz	r2, 80063a6 <Buttons_INIT+0x12>
 800639a:	6849      	ldr	r1, [r1, #4]
 800639c:	b119      	cbz	r1, 80063a6 <Buttons_INIT+0x12>
		return WHEEL_ERROR;
	}
	buttons->htim = config->htim;
	buttons->hw_buttons = config->hw_buttons;
	return WHEEL_OK;
 800639e:	2000      	movs	r0, #0
	buttons->hw_buttons = config->hw_buttons;
 80063a0:	e9c3 21d8 	strd	r2, r1, [r3, #864]	@ 0x360
	return WHEEL_OK;
 80063a4:	4770      	bx	lr
		return WHEEL_ERROR;
 80063a6:	2001      	movs	r0, #1
}
 80063a8:	4770      	bx	lr
 80063aa:	bf00      	nop

080063ac <Buttons_DeINIT>:
static Wheel_Status Buttons_DeINIT(Buttons_HandleTypeDef *buttons) {
 80063ac:	b510      	push	{r4, lr}
 80063ae:	4604      	mov	r4, r0
	if (buttons->hw_buttons->DeINIT(buttons->hw_buttons) == WHEEL_ERROR) {
 80063b0:	f8d0 0364 	ldr.w	r0, [r0, #868]	@ 0x364
 80063b4:	6843      	ldr	r3, [r0, #4]
 80063b6:	4798      	blx	r3
 80063b8:	2801      	cmp	r0, #1
 80063ba:	d003      	beq.n	80063c4 <Buttons_DeINIT+0x18>
		return WHEEL_ERROR;
	}
	buttons->htim = 0;
 80063bc:	2300      	movs	r3, #0
	buttons->hw_buttons = 0;
	return WHEEL_OK;
 80063be:	4618      	mov	r0, r3
	buttons->htim = 0;
 80063c0:	e9c4 33d8 	strd	r3, r3, [r4, #864]	@ 0x360
}
 80063c4:	bd10      	pop	{r4, pc}
 80063c6:	bf00      	nop

080063c8 <Buttons_GetState>:
		read_knob_button_state(buttons);
	}
	return WHEEL_OK;
}

static Wheel_Status Buttons_GetState(Buttons_HandleTypeDef *buttons) {
 80063c8:	e92d 4ff0 	stmdb	sp!, {r4, r5, r6, r7, r8, r9, sl, fp, lr}
}

static void get_debounced_state(Buttons_HandleTypeDef *buttons) {
	uint16_t buttonSum[BUTTONS_NUM] = { 0 };
	uint32_t *buffer = buttons->sample_buffer;
	uint16_t head = buttons->sample_head;
 80063cc:	f8b0 b338 	ldrh.w	fp, [r0, #824]	@ 0x338
static Wheel_Status Buttons_GetState(Buttons_HandleTypeDef *buttons) {
 80063d0:	b09f      	sub	sp, #124	@ 0x7c
	uint32_t *buffer = buttons->sample_buffer;
 80063d2:	f100 0318 	add.w	r3, r0, #24
	uint16_t head = buttons->sample_head;
 80063d6:	2200      	movs	r2, #0
static Wheel_Status Buttons_GetState(Buttons_HandleTypeDef *buttons) {
 80063d8:	4680      	mov	r8, r0
	uint32_t *buffer = buttons->sample_buffer;
 80063da:	9310      	str	r3, [sp, #64]	@ 0x40
	uint16_t head = buttons->sample_head;
 80063dc:	465b      	mov	r3, fp
 80063de:	4616      	mov	r6, r2
 80063e0:	4610      	mov	r0, r2
 80063e2:	4691      	mov	r9, r2
 80063e4:	4692      	mov	sl, r2
 80063e6:	4694      	mov	ip, r2
 80063e8:	4696      	mov	lr, r2
 80063ea:	4614      	mov	r4, r2
 80063ec:	4615      	mov	r5, r2
 80063ee:	4693      	mov	fp, r2
 80063f0:	e9cd 2201 	strd	r2, r2, [sp, #4]
 80063f4:	e9cd 2203 	strd	r2, r2, [sp, #12]
 80063f8:	e9cd 2205 	strd	r2, r2, [sp, #20]
 80063fc:	e9cd 2207 	strd	r2, r2, [sp, #28]
 8006400:	e9cd 2209 	strd	r2, r2, [sp, #36]	@ 0x24
 8006404:	e9cd 220c 	strd	r2, r2, [sp, #48]	@ 0x30
 8006408:	920b      	str	r2, [sp, #44]	@ 0x2c
 800640a:	920e      	str	r2, [sp, #56]	@ 0x38
 800640c:	920f      	str	r2, [sp, #60]	@ 0x3c
 800640e:	2741      	movs	r7, #65	@ 0x41
 8006410:	461a      	mov	r2, r3
 8006412:	f8cd 8044 	str.w	r8, [sp, #68]	@ 0x44
 8006416:	e08e      	b.n	8006536 <Buttons_GetState+0x16e>

	for (uint16_t offset = 0; offset < MAX_SAMPLES; offset++) {
		if (sample_idx == 0) {
			sample_idx = BUTTONS_BUFFER_SIZE - 1;
		} else {
			sample_idx--;
 8006418:	b29a      	uxth	r2, r3
		}
		uint32_t sample = buffer[sample_idx];
 800641a:	0093      	lsls	r3, r2, #2
 800641c:	9910      	ldr	r1, [sp, #64]	@ 0x40
	for (uint16_t offset = 0; offset < MAX_SAMPLES; offset++) {
 800641e:	3f01      	subs	r7, #1
		uint32_t sample = buffer[sample_idx];
 8006420:	58cb      	ldr	r3, [r1, r3]
		buttonSum[2] += (sample >> 2) & 1;
		buttonSum[3] += (sample >> 3) & 1;
		buttonSum[4] += (sample >> 4) & 1;
		buttonSum[5] += (sample >> 5) & 1;
		buttonSum[6] += (sample >> 6) & 1;
		buttonSum[7] += (sample >> 7) & 1;
 8006422:	990f      	ldr	r1, [sp, #60]	@ 0x3c
		buttonSum[0] += (sample >> 0) & 1;
 8006424:	f003 0801 	and.w	r8, r3, #1
 8006428:	44a8      	add	r8, r5
 800642a:	fa1f f588 	uxth.w	r5, r8
		buttonSum[1] += (sample >> 1) & 1;
 800642e:	f3c3 0840 	ubfx	r8, r3, #1, #1
 8006432:	44a0      	add	r8, r4
 8006434:	fa1f f488 	uxth.w	r4, r8
		buttonSum[2] += (sample >> 2) & 1;
 8006438:	f3c3 0880 	ubfx	r8, r3, #2, #1
 800643c:	44f0      	add	r8, lr
 800643e:	fa1f fe88 	uxth.w	lr, r8
		buttonSum[3] += (sample >> 3) & 1;
 8006442:	f3c3 08c0 	ubfx	r8, r3, #3, #1
 8006446:	44e0      	add	r8, ip
 8006448:	fa1f fc88 	uxth.w	ip, r8
		buttonSum[4] += (sample >> 4) & 1;
 800644c:	f3c3 1800 	ubfx	r8, r3, #4, #1
 8006450:	44d0      	add	r8, sl
 8006452:	fa1f fa88 	uxth.w	sl, r8
		buttonSum[5] += (sample >> 5) & 1;
 8006456:	f3c3 1840 	ubfx	r8, r3, #5, #1
 800645a:	44c8      	add	r8, r9
 800645c:	fa1f f988 	uxth.w	r9, r8
		buttonSum[6] += (sample >> 6) & 1;
 8006460:	f3c3 1880 	ubfx	r8, r3, #6, #1
 8006464:	4480      	add	r8, r0
 8006466:	fa1f f088 	uxth.w	r0, r8
		buttonSum[7] += (sample >> 7) & 1;
 800646a:	f3c3 18c0 	ubfx	r8, r3, #7, #1
 800646e:	4488      	add	r8, r1
 8006470:	fa1f f188 	uxth.w	r1, r8
 8006474:	910f      	str	r1, [sp, #60]	@ 0x3c
		buttonSum[8] += (sample >> 8) & 1;
 8006476:	990e      	ldr	r1, [sp, #56]	@ 0x38
 8006478:	f3c3 2800 	ubfx	r8, r3, #8, #1
 800647c:	4441      	add	r1, r8
 800647e:	b289      	uxth	r1, r1
 8006480:	910e      	str	r1, [sp, #56]	@ 0x38
		buttonSum[9] += (sample >> 9) & 1;
 8006482:	990d      	ldr	r1, [sp, #52]	@ 0x34
 8006484:	f3c3 2840 	ubfx	r8, r3, #9, #1
 8006488:	4441      	add	r1, r8
 800648a:	b289      	uxth	r1, r1
 800648c:	910d      	str	r1, [sp, #52]	@ 0x34
		buttonSum[10] += (sample >> 10) & 1;
 800648e:	990c      	ldr	r1, [sp, #48]	@ 0x30
 8006490:	f3c3 2880 	ubfx	r8, r3, #10, #1
 8006494:	4441      	add	r1, r8
 8006496:	b289      	uxth	r1, r1
 8006498:	910c      	str	r1, [sp, #48]	@ 0x30
		buttonSum[11] += (sample >> 11) & 1;
 800649a:	990b      	ldr	r1, [sp, #44]	@ 0x2c
 800649c:	f3c3 28c0 	ubfx	r8, r3, #11, #1
 80064a0:	4441      	add	r1, r8
 80064a2:	b289      	uxth	r1, r1
 80064a4:	910b      	str	r1, [sp, #44]	@ 0x2c
		buttonSum[12] += (sample >> 12) & 1;
 80064a6:	990a      	ldr	r1, [sp, #40]	@ 0x28
 80064a8:	f3c3 3800 	ubfx	r8, r3, #12, #1
 80064ac:	4441      	add	r1, r8
 80064ae:	b289      	uxth	r1, r1
 80064b0:	910a      	str	r1, [sp, #40]	@ 0x28
		buttonSum[13] += (sample >> 13) & 1;
 80064b2:	9909      	ldr	r1, [sp, #36]	@ 0x24
 80064b4:	f3c3 3840 	ubfx	r8, r3, #13, #1
 80064b8:	4441      	add	r1, r8
 80064ba:	b289      	uxth	r1, r1
 80064bc:	9109      	str	r1, [sp, #36]	@ 0x24
		buttonSum[14] += (sample >> 14) & 1;
 80064be:	9908      	ldr	r1, [sp, #32]
 80064c0:	f3c3 3880 	ubfx	r8, r3, #14, #1
 80064c4:	4441      	add	r1, r8
 80064c6:	b289      	uxth	r1, r1
 80064c8:	9108      	str	r1, [sp, #32]
		buttonSum[15] += (sample >> 15) & 1;
 80064ca:	9907      	ldr	r1, [sp, #28]
 80064cc:	f3c3 38c0 	ubfx	r8, r3, #15, #1
 80064d0:	4441      	add	r1, r8
 80064d2:	b289      	uxth	r1, r1
 80064d4:	9107      	str	r1, [sp, #28]
		buttonSum[16] += (sample >> 16) & 1;
 80064d6:	9906      	ldr	r1, [sp, #24]
 80064d8:	f3c3 4800 	ubfx	r8, r3, #16, #1
 80064dc:	4441      	add	r1, r8
 80064de:	b289      	uxth	r1, r1
 80064e0:	9106      	str	r1, [sp, #24]
		buttonSum[17] += (sample >> 17) & 1;
 80064e2:	9905      	ldr	r1, [sp, #20]
 80064e4:	f3c3 4840 	ubfx	r8, r3, #17, #1
 80064e8:	4441      	add	r1, r8
 80064ea:	b289      	uxth	r1, r1
 80064ec:	9105      	str	r1, [sp, #20]
		buttonSum[18] += (sample >> 18) & 1;
 80064ee:	9904      	ldr	r1, [sp, #16]
 80064f0:	f3c3 4880 	ubfx	r8, r3, #18, #1
 80064f4:	4441      	add	r1, r8
 80064f6:	b289      	uxth	r1, r1
 80064f8:	9104      	str	r1, [sp, #16]
		buttonSum[19] += (sample >> 19) & 1;
 80064fa:	9903      	ldr	r1, [sp, #12]
 80064fc:	f3c3 48c0 	ubfx	r8, r3, #19, #1
 8006500:	4441      	add	r1, r8
 8006502:	b289      	uxth	r1, r1
 8006504:	9103      	str	r1, [sp, #12]
		buttonSum[20] += (sample >> 20) & 1;
 8006506:	9902      	ldr	r1, [sp, #8]
 8006508:	f3c3 5800 	ubfx	r8, r3, #20, #1
 800650c:	4441      	add	r1, r8
 800650e:	b289      	uxth	r1, r1
 8006510:	9102      	str	r1, [sp, #8]
		buttonSum[21] += (sample >> 21) & 1;
 8006512:	9901      	ldr	r1, [sp, #4]
 8006514:	f3c3 5840 	ubfx	r8, r3, #21, #1
 8006518:	4441      	add	r1, r8
		buttonSum[22] += (sample >> 22) & 1;
 800651a:	f3c3 5880 	ubfx	r8, r3, #22, #1
		buttonSum[23] += (sample >> 23) & 1;
 800651e:	f3c3 53c0 	ubfx	r3, r3, #23, #1
		buttonSum[21] += (sample >> 21) & 1;
 8006522:	b289      	uxth	r1, r1
		buttonSum[22] += (sample >> 22) & 1;
 8006524:	44b0      	add	r8, r6
		buttonSum[23] += (sample >> 23) & 1;
 8006526:	445b      	add	r3, fp
	for (uint16_t offset = 0; offset < MAX_SAMPLES; offset++) {
 8006528:	b2bf      	uxth	r7, r7
		buttonSum[21] += (sample >> 21) & 1;
 800652a:	9101      	str	r1, [sp, #4]
		buttonSum[22] += (sample >> 22) & 1;
 800652c:	fa1f f688 	uxth.w	r6, r8
		buttonSum[23] += (sample >> 23) & 1;
 8006530:	fa1f fb83 	uxth.w	fp, r3
	for (uint16_t offset = 0; offset < MAX_SAMPLES; offset++) {
 8006534:	b13f      	cbz	r7, 8006546 <Buttons_GetState+0x17e>
			sample_idx--;
 8006536:	1e53      	subs	r3, r2, #1
		if (sample_idx == 0) {
 8006538:	2a00      	cmp	r2, #0
 800653a:	f47f af6d 	bne.w	8006418 <Buttons_GetState+0x50>
 800653e:	f44f 7347 	mov.w	r3, #796	@ 0x31c
			sample_idx = BUTTONS_BUFFER_SIZE - 1;
 8006542:	22c7      	movs	r2, #199	@ 0xc7
 8006544:	e76a      	b.n	800641c <Buttons_GetState+0x54>
 8006546:	463a      	mov	r2, r7
 8006548:	f365 020f 	bfi	r2, r5, #0, #16
 800654c:	f364 421f 	bfi	r2, r4, #16, #16
 8006550:	9212      	str	r2, [sp, #72]	@ 0x48
 8006552:	463a      	mov	r2, r7
 8006554:	f36e 020f 	bfi	r2, lr, #0, #16
 8006558:	f36c 421f 	bfi	r2, ip, #16, #16
 800655c:	9213      	str	r2, [sp, #76]	@ 0x4c
 800655e:	463a      	mov	r2, r7
 8006560:	990f      	ldr	r1, [sp, #60]	@ 0x3c
 8006562:	f360 020f 	bfi	r2, r0, #0, #16
 8006566:	f361 421f 	bfi	r2, r1, #16, #16
 800656a:	9215      	str	r2, [sp, #84]	@ 0x54
 800656c:	463a      	mov	r2, r7
 800656e:	990e      	ldr	r1, [sp, #56]	@ 0x38
	for (uint16_t offset = 0; offset < MAX_SAMPLES; offset++) {
 8006570:	463b      	mov	r3, r7
 8006572:	f361 020f 	bfi	r2, r1, #0, #16
 8006576:	990d      	ldr	r1, [sp, #52]	@ 0x34
	}

	uint32_t result = 0;
 8006578:	461c      	mov	r4, r3
 800657a:	f361 421f 	bfi	r2, r1, #16, #16
 800657e:	9216      	str	r2, [sp, #88]	@ 0x58
 8006580:	463a      	mov	r2, r7
 8006582:	990c      	ldr	r1, [sp, #48]	@ 0x30
	for (uint8_t button = 0; button < BUTTONS_NUM; button++) {
		if (buttonSum[button] > HALF_SAMPLES) {
			result |= (1UL << button);
 8006584:	2501      	movs	r5, #1
 8006586:	f361 020f 	bfi	r2, r1, #0, #16
 800658a:	990b      	ldr	r1, [sp, #44]	@ 0x2c
 800658c:	f8dd 8044 	ldr.w	r8, [sp, #68]	@ 0x44
 8006590:	f361 421f 	bfi	r2, r1, #16, #16
 8006594:	9217      	str	r2, [sp, #92]	@ 0x5c
 8006596:	463a      	mov	r2, r7
 8006598:	990a      	ldr	r1, [sp, #40]	@ 0x28
 800659a:	f8ad 6074 	strh.w	r6, [sp, #116]	@ 0x74
 800659e:	f361 020f 	bfi	r2, r1, #0, #16
 80065a2:	9909      	ldr	r1, [sp, #36]	@ 0x24
 80065a4:	f8ad a050 	strh.w	sl, [sp, #80]	@ 0x50
 80065a8:	f361 421f 	bfi	r2, r1, #16, #16
 80065ac:	9218      	str	r2, [sp, #96]	@ 0x60
 80065ae:	463a      	mov	r2, r7
 80065b0:	9908      	ldr	r1, [sp, #32]
 80065b2:	f8ad 9052 	strh.w	r9, [sp, #82]	@ 0x52
 80065b6:	f361 020f 	bfi	r2, r1, #0, #16
 80065ba:	9907      	ldr	r1, [sp, #28]
 80065bc:	f8ad b076 	strh.w	fp, [sp, #118]	@ 0x76
 80065c0:	f361 421f 	bfi	r2, r1, #16, #16
 80065c4:	9219      	str	r2, [sp, #100]	@ 0x64
 80065c6:	463a      	mov	r2, r7
 80065c8:	9906      	ldr	r1, [sp, #24]
 80065ca:	f10d 0676 	add.w	r6, sp, #118	@ 0x76
 80065ce:	f361 020f 	bfi	r2, r1, #0, #16
 80065d2:	9905      	ldr	r1, [sp, #20]
 80065d4:	f361 421f 	bfi	r2, r1, #16, #16
 80065d8:	921a      	str	r2, [sp, #104]	@ 0x68
 80065da:	463a      	mov	r2, r7
 80065dc:	9904      	ldr	r1, [sp, #16]
 80065de:	f361 020f 	bfi	r2, r1, #0, #16
 80065e2:	9902      	ldr	r1, [sp, #8]
 80065e4:	f361 070f 	bfi	r7, r1, #0, #16
 80065e8:	9903      	ldr	r1, [sp, #12]
 80065ea:	f361 421f 	bfi	r2, r1, #16, #16
 80065ee:	9901      	ldr	r1, [sp, #4]
 80065f0:	f361 471f 	bfi	r7, r1, #16, #16
 80065f4:	e9cd 271b 	strd	r2, r7, [sp, #108]	@ 0x6c
 80065f8:	f10d 0246 	add.w	r2, sp, #70	@ 0x46
		if (buttonSum[button] > HALF_SAMPLES) {
 80065fc:	f832 1f02 	ldrh.w	r1, [r2, #2]!
			result |= (1UL << button);
 8006600:	fa05 f003 	lsl.w	r0, r5, r3
		if (buttonSum[button] > HALF_SAMPLES) {
 8006604:	2920      	cmp	r1, #32
			result |= (1UL << button);
 8006606:	bf88      	it	hi
 8006608:	4304      	orrhi	r4, r0
	for (uint8_t button = 0; button < BUTTONS_NUM; button++) {
 800660a:	4296      	cmp	r6, r2
 800660c:	f103 0301 	add.w	r3, r3, #1
 8006610:	d1f4      	bne.n	80065fc <Buttons_GetState+0x234>
	buttons->buttons_state = result;
}

static void get_current_knob_state(Buttons_HandleTypeDef *buttons) {
	CLEAR_BIT(buttons->buttons_state, RL_KNOB_BIT_MASK);
	if (GET_BIT(buttons->knob_flags, KNOB_LOCK_FLAG)) {
 8006612:	f998 3358 	ldrsb.w	r3, [r8, #856]	@ 0x358
	CLEAR_BIT(buttons->buttons_state, RL_KNOB_BIT_MASK);
 8006616:	f424 0440 	bic.w	r4, r4, #12582912	@ 0xc00000
	if (GET_BIT(buttons->knob_flags, KNOB_LOCK_FLAG)) {
 800661a:	2b00      	cmp	r3, #0
 800661c:	f898 2358 	ldrb.w	r2, [r8, #856]	@ 0x358
	CLEAR_BIT(buttons->buttons_state, RL_KNOB_BIT_MASK);
 8006620:	f8c8 4354 	str.w	r4, [r8, #852]	@ 0x354
	if (GET_BIT(buttons->knob_flags, KNOB_LOCK_FLAG)) {
 8006624:	da07      	bge.n	8006636 <Buttons_GetState+0x26e>
		if(GET_BIT(buttons->knob_flags, KNOB_DIRECTION_FLAG)){
 8006626:	0653      	lsls	r3, r2, #25
			SET_BIT(buttons->buttons_state, R_KNOB_BIT_MASK);
 8006628:	bf4c      	ite	mi
 800662a:	f444 0480 	orrmi.w	r4, r4, #4194304	@ 0x400000
		} else {
			SET_BIT(buttons->buttons_state, L_KNOB_BIT_MASK);
 800662e:	f444 0400 	orrpl.w	r4, r4, #8388608	@ 0x800000
 8006632:	f8c8 4354 	str.w	r4, [r8, #852]	@ 0x354
}
 8006636:	2000      	movs	r0, #0
 8006638:	b01f      	add	sp, #124	@ 0x7c
 800663a:	e8bd 8ff0 	ldmia.w	sp!, {r4, r5, r6, r7, r8, r9, sl, fp, pc}
 800663e:	bf00      	nop

08006640 <Buttons_Update>:
static Wheel_Status Buttons_Update(Buttons_HandleTypeDef *buttons) {
 8006640:	e92d 4ff8 	stmdb	sp!, {r3, r4, r5, r6, r7, r8, r9, sl, fp, lr}
	buttons->sample_head = (buttons->sample_head + 1) % BUTTONS_BUFFER_SIZE;
 8006644:	f248 531f 	movw	r3, #34079	@ 0x851f
 8006648:	25c8      	movs	r5, #200	@ 0xc8
static Wheel_Status Buttons_Update(Buttons_HandleTypeDef *buttons) {
 800664a:	4604      	mov	r4, r0
	buttons->sample_head = (buttons->sample_head + 1) % BUTTONS_BUFFER_SIZE;
 800664c:	f8b0 2338 	ldrh.w	r2, [r0, #824]	@ 0x338
 8006650:	f2c5 13eb 	movt	r3, #20971	@ 0x51eb
 8006654:	3201      	adds	r2, #1
			buttons->hw_buttons->buttons_state;
 8006656:	f8d0 1364 	ldr.w	r1, [r0, #868]	@ 0x364
	buttons->sample_head = (buttons->sample_head + 1) % BUTTONS_BUFFER_SIZE;
 800665a:	fba3 0302 	umull	r0, r3, r3, r2
 800665e:	099b      	lsrs	r3, r3, #6
 8006660:	fb05 2313 	mls	r3, r5, r3, r2
	buttons->sample_buffer[buttons->sample_head] =
 8006664:	6989      	ldr	r1, [r1, #24]
 8006666:	1d9a      	adds	r2, r3, #6
	buttons->sample_head = (buttons->sample_head + 1) % BUTTONS_BUFFER_SIZE;
 8006668:	f8a4 3338 	strh.w	r3, [r4, #824]	@ 0x338
	buttons->sample_buffer[buttons->sample_head] =
 800666c:	f844 1022 	str.w	r1, [r4, r2, lsl #2]
	if (GET_BIT(buttons->knob_flags, KNOB_LOCK_FLAG)) {
 8006670:	f994 2358 	ldrsb.w	r2, [r4, #856]	@ 0x358
 8006674:	f894 c358 	ldrb.w	ip, [r4, #856]	@ 0x358
 8006678:	2a00      	cmp	r2, #0
 800667a:	db69      	blt.n	8006750 <Buttons_Update+0x110>
	uint32_t *buffer = buttons->sample_buffer;
	uint32_t *sequence = buttons->knob_rotation_sequence_buffer;
	uint8_t knob_idx = buttons->knob_head;
	uint16_t sample_idx = buttons->sample_head;

	if (GET_BIT(buffer[sample_idx], RL_KNOB_BIT_MASK) != sequence[knob_idx]) {
 800667c:	eb04 0383 	add.w	r3, r4, r3, lsl #2
	uint8_t knob_idx = buttons->knob_head;
 8006680:	f894 2350 	ldrb.w	r2, [r4, #848]	@ 0x350
	if (GET_BIT(buffer[sample_idx], RL_KNOB_BIT_MASK) != sequence[knob_idx]) {
 8006684:	6999      	ldr	r1, [r3, #24]
	uint32_t *sequence = buttons->knob_rotation_sequence_buffer;
 8006686:	f504 7e4f 	add.w	lr, r4, #828	@ 0x33c
	if (GET_BIT(buffer[sample_idx], RL_KNOB_BIT_MASK) != sequence[knob_idx]) {
 800668a:	f85e 3022 	ldr.w	r3, [lr, r2, lsl #2]
 800668e:	f401 0140 	and.w	r1, r1, #12582912	@ 0xc00000
 8006692:	4299      	cmp	r1, r3
 8006694:	d059      	beq.n	800674a <Buttons_Update+0x10a>
		knob_idx = (knob_idx + 1) % ROTATION_SEQUENCE_SIZE;
 8006696:	1c53      	adds	r3, r2, #1
 8006698:	f64c 42cd 	movw	r2, #52429	@ 0xcccd
 800669c:	f6cc 42cc 	movt	r2, #52428	@ 0xcccc
 80066a0:	fba2 0503 	umull	r0, r5, r2, r3
 80066a4:	f405 70fe 	and.w	r0, r5, #508	@ 0x1fc
 80066a8:	eb00 0095 	add.w	r0, r0, r5, lsr #2
 80066ac:	1a1b      	subs	r3, r3, r0
		sequence[knob_idx] = GET_BIT(buffer[sample_idx], RL_KNOB_BIT_MASK);
 80066ae:	f84e 1023 	str.w	r1, [lr, r3, lsl #2]

	for (seq = 0; seq < 2; seq++) {
		uint8_t idx = knob_idx;
		for (uint8_t offset = 0; offset < ROTATION_SEQUENCE_SIZE; offset++) {
			// Walk backwards through circular buffer
			idx = (knob_idx + ROTATION_SEQUENCE_SIZE - offset)
 80066b2:	1d59      	adds	r1, r3, #5
					% ROTATION_SEQUENCE_SIZE;
 80066b4:	fba2 0901 	umull	r0, r9, r2, r1
			idx = (knob_idx + ROTATION_SEQUENCE_SIZE - offset)
 80066b8:	f103 0804 	add.w	r8, r3, #4
					% ROTATION_SEQUENCE_SIZE;
 80066bc:	fba2 0a08 	umull	r0, sl, r2, r8
			idx = (knob_idx + ROTATION_SEQUENCE_SIZE - offset)
 80066c0:	1cde      	adds	r6, r3, #3
 80066c2:	1c9d      	adds	r5, r3, #2
		knob_idx = (knob_idx + 1) % ROTATION_SEQUENCE_SIZE;
 80066c4:	f884 3350 	strb.w	r3, [r4, #848]	@ 0x350
			idx = (knob_idx + ROTATION_SEQUENCE_SIZE - offset)
 80066c8:	3301      	adds	r3, #1
					% ROTATION_SEQUENCE_SIZE;
 80066ca:	fba2 0706 	umull	r0, r7, r2, r6
 80066ce:	fba2 b005 	umull	fp, r0, r2, r5
 80066d2:	fba2 b203 	umull	fp, r2, r2, r3
 80066d6:	f029 0b03 	bic.w	fp, r9, #3
 80066da:	eb0b 0999 	add.w	r9, fp, r9, lsr #2
 80066de:	eba1 0109 	sub.w	r1, r1, r9
			if (sequence[idx] != sequences[seq][offset]) {
 80066e2:	f85e 9021 	ldr.w	r9, [lr, r1, lsl #2]
					% ROTATION_SEQUENCE_SIZE;
 80066e6:	f02a 0103 	bic.w	r1, sl, #3
 80066ea:	eb01 019a 	add.w	r1, r1, sl, lsr #2
 80066ee:	eba8 0801 	sub.w	r8, r8, r1
 80066f2:	f027 0103 	bic.w	r1, r7, #3
 80066f6:	eb01 0197 	add.w	r1, r1, r7, lsr #2
 80066fa:	1a71      	subs	r1, r6, r1
 80066fc:	f020 0603 	bic.w	r6, r0, #3
 8006700:	eb06 0090 	add.w	r0, r6, r0, lsr #2
 8006704:	1a28      	subs	r0, r5, r0
 8006706:	f022 0503 	bic.w	r5, r2, #3
 800670a:	eb05 0292 	add.w	r2, r5, r2, lsr #2
 800670e:	1a9b      	subs	r3, r3, r2
			if (sequence[idx] != sequences[seq][offset]) {
 8006710:	f1b9 0f00 	cmp.w	r9, #0
 8006714:	d119      	bne.n	800674a <Buttons_Update+0x10a>
 8006716:	f85e 2028 	ldr.w	r2, [lr, r8, lsl #2]
 800671a:	f5b2 0f80 	cmp.w	r2, #4194304	@ 0x400000
 800671e:	d122      	bne.n	8006766 <Buttons_Update+0x126>
 8006720:	f85e 2021 	ldr.w	r2, [lr, r1, lsl #2]
 8006724:	f5b2 0f40 	cmp.w	r2, #12582912	@ 0xc00000
 8006728:	d10f      	bne.n	800674a <Buttons_Update+0x10a>
 800672a:	f85e 2020 	ldr.w	r2, [lr, r0, lsl #2]
 800672e:	f5b2 0f00 	cmp.w	r2, #8388608	@ 0x800000
 8006732:	d10a      	bne.n	800674a <Buttons_Update+0x10a>
 8006734:	f85e 3023 	ldr.w	r3, [lr, r3, lsl #2]
		if (found_sequence) {
			break;
		}
	}
	if (found_sequence) {
		SET_BIT(buttons->knob_flags, KNOB_LOCK_FLAG);
 8006738:	f04c 0c80 	orr.w	ip, ip, #128	@ 0x80
			if (sequence[idx] != sequences[seq][offset]) {
 800673c:	b92b      	cbnz	r3, 800674a <Buttons_Update+0x10a>
		SET_BIT(buttons->knob_flags, KNOB_LOCK_FLAG);
 800673e:	f884 c358 	strb.w	ip, [r4, #856]	@ 0x358
		if (seq == 1) {
			SET_BIT(buttons->knob_flags, KNOB_DIRECTION_FLAG);
		}
		buttons->knob_lock_init_time_ms = HAL_GetTick();
 8006742:	f7fa fbf5 	bl	8000f30 <HAL_GetTick>
 8006746:	f8c4 035c 	str.w	r0, [r4, #860]	@ 0x35c
}
 800674a:	2000      	movs	r0, #0
 800674c:	e8bd 8ff8 	ldmia.w	sp!, {r3, r4, r5, r6, r7, r8, r9, sl, fp, pc}
	}
}

static void update_knob_button_state(Buttons_HandleTypeDef *buttons) {
	if (HAL_GetTick() - buttons->knob_lock_init_time_ms > KNOB_LOCK_TIME_MS) {
 8006750:	f7fa fbee 	bl	8000f30 <HAL_GetTick>
 8006754:	f8d4 335c 	ldr.w	r3, [r4, #860]	@ 0x35c
 8006758:	1ac0      	subs	r0, r0, r3
 800675a:	281e      	cmp	r0, #30
 800675c:	d817      	bhi.n	800678e <Buttons_Update+0x14e>
		__NOP();
 800675e:	bf00      	nop
}
 8006760:	2000      	movs	r0, #0
 8006762:	e8bd 8ff8 	ldmia.w	sp!, {r3, r4, r5, r6, r7, r8, r9, sl, fp, pc}
			if (sequence[idx] != sequences[seq][offset]) {
 8006766:	f5b2 0f00 	cmp.w	r2, #8388608	@ 0x800000
 800676a:	d1ee      	bne.n	800674a <Buttons_Update+0x10a>
 800676c:	f85e 2021 	ldr.w	r2, [lr, r1, lsl #2]
 8006770:	f5b2 0f40 	cmp.w	r2, #12582912	@ 0xc00000
 8006774:	d1e9      	bne.n	800674a <Buttons_Update+0x10a>
 8006776:	f85e 2020 	ldr.w	r2, [lr, r0, lsl #2]
 800677a:	f5b2 0f80 	cmp.w	r2, #4194304	@ 0x400000
 800677e:	d1e4      	bne.n	800674a <Buttons_Update+0x10a>
 8006780:	f85e 3023 	ldr.w	r3, [lr, r3, lsl #2]
			SET_BIT(buttons->knob_flags, KNOB_DIRECTION_FLAG);
 8006784:	f04c 0cc0 	orr.w	ip, ip, #192	@ 0xc0
			if (sequence[idx] != sequences[seq][offset]) {
 8006788:	2b00      	cmp	r3, #0
 800678a:	d0d8      	beq.n	800673e <Buttons_Update+0xfe>
 800678c:	e7dd      	b.n	800674a <Buttons_Update+0x10a>
		CLEAR_BIT(buttons->knob_flags, KNOB_LOCK_FLAG);
		CLEAR_BIT(buttons->knob_flags, KNOB_DIRECTION_FLAG);
		memset(buttons->knob_rotation_sequence_buffer, 0,
 800678e:	2200      	movs	r2, #0
		CLEAR_BIT(buttons->knob_flags, KNOB_DIRECTION_FLAG);
 8006790:	f894 3358 	ldrb.w	r3, [r4, #856]	@ 0x358
		memset(buttons->knob_rotation_sequence_buffer, 0,
 8006794:	f8c4 233c 	str.w	r2, [r4, #828]	@ 0x33c
		CLEAR_BIT(buttons->knob_flags, KNOB_DIRECTION_FLAG);
 8006798:	f003 033f 	and.w	r3, r3, #63	@ 0x3f
 800679c:	f884 3358 	strb.w	r3, [r4, #856]	@ 0x358
		memset(buttons->knob_rotation_sequence_buffer, 0,
 80067a0:	e7dd      	b.n	800675e <Buttons_Update+0x11e>
 80067a2:	bf00      	nop

080067a4 <Buttons_Stop>:
static Wheel_Status Buttons_Stop(Buttons_HandleTypeDef *buttons) {
 80067a4:	b508      	push	{r3, lr}
	HAL_TIM_Base_Stop_IT(buttons->htim);
 80067a6:	f8d0 0360 	ldr.w	r0, [r0, #864]	@ 0x360
 80067aa:	f7fd fa93 	bl	8003cd4 <HAL_TIM_Base_Stop_IT>
}
 80067ae:	2000      	movs	r0, #0
 80067b0:	bd08      	pop	{r3, pc}
 80067b2:	bf00      	nop

080067b4 <Buttons_Start_TIM>:
static Wheel_Status Buttons_Start_TIM(Buttons_HandleTypeDef *buttons) {
 80067b4:	b508      	push	{r3, lr}
	HAL_TIM_Base_Start_IT(buttons->htim);
 80067b6:	f8d0 0360 	ldr.w	r0, [r0, #864]	@ 0x360
 80067ba:	f7fd fa5d 	bl	8003c78 <HAL_TIM_Base_Start_IT>
}
 80067be:	2000      	movs	r0, #0
 80067c0:	bd08      	pop	{r3, pc}
 80067c2:	bf00      	nop

080067c4 <Sensor_INIT>:
static inline void calculate_magnet_rotations(Sensor_HandleTypeDef *sensor);
static inline void get_steering_pos(Sensor_HandleTypeDef *sensor);

static Wheel_Status Sensor_INIT(Sensor_HandleTypeDef *sensor,
		Sensor_ConfigHandleTypeDef *config) {
	if (config->hw_magnetometer == 0) {
 80067c4:	680a      	ldr	r2, [r1, #0]
		Sensor_ConfigHandleTypeDef *config) {
 80067c6:	4603      	mov	r3, r0
	if (config->hw_magnetometer == 0) {
 80067c8:	b14a      	cbz	r2, 80067de <Sensor_INIT+0x1a>
		return WHEEL_ERROR;
	}
	sensor->hw_magnetometer = config->hw_magnetometer;
	sensor->start_settling_cnt = 2;
 80067ca:	f04f 0c02 	mov.w	ip, #2
	sensor->axis_scale = 1.0f;
 80067ce:	f04f 517e 	mov.w	r1, #1065353216	@ 0x3f800000
	return WHEEL_OK;
 80067d2:	2000      	movs	r0, #0
	sensor->hw_magnetometer = config->hw_magnetometer;
 80067d4:	631a      	str	r2, [r3, #48]	@ 0x30
	sensor->start_settling_cnt = 2;
 80067d6:	f883 c028 	strb.w	ip, [r3, #40]	@ 0x28
	sensor->axis_scale = 1.0f;
 80067da:	62d9      	str	r1, [r3, #44]	@ 0x2c
	return WHEEL_OK;
 80067dc:	4770      	bx	lr
		return WHEEL_ERROR;
 80067de:	2001      	movs	r0, #1
}
 80067e0:	4770      	bx	lr
 80067e2:	bf00      	nop

080067e4 <Sensor_DeINIT>:

static Wheel_Status Sensor_DeINIT(Sensor_HandleTypeDef *sensor) {
 80067e4:	b510      	push	{r4, lr}
 80067e6:	4604      	mov	r4, r0
	if (sensor->hw_magnetometer->DeINIT(sensor->hw_magnetometer)
 80067e8:	6b00      	ldr	r0, [r0, #48]	@ 0x30
 80067ea:	6843      	ldr	r3, [r0, #4]
 80067ec:	4798      	blx	r3
 80067ee:	2801      	cmp	r0, #1
 80067f0:	d002      	beq.n	80067f8 <Sensor_DeINIT+0x14>
			== WHEEL_ERROR) {
		return WHEEL_ERROR;
	}
	sensor->hw_magnetometer = 0;
 80067f2:	2300      	movs	r3, #0
	return WHEEL_OK;
 80067f4:	4618      	mov	r0, r3
	sensor->hw_magnetometer = 0;
 80067f6:	6323      	str	r3, [r4, #48]	@ 0x30
}
 80067f8:	bd10      	pop	{r4, pc}
 80067fa:	bf00      	nop

080067fc <Sensor_Update>:

static Wheel_Status Sensor_Update(Sensor_HandleTypeDef *sensor) {
	sensor->previous_sensor_capture = sensor->current_sensor_capture;
	sensor->current_sensor_capture = (int16_t) sensor->hw_magnetometer->alpha;
 80067fc:	6b03      	ldr	r3, [r0, #48]	@ 0x30
	sensor->previous_sensor_capture = sensor->current_sensor_capture;
 80067fe:	8ac1      	ldrh	r1, [r0, #22]
	sensor->current_sensor_capture = (int16_t) sensor->hw_magnetometer->alpha;
 8006800:	8d1b      	ldrh	r3, [r3, #40]	@ 0x28
	if (sensor->start_settling_cnt == 0) {
 8006802:	f890 2028 	ldrb.w	r2, [r0, #40]	@ 0x28
	sensor->previous_sensor_capture = sensor->current_sensor_capture;
 8006806:	8281      	strh	r1, [r0, #20]
	sensor->current_sensor_capture = (int16_t) sensor->hw_magnetometer->alpha;
 8006808:	82c3      	strh	r3, [r0, #22]
	if (sensor->start_settling_cnt == 0) {
 800680a:	b942      	cbnz	r2, 800681e <Sensor_Update+0x22>

static inline void calculate_magnet_rotations(Sensor_HandleTypeDef *sensor) {
	uint16_t cur = sensor->current_sensor_capture;
	uint16_t prev = sensor->previous_sensor_capture;

	int32_t diff = (int32_t) cur - (int32_t) prev;
 800680c:	1a5b      	subs	r3, r3, r1

	if (diff > 32767) {
 800680e:	f5b3 4f00 	cmp.w	r3, #32768	@ 0x8000
 8006812:	db09      	blt.n	8006828 <Sensor_Update+0x2c>
		diff -= 65536;
		sensor->magnet_full_rotation_cnt--;
 8006814:	7f03      	ldrb	r3, [r0, #28]
 8006816:	3b01      	subs	r3, #1
 8006818:	7703      	strb	r3, [r0, #28]
}
 800681a:	2000      	movs	r0, #0
 800681c:	4770      	bx	lr
		sensor->start_settling_cnt--;
 800681e:	3a01      	subs	r2, #1
 8006820:	f880 2028 	strb.w	r2, [r0, #40]	@ 0x28
}
 8006824:	2000      	movs	r0, #0
 8006826:	4770      	bx	lr
	} else if (diff < -32767) {
 8006828:	f513 4f00 	cmn.w	r3, #32768	@ 0x8000
 800682c:	dcfa      	bgt.n	8006824 <Sensor_Update+0x28>
		diff += 65536;
		sensor->magnet_full_rotation_cnt++;
 800682e:	7f03      	ldrb	r3, [r0, #28]
 8006830:	3301      	adds	r3, #1
 8006832:	7703      	strb	r3, [r0, #28]
}
 8006834:	2000      	movs	r0, #0
 8006836:	4770      	bx	lr

08006838 <Sensor_GetAxis>:
static Wheel_Status Sensor_GetAxis(Sensor_HandleTypeDef *sensor) {
 8006838:	b538      	push	{r3, r4, r5, lr}
 800683a:	4604      	mov	r4, r0
	}
}

static inline void get_steering_pos(Sensor_HandleTypeDef *sensor) {
	float fraction = (float) sensor->current_sensor_capture / 65535.0f;
 800683c:	8ac0      	ldrh	r0, [r0, #22]
 800683e:	f7f9 fd43 	bl	80002c8 <__aeabi_ui2f>
 8006842:	2180      	movs	r1, #128	@ 0x80
 8006844:	f2c3 7180 	movt	r1, #14208	@ 0x3780
 8006848:	f7f9 fd96 	bl	8000378 <__aeabi_fmul>
 800684c:	4605      	mov	r5, r0
	float pos = sensor->magnet_full_rotation_cnt * roll_to_axis_coef
			+ fraction * roll_to_axis_coef;
 800684e:	f994 001c 	ldrsb.w	r0, [r4, #28]
 8006852:	f7f9 fd3d 	bl	80002d0 <__aeabi_i2f>
 8006856:	4601      	mov	r1, r0
 8006858:	4628      	mov	r0, r5
 800685a:	f7f9 fc85 	bl	8000168 <__addsf3>
	float pos = sensor->magnet_full_rotation_cnt * roll_to_axis_coef
 800685e:	f640 316d 	movw	r1, #2925	@ 0xb6d
 8006862:	f2c4 41c3 	movt	r1, #17603	@ 0x44c3
 8006866:	f7f9 fd87 	bl	8000378 <__aeabi_fmul>
	sensor->steering_pos = (int32_t) pos;
 800686a:	f7f9 ff4b 	bl	8000704 <__aeabi_f2iz>
 800686e:	4601      	mov	r1, r0
	uint16_t distance = sensor->max - sensor->min;
 8006870:	8c23      	ldrh	r3, [r4, #32]
 8006872:	6a62      	ldr	r2, [r4, #36]	@ 0x24
	sensor->steering_pos = (int32_t) pos;
 8006874:	61a1      	str	r1, [r4, #24]
	uint16_t distance = sensor->max - sensor->min;
 8006876:	1ad2      	subs	r2, r2, r3
	uint16_t physical = sensor->steering_pos - sensor->min;
 8006878:	1acb      	subs	r3, r1, r3
	uint16_t distance = sensor->max - sensor->min;
 800687a:	b292      	uxth	r2, r2
	uint16_t physical = sensor->steering_pos - sensor->min;
 800687c:	b29b      	uxth	r3, r3
	sensor->physical_axis = physical;
 800687e:	8263      	strh	r3, [r4, #18]
	int16_t virtual_offset = (int16_t) physical - (int16_t) half;
 8006880:	eba3 0352 	sub.w	r3, r3, r2, lsr #1
 8006884:	b21b      	sxth	r3, r3
	uint16_t half = distance / 2U;
 8006886:	0855      	lsrs	r5, r2, #1
	if (virtual_offset > (int16_t) half) {
 8006888:	ebb3 0f52 	cmp.w	r3, r2, lsr #1
 800688c:	4628      	mov	r0, r5
	sensor->distance = distance;
 800688e:	8562      	strh	r2, [r4, #42]	@ 0x2a
	if (virtual_offset > (int16_t) half) {
 8006890:	dc04      	bgt.n	800689c <Sensor_GetAxis+0x64>
	if (virtual_offset < -(int16_t) half) {
 8006892:	426d      	negs	r5, r5
 8006894:	42ab      	cmp	r3, r5
		virtual_offset = -(int16_t) half;
 8006896:	bfac      	ite	ge
 8006898:	4618      	movge	r0, r3
 800689a:	b228      	sxthlt	r0, r5
	float scaled = virtual_offset * sensor->axis_scale;
 800689c:	f7f9 fd18 	bl	80002d0 <__aeabi_i2f>
 80068a0:	6ae1      	ldr	r1, [r4, #44]	@ 0x2c
 80068a2:	f7f9 fd69 	bl	8000378 <__aeabi_fmul>
	} else if (scaled < INT16_MIN) {
 80068a6:	f04f 4147 	mov.w	r1, #3338665984	@ 0xc7000000
	float scaled = virtual_offset * sensor->axis_scale;
 80068aa:	4605      	mov	r5, r0
	} else if (scaled < INT16_MIN) {
 80068ac:	f7f9 ff16 	bl	80006dc <__aeabi_fcmpge>
 80068b0:	b908      	cbnz	r0, 80068b6 <Sensor_GetAxis+0x7e>
 80068b2:	f04f 4547 	mov.w	r5, #3338665984	@ 0xc7000000
	sensor->virtual_axis = (int16_t) scaled;
 80068b6:	f44f 417e 	mov.w	r1, #65024	@ 0xfe00
 80068ba:	4628      	mov	r0, r5
 80068bc:	f2c4 61ff 	movt	r1, #18175	@ 0x46ff
 80068c0:	f7f9 ff02 	bl	80006c8 <__aeabi_fcmple>
 80068c4:	b918      	cbnz	r0, 80068ce <Sensor_GetAxis+0x96>
 80068c6:	f44f 457e 	mov.w	r5, #65024	@ 0xfe00
 80068ca:	f2c4 65ff 	movt	r5, #18175	@ 0x46ff
 80068ce:	4628      	mov	r0, r5
 80068d0:	f7f9 ff18 	bl	8000704 <__aeabi_f2iz>
 80068d4:	4603      	mov	r3, r0
}
 80068d6:	2000      	movs	r0, #0
	sensor->virtual_axis = (int16_t) scaled;
 80068d8:	8223      	strh	r3, [r4, #16]
}
 80068da:	bd38      	pop	{r3, r4, r5, pc}

080068dc <Shifter_INIT>:
Shifter_HandleTypeDef hShifter = { Shifter_INIT, Shifter_DeINIT,
		Shifter_getSpeed };

static Wheel_Status Shifter_INIT(Shifter_HandleTypeDef *shifter,
		Shifter_ConfigHandleTypeDef *config) {
	if (config->hw_analog == 0) {
 80068dc:	680a      	ldr	r2, [r1, #0]
 80068de:	b18a      	cbz	r2, 8006904 <Shifter_INIT+0x28>
		Shifter_ConfigHandleTypeDef *config) {
 80068e0:	b430      	push	{r4, r5}
		return WHEEL_ERROR;
	}
	shifter->hw_analog = config->hw_analog;
	shifter->modifier_port = config->modifier_port;
	shifter->modifier_pin = config->modifier_pin;
	shifter->min.x = 10000;
 80068e2:	f242 7410 	movw	r4, #10000	@ 0x2710
 80068e6:	4603      	mov	r3, r0
 80068e8:	f64c 3520 	movw	r5, #52000	@ 0xcb20
	shifter->modifier_port = config->modifier_port;
 80068ec:	6888      	ldr	r0, [r1, #8]
	shifter->modifier_pin = config->modifier_pin;
 80068ee:	8889      	ldrh	r1, [r1, #4]
	shifter->min.x = 10000;
 80068f0:	f6ce 2460 	movt	r4, #60000	@ 0xea60
 80068f4:	e9c3 4503 	strd	r4, r5, [r3, #12]
	shifter->min.y = 60000;
	shifter->max.x = 52000;
	shifter->max.y = 0;
	return WHEEL_OK;
}
 80068f8:	bc30      	pop	{r4, r5}
	shifter->modifier_port = config->modifier_port;
 80068fa:	61d8      	str	r0, [r3, #28]
	shifter->hw_analog = config->hw_analog;
 80068fc:	621a      	str	r2, [r3, #32]
	return WHEEL_OK;
 80068fe:	2000      	movs	r0, #0
	shifter->modifier_pin = config->modifier_pin;
 8006900:	8359      	strh	r1, [r3, #26]
}
 8006902:	4770      	bx	lr
		return WHEEL_ERROR;
 8006904:	2001      	movs	r0, #1
}
 8006906:	4770      	bx	lr

08006908 <Shifter_getSpeed>:
	}
	shifter->hw_analog = 0;
	return WHEEL_OK;
}

static Wheel_Status Shifter_getSpeed(Shifter_HandleTypeDef *shifter) {
 8006908:	b570      	push	{r4, r5, r6, lr}
 800690a:	4605      	mov	r5, r0
	shifter->current_pos.x = shifter->hw_analog->axis[SHIFTER_IDX];
 800690c:	6a02      	ldr	r2, [r0, #32]

	Point *min = &shifter->min;
	Point *max = &shifter->max;
	Point *current_pos = &shifter->current_pos;

	if (current_pos->x < min->x)
 800690e:	8980      	ldrh	r0, [r0, #12]
	shifter->current_pos.x = shifter->hw_analog->axis[SHIFTER_IDX];
 8006910:	8b93      	ldrh	r3, [r2, #28]
	shifter->current_pos.y = shifter->hw_analog->axis[SHIFTER_IDX + 1];
 8006912:	8c16      	ldrh	r6, [r2, #32]
		current_pos->x = min->x;
	if (current_pos->y > min->y)
 8006914:	89e9      	ldrh	r1, [r5, #14]
	if (current_pos->x < min->x)
 8006916:	4283      	cmp	r3, r0
	shifter->current_pos.x = shifter->hw_analog->axis[SHIFTER_IDX];
 8006918:	82ab      	strh	r3, [r5, #20]
		current_pos->x = min->x;
 800691a:	bf3c      	itt	cc
 800691c:	4603      	movcc	r3, r0
 800691e:	82a8      	strhcc	r0, [r5, #20]
	if (current_pos->y > min->y)
 8006920:	428e      	cmp	r6, r1
	shifter->current_pos.y = shifter->hw_analog->axis[SHIFTER_IDX + 1];
 8006922:	82ee      	strh	r6, [r5, #22]
		current_pos->y = min->y;
 8006924:	bf88      	it	hi
 8006926:	460e      	movhi	r6, r1
	if (current_pos->x > max->x)
 8006928:	8a2a      	ldrh	r2, [r5, #16]
		current_pos->x = max->x;
	if (current_pos->y < max->y)
 800692a:	8a6c      	ldrh	r4, [r5, #18]
		current_pos->y = min->y;
 800692c:	bf88      	it	hi
 800692e:	82e9      	strhhi	r1, [r5, #22]
	if (current_pos->x > max->x)
 8006930:	429a      	cmp	r2, r3
		current_pos->x = max->x;
 8006932:	bf3c      	itt	cc
 8006934:	4613      	movcc	r3, r2
 8006936:	82aa      	strhcc	r2, [r5, #20]
		current_pos->y = max->y;

	uint16_t width = max->x - min->x;
 8006938:	1a12      	subs	r2, r2, r0
	if (current_pos->y < max->y)
 800693a:	42b4      	cmp	r4, r6
	uint16_t width = max->x - min->x;
 800693c:	b292      	uxth	r2, r2
		current_pos->y = max->y;
 800693e:	bf8a      	itet	hi
 8006940:	2600      	movhi	r6, #0
		cell_h = 1;

	Point grid_location = { 0 };

	grid_location.x = (current_pos->x - min->x) / cell_w;
	grid_location.y = (current_pos->y - max->y) / cell_h;
 8006942:	1b36      	subls	r6, r6, r4
		current_pos->y = max->y;
 8006944:	82ec      	strhhi	r4, [r5, #22]
	uint16_t height = min->y - max->y;
 8006946:	1b09      	subs	r1, r1, r4
	if (cell_w == 0)
 8006948:	2a02      	cmp	r2, #2
	uint16_t height = min->y - max->y;
 800694a:	b289      	uxth	r1, r1
	if (cell_w == 0)
 800694c:	d928      	bls.n	80069a0 <Shifter_getSpeed+0x98>
	uint16_t cell_w = width / 3;
 800694e:	f64a 24ab 	movw	r4, #43691	@ 0xaaab
 8006952:	f6ca 24aa 	movt	r4, #43690	@ 0xaaaa
 8006956:	fba4 4202 	umull	r4, r2, r4, r2
	grid_location.x = (current_pos->x - min->x) / cell_w;
 800695a:	0852      	lsrs	r2, r2, #1
	if (cell_h == 0)
 800695c:	2903      	cmp	r1, #3
	grid_location.y = (current_pos->y - max->y) / cell_h;
 800695e:	bf84      	itt	hi
 8006960:	0889      	lsrhi	r1, r1, #2
 8006962:	fb96 f6f1 	sdivhi	r6, r6, r1
	grid_location.x = (current_pos->x - min->x) / cell_w;
 8006966:	1a1c      	subs	r4, r3, r0
 8006968:	fb94 f4f2 	sdiv	r4, r4, r2

	if (grid_location.x > 2)
		grid_location.x = 2;
	if (grid_location.y > 3)
 800696c:	b2b6      	uxth	r6, r6
 800696e:	2e03      	cmp	r6, #3
	if (grid_location.x > 2)
 8006970:	b2a4      	uxth	r4, r4
	if (grid_location.y > 3)
 8006972:	bf28      	it	cs
 8006974:	2603      	movcs	r6, #3
	/**/{ 0, 0, 0, 0, 0 },/**/
	/**/{ 0, 0, 0, 0, 0 },/**/
	/**/{ 1, 3, 5, 0, 0 } /**/
	};

	if (HAL_GPIO_ReadPin(shifter->modifier_port, shifter->modifier_pin)) {
 8006976:	8b69      	ldrh	r1, [r5, #26]
	if (grid_location.x > 2)
 8006978:	2c02      	cmp	r4, #2
	if (HAL_GPIO_ReadPin(shifter->modifier_port, shifter->modifier_pin)) {
 800697a:	69e8      	ldr	r0, [r5, #28]
	if (grid_location.x > 2)
 800697c:	bf28      	it	cs
 800697e:	2402      	movcs	r4, #2
	if (HAL_GPIO_ReadPin(shifter->modifier_port, shifter->modifier_pin)) {
 8006980:	f7fb f9b8 	bl	8001cf4 <HAL_GPIO_ReadPin>
 8006984:	b108      	cbz	r0, 800698a <Shifter_getSpeed+0x82>
		grid_location.x += 2;
 8006986:	3402      	adds	r4, #2
 8006988:	b2a4      	uxth	r4, r4
	}

	shifter->speed = speed_table[grid_location.y][grid_location.x];
 800698a:	f646 33b4 	movw	r3, #27572	@ 0x6bb4
 800698e:	eb06 0686 	add.w	r6, r6, r6, lsl #2
 8006992:	f6c0 0300 	movt	r3, #2048	@ 0x800
 8006996:	4433      	add	r3, r6
 8006998:	5d1b      	ldrb	r3, [r3, r4]

	return WHEEL_OK;
}
 800699a:	2000      	movs	r0, #0
	shifter->speed = speed_table[grid_location.y][grid_location.x];
 800699c:	762b      	strb	r3, [r5, #24]
}
 800699e:	bd70      	pop	{r4, r5, r6, pc}
 80069a0:	2201      	movs	r2, #1
 80069a2:	e7db      	b.n	800695c <Shifter_getSpeed+0x54>

080069a4 <Shifter_DeINIT>:
static Wheel_Status Shifter_DeINIT(Shifter_HandleTypeDef *shifter) {
 80069a4:	b510      	push	{r4, lr}
 80069a6:	4604      	mov	r4, r0
	if (shifter->hw_analog->DeINIT(shifter->hw_analog) == WHEEL_ERROR) {
 80069a8:	6a00      	ldr	r0, [r0, #32]
 80069aa:	6843      	ldr	r3, [r0, #4]
 80069ac:	4798      	blx	r3
 80069ae:	2801      	cmp	r0, #1
 80069b0:	d002      	beq.n	80069b8 <Shifter_DeINIT+0x14>
	shifter->hw_analog = 0;
 80069b2:	2000      	movs	r0, #0
 80069b4:	6220      	str	r0, [r4, #32]
}
 80069b6:	bd10      	pop	{r4, pc}
		Error_Handler();
 80069b8:	f7fa f8c2 	bl	8000b40 <Error_Handler>
	shifter->hw_analog = 0;
 80069bc:	2000      	movs	r0, #0
 80069be:	6220      	str	r0, [r4, #32]
}
 80069c0:	bd10      	pop	{r4, pc}
 80069c2:	bf00      	nop

080069c4 <__libc_init_array>:
 80069c4:	b570      	push	{r4, r5, r6, lr}
 80069c6:	2600      	movs	r6, #0
 80069c8:	4d0c      	ldr	r5, [pc, #48]	@ (80069fc <__libc_init_array+0x38>)
 80069ca:	4c0d      	ldr	r4, [pc, #52]	@ (8006a00 <__libc_init_array+0x3c>)
 80069cc:	1b64      	subs	r4, r4, r5
 80069ce:	10a4      	asrs	r4, r4, #2
 80069d0:	42a6      	cmp	r6, r4
 80069d2:	d109      	bne.n	80069e8 <__libc_init_array+0x24>
 80069d4:	f000 f81a 	bl	8006a0c <_init>
 80069d8:	2600      	movs	r6, #0
 80069da:	4d0a      	ldr	r5, [pc, #40]	@ (8006a04 <__libc_init_array+0x40>)
 80069dc:	4c0a      	ldr	r4, [pc, #40]	@ (8006a08 <__libc_init_array+0x44>)
 80069de:	1b64      	subs	r4, r4, r5
 80069e0:	10a4      	asrs	r4, r4, #2
 80069e2:	42a6      	cmp	r6, r4
 80069e4:	d105      	bne.n	80069f2 <__libc_init_array+0x2e>
 80069e6:	bd70      	pop	{r4, r5, r6, pc}
 80069e8:	f855 3b04 	ldr.w	r3, [r5], #4
 80069ec:	4798      	blx	r3
 80069ee:	3601      	adds	r6, #1
 80069f0:	e7ee      	b.n	80069d0 <__libc_init_array+0xc>
 80069f2:	f855 3b04 	ldr.w	r3, [r5], #4
 80069f6:	4798      	blx	r3
 80069f8:	3601      	adds	r6, #1
 80069fa:	e7f2      	b.n	80069e2 <__libc_init_array+0x1e>
 80069fc:	08006bd0 	.word	0x08006bd0
 8006a00:	08006bd0 	.word	0x08006bd0
 8006a04:	08006bd0 	.word	0x08006bd0
 8006a08:	08006bd4 	.word	0x08006bd4

08006a0c <_init>:
 8006a0c:	b5f8      	push	{r3, r4, r5, r6, r7, lr}
 8006a0e:	bf00      	nop
 8006a10:	bcf8      	pop	{r3, r4, r5, r6, r7}
 8006a12:	bc08      	pop	{r3}
 8006a14:	469e      	mov	lr, r3
 8006a16:	4770      	bx	lr

08006a18 <_fini>:
 8006a18:	b5f8      	push	{r3, r4, r5, r6, r7, lr}
 8006a1a:	bf00      	nop
 8006a1c:	bcf8      	pop	{r3, r4, r5, r6, r7}
 8006a1e:	bc08      	pop	{r3}
 8006a20:	469e      	mov	lr, r3
 8006a22:	4770      	bx	lr
