
g29-MB-Replacement.elf:     file format elf32-littlearm

Sections:
Idx Name          Size      VMA       LMA       File off  Algn
  0 .isr_vector   0000010c  08000000  08000000  00001000  2**0
                  CONTENTS, ALLOC, LOAD, READONLY, DATA
  1 .text         00008878  0800010c  0800010c  0000110c  2**2
                  CONTENTS, ALLOC, LOAD, READONLY, CODE
  2 .rodata       000005a4  08008984  08008984  00009984  2**2
                  CONTENTS, ALLOC, LOAD, READONLY, DATA
  3 .ARM.extab    00000000  08008f28  08008f28  0000afa4  2**0
                  CONTENTS, READONLY
  4 .ARM          00000000  08008f28  08008f28  0000afa4  2**0
                  CONTENTS, READONLY
  5 .preinit_array 00000000  08008f28  08008f28  0000afa4  2**0
                  CONTENTS, ALLOC, LOAD, DATA
  6 .init_array   00000004  08008f28  08008f28  00009f28  2**2
                  CONTENTS, ALLOC, LOAD, READONLY, DATA
  7 .fini_array   00000004  08008f2c  08008f2c  00009f2c  2**2
                  CONTENTS, ALLOC, LOAD, READONLY, DATA
  8 .data         00000fa4  20000000  08008f30  0000a000  2**2
                  CONTENTS, ALLOC, LOAD, DATA
  9 .bss          00000bcc  20000fa4  08009ed4  0000afa4  2**2
                  ALLOC
 10 ._user_heap_stack 00000600  20001b70  08009ed4  0000bb70  2**0
                  ALLOC
 11 .ARM.attributes 00000029  00000000  00000000  0000afa4  2**0
                  CONTENTS, READONLY
 12 .debug_info   00022dd6  00000000  00000000  0000afcd  2**0
                  CONTENTS, READONLY, DEBUGGING, OCTETS
 13 .debug_abbrev 000053ba  00000000  00000000  0002dda3  2**0
                  CONTENTS, READONLY, DEBUGGING, OCTETS
 14 .debug_aranges 00001718  00000000  00000000  00033160  2**3
                  CONTENTS, READONLY, DEBUGGING, OCTETS
 15 .debug_rnglists 00001376  00000000  00000000  00034878  2**0
                  CONTENTS, READONLY, DEBUGGING, OCTETS
 16 .debug_macro  0001d820  00000000  00000000  00035bee  2**0
                  CONTENTS, READONLY, DEBUGGING, OCTETS
 17 .debug_line   000261da  00000000  00000000  0005340e  2**0
                  CONTENTS, READONLY, DEBUGGING, OCTETS
 18 .debug_str    00095f61  00000000  00000000  000795e8  2**0
                  CONTENTS, READONLY, DEBUGGING, OCTETS
 19 .comment      00000043  00000000  00000000  0010f549  2**0
                  CONTENTS, READONLY
 20 .debug_frame  00003e60  00000000  00000000  0010f58c  2**2
                  CONTENTS, READONLY, DEBUGGING, OCTETS
 21 .debug_loclists 0000e46b  00000000  00000000  001133ec  2**0
                  CONTENTS, READONLY, DEBUGGING, OCTETS
 22 .debug_line_str 0000006e  00000000  00000000  00121857  2**0
                  CONTENTS, READONLY, DEBUGGING, OCTETS

Disassembly of section .text:

0800010c <__do_global_dtors_aux>:
 800010c:	b510      	push	{r4, lr}
 800010e:	4c05      	ldr	r4, [pc, #20]	@ (8000124 <__do_global_dtors_aux+0x18>)
 8000110:	7823      	ldrb	r3, [r4, #0]
 8000112:	b933      	cbnz	r3, 8000122 <__do_global_dtors_aux+0x16>
 8000114:	4b04      	ldr	r3, [pc, #16]	@ (8000128 <__do_global_dtors_aux+0x1c>)
 8000116:	b113      	cbz	r3, 800011e <__do_global_dtors_aux+0x12>
 8000118:	4804      	ldr	r0, [pc, #16]	@ (800012c <__do_global_dtors_aux+0x20>)
 800011a:	f3af 8000 	nop.w
 800011e:	2301      	movs	r3, #1
 8000120:	7023      	strb	r3, [r4, #0]
 8000122:	bd10      	pop	{r4, pc}
 8000124:	20000fa4 	.word	0x20000fa4
 8000128:	00000000 	.word	0x00000000
 800012c:	0800896c 	.word	0x0800896c

08000130 <frame_dummy>:
 8000130:	b508      	push	{r3, lr}
 8000132:	4b03      	ldr	r3, [pc, #12]	@ (8000140 <frame_dummy+0x10>)
 8000134:	b11b      	cbz	r3, 800013e <frame_dummy+0xe>
 8000136:	4903      	ldr	r1, [pc, #12]	@ (8000144 <frame_dummy+0x14>)
 8000138:	4803      	ldr	r0, [pc, #12]	@ (8000148 <frame_dummy+0x18>)
 800013a:	f3af 8000 	nop.w
 800013e:	bd08      	pop	{r3, pc}
 8000140:	00000000 	.word	0x00000000
 8000144:	20000fa8 	.word	0x20000fa8
 8000148:	0800896c 	.word	0x0800896c

0800014c <__aeabi_frsub>:
 800014c:	f080 4000 	eor.w	r0, r0, #2147483648	@ 0x80000000
 8000150:	e002      	b.n	8000158 <__addsf3>
 8000152:	bf00      	nop

08000154 <__aeabi_fsub>:
 8000154:	f081 4100 	eor.w	r1, r1, #2147483648	@ 0x80000000

08000158 <__addsf3>:
 8000158:	0042      	lsls	r2, r0, #1
 800015a:	bf1f      	itttt	ne
 800015c:	ea5f 0341 	movsne.w	r3, r1, lsl #1
 8000160:	ea92 0f03 	teqne	r2, r3
 8000164:	ea7f 6c22 	mvnsne.w	ip, r2, asr #24
 8000168:	ea7f 6c23 	mvnsne.w	ip, r3, asr #24
 800016c:	d06a      	beq.n	8000244 <__addsf3+0xec>
 800016e:	ea4f 6212 	mov.w	r2, r2, lsr #24
 8000172:	ebd2 6313 	rsbs	r3, r2, r3, lsr #24
 8000176:	bfc1      	itttt	gt
 8000178:	18d2      	addgt	r2, r2, r3
 800017a:	4041      	eorgt	r1, r0
 800017c:	4048      	eorgt	r0, r1
 800017e:	4041      	eorgt	r1, r0
 8000180:	bfb8      	it	lt
 8000182:	425b      	neglt	r3, r3
 8000184:	2b19      	cmp	r3, #25
 8000186:	bf88      	it	hi
 8000188:	4770      	bxhi	lr
 800018a:	f010 4f00 	tst.w	r0, #2147483648	@ 0x80000000
 800018e:	f440 0000 	orr.w	r0, r0, #8388608	@ 0x800000
 8000192:	f020 407f 	bic.w	r0, r0, #4278190080	@ 0xff000000
 8000196:	bf18      	it	ne
 8000198:	4240      	negne	r0, r0
 800019a:	f011 4f00 	tst.w	r1, #2147483648	@ 0x80000000
 800019e:	f441 0100 	orr.w	r1, r1, #8388608	@ 0x800000
 80001a2:	f021 417f 	bic.w	r1, r1, #4278190080	@ 0xff000000
 80001a6:	bf18      	it	ne
 80001a8:	4249      	negne	r1, r1
 80001aa:	ea92 0f03 	teq	r2, r3
 80001ae:	d03f      	beq.n	8000230 <__addsf3+0xd8>
 80001b0:	f1a2 0201 	sub.w	r2, r2, #1
 80001b4:	fa41 fc03 	asr.w	ip, r1, r3
 80001b8:	eb10 000c 	adds.w	r0, r0, ip
 80001bc:	f1c3 0320 	rsb	r3, r3, #32
 80001c0:	fa01 f103 	lsl.w	r1, r1, r3
 80001c4:	f000 4300 	and.w	r3, r0, #2147483648	@ 0x80000000
 80001c8:	d502      	bpl.n	80001d0 <__addsf3+0x78>
 80001ca:	4249      	negs	r1, r1
 80001cc:	eb60 0040 	sbc.w	r0, r0, r0, lsl #1
 80001d0:	f5b0 0f00 	cmp.w	r0, #8388608	@ 0x800000
 80001d4:	d313      	bcc.n	80001fe <__addsf3+0xa6>
 80001d6:	f1b0 7f80 	cmp.w	r0, #16777216	@ 0x1000000
 80001da:	d306      	bcc.n	80001ea <__addsf3+0x92>
 80001dc:	0840      	lsrs	r0, r0, #1
 80001de:	ea4f 0131 	mov.w	r1, r1, rrx
 80001e2:	f102 0201 	add.w	r2, r2, #1
 80001e6:	2afe      	cmp	r2, #254	@ 0xfe
 80001e8:	d251      	bcs.n	800028e <__addsf3+0x136>
 80001ea:	f1b1 4f00 	cmp.w	r1, #2147483648	@ 0x80000000
 80001ee:	eb40 50c2 	adc.w	r0, r0, r2, lsl #23
 80001f2:	bf08      	it	eq
 80001f4:	f020 0001 	biceq.w	r0, r0, #1
 80001f8:	ea40 0003 	orr.w	r0, r0, r3
 80001fc:	4770      	bx	lr
 80001fe:	0049      	lsls	r1, r1, #1
 8000200:	eb40 0000 	adc.w	r0, r0, r0
 8000204:	3a01      	subs	r2, #1
 8000206:	bf28      	it	cs
 8000208:	f5b0 0f00 	cmpcs.w	r0, #8388608	@ 0x800000
 800020c:	d2ed      	bcs.n	80001ea <__addsf3+0x92>
 800020e:	fab0 fc80 	clz	ip, r0
 8000212:	f1ac 0c08 	sub.w	ip, ip, #8
 8000216:	ebb2 020c 	subs.w	r2, r2, ip
 800021a:	fa00 f00c 	lsl.w	r0, r0, ip
 800021e:	bfaa      	itet	ge
 8000220:	eb00 50c2 	addge.w	r0, r0, r2, lsl #23
 8000224:	4252      	neglt	r2, r2
 8000226:	4318      	orrge	r0, r3
 8000228:	bfbc      	itt	lt
 800022a:	40d0      	lsrlt	r0, r2
 800022c:	4318      	orrlt	r0, r3
 800022e:	4770      	bx	lr
 8000230:	f092 0f00 	teq	r2, #0
 8000234:	f481 0100 	eor.w	r1, r1, #8388608	@ 0x800000
 8000238:	bf06      	itte	eq
 800023a:	f480 0000 	eoreq.w	r0, r0, #8388608	@ 0x800000
 800023e:	3201      	addeq	r2, #1
 8000240:	3b01      	subne	r3, #1
 8000242:	e7b5      	b.n	80001b0 <__addsf3+0x58>
 8000244:	ea4f 0341 	mov.w	r3, r1, lsl #1
 8000248:	ea7f 6c22 	mvns.w	ip, r2, asr #24
 800024c:	bf18      	it	ne
 800024e:	ea7f 6c23 	mvnsne.w	ip, r3, asr #24
 8000252:	d021      	beq.n	8000298 <__addsf3+0x140>
 8000254:	ea92 0f03 	teq	r2, r3
 8000258:	d004      	beq.n	8000264 <__addsf3+0x10c>
 800025a:	f092 0f00 	teq	r2, #0
 800025e:	bf08      	it	eq
 8000260:	4608      	moveq	r0, r1
 8000262:	4770      	bx	lr
 8000264:	ea90 0f01 	teq	r0, r1
 8000268:	bf1c      	itt	ne
 800026a:	2000      	movne	r0, #0
 800026c:	4770      	bxne	lr
 800026e:	f012 4f7f 	tst.w	r2, #4278190080	@ 0xff000000
 8000272:	d104      	bne.n	800027e <__addsf3+0x126>
 8000274:	0040      	lsls	r0, r0, #1
 8000276:	bf28      	it	cs
 8000278:	f040 4000 	orrcs.w	r0, r0, #2147483648	@ 0x80000000
 800027c:	4770      	bx	lr
 800027e:	f112 7200 	adds.w	r2, r2, #33554432	@ 0x2000000
 8000282:	bf3c      	itt	cc
 8000284:	f500 0000 	addcc.w	r0, r0, #8388608	@ 0x800000
 8000288:	4770      	bxcc	lr
 800028a:	f000 4300 	and.w	r3, r0, #2147483648	@ 0x80000000
 800028e:	f043 40fe 	orr.w	r0, r3, #2130706432	@ 0x7f000000
 8000292:	f440 0000 	orr.w	r0, r0, #8388608	@ 0x800000
 8000296:	4770      	bx	lr
 8000298:	ea7f 6222 	mvns.w	r2, r2, asr #24
 800029c:	bf16      	itet	ne
 800029e:	4608      	movne	r0, r1
 80002a0:	ea7f 6323 	mvnseq.w	r3, r3, asr #24
 80002a4:	4601      	movne	r1, r0
 80002a6:	0242      	lsls	r2, r0, #9
 80002a8:	bf06      	itte	eq
 80002aa:	ea5f 2341 	movseq.w	r3, r1, lsl #9
 80002ae:	ea90 0f01 	teqeq	r0, r1
 80002b2:	f440 0080 	orrne.w	r0, r0, #4194304	@ 0x400000
 80002b6:	4770      	bx	lr

080002b8 <__aeabi_ui2f>:
 80002b8:	f04f 0300 	mov.w	r3, #0
 80002bc:	e004      	b.n	80002c8 <__aeabi_i2f+0x8>
 80002be:	bf00      	nop

080002c0 <__aeabi_i2f>:
 80002c0:	f010 4300 	ands.w	r3, r0, #2147483648	@ 0x80000000
 80002c4:	bf48      	it	mi
 80002c6:	4240      	negmi	r0, r0
 80002c8:	ea5f 0c00 	movs.w	ip, r0
 80002cc:	bf08      	it	eq
 80002ce:	4770      	bxeq	lr
 80002d0:	f043 4396 	orr.w	r3, r3, #1258291200	@ 0x4b000000
 80002d4:	4601      	mov	r1, r0
 80002d6:	f04f 0000 	mov.w	r0, #0
 80002da:	e01c      	b.n	8000316 <__aeabi_l2f+0x2a>

080002dc <__aeabi_ul2f>:
 80002dc:	ea50 0201 	orrs.w	r2, r0, r1
 80002e0:	bf08      	it	eq
 80002e2:	4770      	bxeq	lr
 80002e4:	f04f 0300 	mov.w	r3, #0
 80002e8:	e00a      	b.n	8000300 <__aeabi_l2f+0x14>
 80002ea:	bf00      	nop

080002ec <__aeabi_l2f>:
 80002ec:	ea50 0201 	orrs.w	r2, r0, r1
 80002f0:	bf08      	it	eq
 80002f2:	4770      	bxeq	lr
 80002f4:	f011 4300 	ands.w	r3, r1, #2147483648	@ 0x80000000
 80002f8:	d502      	bpl.n	8000300 <__aeabi_l2f+0x14>
 80002fa:	4240      	negs	r0, r0
 80002fc:	eb61 0141 	sbc.w	r1, r1, r1, lsl #1
 8000300:	ea5f 0c01 	movs.w	ip, r1
 8000304:	bf02      	ittt	eq
 8000306:	4684      	moveq	ip, r0
 8000308:	4601      	moveq	r1, r0
 800030a:	2000      	moveq	r0, #0
 800030c:	f043 43b6 	orr.w	r3, r3, #1526726656	@ 0x5b000000
 8000310:	bf08      	it	eq
 8000312:	f1a3 5380 	subeq.w	r3, r3, #268435456	@ 0x10000000
 8000316:	f5a3 0300 	sub.w	r3, r3, #8388608	@ 0x800000
 800031a:	fabc f28c 	clz	r2, ip
 800031e:	3a08      	subs	r2, #8
 8000320:	eba3 53c2 	sub.w	r3, r3, r2, lsl #23
 8000324:	db10      	blt.n	8000348 <__aeabi_l2f+0x5c>
 8000326:	fa01 fc02 	lsl.w	ip, r1, r2
 800032a:	4463      	add	r3, ip
 800032c:	fa00 fc02 	lsl.w	ip, r0, r2
 8000330:	f1c2 0220 	rsb	r2, r2, #32
 8000334:	f1bc 4f00 	cmp.w	ip, #2147483648	@ 0x80000000
 8000338:	fa20 f202 	lsr.w	r2, r0, r2
 800033c:	eb43 0002 	adc.w	r0, r3, r2
 8000340:	bf08      	it	eq
 8000342:	f020 0001 	biceq.w	r0, r0, #1
 8000346:	4770      	bx	lr
 8000348:	f102 0220 	add.w	r2, r2, #32
 800034c:	fa01 fc02 	lsl.w	ip, r1, r2
 8000350:	f1c2 0220 	rsb	r2, r2, #32
 8000354:	ea50 004c 	orrs.w	r0, r0, ip, lsl #1
 8000358:	fa21 f202 	lsr.w	r2, r1, r2
 800035c:	eb43 0002 	adc.w	r0, r3, r2
 8000360:	bf08      	it	eq
 8000362:	ea20 70dc 	biceq.w	r0, r0, ip, lsr #31
 8000366:	4770      	bx	lr

08000368 <__aeabi_fmul>:
 8000368:	f04f 0cff 	mov.w	ip, #255	@ 0xff
 800036c:	ea1c 52d0 	ands.w	r2, ip, r0, lsr #23
 8000370:	bf1e      	ittt	ne
 8000372:	ea1c 53d1 	andsne.w	r3, ip, r1, lsr #23
 8000376:	ea92 0f0c 	teqne	r2, ip
 800037a:	ea93 0f0c 	teqne	r3, ip
 800037e:	d06f      	beq.n	8000460 <__aeabi_fmul+0xf8>
 8000380:	441a      	add	r2, r3
 8000382:	ea80 0c01 	eor.w	ip, r0, r1
 8000386:	0240      	lsls	r0, r0, #9
 8000388:	bf18      	it	ne
 800038a:	ea5f 2141 	movsne.w	r1, r1, lsl #9
 800038e:	d01e      	beq.n	80003ce <__aeabi_fmul+0x66>
 8000390:	f04f 6300 	mov.w	r3, #134217728	@ 0x8000000
 8000394:	ea43 1050 	orr.w	r0, r3, r0, lsr #5
 8000398:	ea43 1151 	orr.w	r1, r3, r1, lsr #5
 800039c:	fba0 3101 	umull	r3, r1, r0, r1
 80003a0:	f00c 4000 	and.w	r0, ip, #2147483648	@ 0x80000000
 80003a4:	f5b1 0f00 	cmp.w	r1, #8388608	@ 0x800000
 80003a8:	bf3e      	ittt	cc
 80003aa:	0049      	lslcc	r1, r1, #1
 80003ac:	ea41 71d3 	orrcc.w	r1, r1, r3, lsr #31
 80003b0:	005b      	lslcc	r3, r3, #1
 80003b2:	ea40 0001 	orr.w	r0, r0, r1
 80003b6:	f162 027f 	sbc.w	r2, r2, #127	@ 0x7f
 80003ba:	2afd      	cmp	r2, #253	@ 0xfd
 80003bc:	d81d      	bhi.n	80003fa <__aeabi_fmul+0x92>
 80003be:	f1b3 4f00 	cmp.w	r3, #2147483648	@ 0x80000000
 80003c2:	eb40 50c2 	adc.w	r0, r0, r2, lsl #23
 80003c6:	bf08      	it	eq
 80003c8:	f020 0001 	biceq.w	r0, r0, #1
 80003cc:	4770      	bx	lr
 80003ce:	f090 0f00 	teq	r0, #0
 80003d2:	f00c 4c00 	and.w	ip, ip, #2147483648	@ 0x80000000
 80003d6:	bf08      	it	eq
 80003d8:	0249      	lsleq	r1, r1, #9
 80003da:	ea4c 2050 	orr.w	r0, ip, r0, lsr #9
 80003de:	ea40 2051 	orr.w	r0, r0, r1, lsr #9
 80003e2:	3a7f      	subs	r2, #127	@ 0x7f
 80003e4:	bfc2      	ittt	gt
 80003e6:	f1d2 03ff 	rsbsgt	r3, r2, #255	@ 0xff
 80003ea:	ea40 50c2 	orrgt.w	r0, r0, r2, lsl #23
 80003ee:	4770      	bxgt	lr
 80003f0:	f440 0000 	orr.w	r0, r0, #8388608	@ 0x800000
 80003f4:	f04f 0300 	mov.w	r3, #0
 80003f8:	3a01      	subs	r2, #1
 80003fa:	dc5d      	bgt.n	80004b8 <__aeabi_fmul+0x150>
 80003fc:	f112 0f19 	cmn.w	r2, #25
 8000400:	bfdc      	itt	le
 8000402:	f000 4000 	andle.w	r0, r0, #2147483648	@ 0x80000000
 8000406:	4770      	bxle	lr
 8000408:	f1c2 0200 	rsb	r2, r2, #0
 800040c:	0041      	lsls	r1, r0, #1
 800040e:	fa21 f102 	lsr.w	r1, r1, r2
 8000412:	f1c2 0220 	rsb	r2, r2, #32
 8000416:	fa00 fc02 	lsl.w	ip, r0, r2
 800041a:	ea5f 0031 	movs.w	r0, r1, rrx
 800041e:	f140 0000 	adc.w	r0, r0, #0
 8000422:	ea53 034c 	orrs.w	r3, r3, ip, lsl #1
 8000426:	bf08      	it	eq
 8000428:	ea20 70dc 	biceq.w	r0, r0, ip, lsr #31
 800042c:	4770      	bx	lr
 800042e:	f092 0f00 	teq	r2, #0
 8000432:	f000 4c00 	and.w	ip, r0, #2147483648	@ 0x80000000
 8000436:	bf02      	ittt	eq
 8000438:	0040      	lsleq	r0, r0, #1
 800043a:	f410 0f00 	tsteq.w	r0, #8388608	@ 0x800000
 800043e:	3a01      	subeq	r2, #1
 8000440:	d0f9      	beq.n	8000436 <__aeabi_fmul+0xce>
 8000442:	ea40 000c 	orr.w	r0, r0, ip
 8000446:	f093 0f00 	teq	r3, #0
 800044a:	f001 4c00 	and.w	ip, r1, #2147483648	@ 0x80000000
 800044e:	bf02      	ittt	eq
 8000450:	0049      	lsleq	r1, r1, #1
 8000452:	f411 0f00 	tsteq.w	r1, #8388608	@ 0x800000
 8000456:	3b01      	subeq	r3, #1
 8000458:	d0f9      	beq.n	800044e <__aeabi_fmul+0xe6>
 800045a:	ea41 010c 	orr.w	r1, r1, ip
 800045e:	e78f      	b.n	8000380 <__aeabi_fmul+0x18>
 8000460:	ea0c 53d1 	and.w	r3, ip, r1, lsr #23
 8000464:	ea92 0f0c 	teq	r2, ip
 8000468:	bf18      	it	ne
 800046a:	ea93 0f0c 	teqne	r3, ip
 800046e:	d00a      	beq.n	8000486 <__aeabi_fmul+0x11e>
 8000470:	f030 4c00 	bics.w	ip, r0, #2147483648	@ 0x80000000
 8000474:	bf18      	it	ne
 8000476:	f031 4c00 	bicsne.w	ip, r1, #2147483648	@ 0x80000000
 800047a:	d1d8      	bne.n	800042e <__aeabi_fmul+0xc6>
 800047c:	ea80 0001 	eor.w	r0, r0, r1
 8000480:	f000 4000 	and.w	r0, r0, #2147483648	@ 0x80000000
 8000484:	4770      	bx	lr
 8000486:	f090 0f00 	teq	r0, #0
 800048a:	bf17      	itett	ne
 800048c:	f090 4f00 	teqne	r0, #2147483648	@ 0x80000000
 8000490:	4608      	moveq	r0, r1
 8000492:	f091 0f00 	teqne	r1, #0
 8000496:	f091 4f00 	teqne	r1, #2147483648	@ 0x80000000
 800049a:	d014      	beq.n	80004c6 <__aeabi_fmul+0x15e>
 800049c:	ea92 0f0c 	teq	r2, ip
 80004a0:	d101      	bne.n	80004a6 <__aeabi_fmul+0x13e>
 80004a2:	0242      	lsls	r2, r0, #9
 80004a4:	d10f      	bne.n	80004c6 <__aeabi_fmul+0x15e>
 80004a6:	ea93 0f0c 	teq	r3, ip
 80004aa:	d103      	bne.n	80004b4 <__aeabi_fmul+0x14c>
 80004ac:	024b      	lsls	r3, r1, #9
 80004ae:	bf18      	it	ne
 80004b0:	4608      	movne	r0, r1
 80004b2:	d108      	bne.n	80004c6 <__aeabi_fmul+0x15e>
 80004b4:	ea80 0001 	eor.w	r0, r0, r1
 80004b8:	f000 4000 	and.w	r0, r0, #2147483648	@ 0x80000000
 80004bc:	f040 40fe 	orr.w	r0, r0, #2130706432	@ 0x7f000000
 80004c0:	f440 0000 	orr.w	r0, r0, #8388608	@ 0x800000
 80004c4:	4770      	bx	lr
 80004c6:	f040 40fe 	orr.w	r0, r0, #2130706432	@ 0x7f000000
 80004ca:	f440 0040 	orr.w	r0, r0, #12582912	@ 0xc00000
 80004ce:	4770      	bx	lr

080004d0 <__aeabi_fdiv>:
 80004d0:	f04f 0cff 	mov.w	ip, #255	@ 0xff
 80004d4:	ea1c 52d0 	ands.w	r2, ip, r0, lsr #23
 80004d8:	bf1e      	ittt	ne
 80004da:	ea1c 53d1 	andsne.w	r3, ip, r1, lsr #23
 80004de:	ea92 0f0c 	teqne	r2, ip
 80004e2:	ea93 0f0c 	teqne	r3, ip
 80004e6:	d069      	beq.n	80005bc <__aeabi_fdiv+0xec>
 80004e8:	eba2 0203 	sub.w	r2, r2, r3
 80004ec:	ea80 0c01 	eor.w	ip, r0, r1
 80004f0:	0249      	lsls	r1, r1, #9
 80004f2:	ea4f 2040 	mov.w	r0, r0, lsl #9
 80004f6:	d037      	beq.n	8000568 <__aeabi_fdiv+0x98>
 80004f8:	f04f 5380 	mov.w	r3, #268435456	@ 0x10000000
 80004fc:	ea43 1111 	orr.w	r1, r3, r1, lsr #4
 8000500:	ea43 1310 	orr.w	r3, r3, r0, lsr #4
 8000504:	f00c 4000 	and.w	r0, ip, #2147483648	@ 0x80000000
 8000508:	428b      	cmp	r3, r1
 800050a:	bf38      	it	cc
 800050c:	005b      	lslcc	r3, r3, #1
 800050e:	f142 027d 	adc.w	r2, r2, #125	@ 0x7d
 8000512:	f44f 0c00 	mov.w	ip, #8388608	@ 0x800000
 8000516:	428b      	cmp	r3, r1
 8000518:	bf24      	itt	cs
 800051a:	1a5b      	subcs	r3, r3, r1
 800051c:	ea40 000c 	orrcs.w	r0, r0, ip
 8000520:	ebb3 0f51 	cmp.w	r3, r1, lsr #1
 8000524:	bf24      	itt	cs
 8000526:	eba3 0351 	subcs.w	r3, r3, r1, lsr #1
 800052a:	ea40 005c 	orrcs.w	r0, r0, ip, lsr #1
 800052e:	ebb3 0f91 	cmp.w	r3, r1, lsr #2
 8000532:	bf24      	itt	cs
 8000534:	eba3 0391 	subcs.w	r3, r3, r1, lsr #2
 8000538:	ea40 009c 	orrcs.w	r0, r0, ip, lsr #2
 800053c:	ebb3 0fd1 	cmp.w	r3, r1, lsr #3
 8000540:	bf24      	itt	cs
 8000542:	eba3 03d1 	subcs.w	r3, r3, r1, lsr #3
 8000546:	ea40 00dc 	orrcs.w	r0, r0, ip, lsr #3
 800054a:	011b      	lsls	r3, r3, #4
 800054c:	bf18      	it	ne
 800054e:	ea5f 1c1c 	movsne.w	ip, ip, lsr #4
 8000552:	d1e0      	bne.n	8000516 <__aeabi_fdiv+0x46>
 8000554:	2afd      	cmp	r2, #253	@ 0xfd
 8000556:	f63f af50 	bhi.w	80003fa <__aeabi_fmul+0x92>
 800055a:	428b      	cmp	r3, r1
 800055c:	eb40 50c2 	adc.w	r0, r0, r2, lsl #23
 8000560:	bf08      	it	eq
 8000562:	f020 0001 	biceq.w	r0, r0, #1
 8000566:	4770      	bx	lr
 8000568:	f00c 4c00 	and.w	ip, ip, #2147483648	@ 0x80000000
 800056c:	ea4c 2050 	orr.w	r0, ip, r0, lsr #9
 8000570:	327f      	adds	r2, #127	@ 0x7f
 8000572:	bfc2      	ittt	gt
 8000574:	f1d2 03ff 	rsbsgt	r3, r2, #255	@ 0xff
 8000578:	ea40 50c2 	orrgt.w	r0, r0, r2, lsl #23
 800057c:	4770      	bxgt	lr
 800057e:	f440 0000 	orr.w	r0, r0, #8388608	@ 0x800000
 8000582:	f04f 0300 	mov.w	r3, #0
 8000586:	3a01      	subs	r2, #1
 8000588:	e737      	b.n	80003fa <__aeabi_fmul+0x92>
 800058a:	f092 0f00 	teq	r2, #0
 800058e:	f000 4c00 	and.w	ip, r0, #2147483648	@ 0x80000000
 8000592:	bf02      	ittt	eq
 8000594:	0040      	lsleq	r0, r0, #1
 8000596:	f410 0f00 	tsteq.w	r0, #8388608	@ 0x800000
 800059a:	3a01      	subeq	r2, #1
 800059c:	d0f9      	beq.n	8000592 <__aeabi_fdiv+0xc2>
 800059e:	ea40 000c 	orr.w	r0, r0, ip
 80005a2:	f093 0f00 	teq	r3, #0
 80005a6:	f001 4c00 	and.w	ip, r1, #2147483648	@ 0x80000000
 80005aa:	bf02      	ittt	eq
 80005ac:	0049      	lsleq	r1, r1, #1
 80005ae:	f411 0f00 	tsteq.w	r1, #8388608	@ 0x800000
 80005b2:	3b01      	subeq	r3, #1
 80005b4:	d0f9      	beq.n	80005aa <__aeabi_fdiv+0xda>
 80005b6:	ea41 010c 	orr.w	r1, r1, ip
 80005ba:	e795      	b.n	80004e8 <__aeabi_fdiv+0x18>
 80005bc:	ea0c 53d1 	and.w	r3, ip, r1, lsr #23
 80005c0:	ea92 0f0c 	teq	r2, ip
 80005c4:	d108      	bne.n	80005d8 <__aeabi_fdiv+0x108>
 80005c6:	0242      	lsls	r2, r0, #9
 80005c8:	f47f af7d 	bne.w	80004c6 <__aeabi_fmul+0x15e>
 80005cc:	ea93 0f0c 	teq	r3, ip
 80005d0:	f47f af70 	bne.w	80004b4 <__aeabi_fmul+0x14c>
 80005d4:	4608      	mov	r0, r1
 80005d6:	e776      	b.n	80004c6 <__aeabi_fmul+0x15e>
 80005d8:	ea93 0f0c 	teq	r3, ip
 80005dc:	d104      	bne.n	80005e8 <__aeabi_fdiv+0x118>
 80005de:	024b      	lsls	r3, r1, #9
 80005e0:	f43f af4c 	beq.w	800047c <__aeabi_fmul+0x114>
 80005e4:	4608      	mov	r0, r1
 80005e6:	e76e      	b.n	80004c6 <__aeabi_fmul+0x15e>
 80005e8:	f030 4c00 	bics.w	ip, r0, #2147483648	@ 0x80000000
 80005ec:	bf18      	it	ne
 80005ee:	f031 4c00 	bicsne.w	ip, r1, #2147483648	@ 0x80000000
 80005f2:	d1ca      	bne.n	800058a <__aeabi_fdiv+0xba>
 80005f4:	f030 4200 	bics.w	r2, r0, #2147483648	@ 0x80000000
 80005f8:	f47f af5c 	bne.w	80004b4 <__aeabi_fmul+0x14c>
 80005fc:	f031 4300 	bics.w	r3, r1, #2147483648	@ 0x80000000
 8000600:	f47f af3c 	bne.w	800047c <__aeabi_fmul+0x114>
 8000604:	e75f      	b.n	80004c6 <__aeabi_fmul+0x15e>
 8000606:	bf00      	nop

08000608 <__gesf2>:
 8000608:	f04f 3cff 	mov.w	ip, #4294967295
 800060c:	e006      	b.n	800061c <__cmpsf2+0x4>
 800060e:	bf00      	nop

08000610 <__lesf2>:
 8000610:	f04f 0c01 	mov.w	ip, #1
 8000614:	e002      	b.n	800061c <__cmpsf2+0x4>
 8000616:	bf00      	nop

08000618 <__cmpsf2>:
 8000618:	f04f 0c01 	mov.w	ip, #1
 800061c:	f84d cd04 	str.w	ip, [sp, #-4]!
 8000620:	ea4f 0240 	mov.w	r2, r0, lsl #1
 8000624:	ea4f 0341 	mov.w	r3, r1, lsl #1
 8000628:	ea7f 6c22 	mvns.w	ip, r2, asr #24
 800062c:	bf18      	it	ne
 800062e:	ea7f 6c23 	mvnsne.w	ip, r3, asr #24
 8000632:	d011      	beq.n	8000658 <__cmpsf2+0x40>
 8000634:	b001      	add	sp, #4
 8000636:	ea52 0c53 	orrs.w	ip, r2, r3, lsr #1
 800063a:	bf18      	it	ne
 800063c:	ea90 0f01 	teqne	r0, r1
 8000640:	bf58      	it	pl
 8000642:	ebb2 0003 	subspl.w	r0, r2, r3
 8000646:	bf88      	it	hi
 8000648:	17c8      	asrhi	r0, r1, #31
 800064a:	bf38      	it	cc
 800064c:	ea6f 70e1 	mvncc.w	r0, r1, asr #31
 8000650:	bf18      	it	ne
 8000652:	f040 0001 	orrne.w	r0, r0, #1
 8000656:	4770      	bx	lr
 8000658:	ea7f 6c22 	mvns.w	ip, r2, asr #24
 800065c:	d102      	bne.n	8000664 <__cmpsf2+0x4c>
 800065e:	ea5f 2c40 	movs.w	ip, r0, lsl #9
 8000662:	d105      	bne.n	8000670 <__cmpsf2+0x58>
 8000664:	ea7f 6c23 	mvns.w	ip, r3, asr #24
 8000668:	d1e4      	bne.n	8000634 <__cmpsf2+0x1c>
 800066a:	ea5f 2c41 	movs.w	ip, r1, lsl #9
 800066e:	d0e1      	beq.n	8000634 <__cmpsf2+0x1c>
 8000670:	f85d 0b04 	ldr.w	r0, [sp], #4
 8000674:	4770      	bx	lr
 8000676:	bf00      	nop

08000678 <__aeabi_cfrcmple>:
 8000678:	4684      	mov	ip, r0
 800067a:	4608      	mov	r0, r1
 800067c:	4661      	mov	r1, ip
 800067e:	e7ff      	b.n	8000680 <__aeabi_cfcmpeq>

08000680 <__aeabi_cfcmpeq>:
 8000680:	b50f      	push	{r0, r1, r2, r3, lr}
 8000682:	f7ff ffc9 	bl	8000618 <__cmpsf2>
 8000686:	2800      	cmp	r0, #0
 8000688:	bf48      	it	mi
 800068a:	f110 0f00 	cmnmi.w	r0, #0
 800068e:	bd0f      	pop	{r0, r1, r2, r3, pc}

08000690 <__aeabi_fcmpeq>:
 8000690:	f84d ed08 	str.w	lr, [sp, #-8]!
 8000694:	f7ff fff4 	bl	8000680 <__aeabi_cfcmpeq>
 8000698:	bf0c      	ite	eq
 800069a:	2001      	moveq	r0, #1
 800069c:	2000      	movne	r0, #0
 800069e:	f85d fb08 	ldr.w	pc, [sp], #8
 80006a2:	bf00      	nop

080006a4 <__aeabi_fcmplt>:
 80006a4:	f84d ed08 	str.w	lr, [sp, #-8]!
 80006a8:	f7ff ffea 	bl	8000680 <__aeabi_cfcmpeq>
 80006ac:	bf34      	ite	cc
 80006ae:	2001      	movcc	r0, #1
 80006b0:	2000      	movcs	r0, #0
 80006b2:	f85d fb08 	ldr.w	pc, [sp], #8
 80006b6:	bf00      	nop

080006b8 <__aeabi_fcmple>:
 80006b8:	f84d ed08 	str.w	lr, [sp, #-8]!
 80006bc:	f7ff ffe0 	bl	8000680 <__aeabi_cfcmpeq>
 80006c0:	bf94      	ite	ls
 80006c2:	2001      	movls	r0, #1
 80006c4:	2000      	movhi	r0, #0
 80006c6:	f85d fb08 	ldr.w	pc, [sp], #8
 80006ca:	bf00      	nop

080006cc <__aeabi_fcmpge>:
 80006cc:	f84d ed08 	str.w	lr, [sp, #-8]!
 80006d0:	f7ff ffd2 	bl	8000678 <__aeabi_cfrcmple>
 80006d4:	bf94      	ite	ls
 80006d6:	2001      	movls	r0, #1
 80006d8:	2000      	movhi	r0, #0
 80006da:	f85d fb08 	ldr.w	pc, [sp], #8
 80006de:	bf00      	nop

080006e0 <__aeabi_fcmpgt>:
 80006e0:	f84d ed08 	str.w	lr, [sp, #-8]!
 80006e4:	f7ff ffc8 	bl	8000678 <__aeabi_cfrcmple>
 80006e8:	bf34      	ite	cc
 80006ea:	2001      	movcc	r0, #1
 80006ec:	2000      	movcs	r0, #0
 80006ee:	f85d fb08 	ldr.w	pc, [sp], #8
 80006f2:	bf00      	nop

080006f4 <__aeabi_f2iz>:
 80006f4:	ea4f 0240 	mov.w	r2, r0, lsl #1
 80006f8:	f1b2 4ffe 	cmp.w	r2, #2130706432	@ 0x7f000000
 80006fc:	d30f      	bcc.n	800071e <__aeabi_f2iz+0x2a>
 80006fe:	f04f 039e 	mov.w	r3, #158	@ 0x9e
 8000702:	ebb3 6212 	subs.w	r2, r3, r2, lsr #24
 8000706:	d90d      	bls.n	8000724 <__aeabi_f2iz+0x30>
 8000708:	ea4f 2300 	mov.w	r3, r0, lsl #8
 800070c:	f043 4300 	orr.w	r3, r3, #2147483648	@ 0x80000000
 8000710:	f010 4f00 	tst.w	r0, #2147483648	@ 0x80000000
 8000714:	fa23 f002 	lsr.w	r0, r3, r2
 8000718:	bf18      	it	ne
 800071a:	4240      	negne	r0, r0
 800071c:	4770      	bx	lr
 800071e:	f04f 0000 	mov.w	r0, #0
 8000722:	4770      	bx	lr
 8000724:	f112 0f61 	cmn.w	r2, #97	@ 0x61
 8000728:	d101      	bne.n	800072e <__aeabi_f2iz+0x3a>
 800072a:	0242      	lsls	r2, r0, #9
 800072c:	d105      	bne.n	800073a <__aeabi_f2iz+0x46>
 800072e:	f010 4000 	ands.w	r0, r0, #2147483648	@ 0x80000000
 8000732:	bf08      	it	eq
 8000734:	f06f 4000 	mvneq.w	r0, #2147483648	@ 0x80000000
 8000738:	4770      	bx	lr
 800073a:	f04f 0000 	mov.w	r0, #0
 800073e:	4770      	bx	lr

08000740 <__aeabi_f2uiz>:
 8000740:	0042      	lsls	r2, r0, #1
 8000742:	d20e      	bcs.n	8000762 <__aeabi_f2uiz+0x22>
 8000744:	f1b2 4ffe 	cmp.w	r2, #2130706432	@ 0x7f000000
 8000748:	d30b      	bcc.n	8000762 <__aeabi_f2uiz+0x22>
 800074a:	f04f 039e 	mov.w	r3, #158	@ 0x9e
 800074e:	ebb3 6212 	subs.w	r2, r3, r2, lsr #24
 8000752:	d409      	bmi.n	8000768 <__aeabi_f2uiz+0x28>
 8000754:	ea4f 2300 	mov.w	r3, r0, lsl #8
 8000758:	f043 4300 	orr.w	r3, r3, #2147483648	@ 0x80000000
 800075c:	fa23 f002 	lsr.w	r0, r3, r2
 8000760:	4770      	bx	lr
 8000762:	f04f 0000 	mov.w	r0, #0
 8000766:	4770      	bx	lr
 8000768:	f112 0f61 	cmn.w	r2, #97	@ 0x61
 800076c:	d101      	bne.n	8000772 <__aeabi_f2uiz+0x32>
 800076e:	0242      	lsls	r2, r0, #9
 8000770:	d102      	bne.n	8000778 <__aeabi_f2uiz+0x38>
 8000772:	f04f 30ff 	mov.w	r0, #4294967295
 8000776:	4770      	bx	lr
 8000778:	f04f 0000 	mov.w	r0, #0
 800077c:	4770      	bx	lr
 800077e:	bf00      	nop

08000780 <MX_GPIO_Init>:
  * @brief GPIO Initialization Function
  * @param None
  * @retval None
  */
static void MX_GPIO_Init(void)
{
 8000780:	e92d 41f0 	stmdb	sp!, {r4, r5, r6, r7, r8, lr}
 8000784:	b088      	sub	sp, #32
  GPIO_InitTypeDef GPIO_InitStruct = {0};
 8000786:	2400      	movs	r4, #0
 8000788:	9404      	str	r4, [sp, #16]
 800078a:	9405      	str	r4, [sp, #20]
 800078c:	9406      	str	r4, [sp, #24]
 800078e:	9407      	str	r4, [sp, #28]
  /* USER CODE BEGIN MX_GPIO_Init_1 */
  /* USER CODE END MX_GPIO_Init_1 */

  /* GPIO Ports Clock Enable */
  __HAL_RCC_GPIOC_CLK_ENABLE();
 8000790:	f44f 5380 	mov.w	r3, #4096	@ 0x1000
 8000794:	f2c4 0302 	movt	r3, #16386	@ 0x4002
 8000798:	699a      	ldr	r2, [r3, #24]
 800079a:	f042 0210 	orr.w	r2, r2, #16
 800079e:	619a      	str	r2, [r3, #24]
 80007a0:	699a      	ldr	r2, [r3, #24]
 80007a2:	f002 0210 	and.w	r2, r2, #16
 80007a6:	9200      	str	r2, [sp, #0]
 80007a8:	9a00      	ldr	r2, [sp, #0]
  __HAL_RCC_GPIOD_CLK_ENABLE();
 80007aa:	699a      	ldr	r2, [r3, #24]
 80007ac:	f042 0220 	orr.w	r2, r2, #32
 80007b0:	619a      	str	r2, [r3, #24]
 80007b2:	699a      	ldr	r2, [r3, #24]
 80007b4:	f002 0220 	and.w	r2, r2, #32
 80007b8:	9201      	str	r2, [sp, #4]
 80007ba:	9a01      	ldr	r2, [sp, #4]
  __HAL_RCC_GPIOA_CLK_ENABLE();
 80007bc:	699a      	ldr	r2, [r3, #24]
 80007be:	f042 0204 	orr.w	r2, r2, #4
 80007c2:	619a      	str	r2, [r3, #24]
 80007c4:	699a      	ldr	r2, [r3, #24]
 80007c6:	f002 0204 	and.w	r2, r2, #4
 80007ca:	9202      	str	r2, [sp, #8]
 80007cc:	9a02      	ldr	r2, [sp, #8]
  __HAL_RCC_GPIOB_CLK_ENABLE();
 80007ce:	699a      	ldr	r2, [r3, #24]
 80007d0:	f042 0208 	orr.w	r2, r2, #8
 80007d4:	619a      	str	r2, [r3, #24]
 80007d6:	699b      	ldr	r3, [r3, #24]
 80007d8:	f003 0308 	and.w	r3, r3, #8
 80007dc:	9303      	str	r3, [sp, #12]
 80007de:	9b03      	ldr	r3, [sp, #12]

  /*Configure GPIO pin Output Level */
  HAL_GPIO_WritePin(GPIOC, BUTTON_CLK_Pin|BUTTON_LOCK_Pin, GPIO_PIN_RESET);
 80007e0:	f44f 5680 	mov.w	r6, #4096	@ 0x1000
 80007e4:	f2c4 0601 	movt	r6, #16385	@ 0x4001
 80007e8:	4622      	mov	r2, r4
 80007ea:	f44f 41c0 	mov.w	r1, #24576	@ 0x6000
 80007ee:	4630      	mov	r0, r6
 80007f0:	f001 f9dd 	bl	8001bae <HAL_GPIO_WritePin>

  /*Configure GPIO pin Output Level */
  HAL_GPIO_WritePin(GPIOB, SPI2_SS_Pin|test_Pin, GPIO_PIN_RESET);
 80007f4:	f44f 6540 	mov.w	r5, #3072	@ 0xc00
 80007f8:	f2c4 0501 	movt	r5, #16385	@ 0x4001
 80007fc:	4622      	mov	r2, r4
 80007fe:	f44f 5181 	mov.w	r1, #4128	@ 0x1020
 8000802:	4628      	mov	r0, r5
 8000804:	f001 f9d3 	bl	8001bae <HAL_GPIO_WritePin>

  /*Configure GPIO pins : BUTTON_CLK_Pin BUTTON_LOCK_Pin */
  GPIO_InitStruct.Pin = BUTTON_CLK_Pin|BUTTON_LOCK_Pin;
 8000808:	f44f 43c0 	mov.w	r3, #24576	@ 0x6000
 800080c:	9304      	str	r3, [sp, #16]
  GPIO_InitStruct.Mode = GPIO_MODE_OUTPUT_PP;
 800080e:	2701      	movs	r7, #1
 8000810:	9705      	str	r7, [sp, #20]
  GPIO_InitStruct.Pull = GPIO_NOPULL;
 8000812:	9406      	str	r4, [sp, #24]
  GPIO_InitStruct.Speed = GPIO_SPEED_FREQ_LOW;
 8000814:	f04f 0802 	mov.w	r8, #2
 8000818:	f8cd 801c 	str.w	r8, [sp, #28]
  HAL_GPIO_Init(GPIOC, &GPIO_InitStruct);
 800081c:	a904      	add	r1, sp, #16
 800081e:	4630      	mov	r0, r6
 8000820:	f001 f888 	bl	8001934 <HAL_GPIO_Init>

  /*Configure GPIO pin : BUTTON_IN_Pin */
  GPIO_InitStruct.Pin = BUTTON_IN_Pin;
 8000824:	f44f 4300 	mov.w	r3, #32768	@ 0x8000
 8000828:	9304      	str	r3, [sp, #16]
  GPIO_InitStruct.Mode = GPIO_MODE_INPUT;
 800082a:	9405      	str	r4, [sp, #20]
  GPIO_InitStruct.Pull = GPIO_PULLDOWN;
 800082c:	f8cd 8018 	str.w	r8, [sp, #24]
  HAL_GPIO_Init(BUTTON_IN_GPIO_Port, &GPIO_InitStruct);
 8000830:	a904      	add	r1, sp, #16
 8000832:	4630      	mov	r0, r6
 8000834:	f001 f87e 	bl	8001934 <HAL_GPIO_Init>

  /*Configure GPIO pins : SWIT_0_Pin SWIT_1_Pin */
  GPIO_InitStruct.Pin = SWIT_0_Pin|SWIT_1_Pin;
 8000838:	2603      	movs	r6, #3
 800083a:	9604      	str	r6, [sp, #16]
  GPIO_InitStruct.Mode = GPIO_MODE_IT_RISING;
 800083c:	4623      	mov	r3, r4
 800083e:	f2c1 0311 	movt	r3, #4113	@ 0x1011
 8000842:	9305      	str	r3, [sp, #20]
  GPIO_InitStruct.Pull = GPIO_NOPULL;
 8000844:	9406      	str	r4, [sp, #24]
  HAL_GPIO_Init(GPIOA, &GPIO_InitStruct);
 8000846:	a904      	add	r1, sp, #16
 8000848:	f44f 6000 	mov.w	r0, #2048	@ 0x800
 800084c:	f2c4 0001 	movt	r0, #16385	@ 0x4001
 8000850:	f001 f870 	bl	8001934 <HAL_GPIO_Init>

  /*Configure GPIO pin : SPI2_SS_Pin */
  GPIO_InitStruct.Pin = SPI2_SS_Pin;
 8000854:	f44f 5380 	mov.w	r3, #4096	@ 0x1000
 8000858:	9304      	str	r3, [sp, #16]
  GPIO_InitStruct.Mode = GPIO_MODE_OUTPUT_PP;
 800085a:	9705      	str	r7, [sp, #20]
  GPIO_InitStruct.Pull = GPIO_NOPULL;
 800085c:	9406      	str	r4, [sp, #24]
  GPIO_InitStruct.Speed = GPIO_SPEED_FREQ_LOW;
 800085e:	f8cd 801c 	str.w	r8, [sp, #28]
  HAL_GPIO_Init(SPI2_SS_GPIO_Port, &GPIO_InitStruct);
 8000862:	a904      	add	r1, sp, #16
 8000864:	4628      	mov	r0, r5
 8000866:	f001 f865 	bl	8001934 <HAL_GPIO_Init>

  /*Configure GPIO pin : test_Pin */
  GPIO_InitStruct.Pin = test_Pin;
 800086a:	2320      	movs	r3, #32
 800086c:	9304      	str	r3, [sp, #16]
  GPIO_InitStruct.Mode = GPIO_MODE_OUTPUT_PP;
 800086e:	9705      	str	r7, [sp, #20]
  GPIO_InitStruct.Pull = GPIO_NOPULL;
 8000870:	9406      	str	r4, [sp, #24]
  GPIO_InitStruct.Speed = GPIO_SPEED_FREQ_HIGH;
 8000872:	9607      	str	r6, [sp, #28]
  HAL_GPIO_Init(test_GPIO_Port, &GPIO_InitStruct);
 8000874:	a904      	add	r1, sp, #16
 8000876:	4628      	mov	r0, r5
 8000878:	f001 f85c 	bl	8001934 <HAL_GPIO_Init>

  /*Configure GPIO pin : SHIFTER_MODIFIER_Pin */
  GPIO_InitStruct.Pin = SHIFTER_MODIFIER_Pin;
 800087c:	f44f 7300 	mov.w	r3, #512	@ 0x200
 8000880:	9304      	str	r3, [sp, #16]
  GPIO_InitStruct.Mode = GPIO_MODE_INPUT;
 8000882:	9405      	str	r4, [sp, #20]
  GPIO_InitStruct.Pull = GPIO_PULLDOWN;
 8000884:	f8cd 8018 	str.w	r8, [sp, #24]
  HAL_GPIO_Init(SHIFTER_MODIFIER_GPIO_Port, &GPIO_InitStruct);
 8000888:	a904      	add	r1, sp, #16
 800088a:	4628      	mov	r0, r5
 800088c:	f001 f852 	bl	8001934 <HAL_GPIO_Init>

  /* EXTI interrupt init*/
  HAL_NVIC_SetPriority(EXTI0_IRQn, 1, 0);
 8000890:	4622      	mov	r2, r4
 8000892:	4639      	mov	r1, r7
 8000894:	2006      	movs	r0, #6
 8000896:	f000 feb5 	bl	8001604 <HAL_NVIC_SetPriority>
  HAL_NVIC_EnableIRQ(EXTI0_IRQn);
 800089a:	2006      	movs	r0, #6
 800089c:	f000 fec2 	bl	8001624 <HAL_NVIC_EnableIRQ>

  HAL_NVIC_SetPriority(EXTI1_IRQn, 4, 0);
 80008a0:	4622      	mov	r2, r4
 80008a2:	2104      	movs	r1, #4
 80008a4:	2007      	movs	r0, #7
 80008a6:	f000 fead 	bl	8001604 <HAL_NVIC_SetPriority>
  HAL_NVIC_EnableIRQ(EXTI1_IRQn);
 80008aa:	2007      	movs	r0, #7
 80008ac:	f000 feba 	bl	8001624 <HAL_NVIC_EnableIRQ>

  /* USER CODE BEGIN MX_GPIO_Init_2 */
  /* USER CODE END MX_GPIO_Init_2 */
}
 80008b0:	b008      	add	sp, #32
 80008b2:	e8bd 81f0 	ldmia.w	sp!, {r4, r5, r6, r7, r8, pc}

080008b6 <MX_DMA_Init>:
{
 80008b6:	b500      	push	{lr}
 80008b8:	b083      	sub	sp, #12
  __HAL_RCC_DMA1_CLK_ENABLE();
 80008ba:	f44f 5380 	mov.w	r3, #4096	@ 0x1000
 80008be:	f2c4 0302 	movt	r3, #16386	@ 0x4002
 80008c2:	695a      	ldr	r2, [r3, #20]
 80008c4:	f042 0201 	orr.w	r2, r2, #1
 80008c8:	615a      	str	r2, [r3, #20]
 80008ca:	695b      	ldr	r3, [r3, #20]
 80008cc:	f003 0301 	and.w	r3, r3, #1
 80008d0:	9301      	str	r3, [sp, #4]
 80008d2:	9b01      	ldr	r3, [sp, #4]
  HAL_NVIC_SetPriority(DMA1_Channel1_IRQn, 10, 0);
 80008d4:	2200      	movs	r2, #0
 80008d6:	210a      	movs	r1, #10
 80008d8:	200b      	movs	r0, #11
 80008da:	f000 fe93 	bl	8001604 <HAL_NVIC_SetPriority>
  HAL_NVIC_EnableIRQ(DMA1_Channel1_IRQn);
 80008de:	200b      	movs	r0, #11
 80008e0:	f000 fea0 	bl	8001624 <HAL_NVIC_EnableIRQ>
  HAL_NVIC_SetPriority(DMA1_Channel4_IRQn, 3, 0);
 80008e4:	2200      	movs	r2, #0
 80008e6:	2103      	movs	r1, #3
 80008e8:	200e      	movs	r0, #14
 80008ea:	f000 fe8b 	bl	8001604 <HAL_NVIC_SetPriority>
  HAL_NVIC_EnableIRQ(DMA1_Channel4_IRQn);
 80008ee:	200e      	movs	r0, #14
 80008f0:	f000 fe98 	bl	8001624 <HAL_NVIC_EnableIRQ>
  HAL_NVIC_SetPriority(DMA1_Channel5_IRQn, 3, 0);
 80008f4:	2200      	movs	r2, #0
 80008f6:	2103      	movs	r1, #3
 80008f8:	200f      	movs	r0, #15
 80008fa:	f000 fe83 	bl	8001604 <HAL_NVIC_SetPriority>
  HAL_NVIC_EnableIRQ(DMA1_Channel5_IRQn);
 80008fe:	200f      	movs	r0, #15
 8000900:	f000 fe90 	bl	8001624 <HAL_NVIC_EnableIRQ>
}
 8000904:	b003      	add	sp, #12
 8000906:	f85d fb04 	ldr.w	pc, [sp], #4

0800090a <Error_Handler>:
  \details Disables IRQ interrupts by setting the I-bit in the CPSR.
           Can only be executed in Privileged modes.
 */
__STATIC_FORCEINLINE void __disable_irq(void)
{
  __ASM volatile ("cpsid i" : : : "memory");
 800090a:	b672      	cpsid	i
void Error_Handler(void)
{
  /* USER CODE BEGIN Error_Handler_Debug */
	/* User can add his own implementation to report the HAL error return state */
	__disable_irq();
	while (1) {
 800090c:	e7fe      	b.n	800090c <Error_Handler+0x2>

0800090e <MX_SPI2_Init>:
{
 800090e:	b508      	push	{r3, lr}
  hspi2.Instance = SPI2;
 8000910:	f241 00d8 	movw	r0, #4312	@ 0x10d8
 8000914:	f2c2 0000 	movt	r0, #8192	@ 0x2000
 8000918:	f44f 5360 	mov.w	r3, #14336	@ 0x3800
 800091c:	f2c4 0300 	movt	r3, #16384	@ 0x4000
 8000920:	6003      	str	r3, [r0, #0]
  hspi2.Init.Mode = SPI_MODE_MASTER;
 8000922:	f44f 7382 	mov.w	r3, #260	@ 0x104
 8000926:	6043      	str	r3, [r0, #4]
  hspi2.Init.Direction = SPI_DIRECTION_2LINES;
 8000928:	2300      	movs	r3, #0
 800092a:	6083      	str	r3, [r0, #8]
  hspi2.Init.DataSize = SPI_DATASIZE_8BIT;
 800092c:	60c3      	str	r3, [r0, #12]
  hspi2.Init.CLKPolarity = SPI_POLARITY_LOW;
 800092e:	6103      	str	r3, [r0, #16]
  hspi2.Init.CLKPhase = SPI_PHASE_2EDGE;
 8000930:	2201      	movs	r2, #1
 8000932:	6142      	str	r2, [r0, #20]
  hspi2.Init.NSS = SPI_NSS_SOFT;
 8000934:	f44f 7200 	mov.w	r2, #512	@ 0x200
 8000938:	6182      	str	r2, [r0, #24]
  hspi2.Init.BaudRatePrescaler = SPI_BAUDRATEPRESCALER_32;
 800093a:	2220      	movs	r2, #32
 800093c:	61c2      	str	r2, [r0, #28]
  hspi2.Init.FirstBit = SPI_FIRSTBIT_MSB;
 800093e:	6203      	str	r3, [r0, #32]
  hspi2.Init.TIMode = SPI_TIMODE_DISABLE;
 8000940:	6243      	str	r3, [r0, #36]	@ 0x24
  hspi2.Init.CRCCalculation = SPI_CRCCALCULATION_DISABLE;
 8000942:	6283      	str	r3, [r0, #40]	@ 0x28
  hspi2.Init.CRCPolynomial = 10;
 8000944:	230a      	movs	r3, #10
 8000946:	62c3      	str	r3, [r0, #44]	@ 0x2c
  if (HAL_SPI_Init(&hspi2) != HAL_OK)
 8000948:	f002 fe75 	bl	8003636 <HAL_SPI_Init>
 800094c:	b900      	cbnz	r0, 8000950 <MX_SPI2_Init+0x42>
}
 800094e:	bd08      	pop	{r3, pc}
    Error_Handler();
 8000950:	f7ff ffdb 	bl	800090a <Error_Handler>

08000954 <MX_TIM4_Init>:
{
 8000954:	b500      	push	{lr}
 8000956:	b087      	sub	sp, #28
  TIM_ClockConfigTypeDef sClockSourceConfig = {0};
 8000958:	2300      	movs	r3, #0
 800095a:	9302      	str	r3, [sp, #8]
 800095c:	9303      	str	r3, [sp, #12]
 800095e:	9304      	str	r3, [sp, #16]
 8000960:	9305      	str	r3, [sp, #20]
  TIM_MasterConfigTypeDef sMasterConfig = {0};
 8000962:	9300      	str	r3, [sp, #0]
 8000964:	9301      	str	r3, [sp, #4]
  htim4.Instance = TIM4;
 8000966:	f640 70c0 	movw	r0, #4032	@ 0xfc0
 800096a:	f2c2 0000 	movt	r0, #8192	@ 0x2000
 800096e:	f44f 6200 	mov.w	r2, #2048	@ 0x800
 8000972:	f2c4 0200 	movt	r2, #16384	@ 0x4000
 8000976:	6002      	str	r2, [r0, #0]
  htim4.Init.Prescaler = 72-1;
 8000978:	2247      	movs	r2, #71	@ 0x47
 800097a:	6042      	str	r2, [r0, #4]
  htim4.Init.CounterMode = TIM_COUNTERMODE_UP;
 800097c:	6083      	str	r3, [r0, #8]
  htim4.Init.Period = 1300;
 800097e:	f240 5214 	movw	r2, #1300	@ 0x514
 8000982:	60c2      	str	r2, [r0, #12]
  htim4.Init.ClockDivision = TIM_CLOCKDIVISION_DIV1;
 8000984:	6103      	str	r3, [r0, #16]
  htim4.Init.AutoReloadPreload = TIM_AUTORELOAD_PRELOAD_DISABLE;
 8000986:	6183      	str	r3, [r0, #24]
  if (HAL_TIM_Base_Init(&htim4) != HAL_OK)
 8000988:	f003 fa4b 	bl	8003e22 <HAL_TIM_Base_Init>
 800098c:	b9c0      	cbnz	r0, 80009c0 <MX_TIM4_Init+0x6c>
  sClockSourceConfig.ClockSource = TIM_CLOCKSOURCE_INTERNAL;
 800098e:	f44f 5380 	mov.w	r3, #4096	@ 0x1000
 8000992:	9302      	str	r3, [sp, #8]
  if (HAL_TIM_ConfigClockSource(&htim4, &sClockSourceConfig) != HAL_OK)
 8000994:	a902      	add	r1, sp, #8
 8000996:	f640 70c0 	movw	r0, #4032	@ 0xfc0
 800099a:	f2c2 0000 	movt	r0, #8192	@ 0x2000
 800099e:	f003 fa78 	bl	8003e92 <HAL_TIM_ConfigClockSource>
 80009a2:	b978      	cbnz	r0, 80009c4 <MX_TIM4_Init+0x70>
  sMasterConfig.MasterOutputTrigger = TIM_TRGO_RESET;
 80009a4:	2300      	movs	r3, #0
 80009a6:	9300      	str	r3, [sp, #0]
  sMasterConfig.MasterSlaveMode = TIM_MASTERSLAVEMODE_DISABLE;
 80009a8:	9301      	str	r3, [sp, #4]
  if (HAL_TIMEx_MasterConfigSynchronization(&htim4, &sMasterConfig) != HAL_OK)
 80009aa:	4669      	mov	r1, sp
 80009ac:	f640 70c0 	movw	r0, #4032	@ 0xfc0
 80009b0:	f2c2 0000 	movt	r0, #8192	@ 0x2000
 80009b4:	f003 faec 	bl	8003f90 <HAL_TIMEx_MasterConfigSynchronization>
 80009b8:	b930      	cbnz	r0, 80009c8 <MX_TIM4_Init+0x74>
}
 80009ba:	b007      	add	sp, #28
 80009bc:	f85d fb04 	ldr.w	pc, [sp], #4
    Error_Handler();
 80009c0:	f7ff ffa3 	bl	800090a <Error_Handler>
    Error_Handler();
 80009c4:	f7ff ffa1 	bl	800090a <Error_Handler>
    Error_Handler();
 80009c8:	f7ff ff9f 	bl	800090a <Error_Handler>

080009cc <MX_ADC1_Init>:
{
 80009cc:	b500      	push	{lr}
 80009ce:	b085      	sub	sp, #20
  ADC_ChannelConfTypeDef sConfig = {0};
 80009d0:	2300      	movs	r3, #0
 80009d2:	9301      	str	r3, [sp, #4]
 80009d4:	9302      	str	r3, [sp, #8]
 80009d6:	9303      	str	r3, [sp, #12]
  hadc1.Instance = ADC1;
 80009d8:	f241 1074 	movw	r0, #4468	@ 0x1174
 80009dc:	f2c2 0000 	movt	r0, #8192	@ 0x2000
 80009e0:	f44f 5210 	mov.w	r2, #9216	@ 0x2400
 80009e4:	f2c4 0201 	movt	r2, #16385	@ 0x4001
 80009e8:	6002      	str	r2, [r0, #0]
  hadc1.Init.ScanConvMode = ADC_SCAN_ENABLE;
 80009ea:	f44f 7280 	mov.w	r2, #256	@ 0x100
 80009ee:	6082      	str	r2, [r0, #8]
  hadc1.Init.ContinuousConvMode = ENABLE;
 80009f0:	2201      	movs	r2, #1
 80009f2:	7302      	strb	r2, [r0, #12]
  hadc1.Init.DiscontinuousConvMode = DISABLE;
 80009f4:	7503      	strb	r3, [r0, #20]
  hadc1.Init.ExternalTrigConv = ADC_SOFTWARE_START;
 80009f6:	f44f 2360 	mov.w	r3, #917504	@ 0xe0000
 80009fa:	61c3      	str	r3, [r0, #28]
  hadc1.Init.DataAlign = ADC_DATAALIGN_LEFT;
 80009fc:	f44f 6300 	mov.w	r3, #2048	@ 0x800
 8000a00:	6043      	str	r3, [r0, #4]
  hadc1.Init.NbrOfConversion = 5;
 8000a02:	2305      	movs	r3, #5
 8000a04:	6103      	str	r3, [r0, #16]
  if (HAL_ADC_Init(&hadc1) != HAL_OK)
 8000a06:	f000 fcff 	bl	8001408 <HAL_ADC_Init>
 8000a0a:	2800      	cmp	r0, #0
 8000a0c:	d13e      	bne.n	8000a8c <MX_ADC1_Init+0xc0>
  sConfig.Channel = ADC_CHANNEL_7;
 8000a0e:	2307      	movs	r3, #7
 8000a10:	9301      	str	r3, [sp, #4]
  sConfig.Rank = ADC_REGULAR_RANK_1;
 8000a12:	2201      	movs	r2, #1
 8000a14:	9202      	str	r2, [sp, #8]
  sConfig.SamplingTime = ADC_SAMPLETIME_239CYCLES_5;
 8000a16:	9303      	str	r3, [sp, #12]
  if (HAL_ADC_ConfigChannel(&hadc1, &sConfig) != HAL_OK)
 8000a18:	a901      	add	r1, sp, #4
 8000a1a:	f241 1074 	movw	r0, #4468	@ 0x1174
 8000a1e:	f2c2 0000 	movt	r0, #8192	@ 0x2000
 8000a22:	f000 fb33 	bl	800108c <HAL_ADC_ConfigChannel>
 8000a26:	bb98      	cbnz	r0, 8000a90 <MX_ADC1_Init+0xc4>
  sConfig.Channel = ADC_CHANNEL_8;
 8000a28:	2308      	movs	r3, #8
 8000a2a:	9301      	str	r3, [sp, #4]
  sConfig.Rank = ADC_REGULAR_RANK_2;
 8000a2c:	2302      	movs	r3, #2
 8000a2e:	9302      	str	r3, [sp, #8]
  if (HAL_ADC_ConfigChannel(&hadc1, &sConfig) != HAL_OK)
 8000a30:	a901      	add	r1, sp, #4
 8000a32:	f241 1074 	movw	r0, #4468	@ 0x1174
 8000a36:	f2c2 0000 	movt	r0, #8192	@ 0x2000
 8000a3a:	f000 fb27 	bl	800108c <HAL_ADC_ConfigChannel>
 8000a3e:	bb48      	cbnz	r0, 8000a94 <MX_ADC1_Init+0xc8>
  sConfig.Channel = ADC_CHANNEL_9;
 8000a40:	2309      	movs	r3, #9
 8000a42:	9301      	str	r3, [sp, #4]
  sConfig.Rank = ADC_REGULAR_RANK_3;
 8000a44:	2303      	movs	r3, #3
 8000a46:	9302      	str	r3, [sp, #8]
  if (HAL_ADC_ConfigChannel(&hadc1, &sConfig) != HAL_OK)
 8000a48:	a901      	add	r1, sp, #4
 8000a4a:	f241 1074 	movw	r0, #4468	@ 0x1174
 8000a4e:	f2c2 0000 	movt	r0, #8192	@ 0x2000
 8000a52:	f000 fb1b 	bl	800108c <HAL_ADC_ConfigChannel>
 8000a56:	b9f8      	cbnz	r0, 8000a98 <MX_ADC1_Init+0xcc>
  sConfig.Channel = ADC_CHANNEL_4;
 8000a58:	2304      	movs	r3, #4
 8000a5a:	9301      	str	r3, [sp, #4]
  sConfig.Rank = ADC_REGULAR_RANK_4;
 8000a5c:	9302      	str	r3, [sp, #8]
  if (HAL_ADC_ConfigChannel(&hadc1, &sConfig) != HAL_OK)
 8000a5e:	eb0d 0103 	add.w	r1, sp, r3
 8000a62:	f241 1074 	movw	r0, #4468	@ 0x1174
 8000a66:	f2c2 0000 	movt	r0, #8192	@ 0x2000
 8000a6a:	f000 fb0f 	bl	800108c <HAL_ADC_ConfigChannel>
 8000a6e:	b9a8      	cbnz	r0, 8000a9c <MX_ADC1_Init+0xd0>
  sConfig.Channel = ADC_CHANNEL_5;
 8000a70:	2305      	movs	r3, #5
 8000a72:	9301      	str	r3, [sp, #4]
  sConfig.Rank = ADC_REGULAR_RANK_5;
 8000a74:	9302      	str	r3, [sp, #8]
  if (HAL_ADC_ConfigChannel(&hadc1, &sConfig) != HAL_OK)
 8000a76:	a901      	add	r1, sp, #4
 8000a78:	f241 1074 	movw	r0, #4468	@ 0x1174
 8000a7c:	f2c2 0000 	movt	r0, #8192	@ 0x2000
 8000a80:	f000 fb04 	bl	800108c <HAL_ADC_ConfigChannel>
 8000a84:	b960      	cbnz	r0, 8000aa0 <MX_ADC1_Init+0xd4>
}
 8000a86:	b005      	add	sp, #20
 8000a88:	f85d fb04 	ldr.w	pc, [sp], #4
    Error_Handler();
 8000a8c:	f7ff ff3d 	bl	800090a <Error_Handler>
    Error_Handler();
 8000a90:	f7ff ff3b 	bl	800090a <Error_Handler>
    Error_Handler();
 8000a94:	f7ff ff39 	bl	800090a <Error_Handler>
    Error_Handler();
 8000a98:	f7ff ff37 	bl	800090a <Error_Handler>
    Error_Handler();
 8000a9c:	f7ff ff35 	bl	800090a <Error_Handler>
    Error_Handler();
 8000aa0:	f7ff ff33 	bl	800090a <Error_Handler>

08000aa4 <MX_TIM3_Init>:
{
 8000aa4:	b500      	push	{lr}
 8000aa6:	b087      	sub	sp, #28
  TIM_ClockConfigTypeDef sClockSourceConfig = {0};
 8000aa8:	2300      	movs	r3, #0
 8000aaa:	9302      	str	r3, [sp, #8]
 8000aac:	9303      	str	r3, [sp, #12]
 8000aae:	9304      	str	r3, [sp, #16]
 8000ab0:	9305      	str	r3, [sp, #20]
  TIM_MasterConfigTypeDef sMasterConfig = {0};
 8000ab2:	9300      	str	r3, [sp, #0]
 8000ab4:	9301      	str	r3, [sp, #4]
  htim3.Instance = TIM3;
 8000ab6:	f241 0008 	movw	r0, #4104	@ 0x1008
 8000aba:	f2c2 0000 	movt	r0, #8192	@ 0x2000
 8000abe:	f44f 6280 	mov.w	r2, #1024	@ 0x400
 8000ac2:	f2c4 0200 	movt	r2, #16384	@ 0x4000
 8000ac6:	6002      	str	r2, [r0, #0]
  htim3.Init.Prescaler = 72-1;
 8000ac8:	2247      	movs	r2, #71	@ 0x47
 8000aca:	6042      	str	r2, [r0, #4]
  htim3.Init.CounterMode = TIM_COUNTERMODE_UP;
 8000acc:	6083      	str	r3, [r0, #8]
  htim3.Init.Period = 1000;
 8000ace:	f44f 727a 	mov.w	r2, #1000	@ 0x3e8
 8000ad2:	60c2      	str	r2, [r0, #12]
  htim3.Init.ClockDivision = TIM_CLOCKDIVISION_DIV1;
 8000ad4:	6103      	str	r3, [r0, #16]
  htim3.Init.AutoReloadPreload = TIM_AUTORELOAD_PRELOAD_DISABLE;
 8000ad6:	6183      	str	r3, [r0, #24]
  if (HAL_TIM_Base_Init(&htim3) != HAL_OK)
 8000ad8:	f003 f9a3 	bl	8003e22 <HAL_TIM_Base_Init>
 8000adc:	bb10      	cbnz	r0, 8000b24 <MX_TIM3_Init+0x80>
  sClockSourceConfig.ClockSource = TIM_CLOCKSOURCE_INTERNAL;
 8000ade:	f44f 5380 	mov.w	r3, #4096	@ 0x1000
 8000ae2:	9302      	str	r3, [sp, #8]
  if (HAL_TIM_ConfigClockSource(&htim3, &sClockSourceConfig) != HAL_OK)
 8000ae4:	a902      	add	r1, sp, #8
 8000ae6:	f241 0008 	movw	r0, #4104	@ 0x1008
 8000aea:	f2c2 0000 	movt	r0, #8192	@ 0x2000
 8000aee:	f003 f9d0 	bl	8003e92 <HAL_TIM_ConfigClockSource>
 8000af2:	b9c8      	cbnz	r0, 8000b28 <MX_TIM3_Init+0x84>
  sMasterConfig.MasterOutputTrigger = TIM_TRGO_RESET;
 8000af4:	2300      	movs	r3, #0
 8000af6:	9300      	str	r3, [sp, #0]
  sMasterConfig.MasterSlaveMode = TIM_MASTERSLAVEMODE_DISABLE;
 8000af8:	9301      	str	r3, [sp, #4]
  if (HAL_TIMEx_MasterConfigSynchronization(&htim3, &sMasterConfig) != HAL_OK)
 8000afa:	4669      	mov	r1, sp
 8000afc:	f241 0008 	movw	r0, #4104	@ 0x1008
 8000b00:	f2c2 0000 	movt	r0, #8192	@ 0x2000
 8000b04:	f003 fa44 	bl	8003f90 <HAL_TIMEx_MasterConfigSynchronization>
 8000b08:	b980      	cbnz	r0, 8000b2c <MX_TIM3_Init+0x88>
	htim3.Init.Period = SAMPLE_TIME_US;
 8000b0a:	f241 0008 	movw	r0, #4104	@ 0x1008
 8000b0e:	f2c2 0000 	movt	r0, #8192	@ 0x2000
 8000b12:	f44f 737a 	mov.w	r3, #1000	@ 0x3e8
 8000b16:	60c3      	str	r3, [r0, #12]
	if (HAL_TIM_Base_Init(&htim3) != HAL_OK) {
 8000b18:	f003 f983 	bl	8003e22 <HAL_TIM_Base_Init>
 8000b1c:	b940      	cbnz	r0, 8000b30 <MX_TIM3_Init+0x8c>
}
 8000b1e:	b007      	add	sp, #28
 8000b20:	f85d fb04 	ldr.w	pc, [sp], #4
    Error_Handler();
 8000b24:	f7ff fef1 	bl	800090a <Error_Handler>
    Error_Handler();
 8000b28:	f7ff feef 	bl	800090a <Error_Handler>
    Error_Handler();
 8000b2c:	f7ff feed 	bl	800090a <Error_Handler>
		Error_Handler();
 8000b30:	f7ff feeb 	bl	800090a <Error_Handler>

08000b34 <SystemClock_Config>:
{
 8000b34:	b500      	push	{lr}
 8000b36:	b095      	sub	sp, #84	@ 0x54
  RCC_OscInitTypeDef RCC_OscInitStruct = {0};
 8000b38:	2228      	movs	r2, #40	@ 0x28
 8000b3a:	2100      	movs	r1, #0
 8000b3c:	eb0d 0002 	add.w	r0, sp, r2
 8000b40:	f007 f8e9 	bl	8007d16 <memset>
  RCC_ClkInitTypeDef RCC_ClkInitStruct = {0};
 8000b44:	2300      	movs	r3, #0
 8000b46:	9305      	str	r3, [sp, #20]
 8000b48:	9306      	str	r3, [sp, #24]
 8000b4a:	9307      	str	r3, [sp, #28]
 8000b4c:	9308      	str	r3, [sp, #32]
 8000b4e:	9309      	str	r3, [sp, #36]	@ 0x24
  RCC_PeriphCLKInitTypeDef PeriphClkInit = {0};
 8000b50:	9301      	str	r3, [sp, #4]
 8000b52:	9302      	str	r3, [sp, #8]
 8000b54:	9303      	str	r3, [sp, #12]
 8000b56:	9304      	str	r3, [sp, #16]
  RCC_OscInitStruct.OscillatorType = RCC_OSCILLATORTYPE_HSE;
 8000b58:	2201      	movs	r2, #1
 8000b5a:	920a      	str	r2, [sp, #40]	@ 0x28
  RCC_OscInitStruct.HSEState = RCC_HSE_ON;
 8000b5c:	f44f 3380 	mov.w	r3, #65536	@ 0x10000
 8000b60:	930b      	str	r3, [sp, #44]	@ 0x2c
  RCC_OscInitStruct.HSIState = RCC_HSI_ON;
 8000b62:	920e      	str	r2, [sp, #56]	@ 0x38
  RCC_OscInitStruct.PLL.PLLState = RCC_PLL_ON;
 8000b64:	2202      	movs	r2, #2
 8000b66:	9211      	str	r2, [sp, #68]	@ 0x44
  RCC_OscInitStruct.PLL.PLLSource = RCC_PLLSOURCE_HSE;
 8000b68:	9312      	str	r3, [sp, #72]	@ 0x48
  RCC_OscInitStruct.PLL.PLLMUL = RCC_PLL_MUL9;
 8000b6a:	f44f 13e0 	mov.w	r3, #1835008	@ 0x1c0000
 8000b6e:	9313      	str	r3, [sp, #76]	@ 0x4c
  if (HAL_RCC_OscConfig(&RCC_OscInitStruct) != HAL_OK)
 8000b70:	a80a      	add	r0, sp, #40	@ 0x28
 8000b72:	f002 f863 	bl	8002c3c <HAL_RCC_OscConfig>
 8000b76:	b9d8      	cbnz	r0, 8000bb0 <SystemClock_Config+0x7c>
  RCC_ClkInitStruct.ClockType = RCC_CLOCKTYPE_HCLK|RCC_CLOCKTYPE_SYSCLK
 8000b78:	230f      	movs	r3, #15
 8000b7a:	9305      	str	r3, [sp, #20]
  RCC_ClkInitStruct.SYSCLKSource = RCC_SYSCLKSOURCE_PLLCLK;
 8000b7c:	2102      	movs	r1, #2
 8000b7e:	9106      	str	r1, [sp, #24]
  RCC_ClkInitStruct.AHBCLKDivider = RCC_SYSCLK_DIV1;
 8000b80:	2300      	movs	r3, #0
 8000b82:	9307      	str	r3, [sp, #28]
  RCC_ClkInitStruct.APB1CLKDivider = RCC_HCLK_DIV2;
 8000b84:	f44f 6280 	mov.w	r2, #1024	@ 0x400
 8000b88:	9208      	str	r2, [sp, #32]
  RCC_ClkInitStruct.APB2CLKDivider = RCC_HCLK_DIV1;
 8000b8a:	9309      	str	r3, [sp, #36]	@ 0x24
  if (HAL_RCC_ClockConfig(&RCC_ClkInitStruct, FLASH_LATENCY_2) != HAL_OK)
 8000b8c:	a805      	add	r0, sp, #20
 8000b8e:	f002 fb03 	bl	8003198 <HAL_RCC_ClockConfig>
 8000b92:	b978      	cbnz	r0, 8000bb4 <SystemClock_Config+0x80>
  PeriphClkInit.PeriphClockSelection = RCC_PERIPHCLK_ADC|RCC_PERIPHCLK_USB;
 8000b94:	2312      	movs	r3, #18
 8000b96:	9301      	str	r3, [sp, #4]
  PeriphClkInit.AdcClockSelection = RCC_ADCPCLK2_DIV6;
 8000b98:	f44f 4300 	mov.w	r3, #32768	@ 0x8000
 8000b9c:	9303      	str	r3, [sp, #12]
  PeriphClkInit.UsbClockSelection = RCC_USBCLKSOURCE_PLL_DIV1_5;
 8000b9e:	2300      	movs	r3, #0
 8000ba0:	9304      	str	r3, [sp, #16]
  if (HAL_RCCEx_PeriphCLKConfig(&PeriphClkInit) != HAL_OK)
 8000ba2:	a801      	add	r0, sp, #4
 8000ba4:	f002 fbda 	bl	800335c <HAL_RCCEx_PeriphCLKConfig>
 8000ba8:	b930      	cbnz	r0, 8000bb8 <SystemClock_Config+0x84>
}
 8000baa:	b015      	add	sp, #84	@ 0x54
 8000bac:	f85d fb04 	ldr.w	pc, [sp], #4
    Error_Handler();
 8000bb0:	f7ff feab 	bl	800090a <Error_Handler>
    Error_Handler();
 8000bb4:	f7ff fea9 	bl	800090a <Error_Handler>
    Error_Handler();
 8000bb8:	f7ff fea7 	bl	800090a <Error_Handler>

08000bbc <main>:
{
 8000bbc:	b508      	push	{r3, lr}
  HAL_Init();
 8000bbe:	f000 f9ee 	bl	8000f9e <HAL_Init>
  SystemClock_Config();
 8000bc2:	f7ff ffb7 	bl	8000b34 <SystemClock_Config>
  MX_GPIO_Init();
 8000bc6:	f7ff fddb 	bl	8000780 <MX_GPIO_Init>
  MX_DMA_Init();
 8000bca:	f7ff fe74 	bl	80008b6 <MX_DMA_Init>
  MX_USB_DEVICE_Init();
 8000bce:	f005 fece 	bl	800696e <MX_USB_DEVICE_Init>
  MX_SPI2_Init();
 8000bd2:	f7ff fe9c 	bl	800090e <MX_SPI2_Init>
  MX_TIM4_Init();
 8000bd6:	f7ff febd 	bl	8000954 <MX_TIM4_Init>
  MX_ADC1_Init();
 8000bda:	f7ff fef7 	bl	80009cc <MX_ADC1_Init>
  MX_TIM3_Init();
 8000bde:	f7ff ff61 	bl	8000aa4 <MX_TIM3_Init>
	wheel_startup();
 8000be2:	f006 fcbd 	bl	8007560 <wheel_startup>
	while (1) {
 8000be6:	e7fe      	b.n	8000be6 <main+0x2a>

08000be8 <HAL_MspInit>:
/* USER CODE END 0 */
/**
  * Initializes the Global MSP.
  */
void HAL_MspInit(void)
{
 8000be8:	b082      	sub	sp, #8

  /* USER CODE BEGIN MspInit 0 */

  /* USER CODE END MspInit 0 */

  __HAL_RCC_AFIO_CLK_ENABLE();
 8000bea:	f44f 5380 	mov.w	r3, #4096	@ 0x1000
 8000bee:	f2c4 0302 	movt	r3, #16386	@ 0x4002
 8000bf2:	699a      	ldr	r2, [r3, #24]
 8000bf4:	f042 0201 	orr.w	r2, r2, #1
 8000bf8:	619a      	str	r2, [r3, #24]
 8000bfa:	699a      	ldr	r2, [r3, #24]
 8000bfc:	f002 0201 	and.w	r2, r2, #1
 8000c00:	9200      	str	r2, [sp, #0]
 8000c02:	9a00      	ldr	r2, [sp, #0]
  __HAL_RCC_PWR_CLK_ENABLE();
 8000c04:	69da      	ldr	r2, [r3, #28]
 8000c06:	f042 5280 	orr.w	r2, r2, #268435456	@ 0x10000000
 8000c0a:	61da      	str	r2, [r3, #28]
 8000c0c:	69db      	ldr	r3, [r3, #28]
 8000c0e:	f003 5380 	and.w	r3, r3, #268435456	@ 0x10000000
 8000c12:	9301      	str	r3, [sp, #4]
 8000c14:	9b01      	ldr	r3, [sp, #4]

  /* System interrupt init*/

  /** NOJTAG: JTAG-DP Disabled and SW-DP Enabled
  */
  __HAL_AFIO_REMAP_SWJ_NOJTAG();
 8000c16:	2200      	movs	r2, #0
 8000c18:	f2c4 0201 	movt	r2, #16385	@ 0x4001
 8000c1c:	6853      	ldr	r3, [r2, #4]
 8000c1e:	f023 63e0 	bic.w	r3, r3, #117440512	@ 0x7000000
 8000c22:	f043 7300 	orr.w	r3, r3, #33554432	@ 0x2000000
 8000c26:	6053      	str	r3, [r2, #4]

  /* USER CODE BEGIN MspInit 1 */

  /* USER CODE END MspInit 1 */
}
 8000c28:	b002      	add	sp, #8
 8000c2a:	4770      	bx	lr

08000c2c <HAL_ADC_MspInit>:
  * This function configures the hardware resources used in this example
  * @param hadc: ADC handle pointer
  * @retval None
  */
void HAL_ADC_MspInit(ADC_HandleTypeDef* hadc)
{
 8000c2c:	b530      	push	{r4, r5, lr}
 8000c2e:	b089      	sub	sp, #36	@ 0x24
  GPIO_InitTypeDef GPIO_InitStruct = {0};
 8000c30:	2300      	movs	r3, #0
 8000c32:	9304      	str	r3, [sp, #16]
 8000c34:	9305      	str	r3, [sp, #20]
 8000c36:	9306      	str	r3, [sp, #24]
 8000c38:	9307      	str	r3, [sp, #28]
  if(hadc->Instance==ADC1)
 8000c3a:	6802      	ldr	r2, [r0, #0]
 8000c3c:	f44f 5310 	mov.w	r3, #9216	@ 0x2400
 8000c40:	f2c4 0301 	movt	r3, #16385	@ 0x4001
 8000c44:	429a      	cmp	r2, r3
 8000c46:	d001      	beq.n	8000c4c <HAL_ADC_MspInit+0x20>

    /* USER CODE END ADC1_MspInit 1 */

  }

}
 8000c48:	b009      	add	sp, #36	@ 0x24
 8000c4a:	bd30      	pop	{r4, r5, pc}
 8000c4c:	4604      	mov	r4, r0
    __HAL_RCC_ADC1_CLK_ENABLE();
 8000c4e:	f44f 5380 	mov.w	r3, #4096	@ 0x1000
 8000c52:	f2c4 0302 	movt	r3, #16386	@ 0x4002
 8000c56:	699a      	ldr	r2, [r3, #24]
 8000c58:	f442 7200 	orr.w	r2, r2, #512	@ 0x200
 8000c5c:	619a      	str	r2, [r3, #24]
 8000c5e:	699a      	ldr	r2, [r3, #24]
 8000c60:	f402 7200 	and.w	r2, r2, #512	@ 0x200
 8000c64:	9201      	str	r2, [sp, #4]
 8000c66:	9a01      	ldr	r2, [sp, #4]
    __HAL_RCC_GPIOA_CLK_ENABLE();
 8000c68:	699a      	ldr	r2, [r3, #24]
 8000c6a:	f042 0204 	orr.w	r2, r2, #4
 8000c6e:	619a      	str	r2, [r3, #24]
 8000c70:	699a      	ldr	r2, [r3, #24]
 8000c72:	f002 0204 	and.w	r2, r2, #4
 8000c76:	9202      	str	r2, [sp, #8]
 8000c78:	9a02      	ldr	r2, [sp, #8]
    __HAL_RCC_GPIOB_CLK_ENABLE();
 8000c7a:	699a      	ldr	r2, [r3, #24]
 8000c7c:	f042 0208 	orr.w	r2, r2, #8
 8000c80:	619a      	str	r2, [r3, #24]
 8000c82:	699b      	ldr	r3, [r3, #24]
 8000c84:	f003 0308 	and.w	r3, r3, #8
 8000c88:	9303      	str	r3, [sp, #12]
 8000c8a:	9b03      	ldr	r3, [sp, #12]
    GPIO_InitStruct.Pin = GPIO_PIN_4|GPIO_PIN_5|GPIO_PIN_7;
 8000c8c:	23b0      	movs	r3, #176	@ 0xb0
 8000c8e:	9304      	str	r3, [sp, #16]
    GPIO_InitStruct.Mode = GPIO_MODE_ANALOG;
 8000c90:	2503      	movs	r5, #3
 8000c92:	9505      	str	r5, [sp, #20]
    HAL_GPIO_Init(GPIOA, &GPIO_InitStruct);
 8000c94:	a904      	add	r1, sp, #16
 8000c96:	f44f 6000 	mov.w	r0, #2048	@ 0x800
 8000c9a:	f2c4 0001 	movt	r0, #16385	@ 0x4001
 8000c9e:	f000 fe49 	bl	8001934 <HAL_GPIO_Init>
    GPIO_InitStruct.Pin = GPIO_PIN_0|GPIO_PIN_1;
 8000ca2:	9504      	str	r5, [sp, #16]
    GPIO_InitStruct.Mode = GPIO_MODE_ANALOG;
 8000ca4:	9505      	str	r5, [sp, #20]
    HAL_GPIO_Init(GPIOB, &GPIO_InitStruct);
 8000ca6:	a904      	add	r1, sp, #16
 8000ca8:	f44f 6040 	mov.w	r0, #3072	@ 0xc00
 8000cac:	f2c4 0001 	movt	r0, #16385	@ 0x4001
 8000cb0:	f000 fe40 	bl	8001934 <HAL_GPIO_Init>
    hdma_adc1.Instance = DMA1_Channel1;
 8000cb4:	f241 1030 	movw	r0, #4400	@ 0x1130
 8000cb8:	f2c2 0000 	movt	r0, #8192	@ 0x2000
 8000cbc:	2308      	movs	r3, #8
 8000cbe:	f2c4 0302 	movt	r3, #16386	@ 0x4002
 8000cc2:	6003      	str	r3, [r0, #0]
    hdma_adc1.Init.Direction = DMA_PERIPH_TO_MEMORY;
 8000cc4:	2300      	movs	r3, #0
 8000cc6:	6043      	str	r3, [r0, #4]
    hdma_adc1.Init.PeriphInc = DMA_PINC_DISABLE;
 8000cc8:	6083      	str	r3, [r0, #8]
    hdma_adc1.Init.MemInc = DMA_MINC_ENABLE;
 8000cca:	2280      	movs	r2, #128	@ 0x80
 8000ccc:	60c2      	str	r2, [r0, #12]
    hdma_adc1.Init.PeriphDataAlignment = DMA_PDATAALIGN_WORD;
 8000cce:	f44f 7200 	mov.w	r2, #512	@ 0x200
 8000cd2:	6102      	str	r2, [r0, #16]
    hdma_adc1.Init.MemDataAlignment = DMA_MDATAALIGN_WORD;
 8000cd4:	f44f 6200 	mov.w	r2, #2048	@ 0x800
 8000cd8:	6142      	str	r2, [r0, #20]
    hdma_adc1.Init.Mode = DMA_CIRCULAR;
 8000cda:	2220      	movs	r2, #32
 8000cdc:	6182      	str	r2, [r0, #24]
    hdma_adc1.Init.Priority = DMA_PRIORITY_LOW;
 8000cde:	61c3      	str	r3, [r0, #28]
    if (HAL_DMA_Init(&hdma_adc1) != HAL_OK)
 8000ce0:	f000 fcd9 	bl	8001696 <HAL_DMA_Init>
 8000ce4:	b930      	cbnz	r0, 8000cf4 <HAL_ADC_MspInit+0xc8>
    __HAL_LINKDMA(hadc,DMA_Handle,hdma_adc1);
 8000ce6:	f241 1330 	movw	r3, #4400	@ 0x1130
 8000cea:	f2c2 0300 	movt	r3, #8192	@ 0x2000
 8000cee:	6223      	str	r3, [r4, #32]
 8000cf0:	625c      	str	r4, [r3, #36]	@ 0x24
}
 8000cf2:	e7a9      	b.n	8000c48 <HAL_ADC_MspInit+0x1c>
      Error_Handler();
 8000cf4:	f7ff fe09 	bl	800090a <Error_Handler>
 8000cf8:	e7f5      	b.n	8000ce6 <HAL_ADC_MspInit+0xba>

08000cfa <HAL_SPI_MspInit>:
  * This function configures the hardware resources used in this example
  * @param hspi: SPI handle pointer
  * @retval None
  */
void HAL_SPI_MspInit(SPI_HandleTypeDef* hspi)
{
 8000cfa:	b570      	push	{r4, r5, r6, lr}
 8000cfc:	b086      	sub	sp, #24
  GPIO_InitTypeDef GPIO_InitStruct = {0};
 8000cfe:	2300      	movs	r3, #0
 8000d00:	9302      	str	r3, [sp, #8]
 8000d02:	9303      	str	r3, [sp, #12]
 8000d04:	9304      	str	r3, [sp, #16]
 8000d06:	9305      	str	r3, [sp, #20]
  if(hspi->Instance==SPI2)
 8000d08:	6802      	ldr	r2, [r0, #0]
 8000d0a:	f44f 5360 	mov.w	r3, #14336	@ 0x3800
 8000d0e:	f2c4 0300 	movt	r3, #16384	@ 0x4000
 8000d12:	429a      	cmp	r2, r3
 8000d14:	d001      	beq.n	8000d1a <HAL_SPI_MspInit+0x20>

    /* USER CODE END SPI2_MspInit 1 */

  }

}
 8000d16:	b006      	add	sp, #24
 8000d18:	bd70      	pop	{r4, r5, r6, pc}
 8000d1a:	4604      	mov	r4, r0
    __HAL_RCC_SPI2_CLK_ENABLE();
 8000d1c:	f44f 5380 	mov.w	r3, #4096	@ 0x1000
 8000d20:	f2c4 0302 	movt	r3, #16386	@ 0x4002
 8000d24:	69da      	ldr	r2, [r3, #28]
 8000d26:	f442 4280 	orr.w	r2, r2, #16384	@ 0x4000
 8000d2a:	61da      	str	r2, [r3, #28]
 8000d2c:	69da      	ldr	r2, [r3, #28]
 8000d2e:	f402 4280 	and.w	r2, r2, #16384	@ 0x4000
 8000d32:	9200      	str	r2, [sp, #0]
 8000d34:	9a00      	ldr	r2, [sp, #0]
    __HAL_RCC_GPIOB_CLK_ENABLE();
 8000d36:	699a      	ldr	r2, [r3, #24]
 8000d38:	f042 0208 	orr.w	r2, r2, #8
 8000d3c:	619a      	str	r2, [r3, #24]
 8000d3e:	699b      	ldr	r3, [r3, #24]
 8000d40:	f003 0308 	and.w	r3, r3, #8
 8000d44:	9301      	str	r3, [sp, #4]
 8000d46:	9b01      	ldr	r3, [sp, #4]
    GPIO_InitStruct.Pin = GPIO_PIN_13|GPIO_PIN_15;
 8000d48:	f44f 4320 	mov.w	r3, #40960	@ 0xa000
 8000d4c:	9302      	str	r3, [sp, #8]
    GPIO_InitStruct.Mode = GPIO_MODE_AF_PP;
 8000d4e:	2302      	movs	r3, #2
 8000d50:	9303      	str	r3, [sp, #12]
    GPIO_InitStruct.Speed = GPIO_SPEED_FREQ_HIGH;
 8000d52:	2303      	movs	r3, #3
 8000d54:	9305      	str	r3, [sp, #20]
    HAL_GPIO_Init(GPIOB, &GPIO_InitStruct);
 8000d56:	f44f 6640 	mov.w	r6, #3072	@ 0xc00
 8000d5a:	f2c4 0601 	movt	r6, #16385	@ 0x4001
 8000d5e:	a902      	add	r1, sp, #8
 8000d60:	4630      	mov	r0, r6
 8000d62:	f000 fde7 	bl	8001934 <HAL_GPIO_Init>
    GPIO_InitStruct.Pin = GPIO_PIN_14;
 8000d66:	f44f 4380 	mov.w	r3, #16384	@ 0x4000
 8000d6a:	9302      	str	r3, [sp, #8]
    GPIO_InitStruct.Mode = GPIO_MODE_INPUT;
 8000d6c:	2500      	movs	r5, #0
 8000d6e:	9503      	str	r5, [sp, #12]
    GPIO_InitStruct.Pull = GPIO_NOPULL;
 8000d70:	9504      	str	r5, [sp, #16]
    HAL_GPIO_Init(GPIOB, &GPIO_InitStruct);
 8000d72:	a902      	add	r1, sp, #8
 8000d74:	4630      	mov	r0, r6
 8000d76:	f000 fddd 	bl	8001934 <HAL_GPIO_Init>
    hdma_spi2_rx.Instance = DMA1_Channel4;
 8000d7a:	f241 0094 	movw	r0, #4244	@ 0x1094
 8000d7e:	f2c2 0000 	movt	r0, #8192	@ 0x2000
 8000d82:	2344      	movs	r3, #68	@ 0x44
 8000d84:	f2c4 0302 	movt	r3, #16386	@ 0x4002
 8000d88:	6003      	str	r3, [r0, #0]
    hdma_spi2_rx.Init.Direction = DMA_PERIPH_TO_MEMORY;
 8000d8a:	6045      	str	r5, [r0, #4]
    hdma_spi2_rx.Init.PeriphInc = DMA_PINC_DISABLE;
 8000d8c:	6085      	str	r5, [r0, #8]
    hdma_spi2_rx.Init.MemInc = DMA_MINC_ENABLE;
 8000d8e:	2380      	movs	r3, #128	@ 0x80
 8000d90:	60c3      	str	r3, [r0, #12]
    hdma_spi2_rx.Init.PeriphDataAlignment = DMA_PDATAALIGN_BYTE;
 8000d92:	6105      	str	r5, [r0, #16]
    hdma_spi2_rx.Init.MemDataAlignment = DMA_MDATAALIGN_BYTE;
 8000d94:	6145      	str	r5, [r0, #20]
    hdma_spi2_rx.Init.Mode = DMA_NORMAL;
 8000d96:	6185      	str	r5, [r0, #24]
    hdma_spi2_rx.Init.Priority = DMA_PRIORITY_HIGH;
 8000d98:	f44f 5300 	mov.w	r3, #8192	@ 0x2000
 8000d9c:	61c3      	str	r3, [r0, #28]
    if (HAL_DMA_Init(&hdma_spi2_rx) != HAL_OK)
 8000d9e:	f000 fc7a 	bl	8001696 <HAL_DMA_Init>
 8000da2:	bb18      	cbnz	r0, 8000dec <HAL_SPI_MspInit+0xf2>
    __HAL_LINKDMA(hspi,hdmarx,hdma_spi2_rx);
 8000da4:	f241 0394 	movw	r3, #4244	@ 0x1094
 8000da8:	f2c2 0300 	movt	r3, #8192	@ 0x2000
 8000dac:	64e3      	str	r3, [r4, #76]	@ 0x4c
 8000dae:	625c      	str	r4, [r3, #36]	@ 0x24
    hdma_spi2_tx.Instance = DMA1_Channel5;
 8000db0:	f241 0050 	movw	r0, #4176	@ 0x1050
 8000db4:	f2c2 0000 	movt	r0, #8192	@ 0x2000
 8000db8:	2358      	movs	r3, #88	@ 0x58
 8000dba:	f2c4 0302 	movt	r3, #16386	@ 0x4002
 8000dbe:	6003      	str	r3, [r0, #0]
    hdma_spi2_tx.Init.Direction = DMA_MEMORY_TO_PERIPH;
 8000dc0:	2310      	movs	r3, #16
 8000dc2:	6043      	str	r3, [r0, #4]
    hdma_spi2_tx.Init.PeriphInc = DMA_PINC_DISABLE;
 8000dc4:	2300      	movs	r3, #0
 8000dc6:	6083      	str	r3, [r0, #8]
    hdma_spi2_tx.Init.MemInc = DMA_MINC_ENABLE;
 8000dc8:	2280      	movs	r2, #128	@ 0x80
 8000dca:	60c2      	str	r2, [r0, #12]
    hdma_spi2_tx.Init.PeriphDataAlignment = DMA_PDATAALIGN_BYTE;
 8000dcc:	6103      	str	r3, [r0, #16]
    hdma_spi2_tx.Init.MemDataAlignment = DMA_MDATAALIGN_BYTE;
 8000dce:	6143      	str	r3, [r0, #20]
    hdma_spi2_tx.Init.Mode = DMA_NORMAL;
 8000dd0:	6183      	str	r3, [r0, #24]
    hdma_spi2_tx.Init.Priority = DMA_PRIORITY_HIGH;
 8000dd2:	f44f 5300 	mov.w	r3, #8192	@ 0x2000
 8000dd6:	61c3      	str	r3, [r0, #28]
    if (HAL_DMA_Init(&hdma_spi2_tx) != HAL_OK)
 8000dd8:	f000 fc5d 	bl	8001696 <HAL_DMA_Init>
 8000ddc:	b948      	cbnz	r0, 8000df2 <HAL_SPI_MspInit+0xf8>
    __HAL_LINKDMA(hspi,hdmatx,hdma_spi2_tx);
 8000dde:	f241 0350 	movw	r3, #4176	@ 0x1050
 8000de2:	f2c2 0300 	movt	r3, #8192	@ 0x2000
 8000de6:	64a3      	str	r3, [r4, #72]	@ 0x48
 8000de8:	625c      	str	r4, [r3, #36]	@ 0x24
}
 8000dea:	e794      	b.n	8000d16 <HAL_SPI_MspInit+0x1c>
      Error_Handler();
 8000dec:	f7ff fd8d 	bl	800090a <Error_Handler>
 8000df0:	e7d8      	b.n	8000da4 <HAL_SPI_MspInit+0xaa>
      Error_Handler();
 8000df2:	f7ff fd8a 	bl	800090a <Error_Handler>
 8000df6:	e7f2      	b.n	8000dde <HAL_SPI_MspInit+0xe4>

08000df8 <HAL_TIM_Base_MspInit>:
  * This function configures the hardware resources used in this example
  * @param htim_base: TIM_Base handle pointer
  * @retval None
  */
void HAL_TIM_Base_MspInit(TIM_HandleTypeDef* htim_base)
{
 8000df8:	b500      	push	{lr}
 8000dfa:	b083      	sub	sp, #12
  if(htim_base->Instance==TIM3)
 8000dfc:	6802      	ldr	r2, [r0, #0]
 8000dfe:	f44f 6380 	mov.w	r3, #1024	@ 0x400
 8000e02:	f2c4 0300 	movt	r3, #16384	@ 0x4000
 8000e06:	429a      	cmp	r2, r3
 8000e08:	d008      	beq.n	8000e1c <HAL_TIM_Base_MspInit+0x24>
    HAL_NVIC_EnableIRQ(TIM3_IRQn);
    /* USER CODE BEGIN TIM3_MspInit 1 */

    /* USER CODE END TIM3_MspInit 1 */
  }
  else if(htim_base->Instance==TIM4)
 8000e0a:	f44f 6300 	mov.w	r3, #2048	@ 0x800
 8000e0e:	f2c4 0300 	movt	r3, #16384	@ 0x4000
 8000e12:	429a      	cmp	r2, r3
 8000e14:	d018      	beq.n	8000e48 <HAL_TIM_Base_MspInit+0x50>
    /* USER CODE BEGIN TIM4_MspInit 1 */

    /* USER CODE END TIM4_MspInit 1 */
  }

}
 8000e16:	b003      	add	sp, #12
 8000e18:	f85d fb04 	ldr.w	pc, [sp], #4
    __HAL_RCC_TIM3_CLK_ENABLE();
 8000e1c:	f44f 5380 	mov.w	r3, #4096	@ 0x1000
 8000e20:	f2c4 0302 	movt	r3, #16386	@ 0x4002
 8000e24:	69da      	ldr	r2, [r3, #28]
 8000e26:	f042 0202 	orr.w	r2, r2, #2
 8000e2a:	61da      	str	r2, [r3, #28]
 8000e2c:	69db      	ldr	r3, [r3, #28]
 8000e2e:	f003 0302 	and.w	r3, r3, #2
 8000e32:	9300      	str	r3, [sp, #0]
 8000e34:	9b00      	ldr	r3, [sp, #0]
    HAL_NVIC_SetPriority(TIM3_IRQn, 6, 0);
 8000e36:	2200      	movs	r2, #0
 8000e38:	2106      	movs	r1, #6
 8000e3a:	201d      	movs	r0, #29
 8000e3c:	f000 fbe2 	bl	8001604 <HAL_NVIC_SetPriority>
    HAL_NVIC_EnableIRQ(TIM3_IRQn);
 8000e40:	201d      	movs	r0, #29
 8000e42:	f000 fbef 	bl	8001624 <HAL_NVIC_EnableIRQ>
 8000e46:	e7e6      	b.n	8000e16 <HAL_TIM_Base_MspInit+0x1e>
    __HAL_RCC_TIM4_CLK_ENABLE();
 8000e48:	f44f 5380 	mov.w	r3, #4096	@ 0x1000
 8000e4c:	f2c4 0302 	movt	r3, #16386	@ 0x4002
 8000e50:	69da      	ldr	r2, [r3, #28]
 8000e52:	f042 0204 	orr.w	r2, r2, #4
 8000e56:	61da      	str	r2, [r3, #28]
 8000e58:	69db      	ldr	r3, [r3, #28]
 8000e5a:	f003 0304 	and.w	r3, r3, #4
 8000e5e:	9301      	str	r3, [sp, #4]
 8000e60:	9b01      	ldr	r3, [sp, #4]
    HAL_NVIC_SetPriority(TIM4_IRQn, 3, 0);
 8000e62:	2200      	movs	r2, #0
 8000e64:	2103      	movs	r1, #3
 8000e66:	201e      	movs	r0, #30
 8000e68:	f000 fbcc 	bl	8001604 <HAL_NVIC_SetPriority>
    HAL_NVIC_EnableIRQ(TIM4_IRQn);
 8000e6c:	201e      	movs	r0, #30
 8000e6e:	f000 fbd9 	bl	8001624 <HAL_NVIC_EnableIRQ>
}
 8000e72:	e7d0      	b.n	8000e16 <HAL_TIM_Base_MspInit+0x1e>

08000e74 <NMI_Handler>:
{
  /* USER CODE BEGIN NonMaskableInt_IRQn 0 */

  /* USER CODE END NonMaskableInt_IRQn 0 */
  /* USER CODE BEGIN NonMaskableInt_IRQn 1 */
   while (1)
 8000e74:	e7fe      	b.n	8000e74 <NMI_Handler>

08000e76 <HardFault_Handler>:
void HardFault_Handler(void)
{
  /* USER CODE BEGIN HardFault_IRQn 0 */

  /* USER CODE END HardFault_IRQn 0 */
  while (1)
 8000e76:	e7fe      	b.n	8000e76 <HardFault_Handler>

08000e78 <MemManage_Handler>:
void MemManage_Handler(void)
{
  /* USER CODE BEGIN MemoryManagement_IRQn 0 */

  /* USER CODE END MemoryManagement_IRQn 0 */
  while (1)
 8000e78:	e7fe      	b.n	8000e78 <MemManage_Handler>

08000e7a <BusFault_Handler>:
void BusFault_Handler(void)
{
  /* USER CODE BEGIN BusFault_IRQn 0 */

  /* USER CODE END BusFault_IRQn 0 */
  while (1)
 8000e7a:	e7fe      	b.n	8000e7a <BusFault_Handler>

08000e7c <UsageFault_Handler>:
void UsageFault_Handler(void)
{
  /* USER CODE BEGIN UsageFault_IRQn 0 */

  /* USER CODE END UsageFault_IRQn 0 */
  while (1)
 8000e7c:	e7fe      	b.n	8000e7c <UsageFault_Handler>

08000e7e <SVC_Handler>:

  /* USER CODE END SVCall_IRQn 0 */
  /* USER CODE BEGIN SVCall_IRQn 1 */

  /* USER CODE END SVCall_IRQn 1 */
}
 8000e7e:	4770      	bx	lr

08000e80 <DebugMon_Handler>:

  /* USER CODE END DebugMonitor_IRQn 0 */
  /* USER CODE BEGIN DebugMonitor_IRQn 1 */

  /* USER CODE END DebugMonitor_IRQn 1 */
}
 8000e80:	4770      	bx	lr

08000e82 <PendSV_Handler>:

  /* USER CODE END PendSV_IRQn 0 */
  /* USER CODE BEGIN PendSV_IRQn 1 */

  /* USER CODE END PendSV_IRQn 1 */
}
 8000e82:	4770      	bx	lr

08000e84 <SysTick_Handler>:

/**
  * @brief This function handles System tick timer.
  */
void SysTick_Handler(void)
{
 8000e84:	b508      	push	{r3, lr}
  /* USER CODE BEGIN SysTick_IRQn 0 */

  /* USER CODE END SysTick_IRQn 0 */
  HAL_IncTick();
 8000e86:	f000 f89d 	bl	8000fc4 <HAL_IncTick>
  /* USER CODE BEGIN SysTick_IRQn 1 */

  /* USER CODE END SysTick_IRQn 1 */
}
 8000e8a:	bd08      	pop	{r3, pc}

08000e8c <EXTI0_IRQHandler>:

/**
  * @brief This function handles EXTI line0 interrupt.
  */
void EXTI0_IRQHandler(void)
{
 8000e8c:	b508      	push	{r3, lr}
  /* USER CODE BEGIN EXTI0_IRQn 0 */

  /* USER CODE END EXTI0_IRQn 0 */
  HAL_GPIO_EXTI_IRQHandler(SWIT_0_Pin);
 8000e8e:	2001      	movs	r0, #1
 8000e90:	f000 fe93 	bl	8001bba <HAL_GPIO_EXTI_IRQHandler>
  /* USER CODE BEGIN EXTI0_IRQn 1 */

  /* USER CODE END EXTI0_IRQn 1 */
}
 8000e94:	bd08      	pop	{r3, pc}

08000e96 <EXTI1_IRQHandler>:

/**
  * @brief This function handles EXTI line1 interrupt.
  */
void EXTI1_IRQHandler(void)
{
 8000e96:	b508      	push	{r3, lr}
  /* USER CODE BEGIN EXTI1_IRQn 0 */

  /* USER CODE END EXTI1_IRQn 0 */
  HAL_GPIO_EXTI_IRQHandler(SWIT_1_Pin);
 8000e98:	2002      	movs	r0, #2
 8000e9a:	f000 fe8e 	bl	8001bba <HAL_GPIO_EXTI_IRQHandler>
  /* USER CODE BEGIN EXTI1_IRQn 1 */

  /* USER CODE END EXTI1_IRQn 1 */
}
 8000e9e:	bd08      	pop	{r3, pc}

08000ea0 <DMA1_Channel1_IRQHandler>:

/**
  * @brief This function handles DMA1 channel1 global interrupt.
  */
void DMA1_Channel1_IRQHandler(void)
{
 8000ea0:	b508      	push	{r3, lr}
  /* USER CODE BEGIN DMA1_Channel1_IRQn 0 */

  /* USER CODE END DMA1_Channel1_IRQn 0 */
  HAL_DMA_IRQHandler(&hdma_adc1);
 8000ea2:	f241 1030 	movw	r0, #4400	@ 0x1130
 8000ea6:	f2c2 0000 	movt	r0, #8192	@ 0x2000
 8000eaa:	f000 fc89 	bl	80017c0 <HAL_DMA_IRQHandler>
  /* USER CODE BEGIN DMA1_Channel1_IRQn 1 */

  /* USER CODE END DMA1_Channel1_IRQn 1 */
}
 8000eae:	bd08      	pop	{r3, pc}

08000eb0 <DMA1_Channel4_IRQHandler>:

/**
  * @brief This function handles DMA1 channel4 global interrupt.
  */
void DMA1_Channel4_IRQHandler(void)
{
 8000eb0:	b508      	push	{r3, lr}
  /* USER CODE BEGIN DMA1_Channel4_IRQn 0 */

  /* USER CODE END DMA1_Channel4_IRQn 0 */
  HAL_DMA_IRQHandler(&hdma_spi2_rx);
 8000eb2:	f241 0094 	movw	r0, #4244	@ 0x1094
 8000eb6:	f2c2 0000 	movt	r0, #8192	@ 0x2000
 8000eba:	f000 fc81 	bl	80017c0 <HAL_DMA_IRQHandler>
  /* USER CODE BEGIN DMA1_Channel4_IRQn 1 */

  /* USER CODE END DMA1_Channel4_IRQn 1 */
}
 8000ebe:	bd08      	pop	{r3, pc}

08000ec0 <DMA1_Channel5_IRQHandler>:

/**
  * @brief This function handles DMA1 channel5 global interrupt.
  */
void DMA1_Channel5_IRQHandler(void)
{
 8000ec0:	b508      	push	{r3, lr}
  /* USER CODE BEGIN DMA1_Channel5_IRQn 0 */

  /* USER CODE END DMA1_Channel5_IRQn 0 */
  HAL_DMA_IRQHandler(&hdma_spi2_tx);
 8000ec2:	f241 0050 	movw	r0, #4176	@ 0x1050
 8000ec6:	f2c2 0000 	movt	r0, #8192	@ 0x2000
 8000eca:	f000 fc79 	bl	80017c0 <HAL_DMA_IRQHandler>
  /* USER CODE BEGIN DMA1_Channel5_IRQn 1 */

  /* USER CODE END DMA1_Channel5_IRQn 1 */
}
 8000ece:	bd08      	pop	{r3, pc}

08000ed0 <USB_LP_CAN1_RX0_IRQHandler>:

/**
  * @brief This function handles USB low priority or CAN RX0 interrupts.
  */
void USB_LP_CAN1_RX0_IRQHandler(void)
{
 8000ed0:	b508      	push	{r3, lr}
  /* USER CODE BEGIN USB_LP_CAN1_RX0_IRQn 0 */

  /* USER CODE END USB_LP_CAN1_RX0_IRQn 0 */
  HAL_PCD_IRQHandler(&hpcd_USB_FS);
 8000ed2:	f641 0050 	movw	r0, #6224	@ 0x1850
 8000ed6:	f2c2 0000 	movt	r0, #8192	@ 0x2000
 8000eda:	f001 fc69 	bl	80027b0 <HAL_PCD_IRQHandler>
  /* USER CODE BEGIN USB_LP_CAN1_RX0_IRQn 1 */

  /* USER CODE END USB_LP_CAN1_RX0_IRQn 1 */
}
 8000ede:	bd08      	pop	{r3, pc}

08000ee0 <TIM3_IRQHandler>:

/**
  * @brief This function handles TIM3 global interrupt.
  */
void TIM3_IRQHandler(void)
{
 8000ee0:	b508      	push	{r3, lr}
  /* USER CODE BEGIN TIM3_IRQn 0 */

  /* USER CODE END TIM3_IRQn 0 */
  HAL_TIM_IRQHandler(&htim3);
 8000ee2:	f241 0008 	movw	r0, #4104	@ 0x1008
 8000ee6:	f2c2 0000 	movt	r0, #8192	@ 0x2000
 8000eea:	f002 fe9b 	bl	8003c24 <HAL_TIM_IRQHandler>
  /* USER CODE BEGIN TIM3_IRQn 1 */

  /* USER CODE END TIM3_IRQn 1 */
}
 8000eee:	bd08      	pop	{r3, pc}

08000ef0 <TIM4_IRQHandler>:

/**
  * @brief This function handles TIM4 global interrupt.
  */
void TIM4_IRQHandler(void)
{
 8000ef0:	b508      	push	{r3, lr}
  /* USER CODE BEGIN TIM4_IRQn 0 */

  /* USER CODE END TIM4_IRQn 0 */
  HAL_TIM_IRQHandler(&htim4);
 8000ef2:	f640 70c0 	movw	r0, #4032	@ 0xfc0
 8000ef6:	f2c2 0000 	movt	r0, #8192	@ 0x2000
 8000efa:	f002 fe93 	bl	8003c24 <HAL_TIM_IRQHandler>
  /* USER CODE BEGIN TIM4_IRQn 1 */

  /* USER CODE END TIM4_IRQn 1 */
}
 8000efe:	bd08      	pop	{r3, pc}

08000f00 <SystemInit>:

  /* Configure the Vector Table location -------------------------------------*/
#if defined(USER_VECT_TAB_ADDRESS)
  SCB->VTOR = VECT_TAB_BASE_ADDRESS | VECT_TAB_OFFSET; /* Vector Table Relocation in Internal SRAM. */
#endif /* USER_VECT_TAB_ADDRESS */
}
 8000f00:	4770      	bx	lr
	...

08000f04 <Reset_Handler>:
  .weak Reset_Handler
  .type Reset_Handler, %function
Reset_Handler:

/* Call the clock system initialization function.*/
    bl  SystemInit
 8000f04:	f7ff fffc 	bl	8000f00 <SystemInit>

/* Copy the data segment initializers from flash to SRAM */
  ldr r0, =_sdata
 8000f08:	480b      	ldr	r0, [pc, #44]	@ (8000f38 <LoopFillZerobss+0xe>)
  ldr r1, =_edata
 8000f0a:	490c      	ldr	r1, [pc, #48]	@ (8000f3c <LoopFillZerobss+0x12>)
  ldr r2, =_sidata
 8000f0c:	4a0c      	ldr	r2, [pc, #48]	@ (8000f40 <LoopFillZerobss+0x16>)
  movs r3, #0
 8000f0e:	2300      	movs	r3, #0
  b LoopCopyDataInit
 8000f10:	e002      	b.n	8000f18 <LoopCopyDataInit>

08000f12 <CopyDataInit>:

CopyDataInit:
  ldr r4, [r2, r3]
 8000f12:	58d4      	ldr	r4, [r2, r3]
  str r4, [r0, r3]
 8000f14:	50c4      	str	r4, [r0, r3]
  adds r3, r3, #4
 8000f16:	3304      	adds	r3, #4

08000f18 <LoopCopyDataInit>:

LoopCopyDataInit:
  adds r4, r0, r3
 8000f18:	18c4      	adds	r4, r0, r3
  cmp r4, r1
 8000f1a:	428c      	cmp	r4, r1
  bcc CopyDataInit
 8000f1c:	d3f9      	bcc.n	8000f12 <CopyDataInit>
  
/* Zero fill the bss segment. */
  ldr r2, =_sbss
 8000f1e:	4a09      	ldr	r2, [pc, #36]	@ (8000f44 <LoopFillZerobss+0x1a>)
  ldr r4, =_ebss
 8000f20:	4c09      	ldr	r4, [pc, #36]	@ (8000f48 <LoopFillZerobss+0x1e>)
  movs r3, #0
 8000f22:	2300      	movs	r3, #0
  b LoopFillZerobss
 8000f24:	e001      	b.n	8000f2a <LoopFillZerobss>

08000f26 <FillZerobss>:

FillZerobss:
  str  r3, [r2]
 8000f26:	6013      	str	r3, [r2, #0]
  adds r2, r2, #4
 8000f28:	3204      	adds	r2, #4

08000f2a <LoopFillZerobss>:

LoopFillZerobss:
  cmp r2, r4
 8000f2a:	42a2      	cmp	r2, r4
  bcc FillZerobss
 8000f2c:	d3fb      	bcc.n	8000f26 <FillZerobss>

/* Call static constructors */
    bl __libc_init_array
 8000f2e:	f006 fefb 	bl	8007d28 <__libc_init_array>
/* Call the application's entry point.*/
  bl main
 8000f32:	f7ff fe43 	bl	8000bbc <main>
  bx lr
 8000f36:	4770      	bx	lr
  ldr r0, =_sdata
 8000f38:	20000000 	.word	0x20000000
  ldr r1, =_edata
 8000f3c:	20000fa4 	.word	0x20000fa4
  ldr r2, =_sidata
 8000f40:	08008f30 	.word	0x08008f30
  ldr r2, =_sbss
 8000f44:	20000fa4 	.word	0x20000fa4
  ldr r4, =_ebss
 8000f48:	20001b70 	.word	0x20001b70

08000f4c <ADC1_2_IRQHandler>:
 * @retval : None
*/
    .section .text.Default_Handler,"ax",%progbits
Default_Handler:
Infinite_Loop:
  b Infinite_Loop
 8000f4c:	e7fe      	b.n	8000f4c <ADC1_2_IRQHandler>

08000f4e <HAL_InitTick>:
  *       implementation  in user file.
  * @param TickPriority Tick interrupt priority.
  * @retval HAL status
  */
__weak HAL_StatusTypeDef HAL_InitTick(uint32_t TickPriority)
{
 8000f4e:	b510      	push	{r4, lr}
 8000f50:	4604      	mov	r4, r0
  /* Configure the SysTick to have interrupt in 1ms time basis*/
  if (HAL_SYSTICK_Config(SystemCoreClock / (1000U / uwTickFreq)) > 0U)
 8000f52:	f240 0304 	movw	r3, #4
 8000f56:	f2c2 0300 	movt	r3, #8192	@ 0x2000
 8000f5a:	781a      	ldrb	r2, [r3, #0]
 8000f5c:	f44f 737a 	mov.w	r3, #1000	@ 0x3e8
 8000f60:	fbb3 f3f2 	udiv	r3, r3, r2
 8000f64:	f240 0200 	movw	r2, #0
 8000f68:	f2c2 0200 	movt	r2, #8192	@ 0x2000
 8000f6c:	6810      	ldr	r0, [r2, #0]
 8000f6e:	fbb0 f0f3 	udiv	r0, r0, r3
 8000f72:	f000 fb65 	bl	8001640 <HAL_SYSTICK_Config>
 8000f76:	b980      	cbnz	r0, 8000f9a <HAL_InitTick+0x4c>
  {
    return HAL_ERROR;
  }

  /* Configure the SysTick IRQ priority */
  if (TickPriority < (1UL << __NVIC_PRIO_BITS))
 8000f78:	2c0f      	cmp	r4, #15
 8000f7a:	d901      	bls.n	8000f80 <HAL_InitTick+0x32>
    HAL_NVIC_SetPriority(SysTick_IRQn, TickPriority, 0U);
    uwTickPrio = TickPriority;
  }
  else
  {
    return HAL_ERROR;
 8000f7c:	2001      	movs	r0, #1
 8000f7e:	e00d      	b.n	8000f9c <HAL_InitTick+0x4e>
    HAL_NVIC_SetPriority(SysTick_IRQn, TickPriority, 0U);
 8000f80:	2200      	movs	r2, #0
 8000f82:	4621      	mov	r1, r4
 8000f84:	f04f 30ff 	mov.w	r0, #4294967295
 8000f88:	f000 fb3c 	bl	8001604 <HAL_NVIC_SetPriority>
    uwTickPrio = TickPriority;
 8000f8c:	f240 0308 	movw	r3, #8
 8000f90:	f2c2 0300 	movt	r3, #8192	@ 0x2000
 8000f94:	601c      	str	r4, [r3, #0]
  }

  /* Return function status */
  return HAL_OK;
 8000f96:	2000      	movs	r0, #0
 8000f98:	e000      	b.n	8000f9c <HAL_InitTick+0x4e>
    return HAL_ERROR;
 8000f9a:	2001      	movs	r0, #1
}
 8000f9c:	bd10      	pop	{r4, pc}

08000f9e <HAL_Init>:
{
 8000f9e:	b508      	push	{r3, lr}
  __HAL_FLASH_PREFETCH_BUFFER_ENABLE();
 8000fa0:	f44f 5300 	mov.w	r3, #8192	@ 0x2000
 8000fa4:	f2c4 0302 	movt	r3, #16386	@ 0x4002
 8000fa8:	681a      	ldr	r2, [r3, #0]
 8000faa:	f042 0210 	orr.w	r2, r2, #16
 8000fae:	601a      	str	r2, [r3, #0]
  HAL_NVIC_SetPriorityGrouping(NVIC_PRIORITYGROUP_4);
 8000fb0:	2003      	movs	r0, #3
 8000fb2:	f000 fb14 	bl	80015de <HAL_NVIC_SetPriorityGrouping>
  HAL_InitTick(TICK_INT_PRIORITY);
 8000fb6:	200f      	movs	r0, #15
 8000fb8:	f7ff ffc9 	bl	8000f4e <HAL_InitTick>
  HAL_MspInit();
 8000fbc:	f7ff fe14 	bl	8000be8 <HAL_MspInit>
}
 8000fc0:	2000      	movs	r0, #0
 8000fc2:	bd08      	pop	{r3, pc}

08000fc4 <HAL_IncTick>:
  *      implementations in user file.
  * @retval None
  */
__weak void HAL_IncTick(void)
{
  uwTick += uwTickFreq;
 8000fc4:	f241 13a4 	movw	r3, #4516	@ 0x11a4
 8000fc8:	f2c2 0300 	movt	r3, #8192	@ 0x2000
 8000fcc:	6819      	ldr	r1, [r3, #0]
 8000fce:	f240 0204 	movw	r2, #4
 8000fd2:	f2c2 0200 	movt	r2, #8192	@ 0x2000
 8000fd6:	7812      	ldrb	r2, [r2, #0]
 8000fd8:	440a      	add	r2, r1
 8000fda:	601a      	str	r2, [r3, #0]
}
 8000fdc:	4770      	bx	lr

08000fde <HAL_GetTick>:
  *       implementations in user file.
  * @retval tick value
  */
__weak uint32_t HAL_GetTick(void)
{
  return uwTick;
 8000fde:	f241 13a4 	movw	r3, #4516	@ 0x11a4
 8000fe2:	f2c2 0300 	movt	r3, #8192	@ 0x2000
 8000fe6:	6818      	ldr	r0, [r3, #0]
}
 8000fe8:	4770      	bx	lr

08000fea <HAL_Delay>:
  *       implementations in user file.
  * @param Delay specifies the delay time length, in milliseconds.
  * @retval None
  */
__weak void HAL_Delay(uint32_t Delay)
{
 8000fea:	b538      	push	{r3, r4, r5, lr}
 8000fec:	4604      	mov	r4, r0
  uint32_t tickstart = HAL_GetTick();
 8000fee:	f7ff fff6 	bl	8000fde <HAL_GetTick>
 8000ff2:	4605      	mov	r5, r0
  uint32_t wait = Delay;

  /* Add a freq to guarantee minimum wait */
  if (wait < HAL_MAX_DELAY)
 8000ff4:	f1b4 3fff 	cmp.w	r4, #4294967295
 8000ff8:	d005      	beq.n	8001006 <HAL_Delay+0x1c>
  {
    wait += (uint32_t)(uwTickFreq);
 8000ffa:	f240 0304 	movw	r3, #4
 8000ffe:	f2c2 0300 	movt	r3, #8192	@ 0x2000
 8001002:	781b      	ldrb	r3, [r3, #0]
 8001004:	441c      	add	r4, r3
  }

  while ((HAL_GetTick() - tickstart) < wait)
 8001006:	f7ff ffea 	bl	8000fde <HAL_GetTick>
 800100a:	1b40      	subs	r0, r0, r5
 800100c:	42a0      	cmp	r0, r4
 800100e:	d3fa      	bcc.n	8001006 <HAL_Delay+0x1c>
  {
  }
}
 8001010:	bd38      	pop	{r3, r4, r5, pc}

08001012 <ADC_DMAConvCplt>:
  * @brief  DMA transfer complete callback. 
  * @param  hdma: pointer to DMA handle.
  * @retval None
  */
void ADC_DMAConvCplt(DMA_HandleTypeDef *hdma)
{
 8001012:	b508      	push	{r3, lr}
  /* Retrieve ADC handle corresponding to current DMA handle */
  ADC_HandleTypeDef* hadc = ( ADC_HandleTypeDef* )((DMA_HandleTypeDef* )hdma)->Parent;
 8001014:	6a43      	ldr	r3, [r0, #36]	@ 0x24
 
  /* Update state machine on conversion status if not in error state */
  if (HAL_IS_BIT_CLR(hadc->State, HAL_ADC_STATE_ERROR_INTERNAL | HAL_ADC_STATE_ERROR_DMA))
 8001016:	6a9a      	ldr	r2, [r3, #40]	@ 0x28
 8001018:	f012 0f50 	tst.w	r2, #80	@ 0x50
 800101c:	d11e      	bne.n	800105c <ADC_DMAConvCplt+0x4a>
  {
    /* Update ADC state machine */
    SET_BIT(hadc->State, HAL_ADC_STATE_REG_EOC);
 800101e:	6a9a      	ldr	r2, [r3, #40]	@ 0x28
 8001020:	f442 7200 	orr.w	r2, r2, #512	@ 0x200
 8001024:	629a      	str	r2, [r3, #40]	@ 0x28
    /* Determine whether any further conversion upcoming on group regular     */
    /* by external trigger, continuous mode or scan sequence on going.        */
    /* Note: On STM32F1 devices, in case of sequencer enabled                 */
    /*       (several ranks selected), end of conversion flag is raised       */
    /*       at the end of the sequence.                                      */
    if(ADC_IS_SOFTWARE_START_REGULAR(hadc)        && 
 8001026:	681a      	ldr	r2, [r3, #0]
 8001028:	6892      	ldr	r2, [r2, #8]
 800102a:	f402 2260 	and.w	r2, r2, #917504	@ 0xe0000
 800102e:	f5b2 2f60 	cmp.w	r2, #917504	@ 0xe0000
 8001032:	d003      	beq.n	800103c <ADC_DMAConvCplt+0x2a>
    
    /* Conversion complete callback */
#if (USE_HAL_ADC_REGISTER_CALLBACKS == 1)
    hadc->ConvCpltCallback(hadc);
#else
    HAL_ADC_ConvCpltCallback(hadc);
 8001034:	4618      	mov	r0, r3
 8001036:	f006 fb31 	bl	800769c <HAL_ADC_ConvCpltCallback>
  else
  {
    /* Call DMA error callback */
    hadc->DMA_Handle->XferErrorCallback(hdma);
  }
}
 800103a:	bd08      	pop	{r3, pc}
       (hadc->Init.ContinuousConvMode == DISABLE)   )
 800103c:	7b1a      	ldrb	r2, [r3, #12]
    if(ADC_IS_SOFTWARE_START_REGULAR(hadc)        && 
 800103e:	2a00      	cmp	r2, #0
 8001040:	d1f8      	bne.n	8001034 <ADC_DMAConvCplt+0x22>
      CLEAR_BIT(hadc->State, HAL_ADC_STATE_REG_BUSY);   
 8001042:	6a9a      	ldr	r2, [r3, #40]	@ 0x28
 8001044:	f422 7280 	bic.w	r2, r2, #256	@ 0x100
 8001048:	629a      	str	r2, [r3, #40]	@ 0x28
      if (HAL_IS_BIT_CLR(hadc->State, HAL_ADC_STATE_INJ_BUSY))
 800104a:	6a9a      	ldr	r2, [r3, #40]	@ 0x28
 800104c:	f412 5f80 	tst.w	r2, #4096	@ 0x1000
 8001050:	d1f0      	bne.n	8001034 <ADC_DMAConvCplt+0x22>
        SET_BIT(hadc->State, HAL_ADC_STATE_READY);
 8001052:	6a9a      	ldr	r2, [r3, #40]	@ 0x28
 8001054:	f042 0201 	orr.w	r2, r2, #1
 8001058:	629a      	str	r2, [r3, #40]	@ 0x28
 800105a:	e7eb      	b.n	8001034 <ADC_DMAConvCplt+0x22>
    hadc->DMA_Handle->XferErrorCallback(hdma);
 800105c:	6a1b      	ldr	r3, [r3, #32]
 800105e:	6b1b      	ldr	r3, [r3, #48]	@ 0x30
 8001060:	4798      	blx	r3
}
 8001062:	e7ea      	b.n	800103a <ADC_DMAConvCplt+0x28>

08001064 <HAL_ADC_ConvHalfCpltCallback>:
}
 8001064:	4770      	bx	lr

08001066 <ADC_DMAHalfConvCplt>:
  * @brief  DMA half transfer complete callback. 
  * @param  hdma: pointer to DMA handle.
  * @retval None
  */
void ADC_DMAHalfConvCplt(DMA_HandleTypeDef *hdma)   
{
 8001066:	b508      	push	{r3, lr}
  
  /* Half conversion callback */
#if (USE_HAL_ADC_REGISTER_CALLBACKS == 1)
    hadc->ConvHalfCpltCallback(hadc);
#else
  HAL_ADC_ConvHalfCpltCallback(hadc);
 8001068:	6a40      	ldr	r0, [r0, #36]	@ 0x24
 800106a:	f7ff fffb 	bl	8001064 <HAL_ADC_ConvHalfCpltCallback>
#endif /* USE_HAL_ADC_REGISTER_CALLBACKS */
}
 800106e:	bd08      	pop	{r3, pc}

08001070 <HAL_ADC_ErrorCallback>:
}
 8001070:	4770      	bx	lr

08001072 <ADC_DMAError>:
  * @brief  DMA error callback 
  * @param  hdma: pointer to DMA handle.
  * @retval None
  */
void ADC_DMAError(DMA_HandleTypeDef *hdma)   
{
 8001072:	b508      	push	{r3, lr}
  /* Retrieve ADC handle corresponding to current DMA handle */
  ADC_HandleTypeDef* hadc = ( ADC_HandleTypeDef* )((DMA_HandleTypeDef* )hdma)->Parent;
 8001074:	6a40      	ldr	r0, [r0, #36]	@ 0x24
  
  /* Set ADC state */
  SET_BIT(hadc->State, HAL_ADC_STATE_ERROR_DMA);
 8001076:	6a83      	ldr	r3, [r0, #40]	@ 0x28
 8001078:	f043 0340 	orr.w	r3, r3, #64	@ 0x40
 800107c:	6283      	str	r3, [r0, #40]	@ 0x28
  
  /* Set ADC error code to DMA error */
  SET_BIT(hadc->ErrorCode, HAL_ADC_ERROR_DMA);
 800107e:	6ac3      	ldr	r3, [r0, #44]	@ 0x2c
 8001080:	f043 0304 	orr.w	r3, r3, #4
 8001084:	62c3      	str	r3, [r0, #44]	@ 0x2c
  
  /* Error callback */
#if (USE_HAL_ADC_REGISTER_CALLBACKS == 1)
  hadc->ErrorCallback(hadc);
#else
  HAL_ADC_ErrorCallback(hadc);
 8001086:	f7ff fff3 	bl	8001070 <HAL_ADC_ErrorCallback>
#endif /* USE_HAL_ADC_REGISTER_CALLBACKS */
}
 800108a:	bd08      	pop	{r3, pc}

0800108c <HAL_ADC_ConfigChannel>:
{ 
 800108c:	b430      	push	{r4, r5}
 800108e:	b082      	sub	sp, #8
  __IO uint32_t wait_loop_index = 0U;
 8001090:	2200      	movs	r2, #0
 8001092:	9201      	str	r2, [sp, #4]
  __HAL_LOCK(hadc);
 8001094:	f890 2024 	ldrb.w	r2, [r0, #36]	@ 0x24
 8001098:	2a01      	cmp	r2, #1
 800109a:	f000 8098 	beq.w	80011ce <HAL_ADC_ConfigChannel+0x142>
 800109e:	4603      	mov	r3, r0
 80010a0:	2201      	movs	r2, #1
 80010a2:	f880 2024 	strb.w	r2, [r0, #36]	@ 0x24
  if (sConfig->Rank < 7U)
 80010a6:	684a      	ldr	r2, [r1, #4]
 80010a8:	2a06      	cmp	r2, #6
 80010aa:	d82d      	bhi.n	8001108 <HAL_ADC_ConfigChannel+0x7c>
    MODIFY_REG(hadc->Instance->SQR3                        ,
 80010ac:	6804      	ldr	r4, [r0, #0]
 80010ae:	6b60      	ldr	r0, [r4, #52]	@ 0x34
 80010b0:	eb02 0282 	add.w	r2, r2, r2, lsl #2
 80010b4:	3a05      	subs	r2, #5
 80010b6:	f04f 0c1f 	mov.w	ip, #31
 80010ba:	fa0c fc02 	lsl.w	ip, ip, r2
 80010be:	ea20 000c 	bic.w	r0, r0, ip
 80010c2:	680d      	ldr	r5, [r1, #0]
 80010c4:	fa05 f202 	lsl.w	r2, r5, r2
 80010c8:	4302      	orrs	r2, r0
 80010ca:	6362      	str	r2, [r4, #52]	@ 0x34
  if (sConfig->Channel >= ADC_CHANNEL_10)
 80010cc:	680a      	ldr	r2, [r1, #0]
 80010ce:	2a09      	cmp	r2, #9
 80010d0:	d938      	bls.n	8001144 <HAL_ADC_ConfigChannel+0xb8>
    MODIFY_REG(hadc->Instance->SMPR1                             ,
 80010d2:	681c      	ldr	r4, [r3, #0]
 80010d4:	68e0      	ldr	r0, [r4, #12]
 80010d6:	eb02 0242 	add.w	r2, r2, r2, lsl #1
 80010da:	3a1e      	subs	r2, #30
 80010dc:	f04f 0c07 	mov.w	ip, #7
 80010e0:	fa0c fc02 	lsl.w	ip, ip, r2
 80010e4:	ea20 000c 	bic.w	r0, r0, ip
 80010e8:	688d      	ldr	r5, [r1, #8]
 80010ea:	fa05 f202 	lsl.w	r2, r5, r2
 80010ee:	4302      	orrs	r2, r0
 80010f0:	60e2      	str	r2, [r4, #12]
  if ((sConfig->Channel == ADC_CHANNEL_TEMPSENSOR) ||
 80010f2:	680a      	ldr	r2, [r1, #0]
 80010f4:	3a10      	subs	r2, #16
 80010f6:	2a01      	cmp	r2, #1
 80010f8:	d934      	bls.n	8001164 <HAL_ADC_ConfigChannel+0xd8>
  HAL_StatusTypeDef tmp_hal_status = HAL_OK;
 80010fa:	2000      	movs	r0, #0
  __HAL_UNLOCK(hadc);
 80010fc:	2200      	movs	r2, #0
 80010fe:	f883 2024 	strb.w	r2, [r3, #36]	@ 0x24
}
 8001102:	b002      	add	sp, #8
 8001104:	bc30      	pop	{r4, r5}
 8001106:	4770      	bx	lr
  else if (sConfig->Rank < 13U)
 8001108:	2a0c      	cmp	r2, #12
 800110a:	d80d      	bhi.n	8001128 <HAL_ADC_ConfigChannel+0x9c>
    MODIFY_REG(hadc->Instance->SQR2                        ,
 800110c:	6805      	ldr	r5, [r0, #0]
 800110e:	6b28      	ldr	r0, [r5, #48]	@ 0x30
 8001110:	eb02 0282 	add.w	r2, r2, r2, lsl #2
 8001114:	3a23      	subs	r2, #35	@ 0x23
 8001116:	241f      	movs	r4, #31
 8001118:	4094      	lsls	r4, r2
 800111a:	ea20 0004 	bic.w	r0, r0, r4
 800111e:	680c      	ldr	r4, [r1, #0]
 8001120:	4094      	lsls	r4, r2
 8001122:	4320      	orrs	r0, r4
 8001124:	6328      	str	r0, [r5, #48]	@ 0x30
 8001126:	e7d1      	b.n	80010cc <HAL_ADC_ConfigChannel+0x40>
    MODIFY_REG(hadc->Instance->SQR1                        ,
 8001128:	6805      	ldr	r5, [r0, #0]
 800112a:	6ae8      	ldr	r0, [r5, #44]	@ 0x2c
 800112c:	eb02 0282 	add.w	r2, r2, r2, lsl #2
 8001130:	3a41      	subs	r2, #65	@ 0x41
 8001132:	241f      	movs	r4, #31
 8001134:	4094      	lsls	r4, r2
 8001136:	ea20 0004 	bic.w	r0, r0, r4
 800113a:	680c      	ldr	r4, [r1, #0]
 800113c:	4094      	lsls	r4, r2
 800113e:	4320      	orrs	r0, r4
 8001140:	62e8      	str	r0, [r5, #44]	@ 0x2c
 8001142:	e7c3      	b.n	80010cc <HAL_ADC_ConfigChannel+0x40>
    MODIFY_REG(hadc->Instance->SMPR2                             ,
 8001144:	681c      	ldr	r4, [r3, #0]
 8001146:	6920      	ldr	r0, [r4, #16]
 8001148:	eb02 0242 	add.w	r2, r2, r2, lsl #1
 800114c:	f04f 0c07 	mov.w	ip, #7
 8001150:	fa0c fc02 	lsl.w	ip, ip, r2
 8001154:	ea20 000c 	bic.w	r0, r0, ip
 8001158:	688d      	ldr	r5, [r1, #8]
 800115a:	fa05 f202 	lsl.w	r2, r5, r2
 800115e:	4302      	orrs	r2, r0
 8001160:	6122      	str	r2, [r4, #16]
 8001162:	e7c6      	b.n	80010f2 <HAL_ADC_ConfigChannel+0x66>
    if (hadc->Instance == ADC1)
 8001164:	6818      	ldr	r0, [r3, #0]
 8001166:	f44f 5210 	mov.w	r2, #9216	@ 0x2400
 800116a:	f2c4 0201 	movt	r2, #16385	@ 0x4001
 800116e:	4290      	cmp	r0, r2
 8001170:	d005      	beq.n	800117e <HAL_ADC_ConfigChannel+0xf2>
      SET_BIT(hadc->State, HAL_ADC_STATE_ERROR_CONFIG);
 8001172:	6a9a      	ldr	r2, [r3, #40]	@ 0x28
 8001174:	f042 0220 	orr.w	r2, r2, #32
 8001178:	629a      	str	r2, [r3, #40]	@ 0x28
      tmp_hal_status = HAL_ERROR;
 800117a:	2001      	movs	r0, #1
 800117c:	e7be      	b.n	80010fc <HAL_ADC_ConfigChannel+0x70>
      if (READ_BIT(hadc->Instance->CR2, ADC_CR2_TSVREFE) == RESET)
 800117e:	6882      	ldr	r2, [r0, #8]
 8001180:	f412 0f00 	tst.w	r2, #8388608	@ 0x800000
 8001184:	d121      	bne.n	80011ca <HAL_ADC_ConfigChannel+0x13e>
        SET_BIT(hadc->Instance->CR2, ADC_CR2_TSVREFE);
 8001186:	6882      	ldr	r2, [r0, #8]
 8001188:	f442 0200 	orr.w	r2, r2, #8388608	@ 0x800000
 800118c:	6082      	str	r2, [r0, #8]
        if (sConfig->Channel == ADC_CHANNEL_TEMPSENSOR)
 800118e:	680a      	ldr	r2, [r1, #0]
 8001190:	2a10      	cmp	r2, #16
 8001192:	d001      	beq.n	8001198 <HAL_ADC_ConfigChannel+0x10c>
  HAL_StatusTypeDef tmp_hal_status = HAL_OK;
 8001194:	2000      	movs	r0, #0
 8001196:	e7b1      	b.n	80010fc <HAL_ADC_ConfigChannel+0x70>
          wait_loop_index = (ADC_TEMPSENSOR_DELAY_US * (SystemCoreClock / 1000000U));
 8001198:	f240 0200 	movw	r2, #0
 800119c:	f2c2 0200 	movt	r2, #8192	@ 0x2000
 80011a0:	6812      	ldr	r2, [r2, #0]
 80011a2:	f64d 6183 	movw	r1, #56963	@ 0xde83
 80011a6:	f2c4 311b 	movt	r1, #17179	@ 0x431b
 80011aa:	fba1 1202 	umull	r1, r2, r1, r2
 80011ae:	0c92      	lsrs	r2, r2, #18
 80011b0:	eb02 0282 	add.w	r2, r2, r2, lsl #2
 80011b4:	0052      	lsls	r2, r2, #1
 80011b6:	9201      	str	r2, [sp, #4]
          while(wait_loop_index != 0U)
 80011b8:	e002      	b.n	80011c0 <HAL_ADC_ConfigChannel+0x134>
            wait_loop_index--;
 80011ba:	9a01      	ldr	r2, [sp, #4]
 80011bc:	3a01      	subs	r2, #1
 80011be:	9201      	str	r2, [sp, #4]
          while(wait_loop_index != 0U)
 80011c0:	9a01      	ldr	r2, [sp, #4]
 80011c2:	2a00      	cmp	r2, #0
 80011c4:	d1f9      	bne.n	80011ba <HAL_ADC_ConfigChannel+0x12e>
  HAL_StatusTypeDef tmp_hal_status = HAL_OK;
 80011c6:	2000      	movs	r0, #0
 80011c8:	e798      	b.n	80010fc <HAL_ADC_ConfigChannel+0x70>
 80011ca:	2000      	movs	r0, #0
 80011cc:	e796      	b.n	80010fc <HAL_ADC_ConfigChannel+0x70>
  __HAL_LOCK(hadc);
 80011ce:	2002      	movs	r0, #2
 80011d0:	e797      	b.n	8001102 <HAL_ADC_ConfigChannel+0x76>

080011d2 <ADC_Enable>:
{
 80011d2:	b530      	push	{r4, r5, lr}
 80011d4:	b083      	sub	sp, #12
  __IO uint32_t wait_loop_index = 0U;
 80011d6:	2300      	movs	r3, #0
 80011d8:	9301      	str	r3, [sp, #4]
  if (ADC_IS_ENABLE(hadc) == RESET)
 80011da:	6803      	ldr	r3, [r0, #0]
 80011dc:	689a      	ldr	r2, [r3, #8]
 80011de:	f012 0f01 	tst.w	r2, #1
 80011e2:	d139      	bne.n	8001258 <ADC_Enable+0x86>
 80011e4:	4604      	mov	r4, r0
    __HAL_ADC_ENABLE(hadc);
 80011e6:	689a      	ldr	r2, [r3, #8]
 80011e8:	f042 0201 	orr.w	r2, r2, #1
 80011ec:	609a      	str	r2, [r3, #8]
    wait_loop_index = (ADC_STAB_DELAY_US * (SystemCoreClock / 1000000U));
 80011ee:	f240 0300 	movw	r3, #0
 80011f2:	f2c2 0300 	movt	r3, #8192	@ 0x2000
 80011f6:	681b      	ldr	r3, [r3, #0]
 80011f8:	f64d 6283 	movw	r2, #56963	@ 0xde83
 80011fc:	f2c4 321b 	movt	r2, #17179	@ 0x431b
 8001200:	fba2 2303 	umull	r2, r3, r2, r3
 8001204:	0c9b      	lsrs	r3, r3, #18
 8001206:	9301      	str	r3, [sp, #4]
    while(wait_loop_index != 0U)
 8001208:	e002      	b.n	8001210 <ADC_Enable+0x3e>
      wait_loop_index--;
 800120a:	9b01      	ldr	r3, [sp, #4]
 800120c:	3b01      	subs	r3, #1
 800120e:	9301      	str	r3, [sp, #4]
    while(wait_loop_index != 0U)
 8001210:	9b01      	ldr	r3, [sp, #4]
 8001212:	2b00      	cmp	r3, #0
 8001214:	d1f9      	bne.n	800120a <ADC_Enable+0x38>
    tickstart = HAL_GetTick();
 8001216:	f7ff fee2 	bl	8000fde <HAL_GetTick>
 800121a:	4605      	mov	r5, r0
    while(ADC_IS_ENABLE(hadc) == RESET)
 800121c:	6823      	ldr	r3, [r4, #0]
 800121e:	689b      	ldr	r3, [r3, #8]
 8001220:	f013 0f01 	tst.w	r3, #1
 8001224:	d116      	bne.n	8001254 <ADC_Enable+0x82>
      if((HAL_GetTick() - tickstart) > ADC_ENABLE_TIMEOUT)
 8001226:	f7ff feda 	bl	8000fde <HAL_GetTick>
 800122a:	1b43      	subs	r3, r0, r5
 800122c:	2b02      	cmp	r3, #2
 800122e:	d9f5      	bls.n	800121c <ADC_Enable+0x4a>
        if(ADC_IS_ENABLE(hadc) == RESET)
 8001230:	6823      	ldr	r3, [r4, #0]
 8001232:	689b      	ldr	r3, [r3, #8]
 8001234:	f013 0f01 	tst.w	r3, #1
 8001238:	d1f0      	bne.n	800121c <ADC_Enable+0x4a>
          SET_BIT(hadc->State, HAL_ADC_STATE_ERROR_INTERNAL);
 800123a:	6aa3      	ldr	r3, [r4, #40]	@ 0x28
 800123c:	f043 0310 	orr.w	r3, r3, #16
 8001240:	62a3      	str	r3, [r4, #40]	@ 0x28
          SET_BIT(hadc->ErrorCode, HAL_ADC_ERROR_INTERNAL);
 8001242:	6ae3      	ldr	r3, [r4, #44]	@ 0x2c
 8001244:	f043 0301 	orr.w	r3, r3, #1
 8001248:	62e3      	str	r3, [r4, #44]	@ 0x2c
          __HAL_UNLOCK(hadc);
 800124a:	2300      	movs	r3, #0
 800124c:	f884 3024 	strb.w	r3, [r4, #36]	@ 0x24
          return HAL_ERROR;
 8001250:	2001      	movs	r0, #1
 8001252:	e002      	b.n	800125a <ADC_Enable+0x88>
  return HAL_OK;
 8001254:	2000      	movs	r0, #0
 8001256:	e000      	b.n	800125a <ADC_Enable+0x88>
 8001258:	2000      	movs	r0, #0
}
 800125a:	b003      	add	sp, #12
 800125c:	bd30      	pop	{r4, r5, pc}

0800125e <HAL_ADC_Start_DMA>:
{
 800125e:	b5f8      	push	{r3, r4, r5, r6, r7, lr}
 8001260:	4604      	mov	r4, r0
 8001262:	460d      	mov	r5, r1
 8001264:	4616      	mov	r6, r2
  if(ADC_MULTIMODE_IS_ENABLE(hadc) == RESET)
 8001266:	6802      	ldr	r2, [r0, #0]
 8001268:	f44f 5310 	mov.w	r3, #9216	@ 0x2400
 800126c:	f2c4 0301 	movt	r3, #16385	@ 0x4001
 8001270:	429a      	cmp	r2, r3
 8001272:	d06a      	beq.n	800134a <HAL_ADC_Start_DMA+0xec>
 8001274:	f44f 5320 	mov.w	r3, #10240	@ 0x2800
 8001278:	f2c4 0301 	movt	r3, #16385	@ 0x4001
 800127c:	429a      	cmp	r2, r3
 800127e:	d064      	beq.n	800134a <HAL_ADC_Start_DMA+0xec>
    __HAL_LOCK(hadc);
 8001280:	f894 3024 	ldrb.w	r3, [r4, #36]	@ 0x24
 8001284:	2b01      	cmp	r3, #1
 8001286:	f000 8092 	beq.w	80013ae <HAL_ADC_Start_DMA+0x150>
 800128a:	2301      	movs	r3, #1
 800128c:	f884 3024 	strb.w	r3, [r4, #36]	@ 0x24
    tmp_hal_status = ADC_Enable(hadc);
 8001290:	4620      	mov	r0, r4
 8001292:	f7ff ff9e 	bl	80011d2 <ADC_Enable>
    if (tmp_hal_status == HAL_OK)
 8001296:	4607      	mov	r7, r0
 8001298:	2800      	cmp	r0, #0
 800129a:	f040 8083 	bne.w	80013a4 <HAL_ADC_Start_DMA+0x146>
      ADC_STATE_CLR_SET(hadc->State,
 800129e:	6aa3      	ldr	r3, [r4, #40]	@ 0x28
 80012a0:	f423 6370 	bic.w	r3, r3, #3840	@ 0xf00
 80012a4:	f023 0301 	bic.w	r3, r3, #1
 80012a8:	f443 7380 	orr.w	r3, r3, #256	@ 0x100
 80012ac:	62a3      	str	r3, [r4, #40]	@ 0x28
    if (ADC_NONMULTIMODE_OR_MULTIMODEMASTER(hadc))
 80012ae:	6822      	ldr	r2, [r4, #0]
 80012b0:	f44f 5320 	mov.w	r3, #10240	@ 0x2800
 80012b4:	f2c4 0301 	movt	r3, #16385	@ 0x4001
 80012b8:	429a      	cmp	r2, r3
 80012ba:	d050      	beq.n	800135e <HAL_ADC_Start_DMA+0x100>
      CLEAR_BIT(hadc->State, HAL_ADC_STATE_MULTIMODE_SLAVE);
 80012bc:	6aa3      	ldr	r3, [r4, #40]	@ 0x28
 80012be:	f423 1380 	bic.w	r3, r3, #1048576	@ 0x100000
 80012c2:	62a3      	str	r3, [r4, #40]	@ 0x28
      if (READ_BIT(hadc->Instance->CR1, ADC_CR1_JAUTO) != RESET)
 80012c4:	6853      	ldr	r3, [r2, #4]
 80012c6:	f413 6f80 	tst.w	r3, #1024	@ 0x400
 80012ca:	d005      	beq.n	80012d8 <HAL_ADC_Start_DMA+0x7a>
        ADC_STATE_CLR_SET(hadc->State, HAL_ADC_STATE_INJ_EOC, HAL_ADC_STATE_INJ_BUSY);  
 80012cc:	6aa3      	ldr	r3, [r4, #40]	@ 0x28
 80012ce:	f423 5340 	bic.w	r3, r3, #12288	@ 0x3000
 80012d2:	f443 5380 	orr.w	r3, r3, #4096	@ 0x1000
 80012d6:	62a3      	str	r3, [r4, #40]	@ 0x28
      if (HAL_IS_BIT_SET(hadc->State, HAL_ADC_STATE_INJ_BUSY))
 80012d8:	6aa3      	ldr	r3, [r4, #40]	@ 0x28
 80012da:	f413 5f80 	tst.w	r3, #4096	@ 0x1000
 80012de:	d059      	beq.n	8001394 <HAL_ADC_Start_DMA+0x136>
        CLEAR_BIT(hadc->ErrorCode, (HAL_ADC_ERROR_OVR | HAL_ADC_ERROR_DMA));         
 80012e0:	6ae3      	ldr	r3, [r4, #44]	@ 0x2c
 80012e2:	f023 0306 	bic.w	r3, r3, #6
 80012e6:	62e3      	str	r3, [r4, #44]	@ 0x2c
      __HAL_UNLOCK(hadc);
 80012e8:	2300      	movs	r3, #0
 80012ea:	f884 3024 	strb.w	r3, [r4, #36]	@ 0x24
      hadc->DMA_Handle->XferCpltCallback = ADC_DMAConvCplt;
 80012ee:	6a22      	ldr	r2, [r4, #32]
 80012f0:	f241 0313 	movw	r3, #4115	@ 0x1013
 80012f4:	f6c0 0300 	movt	r3, #2048	@ 0x800
 80012f8:	6293      	str	r3, [r2, #40]	@ 0x28
      hadc->DMA_Handle->XferHalfCpltCallback = ADC_DMAHalfConvCplt;
 80012fa:	6a22      	ldr	r2, [r4, #32]
 80012fc:	f241 0367 	movw	r3, #4199	@ 0x1067
 8001300:	f6c0 0300 	movt	r3, #2048	@ 0x800
 8001304:	62d3      	str	r3, [r2, #44]	@ 0x2c
      hadc->DMA_Handle->XferErrorCallback = ADC_DMAError;
 8001306:	6a22      	ldr	r2, [r4, #32]
 8001308:	f241 0373 	movw	r3, #4211	@ 0x1073
 800130c:	f6c0 0300 	movt	r3, #2048	@ 0x800
 8001310:	6313      	str	r3, [r2, #48]	@ 0x30
      __HAL_ADC_CLEAR_FLAG(hadc, ADC_FLAG_EOC);
 8001312:	6823      	ldr	r3, [r4, #0]
 8001314:	f06f 0202 	mvn.w	r2, #2
 8001318:	601a      	str	r2, [r3, #0]
      SET_BIT(hadc->Instance->CR2, ADC_CR2_DMA);
 800131a:	6822      	ldr	r2, [r4, #0]
 800131c:	6893      	ldr	r3, [r2, #8]
 800131e:	f443 7380 	orr.w	r3, r3, #256	@ 0x100
 8001322:	6093      	str	r3, [r2, #8]
      HAL_DMA_Start_IT(hadc->DMA_Handle, (uint32_t)&hadc->Instance->DR, (uint32_t)pData, Length);
 8001324:	6821      	ldr	r1, [r4, #0]
 8001326:	4633      	mov	r3, r6
 8001328:	462a      	mov	r2, r5
 800132a:	314c      	adds	r1, #76	@ 0x4c
 800132c:	6a20      	ldr	r0, [r4, #32]
 800132e:	f000 f9e9 	bl	8001704 <HAL_DMA_Start_IT>
      if (ADC_IS_SOFTWARE_START_REGULAR(hadc))
 8001332:	6823      	ldr	r3, [r4, #0]
 8001334:	689a      	ldr	r2, [r3, #8]
 8001336:	f402 2260 	and.w	r2, r2, #917504	@ 0xe0000
 800133a:	f5b2 2f60 	cmp.w	r2, #917504	@ 0xe0000
 800133e:	d02c      	beq.n	800139a <HAL_ADC_Start_DMA+0x13c>
        SET_BIT(hadc->Instance->CR2, ADC_CR2_EXTTRIG);
 8001340:	689a      	ldr	r2, [r3, #8]
 8001342:	f442 1280 	orr.w	r2, r2, #1048576	@ 0x100000
 8001346:	609a      	str	r2, [r3, #8]
 8001348:	e02f      	b.n	80013aa <HAL_ADC_Start_DMA+0x14c>
  if(ADC_MULTIMODE_IS_ENABLE(hadc) == RESET)
 800134a:	f44f 5310 	mov.w	r3, #9216	@ 0x2400
 800134e:	f2c4 0301 	movt	r3, #16385	@ 0x4001
 8001352:	685b      	ldr	r3, [r3, #4]
 8001354:	f413 2f70 	tst.w	r3, #983040	@ 0xf0000
 8001358:	d092      	beq.n	8001280 <HAL_ADC_Start_DMA+0x22>
    tmp_hal_status = HAL_ERROR;
 800135a:	2701      	movs	r7, #1
 800135c:	e025      	b.n	80013aa <HAL_ADC_Start_DMA+0x14c>
    if (ADC_NONMULTIMODE_OR_MULTIMODEMASTER(hadc))
 800135e:	f44f 5310 	mov.w	r3, #9216	@ 0x2400
 8001362:	f2c4 0301 	movt	r3, #16385	@ 0x4001
 8001366:	685b      	ldr	r3, [r3, #4]
 8001368:	f413 2f70 	tst.w	r3, #983040	@ 0xf0000
 800136c:	d0a6      	beq.n	80012bc <HAL_ADC_Start_DMA+0x5e>
      SET_BIT(hadc->State, HAL_ADC_STATE_MULTIMODE_SLAVE);
 800136e:	6aa3      	ldr	r3, [r4, #40]	@ 0x28
 8001370:	f443 1380 	orr.w	r3, r3, #1048576	@ 0x100000
 8001374:	62a3      	str	r3, [r4, #40]	@ 0x28
      if (ADC_MULTIMODE_AUTO_INJECTED(hadc))
 8001376:	f44f 5310 	mov.w	r3, #9216	@ 0x2400
 800137a:	f2c4 0301 	movt	r3, #16385	@ 0x4001
 800137e:	685b      	ldr	r3, [r3, #4]
 8001380:	f413 6f80 	tst.w	r3, #1024	@ 0x400
 8001384:	d0a8      	beq.n	80012d8 <HAL_ADC_Start_DMA+0x7a>
        ADC_STATE_CLR_SET(hadc->State, HAL_ADC_STATE_INJ_EOC, HAL_ADC_STATE_INJ_BUSY);
 8001386:	6aa3      	ldr	r3, [r4, #40]	@ 0x28
 8001388:	f423 5340 	bic.w	r3, r3, #12288	@ 0x3000
 800138c:	f443 5380 	orr.w	r3, r3, #4096	@ 0x1000
 8001390:	62a3      	str	r3, [r4, #40]	@ 0x28
 8001392:	e7a1      	b.n	80012d8 <HAL_ADC_Start_DMA+0x7a>
        ADC_CLEAR_ERRORCODE(hadc);
 8001394:	2300      	movs	r3, #0
 8001396:	62e3      	str	r3, [r4, #44]	@ 0x2c
 8001398:	e7a6      	b.n	80012e8 <HAL_ADC_Start_DMA+0x8a>
        SET_BIT(hadc->Instance->CR2, (ADC_CR2_SWSTART | ADC_CR2_EXTTRIG));
 800139a:	689a      	ldr	r2, [r3, #8]
 800139c:	f442 02a0 	orr.w	r2, r2, #5242880	@ 0x500000
 80013a0:	609a      	str	r2, [r3, #8]
 80013a2:	e002      	b.n	80013aa <HAL_ADC_Start_DMA+0x14c>
      __HAL_UNLOCK(hadc);
 80013a4:	2300      	movs	r3, #0
 80013a6:	f884 3024 	strb.w	r3, [r4, #36]	@ 0x24
}
 80013aa:	4638      	mov	r0, r7
 80013ac:	bdf8      	pop	{r3, r4, r5, r6, r7, pc}
    __HAL_LOCK(hadc);
 80013ae:	2702      	movs	r7, #2
 80013b0:	e7fb      	b.n	80013aa <HAL_ADC_Start_DMA+0x14c>

080013b2 <ADC_ConversionStop_Disable>:
{
 80013b2:	b538      	push	{r3, r4, r5, lr}
  if (ADC_IS_ENABLE(hadc) != RESET)
 80013b4:	6803      	ldr	r3, [r0, #0]
 80013b6:	689a      	ldr	r2, [r3, #8]
 80013b8:	f012 0f01 	tst.w	r2, #1
 80013bc:	d101      	bne.n	80013c2 <ADC_ConversionStop_Disable+0x10>
  return HAL_OK;
 80013be:	2000      	movs	r0, #0
}
 80013c0:	bd38      	pop	{r3, r4, r5, pc}
 80013c2:	4604      	mov	r4, r0
    __HAL_ADC_DISABLE(hadc);
 80013c4:	689a      	ldr	r2, [r3, #8]
 80013c6:	f022 0201 	bic.w	r2, r2, #1
 80013ca:	609a      	str	r2, [r3, #8]
    tickstart = HAL_GetTick();
 80013cc:	f7ff fe07 	bl	8000fde <HAL_GetTick>
 80013d0:	4605      	mov	r5, r0
    while(ADC_IS_ENABLE(hadc) != RESET)
 80013d2:	6823      	ldr	r3, [r4, #0]
 80013d4:	689b      	ldr	r3, [r3, #8]
 80013d6:	f013 0f01 	tst.w	r3, #1
 80013da:	d013      	beq.n	8001404 <ADC_ConversionStop_Disable+0x52>
      if((HAL_GetTick() - tickstart) > ADC_DISABLE_TIMEOUT)
 80013dc:	f7ff fdff 	bl	8000fde <HAL_GetTick>
 80013e0:	1b43      	subs	r3, r0, r5
 80013e2:	2b02      	cmp	r3, #2
 80013e4:	d9f5      	bls.n	80013d2 <ADC_ConversionStop_Disable+0x20>
        if(ADC_IS_ENABLE(hadc) != RESET)
 80013e6:	6823      	ldr	r3, [r4, #0]
 80013e8:	689b      	ldr	r3, [r3, #8]
 80013ea:	f013 0f01 	tst.w	r3, #1
 80013ee:	d0f0      	beq.n	80013d2 <ADC_ConversionStop_Disable+0x20>
          SET_BIT(hadc->State, HAL_ADC_STATE_ERROR_INTERNAL);
 80013f0:	6aa3      	ldr	r3, [r4, #40]	@ 0x28
 80013f2:	f043 0310 	orr.w	r3, r3, #16
 80013f6:	62a3      	str	r3, [r4, #40]	@ 0x28
          SET_BIT(hadc->ErrorCode, HAL_ADC_ERROR_INTERNAL);
 80013f8:	6ae3      	ldr	r3, [r4, #44]	@ 0x2c
 80013fa:	f043 0301 	orr.w	r3, r3, #1
 80013fe:	62e3      	str	r3, [r4, #44]	@ 0x2c
          return HAL_ERROR;
 8001400:	2001      	movs	r0, #1
 8001402:	e7dd      	b.n	80013c0 <ADC_ConversionStop_Disable+0xe>
  return HAL_OK;
 8001404:	2000      	movs	r0, #0
 8001406:	e7db      	b.n	80013c0 <ADC_ConversionStop_Disable+0xe>

08001408 <HAL_ADC_Init>:
  if(hadc == NULL)
 8001408:	2800      	cmp	r0, #0
 800140a:	f000 8082 	beq.w	8001512 <HAL_ADC_Init+0x10a>
{
 800140e:	b570      	push	{r4, r5, r6, lr}
 8001410:	4604      	mov	r4, r0
  if (hadc->State == HAL_ADC_STATE_RESET)
 8001412:	6a83      	ldr	r3, [r0, #40]	@ 0x28
 8001414:	2b00      	cmp	r3, #0
 8001416:	d053      	beq.n	80014c0 <HAL_ADC_Init+0xb8>
  tmp_hal_status = ADC_ConversionStop_Disable(hadc);
 8001418:	4620      	mov	r0, r4
 800141a:	f7ff ffca 	bl	80013b2 <ADC_ConversionStop_Disable>
  if (HAL_IS_BIT_CLR(hadc->State, HAL_ADC_STATE_ERROR_INTERNAL) &&
 800141e:	6aa3      	ldr	r3, [r4, #40]	@ 0x28
 8001420:	f013 0310 	ands.w	r3, r3, #16
 8001424:	d16f      	bne.n	8001506 <HAL_ADC_Init+0xfe>
 8001426:	2800      	cmp	r0, #0
 8001428:	d16d      	bne.n	8001506 <HAL_ADC_Init+0xfe>
    ADC_STATE_CLR_SET(hadc->State,
 800142a:	6aa2      	ldr	r2, [r4, #40]	@ 0x28
 800142c:	f422 5288 	bic.w	r2, r2, #4352	@ 0x1100
 8001430:	f022 0202 	bic.w	r2, r2, #2
 8001434:	f042 0202 	orr.w	r2, r2, #2
 8001438:	62a2      	str	r2, [r4, #40]	@ 0x28
    tmp_cr2 |= (hadc->Init.DataAlign                                          |
 800143a:	6862      	ldr	r2, [r4, #4]
                ADC_CFGR_EXTSEL(hadc, hadc->Init.ExternalTrigConv)            |
 800143c:	69e1      	ldr	r1, [r4, #28]
    tmp_cr2 |= (hadc->Init.DataAlign                                          |
 800143e:	430a      	orrs	r2, r1
                ADC_CR2_CONTINUOUS((uint32_t)hadc->Init.ContinuousConvMode)   );
 8001440:	7b21      	ldrb	r1, [r4, #12]
                ADC_CFGR_EXTSEL(hadc, hadc->Init.ExternalTrigConv)            |
 8001442:	ea42 0241 	orr.w	r2, r2, r1, lsl #1
    tmp_cr1 |= (ADC_CR1_SCAN_SET(hadc->Init.ScanConvMode));
 8001446:	68a5      	ldr	r5, [r4, #8]
 8001448:	f5b5 7f80 	cmp.w	r5, #256	@ 0x100
 800144c:	d002      	beq.n	8001454 <HAL_ADC_Init+0x4c>
 800144e:	2d01      	cmp	r5, #1
 8001450:	d03c      	beq.n	80014cc <HAL_ADC_Init+0xc4>
 8001452:	461d      	mov	r5, r3
    if (hadc->Init.DiscontinuousConvMode == ENABLE)
 8001454:	7d26      	ldrb	r6, [r4, #20]
 8001456:	2e01      	cmp	r6, #1
 8001458:	d03b      	beq.n	80014d2 <HAL_ADC_Init+0xca>
      MODIFY_REG(hadc->Instance->CR1,
 800145a:	6826      	ldr	r6, [r4, #0]
 800145c:	6871      	ldr	r1, [r6, #4]
 800145e:	f421 4169 	bic.w	r1, r1, #59648	@ 0xe900
 8001462:	4329      	orrs	r1, r5
 8001464:	6071      	str	r1, [r6, #4]
      MODIFY_REG(hadc->Instance->CR2,
 8001466:	6825      	ldr	r5, [r4, #0]
 8001468:	68ae      	ldr	r6, [r5, #8]
 800146a:	f24f 71fd 	movw	r1, #63485	@ 0xf7fd
 800146e:	f6cf 71e1 	movt	r1, #65505	@ 0xffe1
 8001472:	4031      	ands	r1, r6
 8001474:	4311      	orrs	r1, r2
 8001476:	60a9      	str	r1, [r5, #8]
    if (ADC_CR1_SCAN_SET(hadc->Init.ScanConvMode) == ADC_SCAN_ENABLE)
 8001478:	68a1      	ldr	r1, [r4, #8]
 800147a:	f5b1 7f80 	cmp.w	r1, #256	@ 0x100
 800147e:	d001      	beq.n	8001484 <HAL_ADC_Init+0x7c>
 8001480:	2901      	cmp	r1, #1
 8001482:	d102      	bne.n	800148a <HAL_ADC_Init+0x82>
      tmp_sqr1 = ADC_SQR1_L_SHIFT(hadc->Init.NbrOfConversion);
 8001484:	6923      	ldr	r3, [r4, #16]
 8001486:	3b01      	subs	r3, #1
 8001488:	051b      	lsls	r3, r3, #20
    MODIFY_REG(hadc->Instance->SQR1,
 800148a:	6825      	ldr	r5, [r4, #0]
 800148c:	6ae9      	ldr	r1, [r5, #44]	@ 0x2c
 800148e:	f421 0170 	bic.w	r1, r1, #15728640	@ 0xf00000
 8001492:	430b      	orrs	r3, r1
 8001494:	62eb      	str	r3, [r5, #44]	@ 0x2c
    if (READ_BIT(hadc->Instance->CR2, ~(ADC_CR2_ADON | ADC_CR2_DMA |
 8001496:	6823      	ldr	r3, [r4, #0]
 8001498:	6899      	ldr	r1, [r3, #8]
 800149a:	f640 63fe 	movw	r3, #3838	@ 0xefe
 800149e:	f6cf 731f 	movt	r3, #65311	@ 0xff1f
 80014a2:	400b      	ands	r3, r1
 80014a4:	429a      	cmp	r2, r3
 80014a6:	d025      	beq.n	80014f4 <HAL_ADC_Init+0xec>
      ADC_STATE_CLR_SET(hadc->State,
 80014a8:	6aa3      	ldr	r3, [r4, #40]	@ 0x28
 80014aa:	f023 0312 	bic.w	r3, r3, #18
 80014ae:	f043 0310 	orr.w	r3, r3, #16
 80014b2:	62a3      	str	r3, [r4, #40]	@ 0x28
      SET_BIT(hadc->ErrorCode, HAL_ADC_ERROR_INTERNAL);
 80014b4:	6ae3      	ldr	r3, [r4, #44]	@ 0x2c
 80014b6:	f043 0301 	orr.w	r3, r3, #1
 80014ba:	62e3      	str	r3, [r4, #44]	@ 0x2c
      tmp_hal_status = HAL_ERROR;
 80014bc:	2001      	movs	r0, #1
 80014be:	e027      	b.n	8001510 <HAL_ADC_Init+0x108>
    ADC_CLEAR_ERRORCODE(hadc);
 80014c0:	62c3      	str	r3, [r0, #44]	@ 0x2c
    hadc->Lock = HAL_UNLOCKED;
 80014c2:	f880 3024 	strb.w	r3, [r0, #36]	@ 0x24
    HAL_ADC_MspInit(hadc);
 80014c6:	f7ff fbb1 	bl	8000c2c <HAL_ADC_MspInit>
 80014ca:	e7a5      	b.n	8001418 <HAL_ADC_Init+0x10>
    tmp_cr1 |= (ADC_CR1_SCAN_SET(hadc->Init.ScanConvMode));
 80014cc:	f44f 7580 	mov.w	r5, #256	@ 0x100
 80014d0:	e7c0      	b.n	8001454 <HAL_ADC_Init+0x4c>
      if (hadc->Init.ContinuousConvMode == DISABLE)
 80014d2:	b931      	cbnz	r1, 80014e2 <HAL_ADC_Init+0xda>
        SET_BIT(tmp_cr1, ADC_CR1_DISCEN                                            |
 80014d4:	69a1      	ldr	r1, [r4, #24]
 80014d6:	3901      	subs	r1, #1
 80014d8:	ea45 3141 	orr.w	r1, r5, r1, lsl #13
 80014dc:	f441 6500 	orr.w	r5, r1, #2048	@ 0x800
 80014e0:	e7bb      	b.n	800145a <HAL_ADC_Init+0x52>
        SET_BIT(hadc->State, HAL_ADC_STATE_ERROR_CONFIG);
 80014e2:	6aa1      	ldr	r1, [r4, #40]	@ 0x28
 80014e4:	f041 0120 	orr.w	r1, r1, #32
 80014e8:	62a1      	str	r1, [r4, #40]	@ 0x28
        SET_BIT(hadc->ErrorCode, HAL_ADC_ERROR_INTERNAL);
 80014ea:	6ae1      	ldr	r1, [r4, #44]	@ 0x2c
 80014ec:	f041 0101 	orr.w	r1, r1, #1
 80014f0:	62e1      	str	r1, [r4, #44]	@ 0x2c
 80014f2:	e7b2      	b.n	800145a <HAL_ADC_Init+0x52>
      ADC_CLEAR_ERRORCODE(hadc);
 80014f4:	2300      	movs	r3, #0
 80014f6:	62e3      	str	r3, [r4, #44]	@ 0x2c
      ADC_STATE_CLR_SET(hadc->State,
 80014f8:	6aa3      	ldr	r3, [r4, #40]	@ 0x28
 80014fa:	f023 0303 	bic.w	r3, r3, #3
 80014fe:	f043 0301 	orr.w	r3, r3, #1
 8001502:	62a3      	str	r3, [r4, #40]	@ 0x28
 8001504:	e004      	b.n	8001510 <HAL_ADC_Init+0x108>
    SET_BIT(hadc->State, HAL_ADC_STATE_ERROR_INTERNAL);
 8001506:	6aa3      	ldr	r3, [r4, #40]	@ 0x28
 8001508:	f043 0310 	orr.w	r3, r3, #16
 800150c:	62a3      	str	r3, [r4, #40]	@ 0x28
    tmp_hal_status = HAL_ERROR;
 800150e:	2001      	movs	r0, #1
}
 8001510:	bd70      	pop	{r4, r5, r6, pc}
    return HAL_ERROR;
 8001512:	2001      	movs	r0, #1
}
 8001514:	4770      	bx	lr

08001516 <HAL_ADC_Stop_DMA>:
  __HAL_LOCK(hadc);
 8001516:	f890 3024 	ldrb.w	r3, [r0, #36]	@ 0x24
 800151a:	2b01      	cmp	r3, #1
 800151c:	d028      	beq.n	8001570 <HAL_ADC_Stop_DMA+0x5a>
{
 800151e:	b510      	push	{r4, lr}
 8001520:	4604      	mov	r4, r0
  __HAL_LOCK(hadc);
 8001522:	2301      	movs	r3, #1
 8001524:	f880 3024 	strb.w	r3, [r0, #36]	@ 0x24
  tmp_hal_status = ADC_ConversionStop_Disable(hadc);
 8001528:	f7ff ff43 	bl	80013b2 <ADC_ConversionStop_Disable>
  if (tmp_hal_status == HAL_OK)
 800152c:	b950      	cbnz	r0, 8001544 <HAL_ADC_Stop_DMA+0x2e>
    CLEAR_BIT(hadc->Instance->CR2, ADC_CR2_DMA);
 800152e:	6822      	ldr	r2, [r4, #0]
 8001530:	6893      	ldr	r3, [r2, #8]
 8001532:	f423 7380 	bic.w	r3, r3, #256	@ 0x100
 8001536:	6093      	str	r3, [r2, #8]
    if (hadc->DMA_Handle->State == HAL_DMA_STATE_BUSY)
 8001538:	6a22      	ldr	r2, [r4, #32]
 800153a:	f892 3021 	ldrb.w	r3, [r2, #33]	@ 0x21
 800153e:	b2db      	uxtb	r3, r3
 8001540:	2b02      	cmp	r3, #2
 8001542:	d003      	beq.n	800154c <HAL_ADC_Stop_DMA+0x36>
  __HAL_UNLOCK(hadc);
 8001544:	2300      	movs	r3, #0
 8001546:	f884 3024 	strb.w	r3, [r4, #36]	@ 0x24
}
 800154a:	bd10      	pop	{r4, pc}
      tmp_hal_status = HAL_DMA_Abort(hadc->DMA_Handle);
 800154c:	4610      	mov	r0, r2
 800154e:	f000 f914 	bl	800177a <HAL_DMA_Abort>
      if (tmp_hal_status == HAL_OK)
 8001552:	b940      	cbnz	r0, 8001566 <HAL_ADC_Stop_DMA+0x50>
        ADC_STATE_CLR_SET(hadc->State,
 8001554:	6aa3      	ldr	r3, [r4, #40]	@ 0x28
 8001556:	f423 5388 	bic.w	r3, r3, #4352	@ 0x1100
 800155a:	f023 0301 	bic.w	r3, r3, #1
 800155e:	f043 0301 	orr.w	r3, r3, #1
 8001562:	62a3      	str	r3, [r4, #40]	@ 0x28
 8001564:	e7ee      	b.n	8001544 <HAL_ADC_Stop_DMA+0x2e>
        SET_BIT(hadc->State, HAL_ADC_STATE_ERROR_DMA);
 8001566:	6aa3      	ldr	r3, [r4, #40]	@ 0x28
 8001568:	f043 0340 	orr.w	r3, r3, #64	@ 0x40
 800156c:	62a3      	str	r3, [r4, #40]	@ 0x28
 800156e:	e7e9      	b.n	8001544 <HAL_ADC_Stop_DMA+0x2e>
  __HAL_LOCK(hadc);
 8001570:	2002      	movs	r0, #2
}
 8001572:	4770      	bx	lr

08001574 <__NVIC_SetPriority>:
  \param [in]  priority  Priority to set.
  \note    The priority cannot be set for every processor exception.
 */
__STATIC_INLINE void __NVIC_SetPriority(IRQn_Type IRQn, uint32_t priority)
{
  if ((int32_t)(IRQn) >= 0)
 8001574:	2800      	cmp	r0, #0
 8001576:	db08      	blt.n	800158a <__NVIC_SetPriority+0x16>
  {
    NVIC->IP[((uint32_t)IRQn)]               = (uint8_t)((priority << (8U - __NVIC_PRIO_BITS)) & (uint32_t)0xFFUL);
 8001578:	0109      	lsls	r1, r1, #4
 800157a:	b2c9      	uxtb	r1, r1
 800157c:	f100 4060 	add.w	r0, r0, #3758096384	@ 0xe0000000
 8001580:	f500 4061 	add.w	r0, r0, #57600	@ 0xe100
 8001584:	f880 1300 	strb.w	r1, [r0, #768]	@ 0x300
 8001588:	4770      	bx	lr
  }
  else
  {
    SCB->SHP[(((uint32_t)IRQn) & 0xFUL)-4UL] = (uint8_t)((priority << (8U - __NVIC_PRIO_BITS)) & (uint32_t)0xFFUL);
 800158a:	f000 000f 	and.w	r0, r0, #15
 800158e:	0109      	lsls	r1, r1, #4
 8001590:	b2c9      	uxtb	r1, r1
 8001592:	f64e 43fc 	movw	r3, #60668	@ 0xecfc
 8001596:	f2ce 0300 	movt	r3, #57344	@ 0xe000
 800159a:	4403      	add	r3, r0
 800159c:	7619      	strb	r1, [r3, #24]
  }
}
 800159e:	4770      	bx	lr

080015a0 <NVIC_EncodePriority>:
  \param [in]   PreemptPriority  Preemptive priority value (starting from 0).
  \param [in]       SubPriority  Subpriority value (starting from 0).
  \return                        Encoded priority. Value can be used in the function \ref NVIC_SetPriority().
 */
__STATIC_INLINE uint32_t NVIC_EncodePriority (uint32_t PriorityGroup, uint32_t PreemptPriority, uint32_t SubPriority)
{
 80015a0:	b500      	push	{lr}
  uint32_t PriorityGroupTmp = (PriorityGroup & (uint32_t)0x07UL);   /* only values 0..7 are used          */
 80015a2:	f000 0007 	and.w	r0, r0, #7
  uint32_t PreemptPriorityBits;
  uint32_t SubPriorityBits;

  PreemptPriorityBits = ((7UL - PriorityGroupTmp) > (uint32_t)(__NVIC_PRIO_BITS)) ? (uint32_t)(__NVIC_PRIO_BITS) : (uint32_t)(7UL - PriorityGroupTmp);
 80015a6:	f1c0 0c07 	rsb	ip, r0, #7
 80015aa:	f1bc 0f04 	cmp.w	ip, #4
 80015ae:	bf28      	it	cs
 80015b0:	f04f 0c04 	movcs.w	ip, #4
  SubPriorityBits     = ((PriorityGroupTmp + (uint32_t)(__NVIC_PRIO_BITS)) < (uint32_t)7UL) ? (uint32_t)0UL : (uint32_t)((PriorityGroupTmp - 7UL) + (uint32_t)(__NVIC_PRIO_BITS));
 80015b4:	1d03      	adds	r3, r0, #4
 80015b6:	2b06      	cmp	r3, #6
 80015b8:	d90f      	bls.n	80015da <NVIC_EncodePriority+0x3a>
 80015ba:	1ec3      	subs	r3, r0, #3

  return (
           ((PreemptPriority & (uint32_t)((1UL << (PreemptPriorityBits)) - 1UL)) << SubPriorityBits) |
 80015bc:	f04f 3eff 	mov.w	lr, #4294967295
 80015c0:	fa0e f00c 	lsl.w	r0, lr, ip
 80015c4:	ea21 0100 	bic.w	r1, r1, r0
 80015c8:	4099      	lsls	r1, r3
           ((SubPriority     & (uint32_t)((1UL << (SubPriorityBits    )) - 1UL)))
 80015ca:	fa0e fe03 	lsl.w	lr, lr, r3
 80015ce:	ea22 020e 	bic.w	r2, r2, lr
         );
}
 80015d2:	ea41 0002 	orr.w	r0, r1, r2
 80015d6:	f85d fb04 	ldr.w	pc, [sp], #4
  SubPriorityBits     = ((PriorityGroupTmp + (uint32_t)(__NVIC_PRIO_BITS)) < (uint32_t)7UL) ? (uint32_t)0UL : (uint32_t)((PriorityGroupTmp - 7UL) + (uint32_t)(__NVIC_PRIO_BITS));
 80015da:	2300      	movs	r3, #0
 80015dc:	e7ee      	b.n	80015bc <NVIC_EncodePriority+0x1c>

080015de <HAL_NVIC_SetPriorityGrouping>:
  reg_value  =  SCB->AIRCR;                                                   /* read old register configuration    */
 80015de:	f44f 426d 	mov.w	r2, #60672	@ 0xed00
 80015e2:	f2ce 0200 	movt	r2, #57344	@ 0xe000
 80015e6:	68d3      	ldr	r3, [r2, #12]
  reg_value &= ~((uint32_t)(SCB_AIRCR_VECTKEY_Msk | SCB_AIRCR_PRIGROUP_Msk)); /* clear bits to change               */
 80015e8:	f423 63e0 	bic.w	r3, r3, #1792	@ 0x700
 80015ec:	041b      	lsls	r3, r3, #16
 80015ee:	0c1b      	lsrs	r3, r3, #16
                (PriorityGroupTmp << SCB_AIRCR_PRIGROUP_Pos) );               /* Insert write key and priority group */
 80015f0:	0200      	lsls	r0, r0, #8
 80015f2:	f400 60e0 	and.w	r0, r0, #1792	@ 0x700
                ((uint32_t)0x5FAUL << SCB_AIRCR_VECTKEY_Pos) |
 80015f6:	4303      	orrs	r3, r0
  reg_value  =  (reg_value                                   |
 80015f8:	f043 63bf 	orr.w	r3, r3, #100139008	@ 0x5f80000
 80015fc:	f443 3300 	orr.w	r3, r3, #131072	@ 0x20000
  SCB->AIRCR =  reg_value;
 8001600:	60d3      	str	r3, [r2, #12]
  /* Check the parameters */
  assert_param(IS_NVIC_PRIORITY_GROUP(PriorityGroup));
  
  /* Set the PRIGROUP[10:8] bits according to the PriorityGroup parameter value */
  NVIC_SetPriorityGrouping(PriorityGroup);
}
 8001602:	4770      	bx	lr

08001604 <HAL_NVIC_SetPriority>:
  *         This parameter can be a value between 0 and 15
  *         A lower priority value indicates a higher priority.          
  * @retval None
  */
void HAL_NVIC_SetPriority(IRQn_Type IRQn, uint32_t PreemptPriority, uint32_t SubPriority)
{ 
 8001604:	b510      	push	{r4, lr}
 8001606:	4604      	mov	r4, r0
  return ((uint32_t)((SCB->AIRCR & SCB_AIRCR_PRIGROUP_Msk) >> SCB_AIRCR_PRIGROUP_Pos));
 8001608:	f44f 436d 	mov.w	r3, #60672	@ 0xed00
 800160c:	f2ce 0300 	movt	r3, #57344	@ 0xe000
 8001610:	68d8      	ldr	r0, [r3, #12]
  assert_param(IS_NVIC_SUB_PRIORITY(SubPriority));
  assert_param(IS_NVIC_PREEMPTION_PRIORITY(PreemptPriority));
  
  prioritygroup = NVIC_GetPriorityGrouping();
  
  NVIC_SetPriority(IRQn, NVIC_EncodePriority(prioritygroup, PreemptPriority, SubPriority));
 8001612:	f3c0 2002 	ubfx	r0, r0, #8, #3
 8001616:	f7ff ffc3 	bl	80015a0 <NVIC_EncodePriority>
 800161a:	4601      	mov	r1, r0
 800161c:	4620      	mov	r0, r4
 800161e:	f7ff ffa9 	bl	8001574 <__NVIC_SetPriority>
}
 8001622:	bd10      	pop	{r4, pc}

08001624 <HAL_NVIC_EnableIRQ>:
  if ((int32_t)(IRQn) >= 0)
 8001624:	2800      	cmp	r0, #0
 8001626:	db0a      	blt.n	800163e <HAL_NVIC_EnableIRQ+0x1a>
    NVIC->ISER[(((uint32_t)IRQn) >> 5UL)] = (uint32_t)(1UL << (((uint32_t)IRQn) & 0x1FUL));
 8001628:	f000 021f 	and.w	r2, r0, #31
 800162c:	0940      	lsrs	r0, r0, #5
 800162e:	2301      	movs	r3, #1
 8001630:	4093      	lsls	r3, r2
 8001632:	f44f 4261 	mov.w	r2, #57600	@ 0xe100
 8001636:	f2ce 0200 	movt	r2, #57344	@ 0xe000
 800163a:	f842 3020 	str.w	r3, [r2, r0, lsl #2]
  /* Check the parameters */
  assert_param(IS_NVIC_DEVICE_IRQ(IRQn));

  /* Enable interrupt */
  NVIC_EnableIRQ(IRQn);
}
 800163e:	4770      	bx	lr

08001640 <HAL_SYSTICK_Config>:
           function <b>SysTick_Config</b> is not included. In this case, the file <b><i>device</i>.h</b>
           must contain a vendor-specific implementation of this function.
 */
__STATIC_INLINE uint32_t SysTick_Config(uint32_t ticks)
{
  if ((ticks - 1UL) > SysTick_LOAD_RELOAD_Msk)
 8001640:	3801      	subs	r0, #1
 8001642:	f1b0 7f80 	cmp.w	r0, #16777216	@ 0x1000000
 8001646:	d20e      	bcs.n	8001666 <HAL_SYSTICK_Config+0x26>
  {
    return (1UL);                                                   /* Reload value impossible */
  }

  SysTick->LOAD  = (uint32_t)(ticks - 1UL);                         /* set reload register */
 8001648:	f04f 23e0 	mov.w	r3, #3758153728	@ 0xe000e000
 800164c:	6158      	str	r0, [r3, #20]
    SCB->SHP[(((uint32_t)IRQn) & 0xFUL)-4UL] = (uint8_t)((priority << (8U - __NVIC_PRIO_BITS)) & (uint32_t)0xFFUL);
 800164e:	f44f 426d 	mov.w	r2, #60672	@ 0xed00
 8001652:	f2ce 0200 	movt	r2, #57344	@ 0xe000
 8001656:	21f0      	movs	r1, #240	@ 0xf0
 8001658:	f882 1023 	strb.w	r1, [r2, #35]	@ 0x23
  NVIC_SetPriority (SysTick_IRQn, (1UL << __NVIC_PRIO_BITS) - 1UL); /* set Priority for Systick Interrupt */
  SysTick->VAL   = 0UL;                                             /* Load the SysTick Counter Value */
 800165c:	2000      	movs	r0, #0
 800165e:	6198      	str	r0, [r3, #24]
  SysTick->CTRL  = SysTick_CTRL_CLKSOURCE_Msk |
 8001660:	2207      	movs	r2, #7
 8001662:	611a      	str	r2, [r3, #16]
                   SysTick_CTRL_TICKINT_Msk   |
                   SysTick_CTRL_ENABLE_Msk;                         /* Enable SysTick IRQ and SysTick Timer */
  return (0UL);                                                     /* Function successful */
 8001664:	4770      	bx	lr
    return (1UL);                                                   /* Reload value impossible */
 8001666:	2001      	movs	r0, #1
  *                  - 1  Function failed.
  */
uint32_t HAL_SYSTICK_Config(uint32_t TicksNumb)
{
   return SysTick_Config(TicksNumb);
}
 8001668:	4770      	bx	lr

0800166a <DMA_SetConfig>:
  * @param  DstAddress: The destination memory Buffer address
  * @param  DataLength: The length of data to be transferred from source to destination
  * @retval HAL status
  */
static void DMA_SetConfig(DMA_HandleTypeDef *hdma, uint32_t SrcAddress, uint32_t DstAddress, uint32_t DataLength)
{
 800166a:	b430      	push	{r4, r5}
  /* Clear all flags */
  hdma->DmaBaseAddress->IFCR = (DMA_ISR_GIF1 << hdma->ChannelIndex);
 800166c:	2401      	movs	r4, #1
 800166e:	6c05      	ldr	r5, [r0, #64]	@ 0x40
 8001670:	40ac      	lsls	r4, r5
 8001672:	6bc5      	ldr	r5, [r0, #60]	@ 0x3c
 8001674:	606c      	str	r4, [r5, #4]

  /* Configure DMA Channel data length */
  hdma->Instance->CNDTR = DataLength;
 8001676:	6804      	ldr	r4, [r0, #0]
 8001678:	6063      	str	r3, [r4, #4]

  /* Memory to Peripheral */
  if((hdma->Init.Direction) == DMA_MEMORY_TO_PERIPH)
 800167a:	6843      	ldr	r3, [r0, #4]
 800167c:	2b10      	cmp	r3, #16
 800167e:	d005      	beq.n	800168c <DMA_SetConfig+0x22>
  }
  /* Peripheral to Memory */
  else
  {
    /* Configure DMA Channel source address */
    hdma->Instance->CPAR = SrcAddress;
 8001680:	6803      	ldr	r3, [r0, #0]
 8001682:	6099      	str	r1, [r3, #8]

    /* Configure DMA Channel destination address */
    hdma->Instance->CMAR = DstAddress;
 8001684:	6803      	ldr	r3, [r0, #0]
 8001686:	60da      	str	r2, [r3, #12]
  }
}
 8001688:	bc30      	pop	{r4, r5}
 800168a:	4770      	bx	lr
    hdma->Instance->CPAR = DstAddress;
 800168c:	6803      	ldr	r3, [r0, #0]
 800168e:	609a      	str	r2, [r3, #8]
    hdma->Instance->CMAR = SrcAddress;
 8001690:	6803      	ldr	r3, [r0, #0]
 8001692:	60d9      	str	r1, [r3, #12]
 8001694:	e7f8      	b.n	8001688 <DMA_SetConfig+0x1e>

08001696 <HAL_DMA_Init>:
  if(hdma == NULL)
 8001696:	2800      	cmp	r0, #0
 8001698:	d032      	beq.n	8001700 <HAL_DMA_Init+0x6a>
{
 800169a:	b410      	push	{r4}
 800169c:	4602      	mov	r2, r0
  hdma->ChannelIndex = (((uint32_t)hdma->Instance - (uint32_t)DMA1_Channel1) / ((uint32_t)DMA1_Channel2 - (uint32_t)DMA1_Channel1)) << 2;
 800169e:	6801      	ldr	r1, [r0, #0]
 80016a0:	f64f 73f8 	movw	r3, #65528	@ 0xfff8
 80016a4:	f6cb 73fd 	movt	r3, #49149	@ 0xbffd
 80016a8:	440b      	add	r3, r1
 80016aa:	f64c 40cd 	movw	r0, #52429	@ 0xcccd
 80016ae:	f6cc 40cc 	movt	r0, #52428	@ 0xcccc
 80016b2:	fba0 0303 	umull	r0, r3, r0, r3
 80016b6:	091b      	lsrs	r3, r3, #4
 80016b8:	009b      	lsls	r3, r3, #2
 80016ba:	6413      	str	r3, [r2, #64]	@ 0x40
  hdma->DmaBaseAddress = DMA1;
 80016bc:	2300      	movs	r3, #0
 80016be:	f2c4 0302 	movt	r3, #16386	@ 0x4002
 80016c2:	63d3      	str	r3, [r2, #60]	@ 0x3c
  hdma->State = HAL_DMA_STATE_BUSY;
 80016c4:	2302      	movs	r3, #2
 80016c6:	f882 3021 	strb.w	r3, [r2, #33]	@ 0x21
  tmp = hdma->Instance->CCR;
 80016ca:	6808      	ldr	r0, [r1, #0]
  tmp &= ((uint32_t)~(DMA_CCR_PL    | DMA_CCR_MSIZE  | DMA_CCR_PSIZE  | \
 80016cc:	f36f 100d 	bfc	r0, #4, #10
  tmp |=  hdma->Init.Direction        |
 80016d0:	6853      	ldr	r3, [r2, #4]
 80016d2:	6894      	ldr	r4, [r2, #8]
 80016d4:	4323      	orrs	r3, r4
          hdma->Init.PeriphInc           | hdma->Init.MemInc           |
 80016d6:	68d4      	ldr	r4, [r2, #12]
 80016d8:	4323      	orrs	r3, r4
 80016da:	6914      	ldr	r4, [r2, #16]
 80016dc:	4323      	orrs	r3, r4
          hdma->Init.PeriphDataAlignment | hdma->Init.MemDataAlignment |
 80016de:	6954      	ldr	r4, [r2, #20]
 80016e0:	4323      	orrs	r3, r4
 80016e2:	6994      	ldr	r4, [r2, #24]
 80016e4:	4323      	orrs	r3, r4
          hdma->Init.Mode                | hdma->Init.Priority;
 80016e6:	69d4      	ldr	r4, [r2, #28]
 80016e8:	4323      	orrs	r3, r4
  tmp |=  hdma->Init.Direction        |
 80016ea:	4303      	orrs	r3, r0
  hdma->Instance->CCR = tmp;
 80016ec:	600b      	str	r3, [r1, #0]
  hdma->ErrorCode = HAL_DMA_ERROR_NONE;
 80016ee:	2000      	movs	r0, #0
 80016f0:	6390      	str	r0, [r2, #56]	@ 0x38
  hdma->State = HAL_DMA_STATE_READY;
 80016f2:	2301      	movs	r3, #1
 80016f4:	f882 3021 	strb.w	r3, [r2, #33]	@ 0x21
  hdma->Lock = HAL_UNLOCKED;
 80016f8:	f882 0020 	strb.w	r0, [r2, #32]
}
 80016fc:	bc10      	pop	{r4}
 80016fe:	4770      	bx	lr
    return HAL_ERROR;
 8001700:	2001      	movs	r0, #1
}
 8001702:	4770      	bx	lr

08001704 <HAL_DMA_Start_IT>:
{
 8001704:	b538      	push	{r3, r4, r5, lr}
 8001706:	4604      	mov	r4, r0
  __HAL_LOCK(hdma);
 8001708:	f890 0020 	ldrb.w	r0, [r0, #32]
 800170c:	2801      	cmp	r0, #1
 800170e:	d032      	beq.n	8001776 <HAL_DMA_Start_IT+0x72>
 8001710:	2001      	movs	r0, #1
 8001712:	f884 0020 	strb.w	r0, [r4, #32]
  if(HAL_DMA_STATE_READY == hdma->State)
 8001716:	f894 0021 	ldrb.w	r0, [r4, #33]	@ 0x21
 800171a:	b2c0      	uxtb	r0, r0
 800171c:	2801      	cmp	r0, #1
 800171e:	d004      	beq.n	800172a <HAL_DMA_Start_IT+0x26>
    __HAL_UNLOCK(hdma); 
 8001720:	2300      	movs	r3, #0
 8001722:	f884 3020 	strb.w	r3, [r4, #32]
    status = HAL_BUSY;
 8001726:	2002      	movs	r0, #2
}
 8001728:	bd38      	pop	{r3, r4, r5, pc}
    hdma->State = HAL_DMA_STATE_BUSY;
 800172a:	2002      	movs	r0, #2
 800172c:	f884 0021 	strb.w	r0, [r4, #33]	@ 0x21
    hdma->ErrorCode = HAL_DMA_ERROR_NONE;
 8001730:	2000      	movs	r0, #0
 8001732:	63a0      	str	r0, [r4, #56]	@ 0x38
    __HAL_DMA_DISABLE(hdma);
 8001734:	6825      	ldr	r5, [r4, #0]
 8001736:	6828      	ldr	r0, [r5, #0]
 8001738:	f020 0001 	bic.w	r0, r0, #1
 800173c:	6028      	str	r0, [r5, #0]
    DMA_SetConfig(hdma, SrcAddress, DstAddress, DataLength);
 800173e:	4620      	mov	r0, r4
 8001740:	f7ff ff93 	bl	800166a <DMA_SetConfig>
    if(NULL != hdma->XferHalfCpltCallback)
 8001744:	6ae3      	ldr	r3, [r4, #44]	@ 0x2c
 8001746:	b15b      	cbz	r3, 8001760 <HAL_DMA_Start_IT+0x5c>
      __HAL_DMA_ENABLE_IT(hdma, (DMA_IT_TC | DMA_IT_HT | DMA_IT_TE));
 8001748:	6822      	ldr	r2, [r4, #0]
 800174a:	6813      	ldr	r3, [r2, #0]
 800174c:	f043 030e 	orr.w	r3, r3, #14
 8001750:	6013      	str	r3, [r2, #0]
    __HAL_DMA_ENABLE(hdma);
 8001752:	6822      	ldr	r2, [r4, #0]
 8001754:	6813      	ldr	r3, [r2, #0]
 8001756:	f043 0301 	orr.w	r3, r3, #1
 800175a:	6013      	str	r3, [r2, #0]
  HAL_StatusTypeDef status = HAL_OK;
 800175c:	2000      	movs	r0, #0
 800175e:	e7e3      	b.n	8001728 <HAL_DMA_Start_IT+0x24>
      __HAL_DMA_DISABLE_IT(hdma, DMA_IT_HT);
 8001760:	6822      	ldr	r2, [r4, #0]
 8001762:	6813      	ldr	r3, [r2, #0]
 8001764:	f023 0304 	bic.w	r3, r3, #4
 8001768:	6013      	str	r3, [r2, #0]
      __HAL_DMA_ENABLE_IT(hdma, (DMA_IT_TC | DMA_IT_TE));
 800176a:	6822      	ldr	r2, [r4, #0]
 800176c:	6813      	ldr	r3, [r2, #0]
 800176e:	f043 030a 	orr.w	r3, r3, #10
 8001772:	6013      	str	r3, [r2, #0]
 8001774:	e7ed      	b.n	8001752 <HAL_DMA_Start_IT+0x4e>
  __HAL_LOCK(hdma);
 8001776:	2002      	movs	r0, #2
 8001778:	e7d6      	b.n	8001728 <HAL_DMA_Start_IT+0x24>

0800177a <HAL_DMA_Abort>:
{
 800177a:	4603      	mov	r3, r0
  if(hdma->State != HAL_DMA_STATE_BUSY)
 800177c:	f890 2021 	ldrb.w	r2, [r0, #33]	@ 0x21
 8001780:	b2d2      	uxtb	r2, r2
 8001782:	2a02      	cmp	r2, #2
 8001784:	d006      	beq.n	8001794 <HAL_DMA_Abort+0x1a>
    hdma->ErrorCode = HAL_DMA_ERROR_NO_XFER;
 8001786:	2204      	movs	r2, #4
 8001788:	6382      	str	r2, [r0, #56]	@ 0x38
    __HAL_UNLOCK(hdma);
 800178a:	2200      	movs	r2, #0
 800178c:	f880 2020 	strb.w	r2, [r0, #32]
    return HAL_ERROR;
 8001790:	2001      	movs	r0, #1
 8001792:	4770      	bx	lr
    __HAL_DMA_DISABLE_IT(hdma, (DMA_IT_TC | DMA_IT_HT | DMA_IT_TE));
 8001794:	6801      	ldr	r1, [r0, #0]
 8001796:	680a      	ldr	r2, [r1, #0]
 8001798:	f022 020e 	bic.w	r2, r2, #14
 800179c:	600a      	str	r2, [r1, #0]
    __HAL_DMA_DISABLE(hdma);
 800179e:	6801      	ldr	r1, [r0, #0]
 80017a0:	680a      	ldr	r2, [r1, #0]
 80017a2:	f022 0201 	bic.w	r2, r2, #1
 80017a6:	600a      	str	r2, [r1, #0]
    hdma->DmaBaseAddress->IFCR = (DMA_ISR_GIF1 << hdma->ChannelIndex);
 80017a8:	6c02      	ldr	r2, [r0, #64]	@ 0x40
 80017aa:	6bc0      	ldr	r0, [r0, #60]	@ 0x3c
 80017ac:	2101      	movs	r1, #1
 80017ae:	fa01 f202 	lsl.w	r2, r1, r2
 80017b2:	6042      	str	r2, [r0, #4]
  hdma->State = HAL_DMA_STATE_READY;
 80017b4:	f883 1021 	strb.w	r1, [r3, #33]	@ 0x21
  __HAL_UNLOCK(hdma);      
 80017b8:	2000      	movs	r0, #0
 80017ba:	f883 0020 	strb.w	r0, [r3, #32]
}
 80017be:	4770      	bx	lr

080017c0 <HAL_DMA_IRQHandler>:
{
 80017c0:	b538      	push	{r3, r4, r5, lr}
  uint32_t flag_it = hdma->DmaBaseAddress->ISR;
 80017c2:	6bc3      	ldr	r3, [r0, #60]	@ 0x3c
 80017c4:	681a      	ldr	r2, [r3, #0]
  uint32_t source_it = hdma->Instance->CCR;
 80017c6:	6804      	ldr	r4, [r0, #0]
 80017c8:	6825      	ldr	r5, [r4, #0]
  if (((flag_it & (DMA_FLAG_HT1 << hdma->ChannelIndex)) != RESET) && ((source_it & DMA_IT_HT) != RESET))
 80017ca:	6c01      	ldr	r1, [r0, #64]	@ 0x40
 80017cc:	2304      	movs	r3, #4
 80017ce:	408b      	lsls	r3, r1
 80017d0:	4213      	tst	r3, r2
 80017d2:	d043      	beq.n	800185c <HAL_DMA_IRQHandler+0x9c>
 80017d4:	f015 0f04 	tst.w	r5, #4
 80017d8:	d040      	beq.n	800185c <HAL_DMA_IRQHandler+0x9c>
    if((hdma->Instance->CCR & DMA_CCR_CIRC) == 0U)
 80017da:	6823      	ldr	r3, [r4, #0]
 80017dc:	f013 0f20 	tst.w	r3, #32
 80017e0:	d103      	bne.n	80017ea <HAL_DMA_IRQHandler+0x2a>
      __HAL_DMA_DISABLE_IT(hdma, DMA_IT_HT);
 80017e2:	6823      	ldr	r3, [r4, #0]
 80017e4:	f023 0304 	bic.w	r3, r3, #4
 80017e8:	6023      	str	r3, [r4, #0]
    __HAL_DMA_CLEAR_FLAG(hdma, __HAL_DMA_GET_HT_FLAG_INDEX(hdma));
 80017ea:	6803      	ldr	r3, [r0, #0]
 80017ec:	2208      	movs	r2, #8
 80017ee:	f2c4 0202 	movt	r2, #16386	@ 0x4002
 80017f2:	4293      	cmp	r3, r2
 80017f4:	d01e      	beq.n	8001834 <HAL_DMA_IRQHandler+0x74>
 80017f6:	221c      	movs	r2, #28
 80017f8:	f2c4 0202 	movt	r2, #16386	@ 0x4002
 80017fc:	4293      	cmp	r3, r2
 80017fe:	d022      	beq.n	8001846 <HAL_DMA_IRQHandler+0x86>
 8001800:	2230      	movs	r2, #48	@ 0x30
 8001802:	f2c4 0202 	movt	r2, #16386	@ 0x4002
 8001806:	4293      	cmp	r3, r2
 8001808:	d01f      	beq.n	800184a <HAL_DMA_IRQHandler+0x8a>
 800180a:	2244      	movs	r2, #68	@ 0x44
 800180c:	f2c4 0202 	movt	r2, #16386	@ 0x4002
 8001810:	4293      	cmp	r3, r2
 8001812:	d01d      	beq.n	8001850 <HAL_DMA_IRQHandler+0x90>
 8001814:	2258      	movs	r2, #88	@ 0x58
 8001816:	f2c4 0202 	movt	r2, #16386	@ 0x4002
 800181a:	4293      	cmp	r3, r2
 800181c:	d01b      	beq.n	8001856 <HAL_DMA_IRQHandler+0x96>
 800181e:	226c      	movs	r2, #108	@ 0x6c
 8001820:	f2c4 0202 	movt	r2, #16386	@ 0x4002
 8001824:	4293      	cmp	r3, r2
 8001826:	d002      	beq.n	800182e <HAL_DMA_IRQHandler+0x6e>
 8001828:	f04f 6280 	mov.w	r2, #67108864	@ 0x4000000
 800182c:	e003      	b.n	8001836 <HAL_DMA_IRQHandler+0x76>
 800182e:	f44f 0280 	mov.w	r2, #4194304	@ 0x400000
 8001832:	e000      	b.n	8001836 <HAL_DMA_IRQHandler+0x76>
 8001834:	2204      	movs	r2, #4
 8001836:	2300      	movs	r3, #0
 8001838:	f2c4 0302 	movt	r3, #16386	@ 0x4002
 800183c:	605a      	str	r2, [r3, #4]
    if(hdma->XferHalfCpltCallback != NULL)
 800183e:	6ac3      	ldr	r3, [r0, #44]	@ 0x2c
 8001840:	b103      	cbz	r3, 8001844 <HAL_DMA_IRQHandler+0x84>
      hdma->XferHalfCpltCallback(hdma);
 8001842:	4798      	blx	r3
}
 8001844:	bd38      	pop	{r3, r4, r5, pc}
    __HAL_DMA_CLEAR_FLAG(hdma, __HAL_DMA_GET_HT_FLAG_INDEX(hdma));
 8001846:	2240      	movs	r2, #64	@ 0x40
 8001848:	e7f5      	b.n	8001836 <HAL_DMA_IRQHandler+0x76>
 800184a:	f44f 6280 	mov.w	r2, #1024	@ 0x400
 800184e:	e7f2      	b.n	8001836 <HAL_DMA_IRQHandler+0x76>
 8001850:	f44f 4280 	mov.w	r2, #16384	@ 0x4000
 8001854:	e7ef      	b.n	8001836 <HAL_DMA_IRQHandler+0x76>
 8001856:	f44f 2280 	mov.w	r2, #262144	@ 0x40000
 800185a:	e7ec      	b.n	8001836 <HAL_DMA_IRQHandler+0x76>
  else if (((flag_it & (DMA_FLAG_TC1 << hdma->ChannelIndex)) != RESET) && ((source_it & DMA_IT_TC) != RESET))
 800185c:	2302      	movs	r3, #2
 800185e:	408b      	lsls	r3, r1
 8001860:	4213      	tst	r3, r2
 8001862:	d04a      	beq.n	80018fa <HAL_DMA_IRQHandler+0x13a>
 8001864:	f015 0f02 	tst.w	r5, #2
 8001868:	d047      	beq.n	80018fa <HAL_DMA_IRQHandler+0x13a>
    if((hdma->Instance->CCR & DMA_CCR_CIRC) == 0U)
 800186a:	6823      	ldr	r3, [r4, #0]
 800186c:	f013 0f20 	tst.w	r3, #32
 8001870:	d106      	bne.n	8001880 <HAL_DMA_IRQHandler+0xc0>
      __HAL_DMA_DISABLE_IT(hdma, DMA_IT_TE | DMA_IT_TC);  
 8001872:	6823      	ldr	r3, [r4, #0]
 8001874:	f023 030a 	bic.w	r3, r3, #10
 8001878:	6023      	str	r3, [r4, #0]
      hdma->State = HAL_DMA_STATE_READY;
 800187a:	2301      	movs	r3, #1
 800187c:	f880 3021 	strb.w	r3, [r0, #33]	@ 0x21
      __HAL_DMA_CLEAR_FLAG(hdma, __HAL_DMA_GET_TC_FLAG_INDEX(hdma));
 8001880:	6803      	ldr	r3, [r0, #0]
 8001882:	2208      	movs	r2, #8
 8001884:	f2c4 0202 	movt	r2, #16386	@ 0x4002
 8001888:	4293      	cmp	r3, r2
 800188a:	d01e      	beq.n	80018ca <HAL_DMA_IRQHandler+0x10a>
 800188c:	221c      	movs	r2, #28
 800188e:	f2c4 0202 	movt	r2, #16386	@ 0x4002
 8001892:	4293      	cmp	r3, r2
 8001894:	d026      	beq.n	80018e4 <HAL_DMA_IRQHandler+0x124>
 8001896:	2230      	movs	r2, #48	@ 0x30
 8001898:	f2c4 0202 	movt	r2, #16386	@ 0x4002
 800189c:	4293      	cmp	r3, r2
 800189e:	d023      	beq.n	80018e8 <HAL_DMA_IRQHandler+0x128>
 80018a0:	2244      	movs	r2, #68	@ 0x44
 80018a2:	f2c4 0202 	movt	r2, #16386	@ 0x4002
 80018a6:	4293      	cmp	r3, r2
 80018a8:	d021      	beq.n	80018ee <HAL_DMA_IRQHandler+0x12e>
 80018aa:	2258      	movs	r2, #88	@ 0x58
 80018ac:	f2c4 0202 	movt	r2, #16386	@ 0x4002
 80018b0:	4293      	cmp	r3, r2
 80018b2:	d01f      	beq.n	80018f4 <HAL_DMA_IRQHandler+0x134>
 80018b4:	226c      	movs	r2, #108	@ 0x6c
 80018b6:	f2c4 0202 	movt	r2, #16386	@ 0x4002
 80018ba:	4293      	cmp	r3, r2
 80018bc:	d002      	beq.n	80018c4 <HAL_DMA_IRQHandler+0x104>
 80018be:	f04f 7200 	mov.w	r2, #33554432	@ 0x2000000
 80018c2:	e003      	b.n	80018cc <HAL_DMA_IRQHandler+0x10c>
 80018c4:	f44f 1200 	mov.w	r2, #2097152	@ 0x200000
 80018c8:	e000      	b.n	80018cc <HAL_DMA_IRQHandler+0x10c>
 80018ca:	2202      	movs	r2, #2
 80018cc:	2300      	movs	r3, #0
 80018ce:	f2c4 0302 	movt	r3, #16386	@ 0x4002
 80018d2:	605a      	str	r2, [r3, #4]
    __HAL_UNLOCK(hdma);
 80018d4:	2300      	movs	r3, #0
 80018d6:	f880 3020 	strb.w	r3, [r0, #32]
    if(hdma->XferCpltCallback != NULL)
 80018da:	6a83      	ldr	r3, [r0, #40]	@ 0x28
 80018dc:	2b00      	cmp	r3, #0
 80018de:	d0b1      	beq.n	8001844 <HAL_DMA_IRQHandler+0x84>
      hdma->XferCpltCallback(hdma);
 80018e0:	4798      	blx	r3
 80018e2:	e7af      	b.n	8001844 <HAL_DMA_IRQHandler+0x84>
      __HAL_DMA_CLEAR_FLAG(hdma, __HAL_DMA_GET_TC_FLAG_INDEX(hdma));
 80018e4:	2220      	movs	r2, #32
 80018e6:	e7f1      	b.n	80018cc <HAL_DMA_IRQHandler+0x10c>
 80018e8:	f44f 7200 	mov.w	r2, #512	@ 0x200
 80018ec:	e7ee      	b.n	80018cc <HAL_DMA_IRQHandler+0x10c>
 80018ee:	f44f 5200 	mov.w	r2, #8192	@ 0x2000
 80018f2:	e7eb      	b.n	80018cc <HAL_DMA_IRQHandler+0x10c>
 80018f4:	f44f 3200 	mov.w	r2, #131072	@ 0x20000
 80018f8:	e7e8      	b.n	80018cc <HAL_DMA_IRQHandler+0x10c>
  else if (( RESET != (flag_it & (DMA_FLAG_TE1 << hdma->ChannelIndex))) && (RESET != (source_it & DMA_IT_TE)))
 80018fa:	2308      	movs	r3, #8
 80018fc:	408b      	lsls	r3, r1
 80018fe:	4213      	tst	r3, r2
 8001900:	d0a0      	beq.n	8001844 <HAL_DMA_IRQHandler+0x84>
 8001902:	f015 0f08 	tst.w	r5, #8
 8001906:	d09d      	beq.n	8001844 <HAL_DMA_IRQHandler+0x84>
    __HAL_DMA_DISABLE_IT(hdma, (DMA_IT_TC | DMA_IT_HT | DMA_IT_TE));
 8001908:	6823      	ldr	r3, [r4, #0]
 800190a:	f023 030e 	bic.w	r3, r3, #14
 800190e:	6023      	str	r3, [r4, #0]
    hdma->DmaBaseAddress->IFCR = (DMA_ISR_GIF1 << hdma->ChannelIndex);
 8001910:	6c02      	ldr	r2, [r0, #64]	@ 0x40
 8001912:	6bc1      	ldr	r1, [r0, #60]	@ 0x3c
 8001914:	2301      	movs	r3, #1
 8001916:	fa03 f202 	lsl.w	r2, r3, r2
 800191a:	604a      	str	r2, [r1, #4]
    hdma->ErrorCode = HAL_DMA_ERROR_TE;
 800191c:	6383      	str	r3, [r0, #56]	@ 0x38
    hdma->State = HAL_DMA_STATE_READY;
 800191e:	f880 3021 	strb.w	r3, [r0, #33]	@ 0x21
    __HAL_UNLOCK(hdma);
 8001922:	2300      	movs	r3, #0
 8001924:	f880 3020 	strb.w	r3, [r0, #32]
    if (hdma->XferErrorCallback != NULL)
 8001928:	6b03      	ldr	r3, [r0, #48]	@ 0x30
 800192a:	2b00      	cmp	r3, #0
 800192c:	d08a      	beq.n	8001844 <HAL_DMA_IRQHandler+0x84>
      hdma->XferErrorCallback(hdma);
 800192e:	4798      	blx	r3
  return;
 8001930:	e788      	b.n	8001844 <HAL_DMA_IRQHandler+0x84>
	...

08001934 <HAL_GPIO_Init>:
  * @param  GPIO_Init: pointer to a GPIO_InitTypeDef structure that contains
  *         the configuration information for the specified GPIO peripheral.
  * @retval None
  */
void HAL_GPIO_Init(GPIO_TypeDef  *GPIOx, GPIO_InitTypeDef *GPIO_Init)
{
 8001934:	b570      	push	{r4, r5, r6, lr}
 8001936:	b082      	sub	sp, #8
  uint32_t position = 0x00u;
  uint32_t ioposition;
  uint32_t iocurrent;
  uint32_t temp;
  uint32_t config = 0x00u;
 8001938:	2400      	movs	r4, #0
  uint32_t position = 0x00u;
 800193a:	46a4      	mov	ip, r4
  assert_param(IS_GPIO_ALL_INSTANCE(GPIOx));
  assert_param(IS_GPIO_PIN(GPIO_Init->Pin));
  assert_param(IS_GPIO_MODE(GPIO_Init->Mode));

  /* Configure the port pins */
  while (((GPIO_Init->Pin) >> position) != 0x00u)
 800193c:	e0ca      	b.n	8001ad4 <HAL_GPIO_Init+0x1a0>
    {
      /* Check the Alternate function parameters */
      assert_param(IS_GPIO_AF_INSTANCE(GPIOx));

      /* Based on the required mode, filling config variable with MODEy[1:0] and CNFy[3:2] corresponding bits */
      switch (GPIO_Init->Mode)
 800193e:	2500      	movs	r5, #0
 8001940:	f2c1 0522 	movt	r5, #4130	@ 0x1022
 8001944:	42ab      	cmp	r3, r5
 8001946:	d01e      	beq.n	8001986 <HAL_GPIO_Init+0x52>
 8001948:	2500      	movs	r5, #0
 800194a:	f2c1 0522 	movt	r5, #4130	@ 0x1022
 800194e:	42ab      	cmp	r3, r5
 8001950:	d80f      	bhi.n	8001972 <HAL_GPIO_Init+0x3e>
 8001952:	2500      	movs	r5, #0
 8001954:	f2c1 0512 	movt	r5, #4114	@ 0x1012
 8001958:	42ab      	cmp	r3, r5
 800195a:	d014      	beq.n	8001986 <HAL_GPIO_Init+0x52>
 800195c:	2500      	movs	r5, #0
 800195e:	f2c1 0521 	movt	r5, #4129	@ 0x1021
 8001962:	42ab      	cmp	r3, r5
 8001964:	d00f      	beq.n	8001986 <HAL_GPIO_Init+0x52>
 8001966:	2500      	movs	r5, #0
 8001968:	f2c1 0511 	movt	r5, #4113	@ 0x1011
 800196c:	42ab      	cmp	r3, r5
 800196e:	d113      	bne.n	8001998 <HAL_GPIO_Init+0x64>
 8001970:	e009      	b.n	8001986 <HAL_GPIO_Init+0x52>
 8001972:	2500      	movs	r5, #0
 8001974:	f2c1 0531 	movt	r5, #4145	@ 0x1031
 8001978:	42ab      	cmp	r3, r5
 800197a:	d004      	beq.n	8001986 <HAL_GPIO_Init+0x52>
 800197c:	2500      	movs	r5, #0
 800197e:	f2c1 0532 	movt	r5, #4146	@ 0x1032
 8001982:	42ab      	cmp	r3, r5
 8001984:	d108      	bne.n	8001998 <HAL_GPIO_Init+0x64>
        case GPIO_MODE_EVT_RISING:
        case GPIO_MODE_EVT_FALLING:
        case GPIO_MODE_EVT_RISING_FALLING:
          /* Check the GPIO pull parameter */
          assert_param(IS_GPIO_PULL(GPIO_Init->Pull));
          if (GPIO_Init->Pull == GPIO_NOPULL)
 8001986:	688b      	ldr	r3, [r1, #8]
 8001988:	2b00      	cmp	r3, #0
 800198a:	d05f      	beq.n	8001a4c <HAL_GPIO_Init+0x118>
          {
            config = GPIO_CR_MODE_INPUT + GPIO_CR_CNF_INPUT_FLOATING;
          }
          else if (GPIO_Init->Pull == GPIO_PULLUP)
 800198c:	2b01      	cmp	r3, #1
 800198e:	d058      	beq.n	8001a42 <HAL_GPIO_Init+0x10e>
          else /* GPIO_PULLDOWN */
          {
            config = GPIO_CR_MODE_INPUT + GPIO_CR_CNF_INPUT_PU_PD;

            /* Reset the corresponding ODR bit */
            GPIOx->BRR = ioposition;
 8001990:	6142      	str	r2, [r0, #20]
            config = GPIO_CR_MODE_INPUT + GPIO_CR_CNF_INPUT_PU_PD;
 8001992:	2408      	movs	r4, #8
 8001994:	e000      	b.n	8001998 <HAL_GPIO_Init+0x64>
          config = GPIO_Init->Speed + GPIO_CR_CNF_GP_OUTPUT_PP;
 8001996:	68cc      	ldr	r4, [r1, #12]
          break;
      }

      /* Check if the current bit belongs to first half or last half of the pin count number
       in order to address CRH or CRL register*/
      configregister = (iocurrent < GPIO_PIN_8) ? &GPIOx->CRL     : &GPIOx->CRH;
 8001998:	f1be 0fff 	cmp.w	lr, #255	@ 0xff
 800199c:	d858      	bhi.n	8001a50 <HAL_GPIO_Init+0x11c>
 800199e:	4606      	mov	r6, r0
      registeroffset = (iocurrent < GPIO_PIN_8) ? (position << 2u) : ((position - 8u) << 2u);
 80019a0:	ea4f 028c 	mov.w	r2, ip, lsl #2

      /* Apply the new configuration of the pin to the register */
      MODIFY_REG((*configregister), ((GPIO_CRL_MODE0 | GPIO_CRL_CNF0) << registeroffset), (config << registeroffset));
 80019a4:	6833      	ldr	r3, [r6, #0]
 80019a6:	250f      	movs	r5, #15
 80019a8:	4095      	lsls	r5, r2
 80019aa:	ea23 0305 	bic.w	r3, r3, r5
 80019ae:	fa04 f202 	lsl.w	r2, r4, r2
 80019b2:	4313      	orrs	r3, r2
 80019b4:	6033      	str	r3, [r6, #0]

      /*--------------------- EXTI Mode Configuration ------------------------*/
      /* Configure the External Interrupt or event for the current IO */
      if ((GPIO_Init->Mode & EXTI_MODE) == EXTI_MODE)
 80019b6:	684b      	ldr	r3, [r1, #4]
 80019b8:	f013 5f80 	tst.w	r3, #268435456	@ 0x10000000
 80019bc:	f000 8088 	beq.w	8001ad0 <HAL_GPIO_Init+0x19c>
      {
        /* Enable AFIO Clock */
        __HAL_RCC_AFIO_CLK_ENABLE();
 80019c0:	f44f 5380 	mov.w	r3, #4096	@ 0x1000
 80019c4:	f2c4 0302 	movt	r3, #16386	@ 0x4002
 80019c8:	699a      	ldr	r2, [r3, #24]
 80019ca:	f042 0201 	orr.w	r2, r2, #1
 80019ce:	619a      	str	r2, [r3, #24]
 80019d0:	699b      	ldr	r3, [r3, #24]
 80019d2:	f003 0301 	and.w	r3, r3, #1
 80019d6:	9301      	str	r3, [sp, #4]
 80019d8:	9b01      	ldr	r3, [sp, #4]
        temp = AFIO->EXTICR[position >> 2u];
 80019da:	ea4f 029c 	mov.w	r2, ip, lsr #2
 80019de:	2300      	movs	r3, #0
 80019e0:	f2c4 0301 	movt	r3, #16385	@ 0x4001
 80019e4:	1c95      	adds	r5, r2, #2
 80019e6:	f853 6025 	ldr.w	r6, [r3, r5, lsl #2]
        CLEAR_BIT(temp, (0x0Fu) << (4u * (position & 0x03u)));
 80019ea:	f00c 0503 	and.w	r5, ip, #3
 80019ee:	00ad      	lsls	r5, r5, #2
 80019f0:	230f      	movs	r3, #15
 80019f2:	40ab      	lsls	r3, r5
 80019f4:	ea26 0603 	bic.w	r6, r6, r3
        SET_BIT(temp, (GPIO_GET_INDEX(GPIOx)) << (4u * (position & 0x03u)));
 80019f8:	f44f 6300 	mov.w	r3, #2048	@ 0x800
 80019fc:	f2c4 0301 	movt	r3, #16385	@ 0x4001
 8001a00:	4298      	cmp	r0, r3
 8001a02:	d02c      	beq.n	8001a5e <HAL_GPIO_Init+0x12a>
 8001a04:	f44f 6340 	mov.w	r3, #3072	@ 0xc00
 8001a08:	f2c4 0301 	movt	r3, #16385	@ 0x4001
 8001a0c:	4298      	cmp	r0, r3
 8001a0e:	f000 809d 	beq.w	8001b4c <HAL_GPIO_Init+0x218>
 8001a12:	f44f 5380 	mov.w	r3, #4096	@ 0x1000
 8001a16:	f2c4 0301 	movt	r3, #16385	@ 0x4001
 8001a1a:	4298      	cmp	r0, r3
 8001a1c:	f000 8098 	beq.w	8001b50 <HAL_GPIO_Init+0x21c>
 8001a20:	f44f 53a0 	mov.w	r3, #5120	@ 0x1400
 8001a24:	f2c4 0301 	movt	r3, #16385	@ 0x4001
 8001a28:	4298      	cmp	r0, r3
 8001a2a:	d016      	beq.n	8001a5a <HAL_GPIO_Init+0x126>
 8001a2c:	2304      	movs	r3, #4
 8001a2e:	e017      	b.n	8001a60 <HAL_GPIO_Init+0x12c>
          config = GPIO_Init->Speed + GPIO_CR_CNF_GP_OUTPUT_OD;
 8001a30:	68cc      	ldr	r4, [r1, #12]
 8001a32:	3404      	adds	r4, #4
          break;
 8001a34:	e7b0      	b.n	8001998 <HAL_GPIO_Init+0x64>
          config = GPIO_Init->Speed + GPIO_CR_CNF_AF_OUTPUT_PP;
 8001a36:	68cc      	ldr	r4, [r1, #12]
 8001a38:	3408      	adds	r4, #8
          break;
 8001a3a:	e7ad      	b.n	8001998 <HAL_GPIO_Init+0x64>
          config = GPIO_Init->Speed + GPIO_CR_CNF_AF_OUTPUT_OD;
 8001a3c:	68cc      	ldr	r4, [r1, #12]
 8001a3e:	340c      	adds	r4, #12
          break;
 8001a40:	e7aa      	b.n	8001998 <HAL_GPIO_Init+0x64>
            GPIOx->BSRR = ioposition;
 8001a42:	6102      	str	r2, [r0, #16]
            config = GPIO_CR_MODE_INPUT + GPIO_CR_CNF_INPUT_PU_PD;
 8001a44:	2408      	movs	r4, #8
 8001a46:	e7a7      	b.n	8001998 <HAL_GPIO_Init+0x64>
          config = GPIO_CR_MODE_INPUT + GPIO_CR_CNF_ANALOG;
 8001a48:	2400      	movs	r4, #0
 8001a4a:	e7a5      	b.n	8001998 <HAL_GPIO_Init+0x64>
            config = GPIO_CR_MODE_INPUT + GPIO_CR_CNF_INPUT_FLOATING;
 8001a4c:	2404      	movs	r4, #4
 8001a4e:	e7a3      	b.n	8001998 <HAL_GPIO_Init+0x64>
      configregister = (iocurrent < GPIO_PIN_8) ? &GPIOx->CRL     : &GPIOx->CRH;
 8001a50:	1d06      	adds	r6, r0, #4
      registeroffset = (iocurrent < GPIO_PIN_8) ? (position << 2u) : ((position - 8u) << 2u);
 8001a52:	f1ac 0208 	sub.w	r2, ip, #8
 8001a56:	0092      	lsls	r2, r2, #2
 8001a58:	e7a4      	b.n	80019a4 <HAL_GPIO_Init+0x70>
        SET_BIT(temp, (GPIO_GET_INDEX(GPIOx)) << (4u * (position & 0x03u)));
 8001a5a:	2303      	movs	r3, #3
 8001a5c:	e000      	b.n	8001a60 <HAL_GPIO_Init+0x12c>
 8001a5e:	2300      	movs	r3, #0
 8001a60:	40ab      	lsls	r3, r5
 8001a62:	4333      	orrs	r3, r6
        AFIO->EXTICR[position >> 2u] = temp;
 8001a64:	2500      	movs	r5, #0
 8001a66:	f2c4 0501 	movt	r5, #16385	@ 0x4001
 8001a6a:	3202      	adds	r2, #2
 8001a6c:	f845 3022 	str.w	r3, [r5, r2, lsl #2]


        /* Enable or disable the rising trigger */
        if ((GPIO_Init->Mode & RISING_EDGE) == RISING_EDGE)
 8001a70:	684b      	ldr	r3, [r1, #4]
 8001a72:	f413 1f80 	tst.w	r3, #1048576	@ 0x100000
 8001a76:	d06d      	beq.n	8001b54 <HAL_GPIO_Init+0x220>
        {
          SET_BIT(EXTI->RTSR, iocurrent);
 8001a78:	f44f 6380 	mov.w	r3, #1024	@ 0x400
 8001a7c:	f2c4 0301 	movt	r3, #16385	@ 0x4001
 8001a80:	689a      	ldr	r2, [r3, #8]
 8001a82:	ea42 020e 	orr.w	r2, r2, lr
 8001a86:	609a      	str	r2, [r3, #8]
        {
          CLEAR_BIT(EXTI->RTSR, iocurrent);
        }

        /* Enable or disable the falling trigger */
        if ((GPIO_Init->Mode & FALLING_EDGE) == FALLING_EDGE)
 8001a88:	684b      	ldr	r3, [r1, #4]
 8001a8a:	f413 1f00 	tst.w	r3, #2097152	@ 0x200000
 8001a8e:	d06a      	beq.n	8001b66 <HAL_GPIO_Init+0x232>
        {
          SET_BIT(EXTI->FTSR, iocurrent);
 8001a90:	f44f 6380 	mov.w	r3, #1024	@ 0x400
 8001a94:	f2c4 0301 	movt	r3, #16385	@ 0x4001
 8001a98:	68da      	ldr	r2, [r3, #12]
 8001a9a:	ea42 020e 	orr.w	r2, r2, lr
 8001a9e:	60da      	str	r2, [r3, #12]
        {
          CLEAR_BIT(EXTI->FTSR, iocurrent);
        }

        /* Configure the event mask */
        if ((GPIO_Init->Mode & GPIO_MODE_EVT) == GPIO_MODE_EVT)
 8001aa0:	684b      	ldr	r3, [r1, #4]
 8001aa2:	f413 3f00 	tst.w	r3, #131072	@ 0x20000
 8001aa6:	d067      	beq.n	8001b78 <HAL_GPIO_Init+0x244>
        {
          SET_BIT(EXTI->EMR, iocurrent);
 8001aa8:	f44f 6380 	mov.w	r3, #1024	@ 0x400
 8001aac:	f2c4 0301 	movt	r3, #16385	@ 0x4001
 8001ab0:	685a      	ldr	r2, [r3, #4]
 8001ab2:	ea42 020e 	orr.w	r2, r2, lr
 8001ab6:	605a      	str	r2, [r3, #4]
        {
          CLEAR_BIT(EXTI->EMR, iocurrent);
        }

        /* Configure the interrupt mask */
        if ((GPIO_Init->Mode & GPIO_MODE_IT) == GPIO_MODE_IT)
 8001ab8:	684b      	ldr	r3, [r1, #4]
 8001aba:	f413 3f80 	tst.w	r3, #65536	@ 0x10000
 8001abe:	d064      	beq.n	8001b8a <HAL_GPIO_Init+0x256>
        {
          SET_BIT(EXTI->IMR, iocurrent);
 8001ac0:	f44f 6380 	mov.w	r3, #1024	@ 0x400
 8001ac4:	f2c4 0301 	movt	r3, #16385	@ 0x4001
 8001ac8:	681a      	ldr	r2, [r3, #0]
 8001aca:	ea42 020e 	orr.w	r2, r2, lr
 8001ace:	601a      	str	r2, [r3, #0]
          CLEAR_BIT(EXTI->IMR, iocurrent);
        }
      }
    }

	position++;
 8001ad0:	f10c 0c01 	add.w	ip, ip, #1
  while (((GPIO_Init->Pin) >> position) != 0x00u)
 8001ad4:	680b      	ldr	r3, [r1, #0]
 8001ad6:	fa33 f20c 	lsrs.w	r2, r3, ip
 8001ada:	d05f      	beq.n	8001b9c <HAL_GPIO_Init+0x268>
    ioposition = (0x01uL << position);
 8001adc:	2201      	movs	r2, #1
 8001ade:	fa02 f20c 	lsl.w	r2, r2, ip
    iocurrent = (uint32_t)(GPIO_Init->Pin) & ioposition;
 8001ae2:	ea03 0e02 	and.w	lr, r3, r2
    if (iocurrent == ioposition)
 8001ae6:	ea32 0303 	bics.w	r3, r2, r3
 8001aea:	d1f1      	bne.n	8001ad0 <HAL_GPIO_Init+0x19c>
      switch (GPIO_Init->Mode)
 8001aec:	684b      	ldr	r3, [r1, #4]
 8001aee:	2b12      	cmp	r3, #18
 8001af0:	f63f af25 	bhi.w	800193e <HAL_GPIO_Init+0xa>
 8001af4:	2b12      	cmp	r3, #18
 8001af6:	f63f af4f 	bhi.w	8001998 <HAL_GPIO_Init+0x64>
 8001afa:	a501      	add	r5, pc, #4	@ (adr r5, 8001b00 <HAL_GPIO_Init+0x1cc>)
 8001afc:	f855 f023 	ldr.w	pc, [r5, r3, lsl #2]
 8001b00:	08001987 	.word	0x08001987
 8001b04:	08001997 	.word	0x08001997
 8001b08:	08001a37 	.word	0x08001a37
 8001b0c:	08001a49 	.word	0x08001a49
 8001b10:	08001999 	.word	0x08001999
 8001b14:	08001999 	.word	0x08001999
 8001b18:	08001999 	.word	0x08001999
 8001b1c:	08001999 	.word	0x08001999
 8001b20:	08001999 	.word	0x08001999
 8001b24:	08001999 	.word	0x08001999
 8001b28:	08001999 	.word	0x08001999
 8001b2c:	08001999 	.word	0x08001999
 8001b30:	08001999 	.word	0x08001999
 8001b34:	08001999 	.word	0x08001999
 8001b38:	08001999 	.word	0x08001999
 8001b3c:	08001999 	.word	0x08001999
 8001b40:	08001999 	.word	0x08001999
 8001b44:	08001a31 	.word	0x08001a31
 8001b48:	08001a3d 	.word	0x08001a3d
        SET_BIT(temp, (GPIO_GET_INDEX(GPIOx)) << (4u * (position & 0x03u)));
 8001b4c:	2301      	movs	r3, #1
 8001b4e:	e787      	b.n	8001a60 <HAL_GPIO_Init+0x12c>
 8001b50:	2302      	movs	r3, #2
 8001b52:	e785      	b.n	8001a60 <HAL_GPIO_Init+0x12c>
          CLEAR_BIT(EXTI->RTSR, iocurrent);
 8001b54:	f44f 6380 	mov.w	r3, #1024	@ 0x400
 8001b58:	f2c4 0301 	movt	r3, #16385	@ 0x4001
 8001b5c:	689a      	ldr	r2, [r3, #8]
 8001b5e:	ea22 020e 	bic.w	r2, r2, lr
 8001b62:	609a      	str	r2, [r3, #8]
 8001b64:	e790      	b.n	8001a88 <HAL_GPIO_Init+0x154>
          CLEAR_BIT(EXTI->FTSR, iocurrent);
 8001b66:	f44f 6380 	mov.w	r3, #1024	@ 0x400
 8001b6a:	f2c4 0301 	movt	r3, #16385	@ 0x4001
 8001b6e:	68da      	ldr	r2, [r3, #12]
 8001b70:	ea22 020e 	bic.w	r2, r2, lr
 8001b74:	60da      	str	r2, [r3, #12]
 8001b76:	e793      	b.n	8001aa0 <HAL_GPIO_Init+0x16c>
          CLEAR_BIT(EXTI->EMR, iocurrent);
 8001b78:	f44f 6380 	mov.w	r3, #1024	@ 0x400
 8001b7c:	f2c4 0301 	movt	r3, #16385	@ 0x4001
 8001b80:	685a      	ldr	r2, [r3, #4]
 8001b82:	ea22 020e 	bic.w	r2, r2, lr
 8001b86:	605a      	str	r2, [r3, #4]
 8001b88:	e796      	b.n	8001ab8 <HAL_GPIO_Init+0x184>
          CLEAR_BIT(EXTI->IMR, iocurrent);
 8001b8a:	f44f 6380 	mov.w	r3, #1024	@ 0x400
 8001b8e:	f2c4 0301 	movt	r3, #16385	@ 0x4001
 8001b92:	681a      	ldr	r2, [r3, #0]
 8001b94:	ea22 020e 	bic.w	r2, r2, lr
 8001b98:	601a      	str	r2, [r3, #0]
 8001b9a:	e799      	b.n	8001ad0 <HAL_GPIO_Init+0x19c>
  }
}
 8001b9c:	b002      	add	sp, #8
 8001b9e:	bd70      	pop	{r4, r5, r6, pc}

08001ba0 <HAL_GPIO_ReadPin>:
  GPIO_PinState bitstatus;

  /* Check the parameters */
  assert_param(IS_GPIO_PIN(GPIO_Pin));

  if ((GPIOx->IDR & GPIO_Pin) != (uint32_t)GPIO_PIN_RESET)
 8001ba0:	6883      	ldr	r3, [r0, #8]
 8001ba2:	4219      	tst	r1, r3
 8001ba4:	d001      	beq.n	8001baa <HAL_GPIO_ReadPin+0xa>
  {
    bitstatus = GPIO_PIN_SET;
 8001ba6:	2001      	movs	r0, #1
 8001ba8:	4770      	bx	lr
  }
  else
  {
    bitstatus = GPIO_PIN_RESET;
 8001baa:	2000      	movs	r0, #0
  }
  return bitstatus;
}
 8001bac:	4770      	bx	lr

08001bae <HAL_GPIO_WritePin>:
{
  /* Check the parameters */
  assert_param(IS_GPIO_PIN(GPIO_Pin));
  assert_param(IS_GPIO_PIN_ACTION(PinState));

  if (PinState != GPIO_PIN_RESET)
 8001bae:	b10a      	cbz	r2, 8001bb4 <HAL_GPIO_WritePin+0x6>
  {
    GPIOx->BSRR = GPIO_Pin;
 8001bb0:	6101      	str	r1, [r0, #16]
 8001bb2:	4770      	bx	lr
  }
  else
  {
    GPIOx->BSRR = (uint32_t)GPIO_Pin << 16u;
 8001bb4:	0409      	lsls	r1, r1, #16
 8001bb6:	6101      	str	r1, [r0, #16]
  }
}
 8001bb8:	4770      	bx	lr

08001bba <HAL_GPIO_EXTI_IRQHandler>:
  * @brief  This function handles EXTI interrupt request.
  * @param  GPIO_Pin: Specifies the pins connected EXTI line
  * @retval None
  */
void HAL_GPIO_EXTI_IRQHandler(uint16_t GPIO_Pin)
{
 8001bba:	b508      	push	{r3, lr}
  /* EXTI line interrupt detected */
  if (__HAL_GPIO_EXTI_GET_IT(GPIO_Pin) != 0x00u)
 8001bbc:	f44f 6380 	mov.w	r3, #1024	@ 0x400
 8001bc0:	f2c4 0301 	movt	r3, #16385	@ 0x4001
 8001bc4:	695b      	ldr	r3, [r3, #20]
 8001bc6:	4203      	tst	r3, r0
 8001bc8:	d100      	bne.n	8001bcc <HAL_GPIO_EXTI_IRQHandler+0x12>
  {
    __HAL_GPIO_EXTI_CLEAR_IT(GPIO_Pin);
    HAL_GPIO_EXTI_Callback(GPIO_Pin);
  }
}
 8001bca:	bd08      	pop	{r3, pc}
    __HAL_GPIO_EXTI_CLEAR_IT(GPIO_Pin);
 8001bcc:	f44f 6380 	mov.w	r3, #1024	@ 0x400
 8001bd0:	f2c4 0301 	movt	r3, #16385	@ 0x4001
 8001bd4:	6158      	str	r0, [r3, #20]
    HAL_GPIO_EXTI_Callback(GPIO_Pin);
 8001bd6:	f005 fd4a 	bl	800766e <HAL_GPIO_EXTI_Callback>
}
 8001bda:	e7f6      	b.n	8001bca <HAL_GPIO_EXTI_IRQHandler+0x10>

08001bdc <HAL_PCD_EP_DB_Receive>:
  * @param  wEPVal Last snapshot of EPRx register value taken in ISR
  * @retval HAL status
  */
static uint16_t HAL_PCD_EP_DB_Receive(PCD_HandleTypeDef *hpcd,
                                      PCD_EPTypeDef *ep, uint16_t wEPVal)
{
 8001bdc:	b538      	push	{r3, r4, r5, lr}
  uint16_t count;

  /* Manage Buffer0 OUT */
  if ((wEPVal & USB_EP_DTOG_RX) != 0U)
 8001bde:	f412 4f80 	tst.w	r2, #16384	@ 0x4000
 8001be2:	d044      	beq.n	8001c6e <HAL_PCD_EP_DB_Receive+0x92>
  {
    /* Get count of received Data on buffer0 */
    count = (uint16_t)PCD_GET_EP_DBUF0_CNT(hpcd->Instance, ep->num);
 8001be4:	6804      	ldr	r4, [r0, #0]
 8001be6:	f8b4 3050 	ldrh.w	r3, [r4, #80]	@ 0x50
 8001bea:	b29b      	uxth	r3, r3
 8001bec:	f891 c000 	ldrb.w	ip, [r1]
 8001bf0:	eb03 03cc 	add.w	r3, r3, ip, lsl #3
 8001bf4:	3302      	adds	r3, #2
 8001bf6:	eb04 0443 	add.w	r4, r4, r3, lsl #1
 8001bfa:	f8b4 4400 	ldrh.w	r4, [r4, #1024]	@ 0x400
 8001bfe:	f3c4 0409 	ubfx	r4, r4, #0, #10

    if (ep->xfer_len >= count)
 8001c02:	698b      	ldr	r3, [r1, #24]
 8001c04:	42a3      	cmp	r3, r4
 8001c06:	d328      	bcc.n	8001c5a <HAL_PCD_EP_DB_Receive+0x7e>
    {
      ep->xfer_len -= count;
 8001c08:	1b1b      	subs	r3, r3, r4
 8001c0a:	618b      	str	r3, [r1, #24]
    else
    {
      ep->xfer_len = 0U;
    }

    if (ep->xfer_len == 0U)
 8001c0c:	698b      	ldr	r3, [r1, #24]
 8001c0e:	b97b      	cbnz	r3, 8001c30 <HAL_PCD_EP_DB_Receive+0x54>
    {
      /* set NAK to OUT endpoint since double buffer is enabled */
      PCD_SET_EP_RX_STATUS(hpcd->Instance, ep->num, USB_EP_RX_NAK);
 8001c10:	6805      	ldr	r5, [r0, #0]
 8001c12:	f835 302c 	ldrh.w	r3, [r5, ip, lsl #2]
 8001c16:	b29b      	uxth	r3, r3
 8001c18:	f423 4380 	bic.w	r3, r3, #16384	@ 0x4000
 8001c1c:	f023 0370 	bic.w	r3, r3, #112	@ 0x70
 8001c20:	f483 5300 	eor.w	r3, r3, #8192	@ 0x2000
 8001c24:	f443 4300 	orr.w	r3, r3, #32768	@ 0x8000
 8001c28:	f043 0380 	orr.w	r3, r3, #128	@ 0x80
 8001c2c:	f825 302c 	strh.w	r3, [r5, ip, lsl #2]
    }

    /* Check if Buffer1 is in blocked state which requires to toggle */
    if ((wEPVal & USB_EP_DTOG_TX) != 0U)
 8001c30:	f012 0f40 	tst.w	r2, #64	@ 0x40
 8001c34:	d00e      	beq.n	8001c54 <HAL_PCD_EP_DB_Receive+0x78>
    {
      PCD_FREE_USER_BUFFER(hpcd->Instance, ep->num, 0U);
 8001c36:	6802      	ldr	r2, [r0, #0]
 8001c38:	780d      	ldrb	r5, [r1, #0]
 8001c3a:	f832 3025 	ldrh.w	r3, [r2, r5, lsl #2]
 8001c3e:	b29b      	uxth	r3, r3
 8001c40:	f423 43e0 	bic.w	r3, r3, #28672	@ 0x7000
 8001c44:	f023 0370 	bic.w	r3, r3, #112	@ 0x70
 8001c48:	f443 4300 	orr.w	r3, r3, #32768	@ 0x8000
 8001c4c:	f043 03c0 	orr.w	r3, r3, #192	@ 0xc0
 8001c50:	f822 3025 	strh.w	r3, [r2, r5, lsl #2]
    }

    if (count != 0U)
 8001c54:	b924      	cbnz	r4, 8001c60 <HAL_PCD_EP_DB_Receive+0x84>
      USB_ReadPMA(hpcd->Instance, ep->xfer_buff, ep->pmaaddr1, count);
    }
  }

  return count;
}
 8001c56:	4620      	mov	r0, r4
 8001c58:	bd38      	pop	{r3, r4, r5, pc}
      ep->xfer_len = 0U;
 8001c5a:	2300      	movs	r3, #0
 8001c5c:	618b      	str	r3, [r1, #24]
 8001c5e:	e7d5      	b.n	8001c0c <HAL_PCD_EP_DB_Receive+0x30>
      USB_ReadPMA(hpcd->Instance, ep->xfer_buff, ep->pmaaddr0, count);
 8001c60:	4623      	mov	r3, r4
 8001c62:	890a      	ldrh	r2, [r1, #8]
 8001c64:	6949      	ldr	r1, [r1, #20]
 8001c66:	6800      	ldr	r0, [r0, #0]
 8001c68:	f003 f94b 	bl	8004f02 <USB_ReadPMA>
 8001c6c:	e7f3      	b.n	8001c56 <HAL_PCD_EP_DB_Receive+0x7a>
    count = (uint16_t)PCD_GET_EP_DBUF1_CNT(hpcd->Instance, ep->num);
 8001c6e:	6804      	ldr	r4, [r0, #0]
 8001c70:	f8b4 3050 	ldrh.w	r3, [r4, #80]	@ 0x50
 8001c74:	b29b      	uxth	r3, r3
 8001c76:	f891 c000 	ldrb.w	ip, [r1]
 8001c7a:	eb03 03cc 	add.w	r3, r3, ip, lsl #3
 8001c7e:	3306      	adds	r3, #6
 8001c80:	eb04 0443 	add.w	r4, r4, r3, lsl #1
 8001c84:	f8b4 4400 	ldrh.w	r4, [r4, #1024]	@ 0x400
 8001c88:	f3c4 0409 	ubfx	r4, r4, #0, #10
    if (ep->xfer_len >= count)
 8001c8c:	698b      	ldr	r3, [r1, #24]
 8001c8e:	42a3      	cmp	r3, r4
 8001c90:	d32f      	bcc.n	8001cf2 <HAL_PCD_EP_DB_Receive+0x116>
      ep->xfer_len -= count;
 8001c92:	1b1b      	subs	r3, r3, r4
 8001c94:	618b      	str	r3, [r1, #24]
    if (ep->xfer_len == 0U)
 8001c96:	698b      	ldr	r3, [r1, #24]
 8001c98:	b97b      	cbnz	r3, 8001cba <HAL_PCD_EP_DB_Receive+0xde>
      PCD_SET_EP_RX_STATUS(hpcd->Instance, ep->num, USB_EP_RX_NAK);
 8001c9a:	6805      	ldr	r5, [r0, #0]
 8001c9c:	f835 302c 	ldrh.w	r3, [r5, ip, lsl #2]
 8001ca0:	b29b      	uxth	r3, r3
 8001ca2:	f423 4380 	bic.w	r3, r3, #16384	@ 0x4000
 8001ca6:	f023 0370 	bic.w	r3, r3, #112	@ 0x70
 8001caa:	f483 5300 	eor.w	r3, r3, #8192	@ 0x2000
 8001cae:	f443 4300 	orr.w	r3, r3, #32768	@ 0x8000
 8001cb2:	f043 0380 	orr.w	r3, r3, #128	@ 0x80
 8001cb6:	f825 302c 	strh.w	r3, [r5, ip, lsl #2]
    if ((wEPVal & USB_EP_DTOG_TX) == 0U)
 8001cba:	f012 0f40 	tst.w	r2, #64	@ 0x40
 8001cbe:	d10f      	bne.n	8001ce0 <HAL_PCD_EP_DB_Receive+0x104>
      PCD_FREE_USER_BUFFER(hpcd->Instance, ep->num, 0U);
 8001cc0:	6802      	ldr	r2, [r0, #0]
 8001cc2:	f891 c000 	ldrb.w	ip, [r1]
 8001cc6:	f832 302c 	ldrh.w	r3, [r2, ip, lsl #2]
 8001cca:	b29b      	uxth	r3, r3
 8001ccc:	f423 43e0 	bic.w	r3, r3, #28672	@ 0x7000
 8001cd0:	f023 0370 	bic.w	r3, r3, #112	@ 0x70
 8001cd4:	f443 4300 	orr.w	r3, r3, #32768	@ 0x8000
 8001cd8:	f043 03c0 	orr.w	r3, r3, #192	@ 0xc0
 8001cdc:	f822 302c 	strh.w	r3, [r2, ip, lsl #2]
    if (count != 0U)
 8001ce0:	2c00      	cmp	r4, #0
 8001ce2:	d0b8      	beq.n	8001c56 <HAL_PCD_EP_DB_Receive+0x7a>
      USB_ReadPMA(hpcd->Instance, ep->xfer_buff, ep->pmaaddr1, count);
 8001ce4:	4623      	mov	r3, r4
 8001ce6:	894a      	ldrh	r2, [r1, #10]
 8001ce8:	6949      	ldr	r1, [r1, #20]
 8001cea:	6800      	ldr	r0, [r0, #0]
 8001cec:	f003 f909 	bl	8004f02 <USB_ReadPMA>
 8001cf0:	e7b1      	b.n	8001c56 <HAL_PCD_EP_DB_Receive+0x7a>
      ep->xfer_len = 0U;
 8001cf2:	2300      	movs	r3, #0
 8001cf4:	618b      	str	r3, [r1, #24]
 8001cf6:	e7ce      	b.n	8001c96 <HAL_PCD_EP_DB_Receive+0xba>

08001cf8 <HAL_PCD_Init>:
{
 8001cf8:	b538      	push	{r3, r4, r5, lr}
  if (hpcd == NULL)
 8001cfa:	2800      	cmp	r0, #0
 8001cfc:	d06e      	beq.n	8001ddc <HAL_PCD_Init+0xe4>
 8001cfe:	4604      	mov	r4, r0
  if (hpcd->State == HAL_PCD_STATE_RESET)
 8001d00:	f890 3291 	ldrb.w	r3, [r0, #657]	@ 0x291
 8001d04:	b1a3      	cbz	r3, 8001d30 <HAL_PCD_Init+0x38>
  hpcd->State = HAL_PCD_STATE_BUSY;
 8001d06:	2303      	movs	r3, #3
 8001d08:	f884 3291 	strb.w	r3, [r4, #657]	@ 0x291
  hpcd->Init.dma_enable = 0U;
 8001d0c:	2300      	movs	r3, #0
 8001d0e:	7163      	strb	r3, [r4, #5]
  __HAL_PCD_DISABLE(hpcd);
 8001d10:	6820      	ldr	r0, [r4, #0]
 8001d12:	f002 f989 	bl	8004028 <USB_DisableGlobalInt>
  if (USB_CoreInit(hpcd->Instance, hpcd->Init) != HAL_OK)
 8001d16:	4623      	mov	r3, r4
 8001d18:	f853 0b04 	ldr.w	r0, [r3], #4
 8001d1c:	cb0e      	ldmia	r3, {r1, r2, r3}
 8001d1e:	f002 f973 	bl	8004008 <USB_CoreInit>
 8001d22:	b150      	cbz	r0, 8001d3a <HAL_PCD_Init+0x42>
    hpcd->State = HAL_PCD_STATE_ERROR;
 8001d24:	2302      	movs	r3, #2
 8001d26:	f884 3291 	strb.w	r3, [r4, #657]	@ 0x291
    return HAL_ERROR;
 8001d2a:	2501      	movs	r5, #1
}
 8001d2c:	4628      	mov	r0, r5
 8001d2e:	bd38      	pop	{r3, r4, r5, pc}
    hpcd->Lock = HAL_UNLOCKED;
 8001d30:	f880 3290 	strb.w	r3, [r0, #656]	@ 0x290
    HAL_PCD_MspInit(hpcd);
 8001d34:	f004 ff29 	bl	8006b8a <HAL_PCD_MspInit>
 8001d38:	e7e5      	b.n	8001d06 <HAL_PCD_Init+0xe>
  if (USB_SetCurrentMode(hpcd->Instance, USB_DEVICE_MODE) != HAL_OK)
 8001d3a:	2100      	movs	r1, #0
 8001d3c:	6820      	ldr	r0, [r4, #0]
 8001d3e:	f002 f97d 	bl	800403c <USB_SetCurrentMode>
 8001d42:	4603      	mov	r3, r0
 8001d44:	b908      	cbnz	r0, 8001d4a <HAL_PCD_Init+0x52>
  for (i = 0U; i < hpcd->Init.dev_endpoints; i++)
 8001d46:	4602      	mov	r2, r0
 8001d48:	e015      	b.n	8001d76 <HAL_PCD_Init+0x7e>
    hpcd->State = HAL_PCD_STATE_ERROR;
 8001d4a:	2302      	movs	r3, #2
 8001d4c:	f884 3291 	strb.w	r3, [r4, #657]	@ 0x291
    return HAL_ERROR;
 8001d50:	2501      	movs	r5, #1
 8001d52:	e7eb      	b.n	8001d2c <HAL_PCD_Init+0x34>
    hpcd->IN_ep[i].is_in = 1U;
 8001d54:	eb02 0182 	add.w	r1, r2, r2, lsl #2
 8001d58:	eb04 01c1 	add.w	r1, r4, r1, lsl #3
 8001d5c:	2001      	movs	r0, #1
 8001d5e:	7448      	strb	r0, [r1, #17]
    hpcd->IN_ep[i].num = i;
 8001d60:	740a      	strb	r2, [r1, #16]
    hpcd->IN_ep[i].type = EP_TYPE_CTRL;
 8001d62:	2000      	movs	r0, #0
 8001d64:	74c8      	strb	r0, [r1, #19]
    hpcd->IN_ep[i].maxpacket = 0U;
 8001d66:	6208      	str	r0, [r1, #32]
    hpcd->IN_ep[i].xfer_buff = 0U;
 8001d68:	6248      	str	r0, [r1, #36]	@ 0x24
    hpcd->IN_ep[i].xfer_len = 0U;
 8001d6a:	3201      	adds	r2, #1
 8001d6c:	eb02 0182 	add.w	r1, r2, r2, lsl #2
 8001d70:	00c9      	lsls	r1, r1, #3
 8001d72:	5060      	str	r0, [r4, r1]
  for (i = 0U; i < hpcd->Init.dev_endpoints; i++)
 8001d74:	b2d2      	uxtb	r2, r2
 8001d76:	7920      	ldrb	r0, [r4, #4]
 8001d78:	4290      	cmp	r0, r2
 8001d7a:	d8eb      	bhi.n	8001d54 <HAL_PCD_Init+0x5c>
 8001d7c:	e016      	b.n	8001dac <HAL_PCD_Init+0xb4>
    hpcd->OUT_ep[i].is_in = 0U;
 8001d7e:	eb03 0283 	add.w	r2, r3, r3, lsl #2
 8001d82:	eb04 02c2 	add.w	r2, r4, r2, lsl #3
 8001d86:	2100      	movs	r1, #0
 8001d88:	f882 1151 	strb.w	r1, [r2, #337]	@ 0x151
    hpcd->OUT_ep[i].num = i;
 8001d8c:	f882 3150 	strb.w	r3, [r2, #336]	@ 0x150
    hpcd->OUT_ep[i].type = EP_TYPE_CTRL;
 8001d90:	f882 1153 	strb.w	r1, [r2, #339]	@ 0x153
    hpcd->OUT_ep[i].maxpacket = 0U;
 8001d94:	f8c2 1160 	str.w	r1, [r2, #352]	@ 0x160
    hpcd->OUT_ep[i].xfer_buff = 0U;
 8001d98:	f8c2 1164 	str.w	r1, [r2, #356]	@ 0x164
    hpcd->OUT_ep[i].xfer_len = 0U;
 8001d9c:	eb03 0283 	add.w	r2, r3, r3, lsl #2
 8001da0:	eb04 02c2 	add.w	r2, r4, r2, lsl #3
 8001da4:	f8c2 1168 	str.w	r1, [r2, #360]	@ 0x168
  for (i = 0U; i < hpcd->Init.dev_endpoints; i++)
 8001da8:	3301      	adds	r3, #1
 8001daa:	b2db      	uxtb	r3, r3
 8001dac:	4298      	cmp	r0, r3
 8001dae:	d8e6      	bhi.n	8001d7e <HAL_PCD_Init+0x86>
  if (USB_DevInit(hpcd->Instance, hpcd->Init) != HAL_OK)
 8001db0:	4623      	mov	r3, r4
 8001db2:	f853 0b04 	ldr.w	r0, [r3], #4
 8001db6:	cb0e      	ldmia	r3, {r1, r2, r3}
 8001db8:	f002 f942 	bl	8004040 <USB_DevInit>
 8001dbc:	4605      	mov	r5, r0
 8001dbe:	b120      	cbz	r0, 8001dca <HAL_PCD_Init+0xd2>
    hpcd->State = HAL_PCD_STATE_ERROR;
 8001dc0:	2302      	movs	r3, #2
 8001dc2:	f884 3291 	strb.w	r3, [r4, #657]	@ 0x291
    return HAL_ERROR;
 8001dc6:	2501      	movs	r5, #1
 8001dc8:	e7b0      	b.n	8001d2c <HAL_PCD_Init+0x34>
  hpcd->USB_Address = 0U;
 8001dca:	2300      	movs	r3, #0
 8001dcc:	7363      	strb	r3, [r4, #13]
  hpcd->State = HAL_PCD_STATE_READY;
 8001dce:	2301      	movs	r3, #1
 8001dd0:	f884 3291 	strb.w	r3, [r4, #657]	@ 0x291
  (void)USB_DevDisconnect(hpcd->Instance);
 8001dd4:	6820      	ldr	r0, [r4, #0]
 8001dd6:	f002 fc92 	bl	80046fe <USB_DevDisconnect>
  return HAL_OK;
 8001dda:	e7a7      	b.n	8001d2c <HAL_PCD_Init+0x34>
    return HAL_ERROR;
 8001ddc:	2501      	movs	r5, #1
 8001dde:	e7a5      	b.n	8001d2c <HAL_PCD_Init+0x34>

08001de0 <HAL_PCD_Start>:
{
 8001de0:	b538      	push	{r3, r4, r5, lr}
  __HAL_LOCK(hpcd);
 8001de2:	f890 3290 	ldrb.w	r3, [r0, #656]	@ 0x290
 8001de6:	2b01      	cmp	r3, #1
 8001de8:	d011      	beq.n	8001e0e <HAL_PCD_Start+0x2e>
 8001dea:	4604      	mov	r4, r0
 8001dec:	2501      	movs	r5, #1
 8001dee:	f880 5290 	strb.w	r5, [r0, #656]	@ 0x290
  __HAL_PCD_ENABLE(hpcd);
 8001df2:	6800      	ldr	r0, [r0, #0]
 8001df4:	f002 f90f 	bl	8004016 <USB_EnableGlobalInt>
  HAL_PCDEx_SetConnectionState(hpcd, 1U);
 8001df8:	4629      	mov	r1, r5
 8001dfa:	4620      	mov	r0, r4
 8001dfc:	f004 ffcf 	bl	8006d9e <HAL_PCDEx_SetConnectionState>
  (void)USB_DevConnect(hpcd->Instance);
 8001e00:	6820      	ldr	r0, [r4, #0]
 8001e02:	f002 fc7a 	bl	80046fa <USB_DevConnect>
  __HAL_UNLOCK(hpcd);
 8001e06:	2000      	movs	r0, #0
 8001e08:	f884 0290 	strb.w	r0, [r4, #656]	@ 0x290
}
 8001e0c:	bd38      	pop	{r3, r4, r5, pc}
  __HAL_LOCK(hpcd);
 8001e0e:	2002      	movs	r0, #2
 8001e10:	e7fc      	b.n	8001e0c <HAL_PCD_Start+0x2c>

08001e12 <HAL_PCD_EP_DB_Transmit>:
  * @param  wEPVal Last snapshot of EPRx register value taken in ISR
  * @retval HAL status
  */
static HAL_StatusTypeDef HAL_PCD_EP_DB_Transmit(PCD_HandleTypeDef *hpcd,
                                                PCD_EPTypeDef *ep, uint16_t wEPVal)
{
 8001e12:	b570      	push	{r4, r5, r6, lr}
 8001e14:	4605      	mov	r5, r0
 8001e16:	460c      	mov	r4, r1
 8001e18:	4616      	mov	r6, r2
  uint32_t len;
  uint16_t TxPctSize;

  /* Data Buffer0 ACK received */
  if ((wEPVal & USB_EP_DTOG_TX) != 0U)
 8001e1a:	f012 0f40 	tst.w	r2, #64	@ 0x40
 8001e1e:	f000 810e 	beq.w	800203e <HAL_PCD_EP_DB_Transmit+0x22c>
  {
    /* multi-packet on the NON control IN endpoint */
    TxPctSize = (uint16_t)PCD_GET_EP_DBUF0_CNT(hpcd->Instance, ep->num);
 8001e22:	6802      	ldr	r2, [r0, #0]
 8001e24:	f8b2 3050 	ldrh.w	r3, [r2, #80]	@ 0x50
 8001e28:	b29b      	uxth	r3, r3
 8001e2a:	7809      	ldrb	r1, [r1, #0]
 8001e2c:	eb03 03c1 	add.w	r3, r3, r1, lsl #3
 8001e30:	3302      	adds	r3, #2
 8001e32:	eb02 0243 	add.w	r2, r2, r3, lsl #1
 8001e36:	f8b2 2400 	ldrh.w	r2, [r2, #1024]	@ 0x400
 8001e3a:	f3c2 0209 	ubfx	r2, r2, #0, #10

    if (ep->xfer_len > TxPctSize)
 8001e3e:	69a3      	ldr	r3, [r4, #24]
 8001e40:	4293      	cmp	r3, r2
 8001e42:	d94e      	bls.n	8001ee2 <HAL_PCD_EP_DB_Transmit+0xd0>
    {
      ep->xfer_len -= TxPctSize;
 8001e44:	1a9b      	subs	r3, r3, r2
 8001e46:	61a3      	str	r3, [r4, #24]
    {
      ep->xfer_len = 0U;
    }

    /* Transfer is completed */
    if (ep->xfer_len == 0U)
 8001e48:	69a3      	ldr	r3, [r4, #24]
 8001e4a:	2b00      	cmp	r3, #0
 8001e4c:	d166      	bne.n	8001f1c <HAL_PCD_EP_DB_Transmit+0x10a>
    {
      PCD_SET_EP_DBUF0_CNT(hpcd->Instance, ep->num, ep->is_in, 0U);
 8001e4e:	7863      	ldrb	r3, [r4, #1]
 8001e50:	2b00      	cmp	r3, #0
 8001e52:	d149      	bne.n	8001ee8 <HAL_PCD_EP_DB_Transmit+0xd6>
 8001e54:	682b      	ldr	r3, [r5, #0]
 8001e56:	f8b3 2050 	ldrh.w	r2, [r3, #80]	@ 0x50
 8001e5a:	b292      	uxth	r2, r2
 8001e5c:	4413      	add	r3, r2
 8001e5e:	eb03 1301 	add.w	r3, r3, r1, lsl #4
 8001e62:	f8b3 2404 	ldrh.w	r2, [r3, #1028]	@ 0x404
 8001e66:	f3c2 0209 	ubfx	r2, r2, #0, #10
 8001e6a:	f8a3 2404 	strh.w	r2, [r3, #1028]	@ 0x404
 8001e6e:	f8b3 2404 	ldrh.w	r2, [r3, #1028]	@ 0x404
 8001e72:	ea6f 4242 	mvn.w	r2, r2, lsl #17
 8001e76:	ea6f 4252 	mvn.w	r2, r2, lsr #17
 8001e7a:	b292      	uxth	r2, r2
 8001e7c:	f8a3 2404 	strh.w	r2, [r3, #1028]	@ 0x404
      PCD_SET_EP_DBUF1_CNT(hpcd->Instance, ep->num, ep->is_in, 0U);
 8001e80:	682b      	ldr	r3, [r5, #0]
 8001e82:	7862      	ldrb	r2, [r4, #1]
 8001e84:	2a00      	cmp	r2, #0
 8001e86:	d13c      	bne.n	8001f02 <HAL_PCD_EP_DB_Transmit+0xf0>
 8001e88:	f8b3 2050 	ldrh.w	r2, [r3, #80]	@ 0x50
 8001e8c:	b292      	uxth	r2, r2
 8001e8e:	4413      	add	r3, r2
 8001e90:	7822      	ldrb	r2, [r4, #0]
 8001e92:	eb03 1302 	add.w	r3, r3, r2, lsl #4
 8001e96:	f8b3 240c 	ldrh.w	r2, [r3, #1036]	@ 0x40c
 8001e9a:	f3c2 0209 	ubfx	r2, r2, #0, #10
 8001e9e:	f8a3 240c 	strh.w	r2, [r3, #1036]	@ 0x40c
 8001ea2:	f8b3 240c 	ldrh.w	r2, [r3, #1036]	@ 0x40c
 8001ea6:	ea6f 4242 	mvn.w	r2, r2, lsl #17
 8001eaa:	ea6f 4252 	mvn.w	r2, r2, lsr #17
 8001eae:	b292      	uxth	r2, r2
 8001eb0:	f8a3 240c 	strh.w	r2, [r3, #1036]	@ 0x40c

      /* TX COMPLETE */
#if (USE_HAL_PCD_REGISTER_CALLBACKS == 1U)
      hpcd->DataInStageCallback(hpcd, ep->num);
#else
      HAL_PCD_DataInStageCallback(hpcd, ep->num);
 8001eb4:	7821      	ldrb	r1, [r4, #0]
 8001eb6:	4628      	mov	r0, r5
 8001eb8:	f004 fe9d 	bl	8006bf6 <HAL_PCD_DataInStageCallback>
#endif /* USE_HAL_PCD_REGISTER_CALLBACKS */

      if ((wEPVal & USB_EP_DTOG_RX) != 0U)
 8001ebc:	f416 4f80 	tst.w	r6, #16384	@ 0x4000
 8001ec0:	d041      	beq.n	8001f46 <HAL_PCD_EP_DB_Transmit+0x134>
      {
        PCD_FREE_USER_BUFFER(hpcd->Instance, ep->num, 1U);
 8001ec2:	682a      	ldr	r2, [r5, #0]
 8001ec4:	7821      	ldrb	r1, [r4, #0]
 8001ec6:	f832 3021 	ldrh.w	r3, [r2, r1, lsl #2]
 8001eca:	b29b      	uxth	r3, r3
 8001ecc:	f423 43e0 	bic.w	r3, r3, #28672	@ 0x7000
 8001ed0:	f023 0370 	bic.w	r3, r3, #112	@ 0x70
 8001ed4:	f443 4340 	orr.w	r3, r3, #49152	@ 0xc000
 8001ed8:	f043 0380 	orr.w	r3, r3, #128	@ 0x80
 8001edc:	f822 3021 	strh.w	r3, [r2, r1, lsl #2]
 8001ee0:	e031      	b.n	8001f46 <HAL_PCD_EP_DB_Transmit+0x134>
      ep->xfer_len = 0U;
 8001ee2:	2300      	movs	r3, #0
 8001ee4:	61a3      	str	r3, [r4, #24]
 8001ee6:	e7af      	b.n	8001e48 <HAL_PCD_EP_DB_Transmit+0x36>
      PCD_SET_EP_DBUF0_CNT(hpcd->Instance, ep->num, ep->is_in, 0U);
 8001ee8:	2b01      	cmp	r3, #1
 8001eea:	d1c9      	bne.n	8001e80 <HAL_PCD_EP_DB_Transmit+0x6e>
 8001eec:	682b      	ldr	r3, [r5, #0]
 8001eee:	f8b3 2050 	ldrh.w	r2, [r3, #80]	@ 0x50
 8001ef2:	b292      	uxth	r2, r2
 8001ef4:	4413      	add	r3, r2
 8001ef6:	eb03 1301 	add.w	r3, r3, r1, lsl #4
 8001efa:	2200      	movs	r2, #0
 8001efc:	f8a3 2404 	strh.w	r2, [r3, #1028]	@ 0x404
 8001f00:	e7be      	b.n	8001e80 <HAL_PCD_EP_DB_Transmit+0x6e>
      PCD_SET_EP_DBUF1_CNT(hpcd->Instance, ep->num, ep->is_in, 0U);
 8001f02:	2a01      	cmp	r2, #1
 8001f04:	d1d6      	bne.n	8001eb4 <HAL_PCD_EP_DB_Transmit+0xa2>
 8001f06:	f8b3 2050 	ldrh.w	r2, [r3, #80]	@ 0x50
 8001f0a:	b292      	uxth	r2, r2
 8001f0c:	4413      	add	r3, r2
 8001f0e:	7822      	ldrb	r2, [r4, #0]
 8001f10:	eb03 1302 	add.w	r3, r3, r2, lsl #4
 8001f14:	2200      	movs	r2, #0
 8001f16:	f8a3 240c 	strh.w	r2, [r3, #1036]	@ 0x40c
 8001f1a:	e7cb      	b.n	8001eb4 <HAL_PCD_EP_DB_Transmit+0xa2>
      }
    }
    else /* Transfer is not yet Done */
    {
      /* need to Free USB Buff */
      if ((wEPVal & USB_EP_DTOG_RX) != 0U)
 8001f1c:	f416 4f80 	tst.w	r6, #16384	@ 0x4000
 8001f20:	d00d      	beq.n	8001f3e <HAL_PCD_EP_DB_Transmit+0x12c>
      {
        PCD_FREE_USER_BUFFER(hpcd->Instance, ep->num, 1U);
 8001f22:	6828      	ldr	r0, [r5, #0]
 8001f24:	f830 3021 	ldrh.w	r3, [r0, r1, lsl #2]
 8001f28:	b29b      	uxth	r3, r3
 8001f2a:	f423 43e0 	bic.w	r3, r3, #28672	@ 0x7000
 8001f2e:	f023 0370 	bic.w	r3, r3, #112	@ 0x70
 8001f32:	f443 4340 	orr.w	r3, r3, #49152	@ 0xc000
 8001f36:	f043 0380 	orr.w	r3, r3, #128	@ 0x80
 8001f3a:	f820 3021 	strh.w	r3, [r0, r1, lsl #2]
      }

      /* Still there is data to Fill in the next Buffer */
      if (ep->xfer_fill_db == 1U)
 8001f3e:	f894 3024 	ldrb.w	r3, [r4, #36]	@ 0x24
 8001f42:	2b01      	cmp	r3, #1
 8001f44:	d012      	beq.n	8001f6c <HAL_PCD_EP_DB_Transmit+0x15a>
      }
    }
  }

  /*enable endpoint IN*/
  PCD_SET_EP_TX_STATUS(hpcd->Instance, ep->num, USB_EP_TX_VALID);
 8001f46:	682a      	ldr	r2, [r5, #0]
 8001f48:	7821      	ldrb	r1, [r4, #0]
 8001f4a:	f832 3021 	ldrh.w	r3, [r2, r1, lsl #2]
 8001f4e:	b29b      	uxth	r3, r3
 8001f50:	f423 43e0 	bic.w	r3, r3, #28672	@ 0x7000
 8001f54:	f023 0340 	bic.w	r3, r3, #64	@ 0x40
 8001f58:	f083 0330 	eor.w	r3, r3, #48	@ 0x30
 8001f5c:	f443 4300 	orr.w	r3, r3, #32768	@ 0x8000
 8001f60:	f043 0380 	orr.w	r3, r3, #128	@ 0x80
 8001f64:	f822 3021 	strh.w	r3, [r2, r1, lsl #2]

  return HAL_OK;
}
 8001f68:	2000      	movs	r0, #0
 8001f6a:	bd70      	pop	{r4, r5, r6, pc}
        ep->xfer_buff += TxPctSize;
 8001f6c:	6963      	ldr	r3, [r4, #20]
 8001f6e:	4413      	add	r3, r2
 8001f70:	6163      	str	r3, [r4, #20]
        ep->xfer_count += TxPctSize;
 8001f72:	69e3      	ldr	r3, [r4, #28]
 8001f74:	4413      	add	r3, r2
 8001f76:	61e3      	str	r3, [r4, #28]
        if (ep->xfer_len_db >= ep->maxpacket)
 8001f78:	6a21      	ldr	r1, [r4, #32]
 8001f7a:	6923      	ldr	r3, [r4, #16]
 8001f7c:	4299      	cmp	r1, r3
 8001f7e:	d324      	bcc.n	8001fca <HAL_PCD_EP_DB_Transmit+0x1b8>
          ep->xfer_len_db -= len;
 8001f80:	1ac9      	subs	r1, r1, r3
 8001f82:	6221      	str	r1, [r4, #32]
        PCD_SET_EP_DBUF0_CNT(hpcd->Instance, ep->num, ep->is_in, len);
 8001f84:	7862      	ldrb	r2, [r4, #1]
 8001f86:	2a00      	cmp	r2, #0
 8001f88:	d144      	bne.n	8002014 <HAL_PCD_EP_DB_Transmit+0x202>
 8001f8a:	682a      	ldr	r2, [r5, #0]
 8001f8c:	f8b2 1050 	ldrh.w	r1, [r2, #80]	@ 0x50
 8001f90:	b289      	uxth	r1, r1
 8001f92:	440a      	add	r2, r1
 8001f94:	7821      	ldrb	r1, [r4, #0]
 8001f96:	eb02 1201 	add.w	r2, r2, r1, lsl #4
 8001f9a:	f8b2 1404 	ldrh.w	r1, [r2, #1028]	@ 0x404
 8001f9e:	f3c1 0109 	ubfx	r1, r1, #0, #10
 8001fa2:	f8a2 1404 	strh.w	r1, [r2, #1028]	@ 0x404
 8001fa6:	2b3e      	cmp	r3, #62	@ 0x3e
 8001fa8:	d91b      	bls.n	8001fe2 <HAL_PCD_EP_DB_Transmit+0x1d0>
 8001faa:	0958      	lsrs	r0, r3, #5
 8001fac:	f013 0f1f 	tst.w	r3, #31
 8001fb0:	d100      	bne.n	8001fb4 <HAL_PCD_EP_DB_Transmit+0x1a2>
 8001fb2:	3801      	subs	r0, #1
 8001fb4:	f8b2 1404 	ldrh.w	r1, [r2, #1028]	@ 0x404
 8001fb8:	b289      	uxth	r1, r1
 8001fba:	0280      	lsls	r0, r0, #10
 8001fbc:	b280      	uxth	r0, r0
 8001fbe:	4301      	orrs	r1, r0
 8001fc0:	f441 4100 	orr.w	r1, r1, #32768	@ 0x8000
 8001fc4:	f8a2 1404 	strh.w	r1, [r2, #1028]	@ 0x404
 8001fc8:	e026      	b.n	8002018 <HAL_PCD_EP_DB_Transmit+0x206>
        else if (ep->xfer_len_db == 0U)
 8001fca:	b921      	cbnz	r1, 8001fd6 <HAL_PCD_EP_DB_Transmit+0x1c4>
          ep->xfer_fill_db = 0U;
 8001fcc:	2300      	movs	r3, #0
 8001fce:	f884 3024 	strb.w	r3, [r4, #36]	@ 0x24
          len = TxPctSize;
 8001fd2:	4613      	mov	r3, r2
 8001fd4:	e7d6      	b.n	8001f84 <HAL_PCD_EP_DB_Transmit+0x172>
          ep->xfer_fill_db = 0U;
 8001fd6:	2300      	movs	r3, #0
 8001fd8:	f884 3024 	strb.w	r3, [r4, #36]	@ 0x24
          ep->xfer_len_db = 0U;
 8001fdc:	6223      	str	r3, [r4, #32]
          len = ep->xfer_len_db;
 8001fde:	460b      	mov	r3, r1
 8001fe0:	e7d0      	b.n	8001f84 <HAL_PCD_EP_DB_Transmit+0x172>
        PCD_SET_EP_DBUF0_CNT(hpcd->Instance, ep->num, ep->is_in, len);
 8001fe2:	b94b      	cbnz	r3, 8001ff8 <HAL_PCD_EP_DB_Transmit+0x1e6>
 8001fe4:	f8b2 1404 	ldrh.w	r1, [r2, #1028]	@ 0x404
 8001fe8:	ea6f 4141 	mvn.w	r1, r1, lsl #17
 8001fec:	ea6f 4151 	mvn.w	r1, r1, lsr #17
 8001ff0:	b289      	uxth	r1, r1
 8001ff2:	f8a2 1404 	strh.w	r1, [r2, #1028]	@ 0x404
 8001ff6:	e00f      	b.n	8002018 <HAL_PCD_EP_DB_Transmit+0x206>
 8001ff8:	0859      	lsrs	r1, r3, #1
 8001ffa:	f013 0f01 	tst.w	r3, #1
 8001ffe:	d000      	beq.n	8002002 <HAL_PCD_EP_DB_Transmit+0x1f0>
 8002000:	3101      	adds	r1, #1
 8002002:	f8b2 0404 	ldrh.w	r0, [r2, #1028]	@ 0x404
 8002006:	b280      	uxth	r0, r0
 8002008:	0289      	lsls	r1, r1, #10
 800200a:	b289      	uxth	r1, r1
 800200c:	4301      	orrs	r1, r0
 800200e:	f8a2 1404 	strh.w	r1, [r2, #1028]	@ 0x404
 8002012:	e001      	b.n	8002018 <HAL_PCD_EP_DB_Transmit+0x206>
 8002014:	2a01      	cmp	r2, #1
 8002016:	d006      	beq.n	8002026 <HAL_PCD_EP_DB_Transmit+0x214>
        USB_WritePMA(hpcd->Instance, ep->xfer_buff,  ep->pmaaddr0, (uint16_t)len);
 8002018:	b29b      	uxth	r3, r3
 800201a:	8922      	ldrh	r2, [r4, #8]
 800201c:	6961      	ldr	r1, [r4, #20]
 800201e:	6828      	ldr	r0, [r5, #0]
 8002020:	f002 fb75 	bl	800470e <USB_WritePMA>
 8002024:	e78f      	b.n	8001f46 <HAL_PCD_EP_DB_Transmit+0x134>
        PCD_SET_EP_DBUF0_CNT(hpcd->Instance, ep->num, ep->is_in, len);
 8002026:	682a      	ldr	r2, [r5, #0]
 8002028:	f8b2 1050 	ldrh.w	r1, [r2, #80]	@ 0x50
 800202c:	b289      	uxth	r1, r1
 800202e:	440a      	add	r2, r1
 8002030:	7821      	ldrb	r1, [r4, #0]
 8002032:	eb02 1201 	add.w	r2, r2, r1, lsl #4
 8002036:	b299      	uxth	r1, r3
 8002038:	f8a2 1404 	strh.w	r1, [r2, #1028]	@ 0x404
 800203c:	e7ec      	b.n	8002018 <HAL_PCD_EP_DB_Transmit+0x206>
    TxPctSize = (uint16_t)PCD_GET_EP_DBUF1_CNT(hpcd->Instance, ep->num);
 800203e:	6802      	ldr	r2, [r0, #0]
 8002040:	f8b2 3050 	ldrh.w	r3, [r2, #80]	@ 0x50
 8002044:	b29b      	uxth	r3, r3
 8002046:	7809      	ldrb	r1, [r1, #0]
 8002048:	eb03 03c1 	add.w	r3, r3, r1, lsl #3
 800204c:	3306      	adds	r3, #6
 800204e:	eb02 0243 	add.w	r2, r2, r3, lsl #1
 8002052:	f8b2 2400 	ldrh.w	r2, [r2, #1024]	@ 0x400
 8002056:	f3c2 0209 	ubfx	r2, r2, #0, #10
    if (ep->xfer_len >= TxPctSize)
 800205a:	69a3      	ldr	r3, [r4, #24]
 800205c:	4293      	cmp	r3, r2
 800205e:	d34f      	bcc.n	8002100 <HAL_PCD_EP_DB_Transmit+0x2ee>
      ep->xfer_len -= TxPctSize;
 8002060:	1a9b      	subs	r3, r3, r2
 8002062:	61a3      	str	r3, [r4, #24]
    if (ep->xfer_len == 0U)
 8002064:	69a3      	ldr	r3, [r4, #24]
 8002066:	2b00      	cmp	r3, #0
 8002068:	d167      	bne.n	800213a <HAL_PCD_EP_DB_Transmit+0x328>
      PCD_SET_EP_DBUF0_CNT(hpcd->Instance, ep->num, ep->is_in, 0U);
 800206a:	7863      	ldrb	r3, [r4, #1]
 800206c:	2b00      	cmp	r3, #0
 800206e:	d14a      	bne.n	8002106 <HAL_PCD_EP_DB_Transmit+0x2f4>
 8002070:	682b      	ldr	r3, [r5, #0]
 8002072:	f8b3 2050 	ldrh.w	r2, [r3, #80]	@ 0x50
 8002076:	b292      	uxth	r2, r2
 8002078:	4413      	add	r3, r2
 800207a:	eb03 1301 	add.w	r3, r3, r1, lsl #4
 800207e:	f8b3 2404 	ldrh.w	r2, [r3, #1028]	@ 0x404
 8002082:	f3c2 0209 	ubfx	r2, r2, #0, #10
 8002086:	f8a3 2404 	strh.w	r2, [r3, #1028]	@ 0x404
 800208a:	f8b3 2404 	ldrh.w	r2, [r3, #1028]	@ 0x404
 800208e:	ea6f 4242 	mvn.w	r2, r2, lsl #17
 8002092:	ea6f 4252 	mvn.w	r2, r2, lsr #17
 8002096:	b292      	uxth	r2, r2
 8002098:	f8a3 2404 	strh.w	r2, [r3, #1028]	@ 0x404
      PCD_SET_EP_DBUF1_CNT(hpcd->Instance, ep->num, ep->is_in, 0U);
 800209c:	682b      	ldr	r3, [r5, #0]
 800209e:	7862      	ldrb	r2, [r4, #1]
 80020a0:	2a00      	cmp	r2, #0
 80020a2:	d13d      	bne.n	8002120 <HAL_PCD_EP_DB_Transmit+0x30e>
 80020a4:	f8b3 2050 	ldrh.w	r2, [r3, #80]	@ 0x50
 80020a8:	b292      	uxth	r2, r2
 80020aa:	4413      	add	r3, r2
 80020ac:	7822      	ldrb	r2, [r4, #0]
 80020ae:	eb03 1302 	add.w	r3, r3, r2, lsl #4
 80020b2:	f8b3 240c 	ldrh.w	r2, [r3, #1036]	@ 0x40c
 80020b6:	f3c2 0209 	ubfx	r2, r2, #0, #10
 80020ba:	f8a3 240c 	strh.w	r2, [r3, #1036]	@ 0x40c
 80020be:	f8b3 240c 	ldrh.w	r2, [r3, #1036]	@ 0x40c
 80020c2:	ea6f 4242 	mvn.w	r2, r2, lsl #17
 80020c6:	ea6f 4252 	mvn.w	r2, r2, lsr #17
 80020ca:	b292      	uxth	r2, r2
 80020cc:	f8a3 240c 	strh.w	r2, [r3, #1036]	@ 0x40c
      HAL_PCD_DataInStageCallback(hpcd, ep->num);
 80020d0:	7821      	ldrb	r1, [r4, #0]
 80020d2:	4628      	mov	r0, r5
 80020d4:	f004 fd8f 	bl	8006bf6 <HAL_PCD_DataInStageCallback>
      if ((wEPVal & USB_EP_DTOG_RX) == 0U)
 80020d8:	f416 4f80 	tst.w	r6, #16384	@ 0x4000
 80020dc:	f47f af33 	bne.w	8001f46 <HAL_PCD_EP_DB_Transmit+0x134>
        PCD_FREE_USER_BUFFER(hpcd->Instance, ep->num, 1U);
 80020e0:	682a      	ldr	r2, [r5, #0]
 80020e2:	7821      	ldrb	r1, [r4, #0]
 80020e4:	f832 3021 	ldrh.w	r3, [r2, r1, lsl #2]
 80020e8:	b29b      	uxth	r3, r3
 80020ea:	f423 43e0 	bic.w	r3, r3, #28672	@ 0x7000
 80020ee:	f023 0370 	bic.w	r3, r3, #112	@ 0x70
 80020f2:	f443 4340 	orr.w	r3, r3, #49152	@ 0xc000
 80020f6:	f043 0380 	orr.w	r3, r3, #128	@ 0x80
 80020fa:	f822 3021 	strh.w	r3, [r2, r1, lsl #2]
 80020fe:	e722      	b.n	8001f46 <HAL_PCD_EP_DB_Transmit+0x134>
      ep->xfer_len = 0U;
 8002100:	2300      	movs	r3, #0
 8002102:	61a3      	str	r3, [r4, #24]
 8002104:	e7ae      	b.n	8002064 <HAL_PCD_EP_DB_Transmit+0x252>
      PCD_SET_EP_DBUF0_CNT(hpcd->Instance, ep->num, ep->is_in, 0U);
 8002106:	2b01      	cmp	r3, #1
 8002108:	d1c8      	bne.n	800209c <HAL_PCD_EP_DB_Transmit+0x28a>
 800210a:	682b      	ldr	r3, [r5, #0]
 800210c:	f8b3 2050 	ldrh.w	r2, [r3, #80]	@ 0x50
 8002110:	b292      	uxth	r2, r2
 8002112:	4413      	add	r3, r2
 8002114:	eb03 1301 	add.w	r3, r3, r1, lsl #4
 8002118:	2200      	movs	r2, #0
 800211a:	f8a3 2404 	strh.w	r2, [r3, #1028]	@ 0x404
 800211e:	e7bd      	b.n	800209c <HAL_PCD_EP_DB_Transmit+0x28a>
      PCD_SET_EP_DBUF1_CNT(hpcd->Instance, ep->num, ep->is_in, 0U);
 8002120:	2a01      	cmp	r2, #1
 8002122:	d1d5      	bne.n	80020d0 <HAL_PCD_EP_DB_Transmit+0x2be>
 8002124:	f8b3 2050 	ldrh.w	r2, [r3, #80]	@ 0x50
 8002128:	b292      	uxth	r2, r2
 800212a:	4413      	add	r3, r2
 800212c:	7822      	ldrb	r2, [r4, #0]
 800212e:	eb03 1302 	add.w	r3, r3, r2, lsl #4
 8002132:	2200      	movs	r2, #0
 8002134:	f8a3 240c 	strh.w	r2, [r3, #1036]	@ 0x40c
 8002138:	e7ca      	b.n	80020d0 <HAL_PCD_EP_DB_Transmit+0x2be>
      if ((wEPVal & USB_EP_DTOG_RX) == 0U)
 800213a:	f416 4f80 	tst.w	r6, #16384	@ 0x4000
 800213e:	d10d      	bne.n	800215c <HAL_PCD_EP_DB_Transmit+0x34a>
        PCD_FREE_USER_BUFFER(hpcd->Instance, ep->num, 1U);
 8002140:	6828      	ldr	r0, [r5, #0]
 8002142:	f830 3021 	ldrh.w	r3, [r0, r1, lsl #2]
 8002146:	b29b      	uxth	r3, r3
 8002148:	f423 43e0 	bic.w	r3, r3, #28672	@ 0x7000
 800214c:	f023 0370 	bic.w	r3, r3, #112	@ 0x70
 8002150:	f443 4340 	orr.w	r3, r3, #49152	@ 0xc000
 8002154:	f043 0380 	orr.w	r3, r3, #128	@ 0x80
 8002158:	f820 3021 	strh.w	r3, [r0, r1, lsl #2]
      if (ep->xfer_fill_db == 1U)
 800215c:	f894 3024 	ldrb.w	r3, [r4, #36]	@ 0x24
 8002160:	2b01      	cmp	r3, #1
 8002162:	f47f aef0 	bne.w	8001f46 <HAL_PCD_EP_DB_Transmit+0x134>
        ep->xfer_buff += TxPctSize;
 8002166:	6963      	ldr	r3, [r4, #20]
 8002168:	4413      	add	r3, r2
 800216a:	6163      	str	r3, [r4, #20]
        ep->xfer_count += TxPctSize;
 800216c:	69e3      	ldr	r3, [r4, #28]
 800216e:	4413      	add	r3, r2
 8002170:	61e3      	str	r3, [r4, #28]
        if (ep->xfer_len_db >= ep->maxpacket)
 8002172:	6a21      	ldr	r1, [r4, #32]
 8002174:	6923      	ldr	r3, [r4, #16]
 8002176:	4299      	cmp	r1, r3
 8002178:	d324      	bcc.n	80021c4 <HAL_PCD_EP_DB_Transmit+0x3b2>
          ep->xfer_len_db -= len;
 800217a:	1ac9      	subs	r1, r1, r3
 800217c:	6221      	str	r1, [r4, #32]
        PCD_SET_EP_DBUF1_CNT(hpcd->Instance, ep->num, ep->is_in, len);
 800217e:	682a      	ldr	r2, [r5, #0]
 8002180:	7861      	ldrb	r1, [r4, #1]
 8002182:	2900      	cmp	r1, #0
 8002184:	d143      	bne.n	800220e <HAL_PCD_EP_DB_Transmit+0x3fc>
 8002186:	f8b2 1050 	ldrh.w	r1, [r2, #80]	@ 0x50
 800218a:	b289      	uxth	r1, r1
 800218c:	440a      	add	r2, r1
 800218e:	7821      	ldrb	r1, [r4, #0]
 8002190:	eb02 1201 	add.w	r2, r2, r1, lsl #4
 8002194:	f8b2 140c 	ldrh.w	r1, [r2, #1036]	@ 0x40c
 8002198:	f3c1 0109 	ubfx	r1, r1, #0, #10
 800219c:	f8a2 140c 	strh.w	r1, [r2, #1036]	@ 0x40c
 80021a0:	2b3e      	cmp	r3, #62	@ 0x3e
 80021a2:	d91b      	bls.n	80021dc <HAL_PCD_EP_DB_Transmit+0x3ca>
 80021a4:	0958      	lsrs	r0, r3, #5
 80021a6:	f013 0f1f 	tst.w	r3, #31
 80021aa:	d100      	bne.n	80021ae <HAL_PCD_EP_DB_Transmit+0x39c>
 80021ac:	3801      	subs	r0, #1
 80021ae:	f8b2 140c 	ldrh.w	r1, [r2, #1036]	@ 0x40c
 80021b2:	b289      	uxth	r1, r1
 80021b4:	0280      	lsls	r0, r0, #10
 80021b6:	b280      	uxth	r0, r0
 80021b8:	4301      	orrs	r1, r0
 80021ba:	f441 4100 	orr.w	r1, r1, #32768	@ 0x8000
 80021be:	f8a2 140c 	strh.w	r1, [r2, #1036]	@ 0x40c
 80021c2:	e026      	b.n	8002212 <HAL_PCD_EP_DB_Transmit+0x400>
        else if (ep->xfer_len_db == 0U)
 80021c4:	b921      	cbnz	r1, 80021d0 <HAL_PCD_EP_DB_Transmit+0x3be>
          ep->xfer_fill_db = 0U;
 80021c6:	2300      	movs	r3, #0
 80021c8:	f884 3024 	strb.w	r3, [r4, #36]	@ 0x24
          len = TxPctSize;
 80021cc:	4613      	mov	r3, r2
 80021ce:	e7d6      	b.n	800217e <HAL_PCD_EP_DB_Transmit+0x36c>
          ep->xfer_len_db = 0U;
 80021d0:	2300      	movs	r3, #0
 80021d2:	6223      	str	r3, [r4, #32]
          ep->xfer_fill_db = 0;
 80021d4:	f884 3024 	strb.w	r3, [r4, #36]	@ 0x24
          len = ep->xfer_len_db;
 80021d8:	460b      	mov	r3, r1
 80021da:	e7d0      	b.n	800217e <HAL_PCD_EP_DB_Transmit+0x36c>
        PCD_SET_EP_DBUF1_CNT(hpcd->Instance, ep->num, ep->is_in, len);
 80021dc:	b94b      	cbnz	r3, 80021f2 <HAL_PCD_EP_DB_Transmit+0x3e0>
 80021de:	f8b2 140c 	ldrh.w	r1, [r2, #1036]	@ 0x40c
 80021e2:	ea6f 4141 	mvn.w	r1, r1, lsl #17
 80021e6:	ea6f 4151 	mvn.w	r1, r1, lsr #17
 80021ea:	b289      	uxth	r1, r1
 80021ec:	f8a2 140c 	strh.w	r1, [r2, #1036]	@ 0x40c
 80021f0:	e00f      	b.n	8002212 <HAL_PCD_EP_DB_Transmit+0x400>
 80021f2:	0859      	lsrs	r1, r3, #1
 80021f4:	f013 0f01 	tst.w	r3, #1
 80021f8:	d000      	beq.n	80021fc <HAL_PCD_EP_DB_Transmit+0x3ea>
 80021fa:	3101      	adds	r1, #1
 80021fc:	f8b2 040c 	ldrh.w	r0, [r2, #1036]	@ 0x40c
 8002200:	b280      	uxth	r0, r0
 8002202:	0289      	lsls	r1, r1, #10
 8002204:	b289      	uxth	r1, r1
 8002206:	4301      	orrs	r1, r0
 8002208:	f8a2 140c 	strh.w	r1, [r2, #1036]	@ 0x40c
 800220c:	e001      	b.n	8002212 <HAL_PCD_EP_DB_Transmit+0x400>
 800220e:	2901      	cmp	r1, #1
 8002210:	d006      	beq.n	8002220 <HAL_PCD_EP_DB_Transmit+0x40e>
        USB_WritePMA(hpcd->Instance, ep->xfer_buff,  ep->pmaaddr1, (uint16_t)len);
 8002212:	b29b      	uxth	r3, r3
 8002214:	8962      	ldrh	r2, [r4, #10]
 8002216:	6961      	ldr	r1, [r4, #20]
 8002218:	6828      	ldr	r0, [r5, #0]
 800221a:	f002 fa78 	bl	800470e <USB_WritePMA>
 800221e:	e692      	b.n	8001f46 <HAL_PCD_EP_DB_Transmit+0x134>
        PCD_SET_EP_DBUF1_CNT(hpcd->Instance, ep->num, ep->is_in, len);
 8002220:	f8b2 1050 	ldrh.w	r1, [r2, #80]	@ 0x50
 8002224:	b289      	uxth	r1, r1
 8002226:	440a      	add	r2, r1
 8002228:	7821      	ldrb	r1, [r4, #0]
 800222a:	eb02 1201 	add.w	r2, r2, r1, lsl #4
 800222e:	b299      	uxth	r1, r3
 8002230:	f8a2 140c 	strh.w	r1, [r2, #1036]	@ 0x40c
 8002234:	e7ed      	b.n	8002212 <HAL_PCD_EP_DB_Transmit+0x400>

08002236 <PCD_EP_ISR_Handler>:
{
 8002236:	e92d 41f0 	stmdb	sp!, {r4, r5, r6, r7, r8, lr}
 800223a:	4605      	mov	r5, r0
  while ((hpcd->Instance->ISTR & USB_ISTR_CTR) != 0U)
 800223c:	6828      	ldr	r0, [r5, #0]
 800223e:	f8b0 3044 	ldrh.w	r3, [r0, #68]	@ 0x44
 8002242:	f413 4f00 	tst.w	r3, #32768	@ 0x8000
 8002246:	f000 829d 	beq.w	8002784 <PCD_EP_ISR_Handler+0x54e>
    wIstr = hpcd->Instance->ISTR;
 800224a:	f8b0 4044 	ldrh.w	r4, [r0, #68]	@ 0x44
 800224e:	b2a3      	uxth	r3, r4
    if (epindex == 0U)
 8002250:	f014 040f 	ands.w	r4, r4, #15
 8002254:	f040 80de 	bne.w	8002414 <PCD_EP_ISR_Handler+0x1de>
      if ((wIstr & USB_ISTR_DIR) == 0U)
 8002258:	f013 0f10 	tst.w	r3, #16
 800225c:	d06b      	beq.n	8002336 <PCD_EP_ISR_Handler+0x100>
        wEPVal = PCD_GET_ENDPOINT(hpcd->Instance, PCD_ENDP0);
 800225e:	8803      	ldrh	r3, [r0, #0]
 8002260:	b29a      	uxth	r2, r3
        if ((wEPVal & USB_EP_SETUP) != 0U)
 8002262:	f413 6f00 	tst.w	r3, #2048	@ 0x800
 8002266:	f040 8099 	bne.w	800239c <PCD_EP_ISR_Handler+0x166>
        else if ((wEPVal & USB_EP_CTR_RX) != 0U)
 800226a:	f412 4f00 	tst.w	r2, #32768	@ 0x8000
 800226e:	d0e5      	beq.n	800223c <PCD_EP_ISR_Handler+0x6>
          PCD_CLEAR_RX_EP_CTR(hpcd->Instance, PCD_ENDP0);
 8002270:	8803      	ldrh	r3, [r0, #0]
 8002272:	f023 0370 	bic.w	r3, r3, #112	@ 0x70
 8002276:	051b      	lsls	r3, r3, #20
 8002278:	0d1b      	lsrs	r3, r3, #20
 800227a:	f043 0380 	orr.w	r3, r3, #128	@ 0x80
 800227e:	8003      	strh	r3, [r0, #0]
          ep->xfer_count = PCD_GET_EP_RX_CNT(hpcd->Instance, ep->num);
 8002280:	6828      	ldr	r0, [r5, #0]
 8002282:	f8b0 3050 	ldrh.w	r3, [r0, #80]	@ 0x50
 8002286:	b29b      	uxth	r3, r3
 8002288:	f895 2150 	ldrb.w	r2, [r5, #336]	@ 0x150
 800228c:	eb03 03c2 	add.w	r3, r3, r2, lsl #3
 8002290:	3306      	adds	r3, #6
 8002292:	eb00 0343 	add.w	r3, r0, r3, lsl #1
 8002296:	f8b3 3400 	ldrh.w	r3, [r3, #1024]	@ 0x400
 800229a:	f3c3 0309 	ubfx	r3, r3, #0, #10
 800229e:	f8c5 316c 	str.w	r3, [r5, #364]	@ 0x16c
          if ((ep->xfer_count != 0U) && (ep->xfer_buff != 0U))
 80022a2:	b18b      	cbz	r3, 80022c8 <PCD_EP_ISR_Handler+0x92>
 80022a4:	f8d5 1164 	ldr.w	r1, [r5, #356]	@ 0x164
 80022a8:	b171      	cbz	r1, 80022c8 <PCD_EP_ISR_Handler+0x92>
            USB_ReadPMA(hpcd->Instance, ep->xfer_buff,
 80022aa:	f8b5 2156 	ldrh.w	r2, [r5, #342]	@ 0x156
 80022ae:	f002 fe28 	bl	8004f02 <USB_ReadPMA>
            ep->xfer_buff += ep->xfer_count;
 80022b2:	f8d5 3164 	ldr.w	r3, [r5, #356]	@ 0x164
 80022b6:	f8d5 216c 	ldr.w	r2, [r5, #364]	@ 0x16c
 80022ba:	4413      	add	r3, r2
 80022bc:	f8c5 3164 	str.w	r3, [r5, #356]	@ 0x164
            HAL_PCD_DataOutStageCallback(hpcd, 0U);
 80022c0:	2100      	movs	r1, #0
 80022c2:	4628      	mov	r0, r5
 80022c4:	f004 fc8b 	bl	8006bde <HAL_PCD_DataOutStageCallback>
          wEPVal = (uint16_t)PCD_GET_ENDPOINT(hpcd->Instance, PCD_ENDP0);
 80022c8:	682a      	ldr	r2, [r5, #0]
 80022ca:	8813      	ldrh	r3, [r2, #0]
 80022cc:	b299      	uxth	r1, r3
          if (((wEPVal & USB_EP_SETUP) == 0U) && ((wEPVal & USB_EP_RX_STRX) != USB_EP_RX_VALID))
 80022ce:	f413 6f00 	tst.w	r3, #2048	@ 0x800
 80022d2:	d1b3      	bne.n	800223c <PCD_EP_ISR_Handler+0x6>
 80022d4:	f401 5140 	and.w	r1, r1, #12288	@ 0x3000
 80022d8:	f5b1 5f40 	cmp.w	r1, #12288	@ 0x3000
 80022dc:	d0ae      	beq.n	800223c <PCD_EP_ISR_Handler+0x6>
            PCD_SET_EP_RX_CNT(hpcd->Instance, PCD_ENDP0, ep->maxpacket);
 80022de:	f8b2 3050 	ldrh.w	r3, [r2, #80]	@ 0x50
 80022e2:	b29b      	uxth	r3, r3
 80022e4:	441a      	add	r2, r3
 80022e6:	f8b2 340c 	ldrh.w	r3, [r2, #1036]	@ 0x40c
 80022ea:	f3c3 0309 	ubfx	r3, r3, #0, #10
 80022ee:	f8a2 340c 	strh.w	r3, [r2, #1036]	@ 0x40c
 80022f2:	f8d5 3160 	ldr.w	r3, [r5, #352]	@ 0x160
 80022f6:	2b3e      	cmp	r3, #62	@ 0x3e
 80022f8:	d973      	bls.n	80023e2 <PCD_EP_ISR_Handler+0x1ac>
 80022fa:	0959      	lsrs	r1, r3, #5
 80022fc:	f013 0f1f 	tst.w	r3, #31
 8002300:	d100      	bne.n	8002304 <PCD_EP_ISR_Handler+0xce>
 8002302:	3901      	subs	r1, #1
 8002304:	f8b2 340c 	ldrh.w	r3, [r2, #1036]	@ 0x40c
 8002308:	b29b      	uxth	r3, r3
 800230a:	0289      	lsls	r1, r1, #10
 800230c:	b289      	uxth	r1, r1
 800230e:	430b      	orrs	r3, r1
 8002310:	f443 4300 	orr.w	r3, r3, #32768	@ 0x8000
 8002314:	f8a2 340c 	strh.w	r3, [r2, #1036]	@ 0x40c
            PCD_SET_EP_RX_STATUS(hpcd->Instance, PCD_ENDP0, USB_EP_RX_VALID);
 8002318:	682a      	ldr	r2, [r5, #0]
 800231a:	8813      	ldrh	r3, [r2, #0]
 800231c:	b29b      	uxth	r3, r3
 800231e:	f423 4380 	bic.w	r3, r3, #16384	@ 0x4000
 8002322:	f023 0370 	bic.w	r3, r3, #112	@ 0x70
 8002326:	f483 5340 	eor.w	r3, r3, #12288	@ 0x3000
 800232a:	f443 4300 	orr.w	r3, r3, #32768	@ 0x8000
 800232e:	f043 0380 	orr.w	r3, r3, #128	@ 0x80
 8002332:	8013      	strh	r3, [r2, #0]
 8002334:	e782      	b.n	800223c <PCD_EP_ISR_Handler+0x6>
        PCD_CLEAR_TX_EP_CTR(hpcd->Instance, PCD_ENDP0);
 8002336:	8803      	ldrh	r3, [r0, #0]
 8002338:	b29b      	uxth	r3, r3
 800233a:	f423 43e1 	bic.w	r3, r3, #28800	@ 0x7080
 800233e:	f023 0370 	bic.w	r3, r3, #112	@ 0x70
 8002342:	ea6f 4343 	mvn.w	r3, r3, lsl #17
 8002346:	ea6f 4353 	mvn.w	r3, r3, lsr #17
 800234a:	b29b      	uxth	r3, r3
 800234c:	8003      	strh	r3, [r0, #0]
        ep->xfer_count = PCD_GET_EP_TX_CNT(hpcd->Instance, ep->num);
 800234e:	682a      	ldr	r2, [r5, #0]
 8002350:	f8b2 3050 	ldrh.w	r3, [r2, #80]	@ 0x50
 8002354:	b29b      	uxth	r3, r3
 8002356:	7c29      	ldrb	r1, [r5, #16]
 8002358:	eb03 03c1 	add.w	r3, r3, r1, lsl #3
 800235c:	3302      	adds	r3, #2
 800235e:	eb02 0243 	add.w	r2, r2, r3, lsl #1
 8002362:	f8b2 3400 	ldrh.w	r3, [r2, #1024]	@ 0x400
 8002366:	f3c3 0309 	ubfx	r3, r3, #0, #10
 800236a:	62eb      	str	r3, [r5, #44]	@ 0x2c
        ep->xfer_buff += ep->xfer_count;
 800236c:	6a6a      	ldr	r2, [r5, #36]	@ 0x24
 800236e:	441a      	add	r2, r3
 8002370:	626a      	str	r2, [r5, #36]	@ 0x24
        HAL_PCD_DataInStageCallback(hpcd, 0U);
 8002372:	2100      	movs	r1, #0
 8002374:	4628      	mov	r0, r5
 8002376:	f004 fc3e 	bl	8006bf6 <HAL_PCD_DataInStageCallback>
        if ((hpcd->USB_Address > 0U) && (ep->xfer_len == 0U))
 800237a:	7b6b      	ldrb	r3, [r5, #13]
 800237c:	2b00      	cmp	r3, #0
 800237e:	f43f af5d 	beq.w	800223c <PCD_EP_ISR_Handler+0x6>
 8002382:	6aab      	ldr	r3, [r5, #40]	@ 0x28
 8002384:	2b00      	cmp	r3, #0
 8002386:	f47f af59 	bne.w	800223c <PCD_EP_ISR_Handler+0x6>
          hpcd->Instance->DADDR = ((uint16_t)hpcd->USB_Address | USB_DADDR_EF);
 800238a:	7b6b      	ldrb	r3, [r5, #13]
 800238c:	682a      	ldr	r2, [r5, #0]
 800238e:	f043 0380 	orr.w	r3, r3, #128	@ 0x80
 8002392:	f8a2 304c 	strh.w	r3, [r2, #76]	@ 0x4c
          hpcd->USB_Address = 0U;
 8002396:	2300      	movs	r3, #0
 8002398:	736b      	strb	r3, [r5, #13]
 800239a:	e74f      	b.n	800223c <PCD_EP_ISR_Handler+0x6>
          ep->xfer_count = PCD_GET_EP_RX_CNT(hpcd->Instance, ep->num);
 800239c:	f8b0 3050 	ldrh.w	r3, [r0, #80]	@ 0x50
 80023a0:	b29b      	uxth	r3, r3
 80023a2:	f895 2150 	ldrb.w	r2, [r5, #336]	@ 0x150
 80023a6:	eb03 03c2 	add.w	r3, r3, r2, lsl #3
 80023aa:	3306      	adds	r3, #6
 80023ac:	eb00 0343 	add.w	r3, r0, r3, lsl #1
 80023b0:	f8b3 3400 	ldrh.w	r3, [r3, #1024]	@ 0x400
 80023b4:	f3c3 0309 	ubfx	r3, r3, #0, #10
 80023b8:	f8c5 316c 	str.w	r3, [r5, #364]	@ 0x16c
          USB_ReadPMA(hpcd->Instance, (uint8_t *)hpcd->Setup,
 80023bc:	f8b5 2156 	ldrh.w	r2, [r5, #342]	@ 0x156
 80023c0:	f505 7126 	add.w	r1, r5, #664	@ 0x298
 80023c4:	f002 fd9d 	bl	8004f02 <USB_ReadPMA>
          PCD_CLEAR_RX_EP_CTR(hpcd->Instance, PCD_ENDP0);
 80023c8:	682a      	ldr	r2, [r5, #0]
 80023ca:	8813      	ldrh	r3, [r2, #0]
 80023cc:	f023 0370 	bic.w	r3, r3, #112	@ 0x70
 80023d0:	051b      	lsls	r3, r3, #20
 80023d2:	0d1b      	lsrs	r3, r3, #20
 80023d4:	f043 0380 	orr.w	r3, r3, #128	@ 0x80
 80023d8:	8013      	strh	r3, [r2, #0]
          HAL_PCD_SetupStageCallback(hpcd);
 80023da:	4628      	mov	r0, r5
 80023dc:	f004 fbf7 	bl	8006bce <HAL_PCD_SetupStageCallback>
 80023e0:	e72c      	b.n	800223c <PCD_EP_ISR_Handler+0x6>
            PCD_SET_EP_RX_CNT(hpcd->Instance, PCD_ENDP0, ep->maxpacket);
 80023e2:	b94b      	cbnz	r3, 80023f8 <PCD_EP_ISR_Handler+0x1c2>
 80023e4:	f8b2 340c 	ldrh.w	r3, [r2, #1036]	@ 0x40c
 80023e8:	ea6f 4343 	mvn.w	r3, r3, lsl #17
 80023ec:	ea6f 4353 	mvn.w	r3, r3, lsr #17
 80023f0:	b29b      	uxth	r3, r3
 80023f2:	f8a2 340c 	strh.w	r3, [r2, #1036]	@ 0x40c
 80023f6:	e78f      	b.n	8002318 <PCD_EP_ISR_Handler+0xe2>
 80023f8:	0859      	lsrs	r1, r3, #1
 80023fa:	f013 0f01 	tst.w	r3, #1
 80023fe:	d000      	beq.n	8002402 <PCD_EP_ISR_Handler+0x1cc>
 8002400:	3101      	adds	r1, #1
 8002402:	f8b2 340c 	ldrh.w	r3, [r2, #1036]	@ 0x40c
 8002406:	b298      	uxth	r0, r3
 8002408:	028b      	lsls	r3, r1, #10
 800240a:	b29b      	uxth	r3, r3
 800240c:	4303      	orrs	r3, r0
 800240e:	f8a2 340c 	strh.w	r3, [r2, #1036]	@ 0x40c
 8002412:	e781      	b.n	8002318 <PCD_EP_ISR_Handler+0xe2>
      wEPVal = PCD_GET_ENDPOINT(hpcd->Instance, epindex);
 8002414:	f830 3024 	ldrh.w	r3, [r0, r4, lsl #2]
 8002418:	b29e      	uxth	r6, r3
      if ((wEPVal & USB_EP_CTR_RX) != 0U)
 800241a:	f413 4f00 	tst.w	r3, #32768	@ 0x8000
 800241e:	d150      	bne.n	80024c2 <PCD_EP_ISR_Handler+0x28c>
      if ((wEPVal & USB_EP_CTR_TX) != 0U)
 8002420:	f016 0f80 	tst.w	r6, #128	@ 0x80
 8002424:	f43f af0a 	beq.w	800223c <PCD_EP_ISR_Handler+0x6>
        ep = &hpcd->IN_ep[epindex];
 8002428:	eb04 0184 	add.w	r1, r4, r4, lsl #2
 800242c:	00c9      	lsls	r1, r1, #3
 800242e:	3110      	adds	r1, #16
 8002430:	4429      	add	r1, r5
        PCD_CLEAR_TX_EP_CTR(hpcd->Instance, epindex);
 8002432:	682a      	ldr	r2, [r5, #0]
 8002434:	f832 3024 	ldrh.w	r3, [r2, r4, lsl #2]
 8002438:	b29b      	uxth	r3, r3
 800243a:	f423 43e1 	bic.w	r3, r3, #28800	@ 0x7080
 800243e:	f023 0370 	bic.w	r3, r3, #112	@ 0x70
 8002442:	ea6f 4343 	mvn.w	r3, r3, lsl #17
 8002446:	ea6f 4353 	mvn.w	r3, r3, lsr #17
 800244a:	b29b      	uxth	r3, r3
 800244c:	f822 3024 	strh.w	r3, [r2, r4, lsl #2]
        if (ep->type == EP_TYPE_ISOC)
 8002450:	eb04 0384 	add.w	r3, r4, r4, lsl #2
 8002454:	eb05 03c3 	add.w	r3, r5, r3, lsl #3
 8002458:	7cdb      	ldrb	r3, [r3, #19]
 800245a:	2b01      	cmp	r3, #1
 800245c:	f000 80f2 	beq.w	8002644 <PCD_EP_ISR_Handler+0x40e>
          if ((wEPVal & USB_EP_KIND) == 0U)
 8002460:	f416 7f80 	tst.w	r6, #256	@ 0x100
 8002464:	f040 8189 	bne.w	800277a <PCD_EP_ISR_Handler+0x544>
            TxPctSize = (uint16_t)PCD_GET_EP_TX_CNT(hpcd->Instance, ep->num);
 8002468:	6828      	ldr	r0, [r5, #0]
 800246a:	f8b0 3050 	ldrh.w	r3, [r0, #80]	@ 0x50
 800246e:	b29b      	uxth	r3, r3
 8002470:	eb04 0284 	add.w	r2, r4, r4, lsl #2
 8002474:	eb05 02c2 	add.w	r2, r5, r2, lsl #3
 8002478:	7c16      	ldrb	r6, [r2, #16]
 800247a:	eb03 03c6 	add.w	r3, r3, r6, lsl #3
 800247e:	3302      	adds	r3, #2
 8002480:	eb00 0343 	add.w	r3, r0, r3, lsl #1
 8002484:	f8b3 3400 	ldrh.w	r3, [r3, #1024]	@ 0x400
 8002488:	f3c3 0309 	ubfx	r3, r3, #0, #10
            if (ep->xfer_len > TxPctSize)
 800248c:	1c62      	adds	r2, r4, #1
 800248e:	eb02 0282 	add.w	r2, r2, r2, lsl #2
 8002492:	f855 2032 	ldr.w	r2, [r5, r2, lsl #3]
 8002496:	429a      	cmp	r2, r3
 8002498:	f240 8152 	bls.w	8002740 <PCD_EP_ISR_Handler+0x50a>
              ep->xfer_len -= TxPctSize;
 800249c:	1c67      	adds	r7, r4, #1
 800249e:	eb07 0787 	add.w	r7, r7, r7, lsl #2
 80024a2:	1ad2      	subs	r2, r2, r3
 80024a4:	f845 2037 	str.w	r2, [r5, r7, lsl #3]
            if (ep->xfer_len == 0U)
 80024a8:	1c62      	adds	r2, r4, #1
 80024aa:	eb02 0282 	add.w	r2, r2, r2, lsl #2
 80024ae:	f855 2032 	ldr.w	r2, [r5, r2, lsl #3]
 80024b2:	2a00      	cmp	r2, #0
 80024b4:	f040 814b 	bne.w	800274e <PCD_EP_ISR_Handler+0x518>
              HAL_PCD_DataInStageCallback(hpcd, ep->num);
 80024b8:	4631      	mov	r1, r6
 80024ba:	4628      	mov	r0, r5
 80024bc:	f004 fb9b 	bl	8006bf6 <HAL_PCD_DataInStageCallback>
 80024c0:	e6bc      	b.n	800223c <PCD_EP_ISR_Handler+0x6>
        PCD_CLEAR_RX_EP_CTR(hpcd->Instance, epindex);
 80024c2:	f830 3024 	ldrh.w	r3, [r0, r4, lsl #2]
 80024c6:	f023 0370 	bic.w	r3, r3, #112	@ 0x70
 80024ca:	051b      	lsls	r3, r3, #20
 80024cc:	0d1b      	lsrs	r3, r3, #20
 80024ce:	f043 0380 	orr.w	r3, r3, #128	@ 0x80
 80024d2:	f820 3024 	strh.w	r3, [r0, r4, lsl #2]
        ep = &hpcd->OUT_ep[epindex];
 80024d6:	eb04 0184 	add.w	r1, r4, r4, lsl #2
 80024da:	00c9      	lsls	r1, r1, #3
 80024dc:	f501 71a8 	add.w	r1, r1, #336	@ 0x150
 80024e0:	eb05 0801 	add.w	r8, r5, r1
        if (ep->doublebuffer == 0U)
 80024e4:	eb04 0384 	add.w	r3, r4, r4, lsl #2
 80024e8:	eb05 03c3 	add.w	r3, r5, r3, lsl #3
 80024ec:	f893 315c 	ldrb.w	r3, [r3, #348]	@ 0x15c
 80024f0:	2b00      	cmp	r3, #0
 80024f2:	d142      	bne.n	800257a <PCD_EP_ISR_Handler+0x344>
          count = (uint16_t)PCD_GET_EP_RX_CNT(hpcd->Instance, ep->num);
 80024f4:	6828      	ldr	r0, [r5, #0]
 80024f6:	f8b0 3050 	ldrh.w	r3, [r0, #80]	@ 0x50
 80024fa:	b29b      	uxth	r3, r3
 80024fc:	eb04 0284 	add.w	r2, r4, r4, lsl #2
 8002500:	eb05 02c2 	add.w	r2, r5, r2, lsl #3
 8002504:	f892 2150 	ldrb.w	r2, [r2, #336]	@ 0x150
 8002508:	eb03 03c2 	add.w	r3, r3, r2, lsl #3
 800250c:	3306      	adds	r3, #6
 800250e:	eb00 0343 	add.w	r3, r0, r3, lsl #1
 8002512:	f8b3 7400 	ldrh.w	r7, [r3, #1024]	@ 0x400
 8002516:	f3c7 0709 	ubfx	r7, r7, #0, #10
          if (count != 0U)
 800251a:	bb17      	cbnz	r7, 8002562 <PCD_EP_ISR_Handler+0x32c>
        ep->xfer_count += count;
 800251c:	eb04 0384 	add.w	r3, r4, r4, lsl #2
 8002520:	eb05 03c3 	add.w	r3, r5, r3, lsl #3
 8002524:	f8d3 216c 	ldr.w	r2, [r3, #364]	@ 0x16c
 8002528:	443a      	add	r2, r7
 800252a:	f8c3 216c 	str.w	r2, [r3, #364]	@ 0x16c
        ep->xfer_buff += count;
 800252e:	f8d3 2164 	ldr.w	r2, [r3, #356]	@ 0x164
 8002532:	443a      	add	r2, r7
 8002534:	f8c3 2164 	str.w	r2, [r3, #356]	@ 0x164
        if ((ep->xfer_len == 0U) || (count < ep->maxpacket))
 8002538:	f8d3 3168 	ldr.w	r3, [r3, #360]	@ 0x168
 800253c:	b13b      	cbz	r3, 800254e <PCD_EP_ISR_Handler+0x318>
 800253e:	eb04 0384 	add.w	r3, r4, r4, lsl #2
 8002542:	eb05 03c3 	add.w	r3, r5, r3, lsl #3
 8002546:	f8d3 3160 	ldr.w	r3, [r3, #352]	@ 0x160
 800254a:	429f      	cmp	r7, r3
 800254c:	d275      	bcs.n	800263a <PCD_EP_ISR_Handler+0x404>
          HAL_PCD_DataOutStageCallback(hpcd, ep->num);
 800254e:	eb04 0384 	add.w	r3, r4, r4, lsl #2
 8002552:	eb05 03c3 	add.w	r3, r5, r3, lsl #3
 8002556:	f893 1150 	ldrb.w	r1, [r3, #336]	@ 0x150
 800255a:	4628      	mov	r0, r5
 800255c:	f004 fb3f 	bl	8006bde <HAL_PCD_DataOutStageCallback>
 8002560:	e75e      	b.n	8002420 <PCD_EP_ISR_Handler+0x1ea>
            USB_ReadPMA(hpcd->Instance, ep->xfer_buff, ep->pmaadress, count);
 8002562:	eb04 0184 	add.w	r1, r4, r4, lsl #2
 8002566:	eb05 01c1 	add.w	r1, r5, r1, lsl #3
 800256a:	463b      	mov	r3, r7
 800256c:	f8b1 2156 	ldrh.w	r2, [r1, #342]	@ 0x156
 8002570:	f8d1 1164 	ldr.w	r1, [r1, #356]	@ 0x164
 8002574:	f002 fcc5 	bl	8004f02 <USB_ReadPMA>
 8002578:	e7d0      	b.n	800251c <PCD_EP_ISR_Handler+0x2e6>
          if (ep->type == EP_TYPE_BULK)
 800257a:	eb04 0384 	add.w	r3, r4, r4, lsl #2
 800257e:	eb05 03c3 	add.w	r3, r5, r3, lsl #3
 8002582:	f893 3153 	ldrb.w	r3, [r3, #339]	@ 0x153
 8002586:	2b02      	cmp	r3, #2
 8002588:	d035      	beq.n	80025f6 <PCD_EP_ISR_Handler+0x3c0>
            PCD_FREE_USER_BUFFER(hpcd->Instance, ep->num, 0U);
 800258a:	6829      	ldr	r1, [r5, #0]
 800258c:	eb04 0284 	add.w	r2, r4, r4, lsl #2
 8002590:	eb05 02c2 	add.w	r2, r5, r2, lsl #3
 8002594:	f892 0150 	ldrb.w	r0, [r2, #336]	@ 0x150
 8002598:	f831 3020 	ldrh.w	r3, [r1, r0, lsl #2]
 800259c:	b29b      	uxth	r3, r3
 800259e:	f423 43e0 	bic.w	r3, r3, #28672	@ 0x7000
 80025a2:	f023 0370 	bic.w	r3, r3, #112	@ 0x70
 80025a6:	f443 4300 	orr.w	r3, r3, #32768	@ 0x8000
 80025aa:	f043 03c0 	orr.w	r3, r3, #192	@ 0xc0
 80025ae:	f821 3020 	strh.w	r3, [r1, r0, lsl #2]
            if ((PCD_GET_ENDPOINT(hpcd->Instance, ep->num) & USB_EP_DTOG_RX) != 0U)
 80025b2:	6828      	ldr	r0, [r5, #0]
 80025b4:	f892 2150 	ldrb.w	r2, [r2, #336]	@ 0x150
 80025b8:	f830 3022 	ldrh.w	r3, [r0, r2, lsl #2]
 80025bc:	f413 4f80 	tst.w	r3, #16384	@ 0x4000
 80025c0:	d020      	beq.n	8002604 <PCD_EP_ISR_Handler+0x3ce>
              count = (uint16_t)PCD_GET_EP_DBUF0_CNT(hpcd->Instance, ep->num);
 80025c2:	f8b0 3050 	ldrh.w	r3, [r0, #80]	@ 0x50
 80025c6:	b29b      	uxth	r3, r3
 80025c8:	eb03 03c2 	add.w	r3, r3, r2, lsl #3
 80025cc:	3302      	adds	r3, #2
 80025ce:	eb00 0343 	add.w	r3, r0, r3, lsl #1
 80025d2:	f8b3 7400 	ldrh.w	r7, [r3, #1024]	@ 0x400
 80025d6:	f3c7 0709 	ubfx	r7, r7, #0, #10
              if (count != 0U)
 80025da:	2f00      	cmp	r7, #0
 80025dc:	d09e      	beq.n	800251c <PCD_EP_ISR_Handler+0x2e6>
                USB_ReadPMA(hpcd->Instance, ep->xfer_buff, ep->pmaaddr0, count);
 80025de:	eb04 0184 	add.w	r1, r4, r4, lsl #2
 80025e2:	eb05 01c1 	add.w	r1, r5, r1, lsl #3
 80025e6:	463b      	mov	r3, r7
 80025e8:	f8b1 2158 	ldrh.w	r2, [r1, #344]	@ 0x158
 80025ec:	f8d1 1164 	ldr.w	r1, [r1, #356]	@ 0x164
 80025f0:	f002 fc87 	bl	8004f02 <USB_ReadPMA>
 80025f4:	e792      	b.n	800251c <PCD_EP_ISR_Handler+0x2e6>
            count = HAL_PCD_EP_DB_Receive(hpcd, ep, wEPVal);
 80025f6:	4632      	mov	r2, r6
 80025f8:	4641      	mov	r1, r8
 80025fa:	4628      	mov	r0, r5
 80025fc:	f7ff faee 	bl	8001bdc <HAL_PCD_EP_DB_Receive>
 8002600:	4607      	mov	r7, r0
 8002602:	e78b      	b.n	800251c <PCD_EP_ISR_Handler+0x2e6>
              count = (uint16_t)PCD_GET_EP_DBUF1_CNT(hpcd->Instance, ep->num);
 8002604:	f8b0 3050 	ldrh.w	r3, [r0, #80]	@ 0x50
 8002608:	b29b      	uxth	r3, r3
 800260a:	eb03 03c2 	add.w	r3, r3, r2, lsl #3
 800260e:	3306      	adds	r3, #6
 8002610:	eb00 0343 	add.w	r3, r0, r3, lsl #1
 8002614:	f8b3 7400 	ldrh.w	r7, [r3, #1024]	@ 0x400
 8002618:	f3c7 0709 	ubfx	r7, r7, #0, #10
              if (count != 0U)
 800261c:	2f00      	cmp	r7, #0
 800261e:	f43f af7d 	beq.w	800251c <PCD_EP_ISR_Handler+0x2e6>
                USB_ReadPMA(hpcd->Instance, ep->xfer_buff, ep->pmaaddr1, count);
 8002622:	eb04 0184 	add.w	r1, r4, r4, lsl #2
 8002626:	eb05 01c1 	add.w	r1, r5, r1, lsl #3
 800262a:	463b      	mov	r3, r7
 800262c:	f8b1 215a 	ldrh.w	r2, [r1, #346]	@ 0x15a
 8002630:	f8d1 1164 	ldr.w	r1, [r1, #356]	@ 0x164
 8002634:	f002 fc65 	bl	8004f02 <USB_ReadPMA>
 8002638:	e770      	b.n	800251c <PCD_EP_ISR_Handler+0x2e6>
          (void)USB_EPStartXfer(hpcd->Instance, ep);
 800263a:	4641      	mov	r1, r8
 800263c:	6828      	ldr	r0, [r5, #0]
 800263e:	f002 f879 	bl	8004734 <USB_EPStartXfer>
 8002642:	e6ed      	b.n	8002420 <PCD_EP_ISR_Handler+0x1ea>
          ep->xfer_len = 0U;
 8002644:	1c63      	adds	r3, r4, #1
 8002646:	eb03 0383 	add.w	r3, r3, r3, lsl #2
 800264a:	00db      	lsls	r3, r3, #3
 800264c:	2200      	movs	r2, #0
 800264e:	50ea      	str	r2, [r5, r3]
          if (ep->doublebuffer != 0U)
 8002650:	eb04 0384 	add.w	r3, r4, r4, lsl #2
 8002654:	eb05 03c3 	add.w	r3, r5, r3, lsl #3
 8002658:	7f1b      	ldrb	r3, [r3, #28]
 800265a:	b31b      	cbz	r3, 80026a4 <PCD_EP_ISR_Handler+0x46e>
            if ((wEPVal & USB_EP_DTOG_TX) != 0U)
 800265c:	f016 0f40 	tst.w	r6, #64	@ 0x40
 8002660:	d03b      	beq.n	80026da <PCD_EP_ISR_Handler+0x4a4>
              PCD_SET_EP_DBUF0_CNT(hpcd->Instance, ep->num, ep->is_in, 0U);
 8002662:	eb04 0384 	add.w	r3, r4, r4, lsl #2
 8002666:	eb05 03c3 	add.w	r3, r5, r3, lsl #3
 800266a:	7c5b      	ldrb	r3, [r3, #17]
 800266c:	bb1b      	cbnz	r3, 80026b6 <PCD_EP_ISR_Handler+0x480>
 800266e:	682b      	ldr	r3, [r5, #0]
 8002670:	f8b3 2050 	ldrh.w	r2, [r3, #80]	@ 0x50
 8002674:	b292      	uxth	r2, r2
 8002676:	4413      	add	r3, r2
 8002678:	eb04 0284 	add.w	r2, r4, r4, lsl #2
 800267c:	eb05 02c2 	add.w	r2, r5, r2, lsl #3
 8002680:	7c12      	ldrb	r2, [r2, #16]
 8002682:	eb03 1302 	add.w	r3, r3, r2, lsl #4
 8002686:	f8b3 2404 	ldrh.w	r2, [r3, #1028]	@ 0x404
 800268a:	f3c2 0209 	ubfx	r2, r2, #0, #10
 800268e:	f8a3 2404 	strh.w	r2, [r3, #1028]	@ 0x404
 8002692:	f8b3 2404 	ldrh.w	r2, [r3, #1028]	@ 0x404
 8002696:	ea6f 4242 	mvn.w	r2, r2, lsl #17
 800269a:	ea6f 4252 	mvn.w	r2, r2, lsr #17
 800269e:	b292      	uxth	r2, r2
 80026a0:	f8a3 2404 	strh.w	r2, [r3, #1028]	@ 0x404
          HAL_PCD_DataInStageCallback(hpcd, ep->num);
 80026a4:	eb04 0484 	add.w	r4, r4, r4, lsl #2
 80026a8:	eb05 04c4 	add.w	r4, r5, r4, lsl #3
 80026ac:	7c21      	ldrb	r1, [r4, #16]
 80026ae:	4628      	mov	r0, r5
 80026b0:	f004 faa1 	bl	8006bf6 <HAL_PCD_DataInStageCallback>
 80026b4:	e5c2      	b.n	800223c <PCD_EP_ISR_Handler+0x6>
              PCD_SET_EP_DBUF0_CNT(hpcd->Instance, ep->num, ep->is_in, 0U);
 80026b6:	2b01      	cmp	r3, #1
 80026b8:	d1f4      	bne.n	80026a4 <PCD_EP_ISR_Handler+0x46e>
 80026ba:	682b      	ldr	r3, [r5, #0]
 80026bc:	f8b3 2050 	ldrh.w	r2, [r3, #80]	@ 0x50
 80026c0:	b292      	uxth	r2, r2
 80026c2:	4413      	add	r3, r2
 80026c4:	eb04 0284 	add.w	r2, r4, r4, lsl #2
 80026c8:	eb05 02c2 	add.w	r2, r5, r2, lsl #3
 80026cc:	7c12      	ldrb	r2, [r2, #16]
 80026ce:	eb03 1302 	add.w	r3, r3, r2, lsl #4
 80026d2:	2200      	movs	r2, #0
 80026d4:	f8a3 2404 	strh.w	r2, [r3, #1028]	@ 0x404
 80026d8:	e7e4      	b.n	80026a4 <PCD_EP_ISR_Handler+0x46e>
              PCD_SET_EP_DBUF1_CNT(hpcd->Instance, ep->num, ep->is_in, 0U);
 80026da:	682b      	ldr	r3, [r5, #0]
 80026dc:	eb04 0284 	add.w	r2, r4, r4, lsl #2
 80026e0:	eb05 02c2 	add.w	r2, r5, r2, lsl #3
 80026e4:	7c52      	ldrb	r2, [r2, #17]
 80026e6:	b9d2      	cbnz	r2, 800271e <PCD_EP_ISR_Handler+0x4e8>
 80026e8:	f8b3 2050 	ldrh.w	r2, [r3, #80]	@ 0x50
 80026ec:	b292      	uxth	r2, r2
 80026ee:	4413      	add	r3, r2
 80026f0:	eb04 0284 	add.w	r2, r4, r4, lsl #2
 80026f4:	eb05 02c2 	add.w	r2, r5, r2, lsl #3
 80026f8:	7c12      	ldrb	r2, [r2, #16]
 80026fa:	eb03 1302 	add.w	r3, r3, r2, lsl #4
 80026fe:	f8b3 240c 	ldrh.w	r2, [r3, #1036]	@ 0x40c
 8002702:	f3c2 0209 	ubfx	r2, r2, #0, #10
 8002706:	f8a3 240c 	strh.w	r2, [r3, #1036]	@ 0x40c
 800270a:	f8b3 240c 	ldrh.w	r2, [r3, #1036]	@ 0x40c
 800270e:	ea6f 4242 	mvn.w	r2, r2, lsl #17
 8002712:	ea6f 4252 	mvn.w	r2, r2, lsr #17
 8002716:	b292      	uxth	r2, r2
 8002718:	f8a3 240c 	strh.w	r2, [r3, #1036]	@ 0x40c
 800271c:	e7c2      	b.n	80026a4 <PCD_EP_ISR_Handler+0x46e>
 800271e:	2a01      	cmp	r2, #1
 8002720:	d1c0      	bne.n	80026a4 <PCD_EP_ISR_Handler+0x46e>
 8002722:	f8b3 2050 	ldrh.w	r2, [r3, #80]	@ 0x50
 8002726:	b292      	uxth	r2, r2
 8002728:	4413      	add	r3, r2
 800272a:	eb04 0284 	add.w	r2, r4, r4, lsl #2
 800272e:	eb05 02c2 	add.w	r2, r5, r2, lsl #3
 8002732:	7c12      	ldrb	r2, [r2, #16]
 8002734:	eb03 1302 	add.w	r3, r3, r2, lsl #4
 8002738:	2200      	movs	r2, #0
 800273a:	f8a3 240c 	strh.w	r2, [r3, #1036]	@ 0x40c
 800273e:	e7b1      	b.n	80026a4 <PCD_EP_ISR_Handler+0x46e>
              ep->xfer_len = 0U;
 8002740:	1c62      	adds	r2, r4, #1
 8002742:	eb02 0282 	add.w	r2, r2, r2, lsl #2
 8002746:	00d2      	lsls	r2, r2, #3
 8002748:	2700      	movs	r7, #0
 800274a:	50af      	str	r7, [r5, r2]
 800274c:	e6ac      	b.n	80024a8 <PCD_EP_ISR_Handler+0x272>
              ep->xfer_buff += TxPctSize;
 800274e:	eb04 0284 	add.w	r2, r4, r4, lsl #2
 8002752:	eb05 02c2 	add.w	r2, r5, r2, lsl #3
 8002756:	6a56      	ldr	r6, [r2, #36]	@ 0x24
 8002758:	441e      	add	r6, r3
 800275a:	6256      	str	r6, [r2, #36]	@ 0x24
              ep->xfer_count += TxPctSize;
 800275c:	3401      	adds	r4, #1
 800275e:	eb04 0284 	add.w	r2, r4, r4, lsl #2
 8002762:	eb05 02c2 	add.w	r2, r5, r2, lsl #3
 8002766:	6852      	ldr	r2, [r2, #4]
 8002768:	eb04 0484 	add.w	r4, r4, r4, lsl #2
 800276c:	eb05 04c4 	add.w	r4, r5, r4, lsl #3
 8002770:	4413      	add	r3, r2
 8002772:	6063      	str	r3, [r4, #4]
              (void)USB_EPStartXfer(hpcd->Instance, ep);
 8002774:	f001 ffde 	bl	8004734 <USB_EPStartXfer>
 8002778:	e560      	b.n	800223c <PCD_EP_ISR_Handler+0x6>
            (void)HAL_PCD_EP_DB_Transmit(hpcd, ep, wEPVal);
 800277a:	4632      	mov	r2, r6
 800277c:	4628      	mov	r0, r5
 800277e:	f7ff fb48 	bl	8001e12 <HAL_PCD_EP_DB_Transmit>
 8002782:	e55b      	b.n	800223c <PCD_EP_ISR_Handler+0x6>
}
 8002784:	2000      	movs	r0, #0
 8002786:	e8bd 81f0 	ldmia.w	sp!, {r4, r5, r6, r7, r8, pc}

0800278a <HAL_PCD_SetAddress>:
  __HAL_LOCK(hpcd);
 800278a:	f890 3290 	ldrb.w	r3, [r0, #656]	@ 0x290
 800278e:	2b01      	cmp	r3, #1
 8002790:	d00c      	beq.n	80027ac <HAL_PCD_SetAddress+0x22>
{
 8002792:	b510      	push	{r4, lr}
 8002794:	4604      	mov	r4, r0
  __HAL_LOCK(hpcd);
 8002796:	2301      	movs	r3, #1
 8002798:	f880 3290 	strb.w	r3, [r0, #656]	@ 0x290
  hpcd->USB_Address = address;
 800279c:	7341      	strb	r1, [r0, #13]
  (void)USB_SetDevAddress(hpcd->Instance, address);
 800279e:	6800      	ldr	r0, [r0, #0]
 80027a0:	f001 ffa5 	bl	80046ee <USB_SetDevAddress>
  __HAL_UNLOCK(hpcd);
 80027a4:	2000      	movs	r0, #0
 80027a6:	f884 0290 	strb.w	r0, [r4, #656]	@ 0x290
}
 80027aa:	bd10      	pop	{r4, pc}
  __HAL_LOCK(hpcd);
 80027ac:	2002      	movs	r0, #2
}
 80027ae:	4770      	bx	lr

080027b0 <HAL_PCD_IRQHandler>:
{
 80027b0:	b510      	push	{r4, lr}
 80027b2:	b084      	sub	sp, #16
 80027b4:	4604      	mov	r4, r0
  uint32_t wIstr = USB_ReadInterrupts(hpcd->Instance);
 80027b6:	6800      	ldr	r0, [r0, #0]
 80027b8:	f001 ffa3 	bl	8004702 <USB_ReadInterrupts>
  if ((wIstr & USB_ISTR_CTR) == USB_ISTR_CTR)
 80027bc:	f410 4f00 	tst.w	r0, #32768	@ 0x8000
 80027c0:	d120      	bne.n	8002804 <HAL_PCD_IRQHandler+0x54>
  if ((wIstr & USB_ISTR_RESET) == USB_ISTR_RESET)
 80027c2:	f410 6f80 	tst.w	r0, #1024	@ 0x400
 80027c6:	d121      	bne.n	800280c <HAL_PCD_IRQHandler+0x5c>
  if ((wIstr & USB_ISTR_PMAOVR) == USB_ISTR_PMAOVR)
 80027c8:	f410 4f80 	tst.w	r0, #16384	@ 0x4000
 80027cc:	d12f      	bne.n	800282e <HAL_PCD_IRQHandler+0x7e>
  if ((wIstr & USB_ISTR_ERR) == USB_ISTR_ERR)
 80027ce:	f410 5f00 	tst.w	r0, #8192	@ 0x2000
 80027d2:	d137      	bne.n	8002844 <HAL_PCD_IRQHandler+0x94>
  if ((wIstr & USB_ISTR_WKUP) == USB_ISTR_WKUP)
 80027d4:	f410 5f80 	tst.w	r0, #4096	@ 0x1000
 80027d8:	d13e      	bne.n	8002858 <HAL_PCD_IRQHandler+0xa8>
  if ((wIstr & USB_ISTR_SUSP) == USB_ISTR_SUSP)
 80027da:	f410 6f00 	tst.w	r0, #2048	@ 0x800
 80027de:	f040 8087 	bne.w	80028f0 <HAL_PCD_IRQHandler+0x140>
  if ((wIstr & USB_ISTR_SOF) == USB_ISTR_SOF)
 80027e2:	f410 7f00 	tst.w	r0, #512	@ 0x200
 80027e6:	f040 80ae 	bne.w	8002946 <HAL_PCD_IRQHandler+0x196>
  if ((wIstr & USB_ISTR_ESOF) == USB_ISTR_ESOF)
 80027ea:	f410 7f80 	tst.w	r0, #256	@ 0x100
 80027ee:	d027      	beq.n	8002840 <HAL_PCD_IRQHandler+0x90>
    __HAL_PCD_CLEAR_FLAG(hpcd, USB_ISTR_ESOF);
 80027f0:	6822      	ldr	r2, [r4, #0]
 80027f2:	f8b2 3044 	ldrh.w	r3, [r2, #68]	@ 0x44
 80027f6:	b29b      	uxth	r3, r3
 80027f8:	f423 7380 	bic.w	r3, r3, #256	@ 0x100
 80027fc:	b29b      	uxth	r3, r3
 80027fe:	f8a2 3044 	strh.w	r3, [r2, #68]	@ 0x44
    return;
 8002802:	e01d      	b.n	8002840 <HAL_PCD_IRQHandler+0x90>
    (void)PCD_EP_ISR_Handler(hpcd);
 8002804:	4620      	mov	r0, r4
 8002806:	f7ff fd16 	bl	8002236 <PCD_EP_ISR_Handler>
    return;
 800280a:	e019      	b.n	8002840 <HAL_PCD_IRQHandler+0x90>
    __HAL_PCD_CLEAR_FLAG(hpcd, USB_ISTR_RESET);
 800280c:	6822      	ldr	r2, [r4, #0]
 800280e:	f8b2 3044 	ldrh.w	r3, [r2, #68]	@ 0x44
 8002812:	b29b      	uxth	r3, r3
 8002814:	f423 6380 	bic.w	r3, r3, #1024	@ 0x400
 8002818:	b29b      	uxth	r3, r3
 800281a:	f8a2 3044 	strh.w	r3, [r2, #68]	@ 0x44
    HAL_PCD_ResetCallback(hpcd);
 800281e:	4620      	mov	r0, r4
 8002820:	f004 f9fa 	bl	8006c18 <HAL_PCD_ResetCallback>
    (void)HAL_PCD_SetAddress(hpcd, 0U);
 8002824:	2100      	movs	r1, #0
 8002826:	4620      	mov	r0, r4
 8002828:	f7ff ffaf 	bl	800278a <HAL_PCD_SetAddress>
    return;
 800282c:	e008      	b.n	8002840 <HAL_PCD_IRQHandler+0x90>
    __HAL_PCD_CLEAR_FLAG(hpcd, USB_ISTR_PMAOVR);
 800282e:	6822      	ldr	r2, [r4, #0]
 8002830:	f8b2 3044 	ldrh.w	r3, [r2, #68]	@ 0x44
 8002834:	b29b      	uxth	r3, r3
 8002836:	f423 4380 	bic.w	r3, r3, #16384	@ 0x4000
 800283a:	b29b      	uxth	r3, r3
 800283c:	f8a2 3044 	strh.w	r3, [r2, #68]	@ 0x44
}
 8002840:	b004      	add	sp, #16
 8002842:	bd10      	pop	{r4, pc}
    __HAL_PCD_CLEAR_FLAG(hpcd, USB_ISTR_ERR);
 8002844:	6822      	ldr	r2, [r4, #0]
 8002846:	f8b2 3044 	ldrh.w	r3, [r2, #68]	@ 0x44
 800284a:	b29b      	uxth	r3, r3
 800284c:	f423 5300 	bic.w	r3, r3, #8192	@ 0x2000
 8002850:	b29b      	uxth	r3, r3
 8002852:	f8a2 3044 	strh.w	r3, [r2, #68]	@ 0x44
    return;
 8002856:	e7f3      	b.n	8002840 <HAL_PCD_IRQHandler+0x90>
    hpcd->Instance->CNTR &= (uint16_t) ~(USB_CNTR_LP_MODE);
 8002858:	6822      	ldr	r2, [r4, #0]
 800285a:	f8b2 3040 	ldrh.w	r3, [r2, #64]	@ 0x40
 800285e:	b29b      	uxth	r3, r3
 8002860:	f023 0304 	bic.w	r3, r3, #4
 8002864:	b29b      	uxth	r3, r3
 8002866:	f8a2 3040 	strh.w	r3, [r2, #64]	@ 0x40
    hpcd->Instance->CNTR &= (uint16_t) ~(USB_CNTR_FSUSP);
 800286a:	6822      	ldr	r2, [r4, #0]
 800286c:	f8b2 3040 	ldrh.w	r3, [r2, #64]	@ 0x40
 8002870:	b29b      	uxth	r3, r3
 8002872:	f023 0308 	bic.w	r3, r3, #8
 8002876:	b29b      	uxth	r3, r3
 8002878:	f8a2 3040 	strh.w	r3, [r2, #64]	@ 0x40
    HAL_PCD_ResumeCallback(hpcd);
 800287c:	4620      	mov	r0, r4
 800287e:	f004 f9ee 	bl	8006c5e <HAL_PCD_ResumeCallback>
    __HAL_PCD_CLEAR_FLAG(hpcd, USB_ISTR_WKUP);
 8002882:	6822      	ldr	r2, [r4, #0]
 8002884:	f8b2 3044 	ldrh.w	r3, [r2, #68]	@ 0x44
 8002888:	b29b      	uxth	r3, r3
 800288a:	f423 5380 	bic.w	r3, r3, #4096	@ 0x1000
 800288e:	b29b      	uxth	r3, r3
 8002890:	f8a2 3044 	strh.w	r3, [r2, #68]	@ 0x44
    return;
 8002894:	e7d4      	b.n	8002840 <HAL_PCD_IRQHandler+0x90>
      store_ep[i] = PCD_GET_ENDPOINT(hpcd->Instance, i);
 8002896:	6822      	ldr	r2, [r4, #0]
 8002898:	f832 1023 	ldrh.w	r1, [r2, r3, lsl #2]
 800289c:	aa04      	add	r2, sp, #16
 800289e:	eb02 0243 	add.w	r2, r2, r3, lsl #1
 80028a2:	f822 1c10 	strh.w	r1, [r2, #-16]
    for (i = 0U; i < 8U; i++)
 80028a6:	3301      	adds	r3, #1
 80028a8:	b2db      	uxtb	r3, r3
 80028aa:	2b07      	cmp	r3, #7
 80028ac:	d9f3      	bls.n	8002896 <HAL_PCD_IRQHandler+0xe6>
    hpcd->Instance->CNTR |= (uint16_t)(USB_CNTR_FRES);
 80028ae:	6822      	ldr	r2, [r4, #0]
 80028b0:	f8b2 3040 	ldrh.w	r3, [r2, #64]	@ 0x40
 80028b4:	b29b      	uxth	r3, r3
 80028b6:	f043 0301 	orr.w	r3, r3, #1
 80028ba:	f8a2 3040 	strh.w	r3, [r2, #64]	@ 0x40
    hpcd->Instance->CNTR &= (uint16_t)(~USB_CNTR_FRES);
 80028be:	6822      	ldr	r2, [r4, #0]
 80028c0:	f8b2 3040 	ldrh.w	r3, [r2, #64]	@ 0x40
 80028c4:	b29b      	uxth	r3, r3
 80028c6:	f023 0301 	bic.w	r3, r3, #1
 80028ca:	b29b      	uxth	r3, r3
 80028cc:	f8a2 3040 	strh.w	r3, [r2, #64]	@ 0x40
    while ((hpcd->Instance->ISTR & USB_ISTR_RESET) == 0U)
 80028d0:	6823      	ldr	r3, [r4, #0]
 80028d2:	f8b3 2044 	ldrh.w	r2, [r3, #68]	@ 0x44
 80028d6:	f412 6f80 	tst.w	r2, #1024	@ 0x400
 80028da:	d0f9      	beq.n	80028d0 <HAL_PCD_IRQHandler+0x120>
    __HAL_PCD_CLEAR_FLAG(hpcd, USB_ISTR_RESET);
 80028dc:	f8b3 2044 	ldrh.w	r2, [r3, #68]	@ 0x44
 80028e0:	b292      	uxth	r2, r2
 80028e2:	f422 6280 	bic.w	r2, r2, #1024	@ 0x400
 80028e6:	b292      	uxth	r2, r2
 80028e8:	f8a3 2044 	strh.w	r2, [r3, #68]	@ 0x44
    for (i = 0U; i < 8U; i++)
 80028ec:	2300      	movs	r3, #0
 80028ee:	e00b      	b.n	8002908 <HAL_PCD_IRQHandler+0x158>
    for (i = 0U; i < 8U; i++)
 80028f0:	2300      	movs	r3, #0
 80028f2:	e7da      	b.n	80028aa <HAL_PCD_IRQHandler+0xfa>
      PCD_SET_ENDPOINT(hpcd->Instance, i, store_ep[i]);
 80028f4:	6822      	ldr	r2, [r4, #0]
 80028f6:	a904      	add	r1, sp, #16
 80028f8:	eb01 0143 	add.w	r1, r1, r3, lsl #1
 80028fc:	f831 1c10 	ldrh.w	r1, [r1, #-16]
 8002900:	f822 1023 	strh.w	r1, [r2, r3, lsl #2]
    for (i = 0U; i < 8U; i++)
 8002904:	3301      	adds	r3, #1
 8002906:	b2db      	uxtb	r3, r3
 8002908:	2b07      	cmp	r3, #7
 800290a:	d9f3      	bls.n	80028f4 <HAL_PCD_IRQHandler+0x144>
    hpcd->Instance->CNTR |= (uint16_t)USB_CNTR_FSUSP;
 800290c:	6822      	ldr	r2, [r4, #0]
 800290e:	f8b2 3040 	ldrh.w	r3, [r2, #64]	@ 0x40
 8002912:	b29b      	uxth	r3, r3
 8002914:	f043 0308 	orr.w	r3, r3, #8
 8002918:	f8a2 3040 	strh.w	r3, [r2, #64]	@ 0x40
    __HAL_PCD_CLEAR_FLAG(hpcd, USB_ISTR_SUSP);
 800291c:	6822      	ldr	r2, [r4, #0]
 800291e:	f8b2 3044 	ldrh.w	r3, [r2, #68]	@ 0x44
 8002922:	b29b      	uxth	r3, r3
 8002924:	f423 6300 	bic.w	r3, r3, #2048	@ 0x800
 8002928:	b29b      	uxth	r3, r3
 800292a:	f8a2 3044 	strh.w	r3, [r2, #68]	@ 0x44
    hpcd->Instance->CNTR |= (uint16_t)USB_CNTR_LP_MODE;
 800292e:	6822      	ldr	r2, [r4, #0]
 8002930:	f8b2 3040 	ldrh.w	r3, [r2, #64]	@ 0x40
 8002934:	b29b      	uxth	r3, r3
 8002936:	f043 0304 	orr.w	r3, r3, #4
 800293a:	f8a2 3040 	strh.w	r3, [r2, #64]	@ 0x40
    HAL_PCD_SuspendCallback(hpcd);
 800293e:	4620      	mov	r0, r4
 8002940:	f004 f97c 	bl	8006c3c <HAL_PCD_SuspendCallback>
    return;
 8002944:	e77c      	b.n	8002840 <HAL_PCD_IRQHandler+0x90>
    __HAL_PCD_CLEAR_FLAG(hpcd, USB_ISTR_SOF);
 8002946:	6822      	ldr	r2, [r4, #0]
 8002948:	f8b2 3044 	ldrh.w	r3, [r2, #68]	@ 0x44
 800294c:	b29b      	uxth	r3, r3
 800294e:	f423 7300 	bic.w	r3, r3, #512	@ 0x200
 8002952:	b29b      	uxth	r3, r3
 8002954:	f8a2 3044 	strh.w	r3, [r2, #68]	@ 0x44
    HAL_PCD_SOFCallback(hpcd);
 8002958:	4620      	mov	r0, r4
 800295a:	f004 f957 	bl	8006c0c <HAL_PCD_SOFCallback>
    return;
 800295e:	e76f      	b.n	8002840 <HAL_PCD_IRQHandler+0x90>

08002960 <HAL_PCD_EP_Open>:
{
 8002960:	b510      	push	{r4, lr}
 8002962:	4604      	mov	r4, r0
 8002964:	4608      	mov	r0, r1
  if ((ep_addr & 0x80U) == 0x80U)
 8002966:	f011 0f80 	tst.w	r1, #128	@ 0x80
 800296a:	d126      	bne.n	80029ba <HAL_PCD_EP_Open+0x5a>
    ep = &hpcd->OUT_ep[ep_addr & EP_ADDR_MSK];
 800296c:	f001 0c07 	and.w	ip, r1, #7
 8002970:	eb0c 0e8c 	add.w	lr, ip, ip, lsl #2
 8002974:	ea4f 0ece 	mov.w	lr, lr, lsl #3
 8002978:	f50e 7ea8 	add.w	lr, lr, #336	@ 0x150
 800297c:	eb04 010e 	add.w	r1, r4, lr
    ep->is_in = 0U;
 8002980:	eb0c 0c8c 	add.w	ip, ip, ip, lsl #2
 8002984:	eb04 0ccc 	add.w	ip, r4, ip, lsl #3
 8002988:	f04f 0e00 	mov.w	lr, #0
 800298c:	f88c e151 	strb.w	lr, [ip, #337]	@ 0x151
  ep->num = ep_addr & EP_ADDR_MSK;
 8002990:	f000 0007 	and.w	r0, r0, #7
 8002994:	7008      	strb	r0, [r1, #0]
  ep->maxpacket = ep_mps;
 8002996:	610a      	str	r2, [r1, #16]
  ep->type = ep_type;
 8002998:	70cb      	strb	r3, [r1, #3]
  if (ep_type == EP_TYPE_BULK)
 800299a:	2b02      	cmp	r3, #2
 800299c:	d01d      	beq.n	80029da <HAL_PCD_EP_Open+0x7a>
  __HAL_LOCK(hpcd);
 800299e:	f894 3290 	ldrb.w	r3, [r4, #656]	@ 0x290
 80029a2:	2b01      	cmp	r3, #1
 80029a4:	d01c      	beq.n	80029e0 <HAL_PCD_EP_Open+0x80>
 80029a6:	2301      	movs	r3, #1
 80029a8:	f884 3290 	strb.w	r3, [r4, #656]	@ 0x290
  (void)USB_ActivateEndpoint(hpcd->Instance, ep);
 80029ac:	6820      	ldr	r0, [r4, #0]
 80029ae:	f001 fb58 	bl	8004062 <USB_ActivateEndpoint>
  __HAL_UNLOCK(hpcd);
 80029b2:	2000      	movs	r0, #0
 80029b4:	f884 0290 	strb.w	r0, [r4, #656]	@ 0x290
}
 80029b8:	bd10      	pop	{r4, pc}
    ep = &hpcd->IN_ep[ep_addr & EP_ADDR_MSK];
 80029ba:	f001 0c07 	and.w	ip, r1, #7
 80029be:	eb0c 018c 	add.w	r1, ip, ip, lsl #2
 80029c2:	00c9      	lsls	r1, r1, #3
 80029c4:	3110      	adds	r1, #16
 80029c6:	4421      	add	r1, r4
    ep->is_in = 1U;
 80029c8:	eb0c 0c8c 	add.w	ip, ip, ip, lsl #2
 80029cc:	eb04 0ccc 	add.w	ip, r4, ip, lsl #3
 80029d0:	f04f 0e01 	mov.w	lr, #1
 80029d4:	f88c e011 	strb.w	lr, [ip, #17]
 80029d8:	e7da      	b.n	8002990 <HAL_PCD_EP_Open+0x30>
    ep->data_pid_start = 0U;
 80029da:	2300      	movs	r3, #0
 80029dc:	710b      	strb	r3, [r1, #4]
 80029de:	e7de      	b.n	800299e <HAL_PCD_EP_Open+0x3e>
  __HAL_LOCK(hpcd);
 80029e0:	2002      	movs	r0, #2
 80029e2:	e7e9      	b.n	80029b8 <HAL_PCD_EP_Open+0x58>

080029e4 <HAL_PCD_EP_Close>:
{
 80029e4:	b510      	push	{r4, lr}
 80029e6:	4604      	mov	r4, r0
 80029e8:	460a      	mov	r2, r1
  if ((ep_addr & 0x80U) == 0x80U)
 80029ea:	f011 0f80 	tst.w	r1, #128	@ 0x80
 80029ee:	d11f      	bne.n	8002a30 <HAL_PCD_EP_Close+0x4c>
    ep = &hpcd->OUT_ep[ep_addr & EP_ADDR_MSK];
 80029f0:	f001 0007 	and.w	r0, r1, #7
 80029f4:	eb00 0380 	add.w	r3, r0, r0, lsl #2
 80029f8:	00db      	lsls	r3, r3, #3
 80029fa:	f503 73a8 	add.w	r3, r3, #336	@ 0x150
 80029fe:	18e1      	adds	r1, r4, r3
    ep->is_in = 0U;
 8002a00:	eb00 0080 	add.w	r0, r0, r0, lsl #2
 8002a04:	eb04 00c0 	add.w	r0, r4, r0, lsl #3
 8002a08:	2300      	movs	r3, #0
 8002a0a:	f880 3151 	strb.w	r3, [r0, #337]	@ 0x151
  ep->num = ep_addr & EP_ADDR_MSK;
 8002a0e:	f002 0207 	and.w	r2, r2, #7
 8002a12:	700a      	strb	r2, [r1, #0]
  __HAL_LOCK(hpcd);
 8002a14:	f894 3290 	ldrb.w	r3, [r4, #656]	@ 0x290
 8002a18:	2b01      	cmp	r3, #1
 8002a1a:	d017      	beq.n	8002a4c <HAL_PCD_EP_Close+0x68>
 8002a1c:	2301      	movs	r3, #1
 8002a1e:	f884 3290 	strb.w	r3, [r4, #656]	@ 0x290
  (void)USB_DeactivateEndpoint(hpcd->Instance, ep);
 8002a22:	6820      	ldr	r0, [r4, #0]
 8002a24:	f001 fd02 	bl	800442c <USB_DeactivateEndpoint>
  __HAL_UNLOCK(hpcd);
 8002a28:	2000      	movs	r0, #0
 8002a2a:	f884 0290 	strb.w	r0, [r4, #656]	@ 0x290
}
 8002a2e:	bd10      	pop	{r4, pc}
    ep = &hpcd->IN_ep[ep_addr & EP_ADDR_MSK];
 8002a30:	f001 0007 	and.w	r0, r1, #7
 8002a34:	eb00 0380 	add.w	r3, r0, r0, lsl #2
 8002a38:	00db      	lsls	r3, r3, #3
 8002a3a:	3310      	adds	r3, #16
 8002a3c:	18e1      	adds	r1, r4, r3
    ep->is_in = 1U;
 8002a3e:	eb00 0080 	add.w	r0, r0, r0, lsl #2
 8002a42:	eb04 00c0 	add.w	r0, r4, r0, lsl #3
 8002a46:	2301      	movs	r3, #1
 8002a48:	7443      	strb	r3, [r0, #17]
 8002a4a:	e7e0      	b.n	8002a0e <HAL_PCD_EP_Close+0x2a>
  __HAL_LOCK(hpcd);
 8002a4c:	2002      	movs	r0, #2
 8002a4e:	e7ee      	b.n	8002a2e <HAL_PCD_EP_Close+0x4a>

08002a50 <HAL_PCD_EP_Receive>:
{
 8002a50:	b510      	push	{r4, lr}
  ep = &hpcd->OUT_ep[ep_addr & EP_ADDR_MSK];
 8002a52:	f001 0c07 	and.w	ip, r1, #7
 8002a56:	eb0c 018c 	add.w	r1, ip, ip, lsl #2
 8002a5a:	00c9      	lsls	r1, r1, #3
 8002a5c:	f501 71a8 	add.w	r1, r1, #336	@ 0x150
  ep->xfer_buff = pBuf;
 8002a60:	eb0c 0e8c 	add.w	lr, ip, ip, lsl #2
 8002a64:	eb00 0ece 	add.w	lr, r0, lr, lsl #3
 8002a68:	f8ce 2164 	str.w	r2, [lr, #356]	@ 0x164
  ep->xfer_len = len;
 8002a6c:	f8ce 3168 	str.w	r3, [lr, #360]	@ 0x168
  ep->xfer_count = 0U;
 8002a70:	2400      	movs	r4, #0
 8002a72:	f8ce 416c 	str.w	r4, [lr, #364]	@ 0x16c
  ep->is_in = 0U;
 8002a76:	f88e 4151 	strb.w	r4, [lr, #337]	@ 0x151
  ep->num = ep_addr & EP_ADDR_MSK;
 8002a7a:	f88e c150 	strb.w	ip, [lr, #336]	@ 0x150
  (void)USB_EPStartXfer(hpcd->Instance, ep);
 8002a7e:	4401      	add	r1, r0
 8002a80:	6800      	ldr	r0, [r0, #0]
 8002a82:	f001 fe57 	bl	8004734 <USB_EPStartXfer>
}
 8002a86:	4620      	mov	r0, r4
 8002a88:	bd10      	pop	{r4, pc}

08002a8a <HAL_PCD_EP_Transmit>:
{
 8002a8a:	b538      	push	{r3, r4, r5, lr}
  ep = &hpcd->IN_ep[ep_addr & EP_ADDR_MSK];
 8002a8c:	f001 0c07 	and.w	ip, r1, #7
 8002a90:	eb0c 018c 	add.w	r1, ip, ip, lsl #2
 8002a94:	00c9      	lsls	r1, r1, #3
 8002a96:	3110      	adds	r1, #16
  ep->xfer_buff = pBuf;
 8002a98:	eb0c 0e8c 	add.w	lr, ip, ip, lsl #2
 8002a9c:	eb00 0ece 	add.w	lr, r0, lr, lsl #3
 8002aa0:	f8ce 2024 	str.w	r2, [lr, #36]	@ 0x24
  ep->xfer_len = len;
 8002aa4:	f10c 0201 	add.w	r2, ip, #1
 8002aa8:	eb02 0482 	add.w	r4, r2, r2, lsl #2
 8002aac:	f840 3034 	str.w	r3, [r0, r4, lsl #3]
  ep->xfer_fill_db = 1U;
 8002ab0:	2501      	movs	r5, #1
 8002ab2:	f88e 5034 	strb.w	r5, [lr, #52]	@ 0x34
  ep->xfer_len_db = len;
 8002ab6:	f8ce 3030 	str.w	r3, [lr, #48]	@ 0x30
  ep->xfer_count = 0U;
 8002aba:	eb00 02c4 	add.w	r2, r0, r4, lsl #3
 8002abe:	2400      	movs	r4, #0
 8002ac0:	6054      	str	r4, [r2, #4]
  ep->is_in = 1U;
 8002ac2:	f88e 5011 	strb.w	r5, [lr, #17]
  ep->num = ep_addr & EP_ADDR_MSK;
 8002ac6:	f88e c010 	strb.w	ip, [lr, #16]
  (void)USB_EPStartXfer(hpcd->Instance, ep);
 8002aca:	4401      	add	r1, r0
 8002acc:	6800      	ldr	r0, [r0, #0]
 8002ace:	f001 fe31 	bl	8004734 <USB_EPStartXfer>
}
 8002ad2:	4620      	mov	r0, r4
 8002ad4:	bd38      	pop	{r3, r4, r5, pc}

08002ad6 <HAL_PCD_EP_SetStall>:
{
 8002ad6:	b538      	push	{r3, r4, r5, lr}
  if (((uint32_t)ep_addr & EP_ADDR_MSK) > hpcd->Init.dev_endpoints)
 8002ad8:	f001 0507 	and.w	r5, r1, #7
 8002adc:	7902      	ldrb	r2, [r0, #4]
 8002ade:	42aa      	cmp	r2, r5
 8002ae0:	d335      	bcc.n	8002b4e <HAL_PCD_EP_SetStall+0x78>
 8002ae2:	4604      	mov	r4, r0
 8002ae4:	460b      	mov	r3, r1
  if ((0x80U & ep_addr) == 0x80U)
 8002ae6:	f011 0f80 	tst.w	r1, #128	@ 0x80
 8002aea:	d11e      	bne.n	8002b2a <HAL_PCD_EP_SetStall+0x54>
    ep = &hpcd->OUT_ep[ep_addr];
 8002aec:	eb01 0181 	add.w	r1, r1, r1, lsl #2
 8002af0:	00c9      	lsls	r1, r1, #3
 8002af2:	f501 71a8 	add.w	r1, r1, #336	@ 0x150
 8002af6:	4401      	add	r1, r0
    ep->is_in = 0U;
 8002af8:	eb03 0383 	add.w	r3, r3, r3, lsl #2
 8002afc:	eb00 03c3 	add.w	r3, r0, r3, lsl #3
 8002b00:	2200      	movs	r2, #0
 8002b02:	f883 2151 	strb.w	r2, [r3, #337]	@ 0x151
  ep->is_stall = 1U;
 8002b06:	2301      	movs	r3, #1
 8002b08:	708b      	strb	r3, [r1, #2]
  ep->num = ep_addr & EP_ADDR_MSK;
 8002b0a:	700d      	strb	r5, [r1, #0]
  __HAL_LOCK(hpcd);
 8002b0c:	f894 3290 	ldrb.w	r3, [r4, #656]	@ 0x290
 8002b10:	2b01      	cmp	r3, #1
 8002b12:	d01e      	beq.n	8002b52 <HAL_PCD_EP_SetStall+0x7c>
 8002b14:	2301      	movs	r3, #1
 8002b16:	f884 3290 	strb.w	r3, [r4, #656]	@ 0x290
  (void)USB_EPSetStall(hpcd->Instance, ep);
 8002b1a:	6820      	ldr	r0, [r4, #0]
 8002b1c:	f001 fd71 	bl	8004602 <USB_EPSetStall>
  if ((ep_addr & EP_ADDR_MSK) == 0U)
 8002b20:	b17d      	cbz	r5, 8002b42 <HAL_PCD_EP_SetStall+0x6c>
  __HAL_UNLOCK(hpcd);
 8002b22:	2000      	movs	r0, #0
 8002b24:	f884 0290 	strb.w	r0, [r4, #656]	@ 0x290
}
 8002b28:	bd38      	pop	{r3, r4, r5, pc}
    ep = &hpcd->IN_ep[ep_addr & EP_ADDR_MSK];
 8002b2a:	eb05 0185 	add.w	r1, r5, r5, lsl #2
 8002b2e:	00c9      	lsls	r1, r1, #3
 8002b30:	3110      	adds	r1, #16
 8002b32:	4401      	add	r1, r0
    ep->is_in = 1U;
 8002b34:	eb05 0385 	add.w	r3, r5, r5, lsl #2
 8002b38:	eb00 03c3 	add.w	r3, r0, r3, lsl #3
 8002b3c:	2201      	movs	r2, #1
 8002b3e:	745a      	strb	r2, [r3, #17]
 8002b40:	e7e1      	b.n	8002b06 <HAL_PCD_EP_SetStall+0x30>
    (void)USB_EP0_OutStart(hpcd->Instance, (uint8_t *)hpcd->Setup);
 8002b42:	f504 7126 	add.w	r1, r4, #664	@ 0x298
 8002b46:	6820      	ldr	r0, [r4, #0]
 8002b48:	f001 fddf 	bl	800470a <USB_EP0_OutStart>
 8002b4c:	e7e9      	b.n	8002b22 <HAL_PCD_EP_SetStall+0x4c>
    return HAL_ERROR;
 8002b4e:	2001      	movs	r0, #1
 8002b50:	e7ea      	b.n	8002b28 <HAL_PCD_EP_SetStall+0x52>
  __HAL_LOCK(hpcd);
 8002b52:	2002      	movs	r0, #2
 8002b54:	e7e8      	b.n	8002b28 <HAL_PCD_EP_SetStall+0x52>

08002b56 <HAL_PCD_EP_ClrStall>:
{
 8002b56:	460b      	mov	r3, r1
  if (((uint32_t)ep_addr & 0x0FU) > hpcd->Init.dev_endpoints)
 8002b58:	7901      	ldrb	r1, [r0, #4]
 8002b5a:	f003 020f 	and.w	r2, r3, #15
 8002b5e:	4291      	cmp	r1, r2
 8002b60:	d334      	bcc.n	8002bcc <HAL_PCD_EP_ClrStall+0x76>
{
 8002b62:	b510      	push	{r4, lr}
 8002b64:	4604      	mov	r4, r0
  if ((0x80U & ep_addr) == 0x80U)
 8002b66:	f013 0f80 	tst.w	r3, #128	@ 0x80
 8002b6a:	d121      	bne.n	8002bb0 <HAL_PCD_EP_ClrStall+0x5a>
    ep = &hpcd->OUT_ep[ep_addr & EP_ADDR_MSK];
 8002b6c:	f003 0207 	and.w	r2, r3, #7
 8002b70:	eb02 0182 	add.w	r1, r2, r2, lsl #2
 8002b74:	00c9      	lsls	r1, r1, #3
 8002b76:	f501 71a8 	add.w	r1, r1, #336	@ 0x150
 8002b7a:	4401      	add	r1, r0
    ep->is_in = 0U;
 8002b7c:	eb02 0282 	add.w	r2, r2, r2, lsl #2
 8002b80:	eb00 02c2 	add.w	r2, r0, r2, lsl #3
 8002b84:	2000      	movs	r0, #0
 8002b86:	f882 0151 	strb.w	r0, [r2, #337]	@ 0x151
  ep->is_stall = 0U;
 8002b8a:	2200      	movs	r2, #0
 8002b8c:	708a      	strb	r2, [r1, #2]
  ep->num = ep_addr & EP_ADDR_MSK;
 8002b8e:	f003 0307 	and.w	r3, r3, #7
 8002b92:	700b      	strb	r3, [r1, #0]
  __HAL_LOCK(hpcd);
 8002b94:	f894 3290 	ldrb.w	r3, [r4, #656]	@ 0x290
 8002b98:	2b01      	cmp	r3, #1
 8002b9a:	d019      	beq.n	8002bd0 <HAL_PCD_EP_ClrStall+0x7a>
 8002b9c:	2301      	movs	r3, #1
 8002b9e:	f884 3290 	strb.w	r3, [r4, #656]	@ 0x290
  (void)USB_EPClearStall(hpcd->Instance, ep);
 8002ba2:	6820      	ldr	r0, [r4, #0]
 8002ba4:	f001 fd52 	bl	800464c <USB_EPClearStall>
  __HAL_UNLOCK(hpcd);
 8002ba8:	2000      	movs	r0, #0
 8002baa:	f884 0290 	strb.w	r0, [r4, #656]	@ 0x290
}
 8002bae:	bd10      	pop	{r4, pc}
    ep = &hpcd->IN_ep[ep_addr & EP_ADDR_MSK];
 8002bb0:	f003 0207 	and.w	r2, r3, #7
 8002bb4:	eb02 0182 	add.w	r1, r2, r2, lsl #2
 8002bb8:	00c9      	lsls	r1, r1, #3
 8002bba:	3110      	adds	r1, #16
 8002bbc:	4401      	add	r1, r0
    ep->is_in = 1U;
 8002bbe:	eb02 0282 	add.w	r2, r2, r2, lsl #2
 8002bc2:	eb00 02c2 	add.w	r2, r0, r2, lsl #3
 8002bc6:	2001      	movs	r0, #1
 8002bc8:	7450      	strb	r0, [r2, #17]
 8002bca:	e7de      	b.n	8002b8a <HAL_PCD_EP_ClrStall+0x34>
    return HAL_ERROR;
 8002bcc:	2001      	movs	r0, #1
}
 8002bce:	4770      	bx	lr
  __HAL_LOCK(hpcd);
 8002bd0:	2002      	movs	r0, #2
 8002bd2:	e7ec      	b.n	8002bae <HAL_PCD_EP_ClrStall+0x58>

08002bd4 <HAL_PCDEx_PMAConfig>:
                                       uint16_t ep_kind, uint32_t pmaadress)
{
  PCD_EPTypeDef *ep;

  /* initialize ep structure*/
  if ((0x80U & ep_addr) == 0x80U)
 8002bd4:	f011 0f80 	tst.w	r1, #128	@ 0x80
 8002bd8:	d00b      	beq.n	8002bf2 <HAL_PCDEx_PMAConfig+0x1e>
  {
    ep = &hpcd->IN_ep[ep_addr & EP_ADDR_MSK];
 8002bda:	f001 0107 	and.w	r1, r1, #7
 8002bde:	eb01 0181 	add.w	r1, r1, r1, lsl #2
 8002be2:	00c9      	lsls	r1, r1, #3
 8002be4:	3110      	adds	r1, #16
 8002be6:	4408      	add	r0, r1
  {
    ep = &hpcd->OUT_ep[ep_addr];
  }

  /* Here we check if the endpoint is single or double Buffer*/
  if (ep_kind == PCD_SNG_BUF)
 8002be8:	b952      	cbnz	r2, 8002c00 <HAL_PCDEx_PMAConfig+0x2c>
  {
    /* Single Buffer */
    ep->doublebuffer = 0U;
 8002bea:	7302      	strb	r2, [r0, #12]
    /* Configure the PMA */
    ep->pmaadress = (uint16_t)pmaadress;
 8002bec:	80c3      	strh	r3, [r0, #6]
    ep->pmaaddr1 = (uint16_t)((pmaadress & 0xFFFF0000U) >> 16);
  }
#endif /* (USE_USB_DOUBLE_BUFFER == 1U) */

  return HAL_OK;
}
 8002bee:	2000      	movs	r0, #0
 8002bf0:	4770      	bx	lr
    ep = &hpcd->OUT_ep[ep_addr];
 8002bf2:	eb01 0181 	add.w	r1, r1, r1, lsl #2
 8002bf6:	00c9      	lsls	r1, r1, #3
 8002bf8:	f501 71a8 	add.w	r1, r1, #336	@ 0x150
 8002bfc:	4408      	add	r0, r1
 8002bfe:	e7f3      	b.n	8002be8 <HAL_PCDEx_PMAConfig+0x14>
    ep->doublebuffer = 1U;
 8002c00:	2201      	movs	r2, #1
 8002c02:	7302      	strb	r2, [r0, #12]
    ep->pmaaddr0 = (uint16_t)(pmaadress & 0xFFFFU);
 8002c04:	8103      	strh	r3, [r0, #8]
    ep->pmaaddr1 = (uint16_t)((pmaadress & 0xFFFF0000U) >> 16);
 8002c06:	0c1b      	lsrs	r3, r3, #16
 8002c08:	8143      	strh	r3, [r0, #10]
 8002c0a:	e7f0      	b.n	8002bee <HAL_PCDEx_PMAConfig+0x1a>

08002c0c <RCC_Delay>:
  * @brief  This function provides delay (in milliseconds) based on CPU cycles method.
  * @param  mdelay: specifies the delay time length, in milliseconds.
  * @retval None
  */
static void RCC_Delay(uint32_t mdelay)
{
 8002c0c:	b082      	sub	sp, #8
  __IO uint32_t Delay = mdelay * (SystemCoreClock / 8U / 1000U);
 8002c0e:	f240 0300 	movw	r3, #0
 8002c12:	f2c2 0300 	movt	r3, #8192	@ 0x2000
 8002c16:	681b      	ldr	r3, [r3, #0]
 8002c18:	f644 52d3 	movw	r2, #19923	@ 0x4dd3
 8002c1c:	f2c1 0262 	movt	r2, #4194	@ 0x1062
 8002c20:	fba2 2303 	umull	r2, r3, r2, r3
 8002c24:	0a5b      	lsrs	r3, r3, #9
 8002c26:	fb00 f303 	mul.w	r3, r0, r3
 8002c2a:	9301      	str	r3, [sp, #4]
  do
  {
    __NOP();
 8002c2c:	bf00      	nop
  }
  while (Delay --);
 8002c2e:	9b01      	ldr	r3, [sp, #4]
 8002c30:	1e5a      	subs	r2, r3, #1
 8002c32:	9201      	str	r2, [sp, #4]
 8002c34:	2b00      	cmp	r3, #0
 8002c36:	d1f9      	bne.n	8002c2c <RCC_Delay+0x20>
}
 8002c38:	b002      	add	sp, #8
 8002c3a:	4770      	bx	lr

08002c3c <HAL_RCC_OscConfig>:
  if (RCC_OscInitStruct == NULL)
 8002c3c:	2800      	cmp	r0, #0
 8002c3e:	f000 8268 	beq.w	8003112 <HAL_RCC_OscConfig+0x4d6>
{
 8002c42:	b570      	push	{r4, r5, r6, lr}
 8002c44:	b082      	sub	sp, #8
 8002c46:	4604      	mov	r4, r0
  if (((RCC_OscInitStruct->OscillatorType) & RCC_OSCILLATORTYPE_HSE) == RCC_OSCILLATORTYPE_HSE)
 8002c48:	6803      	ldr	r3, [r0, #0]
 8002c4a:	f013 0f01 	tst.w	r3, #1
 8002c4e:	d038      	beq.n	8002cc2 <HAL_RCC_OscConfig+0x86>
    if ((__HAL_RCC_GET_SYSCLK_SOURCE() == RCC_SYSCLKSOURCE_STATUS_HSE)
 8002c50:	f44f 5380 	mov.w	r3, #4096	@ 0x1000
 8002c54:	f2c4 0302 	movt	r3, #16386	@ 0x4002
 8002c58:	685b      	ldr	r3, [r3, #4]
 8002c5a:	f003 030c 	and.w	r3, r3, #12
 8002c5e:	2b04      	cmp	r3, #4
 8002c60:	d023      	beq.n	8002caa <HAL_RCC_OscConfig+0x6e>
        || ((__HAL_RCC_GET_SYSCLK_SOURCE() == RCC_SYSCLKSOURCE_STATUS_PLLCLK) && (__HAL_RCC_GET_PLL_OSCSOURCE() == RCC_PLLSOURCE_HSE)))
 8002c62:	f44f 5380 	mov.w	r3, #4096	@ 0x1000
 8002c66:	f2c4 0302 	movt	r3, #16386	@ 0x4002
 8002c6a:	685b      	ldr	r3, [r3, #4]
 8002c6c:	f003 030c 	and.w	r3, r3, #12
 8002c70:	2b08      	cmp	r3, #8
 8002c72:	d012      	beq.n	8002c9a <HAL_RCC_OscConfig+0x5e>
      __HAL_RCC_HSE_CONFIG(RCC_OscInitStruct->HSEState);
 8002c74:	6863      	ldr	r3, [r4, #4]
 8002c76:	f5b3 3f80 	cmp.w	r3, #65536	@ 0x10000
 8002c7a:	d054      	beq.n	8002d26 <HAL_RCC_OscConfig+0xea>
 8002c7c:	2b00      	cmp	r3, #0
 8002c7e:	d16e      	bne.n	8002d5e <HAL_RCC_OscConfig+0x122>
 8002c80:	f44f 5380 	mov.w	r3, #4096	@ 0x1000
 8002c84:	f2c4 0302 	movt	r3, #16386	@ 0x4002
 8002c88:	681a      	ldr	r2, [r3, #0]
 8002c8a:	f422 3280 	bic.w	r2, r2, #65536	@ 0x10000
 8002c8e:	601a      	str	r2, [r3, #0]
 8002c90:	681a      	ldr	r2, [r3, #0]
 8002c92:	f422 2280 	bic.w	r2, r2, #262144	@ 0x40000
 8002c96:	601a      	str	r2, [r3, #0]
 8002c98:	e04d      	b.n	8002d36 <HAL_RCC_OscConfig+0xfa>
        || ((__HAL_RCC_GET_SYSCLK_SOURCE() == RCC_SYSCLKSOURCE_STATUS_PLLCLK) && (__HAL_RCC_GET_PLL_OSCSOURCE() == RCC_PLLSOURCE_HSE)))
 8002c9a:	f44f 5380 	mov.w	r3, #4096	@ 0x1000
 8002c9e:	f2c4 0302 	movt	r3, #16386	@ 0x4002
 8002ca2:	685b      	ldr	r3, [r3, #4]
 8002ca4:	f413 3f80 	tst.w	r3, #65536	@ 0x10000
 8002ca8:	d0e4      	beq.n	8002c74 <HAL_RCC_OscConfig+0x38>
      if ((__HAL_RCC_GET_FLAG(RCC_FLAG_HSERDY) != RESET) && (RCC_OscInitStruct->HSEState == RCC_HSE_OFF))
 8002caa:	f44f 5380 	mov.w	r3, #4096	@ 0x1000
 8002cae:	f2c4 0302 	movt	r3, #16386	@ 0x4002
 8002cb2:	681b      	ldr	r3, [r3, #0]
 8002cb4:	f413 3f00 	tst.w	r3, #131072	@ 0x20000
 8002cb8:	d003      	beq.n	8002cc2 <HAL_RCC_OscConfig+0x86>
 8002cba:	6863      	ldr	r3, [r4, #4]
 8002cbc:	2b00      	cmp	r3, #0
 8002cbe:	f000 822a 	beq.w	8003116 <HAL_RCC_OscConfig+0x4da>
  if (((RCC_OscInitStruct->OscillatorType) & RCC_OSCILLATORTYPE_HSI) == RCC_OSCILLATORTYPE_HSI)
 8002cc2:	6823      	ldr	r3, [r4, #0]
 8002cc4:	f013 0f02 	tst.w	r3, #2
 8002cc8:	f000 8097 	beq.w	8002dfa <HAL_RCC_OscConfig+0x1be>
    if ((__HAL_RCC_GET_SYSCLK_SOURCE() == RCC_SYSCLKSOURCE_STATUS_HSI)
 8002ccc:	f44f 5380 	mov.w	r3, #4096	@ 0x1000
 8002cd0:	f2c4 0302 	movt	r3, #16386	@ 0x4002
 8002cd4:	685b      	ldr	r3, [r3, #4]
 8002cd6:	f013 0f0c 	tst.w	r3, #12
 8002cda:	d077      	beq.n	8002dcc <HAL_RCC_OscConfig+0x190>
        || ((__HAL_RCC_GET_SYSCLK_SOURCE() == RCC_SYSCLKSOURCE_STATUS_PLLCLK) && (__HAL_RCC_GET_PLL_OSCSOURCE() == RCC_PLLSOURCE_HSI_DIV2)))
 8002cdc:	f44f 5380 	mov.w	r3, #4096	@ 0x1000
 8002ce0:	f2c4 0302 	movt	r3, #16386	@ 0x4002
 8002ce4:	685b      	ldr	r3, [r3, #4]
 8002ce6:	f003 030c 	and.w	r3, r3, #12
 8002cea:	2b08      	cmp	r3, #8
 8002cec:	d066      	beq.n	8002dbc <HAL_RCC_OscConfig+0x180>
      if (RCC_OscInitStruct->HSIState != RCC_HSI_OFF)
 8002cee:	6923      	ldr	r3, [r4, #16]
 8002cf0:	2b00      	cmp	r3, #0
 8002cf2:	f000 80ad 	beq.w	8002e50 <HAL_RCC_OscConfig+0x214>
        __HAL_RCC_HSI_ENABLE();
 8002cf6:	2300      	movs	r3, #0
 8002cf8:	f2c4 2342 	movt	r3, #16962	@ 0x4242
 8002cfc:	2201      	movs	r2, #1
 8002cfe:	601a      	str	r2, [r3, #0]
        tickstart = HAL_GetTick();
 8002d00:	f7fe f96d 	bl	8000fde <HAL_GetTick>
 8002d04:	4605      	mov	r5, r0
        while (__HAL_RCC_GET_FLAG(RCC_FLAG_HSIRDY) == RESET)
 8002d06:	f44f 5380 	mov.w	r3, #4096	@ 0x1000
 8002d0a:	f2c4 0302 	movt	r3, #16386	@ 0x4002
 8002d0e:	681b      	ldr	r3, [r3, #0]
 8002d10:	f013 0f02 	tst.w	r3, #2
 8002d14:	f040 8090 	bne.w	8002e38 <HAL_RCC_OscConfig+0x1fc>
          if ((HAL_GetTick() - tickstart) > HSI_TIMEOUT_VALUE)
 8002d18:	f7fe f961 	bl	8000fde <HAL_GetTick>
 8002d1c:	1b40      	subs	r0, r0, r5
 8002d1e:	2802      	cmp	r0, #2
 8002d20:	d9f1      	bls.n	8002d06 <HAL_RCC_OscConfig+0xca>
            return HAL_TIMEOUT;
 8002d22:	2003      	movs	r0, #3
 8002d24:	e1fc      	b.n	8003120 <HAL_RCC_OscConfig+0x4e4>
      __HAL_RCC_HSE_CONFIG(RCC_OscInitStruct->HSEState);
 8002d26:	f44f 5380 	mov.w	r3, #4096	@ 0x1000
 8002d2a:	f2c4 0302 	movt	r3, #16386	@ 0x4002
 8002d2e:	681a      	ldr	r2, [r3, #0]
 8002d30:	f442 3280 	orr.w	r2, r2, #65536	@ 0x10000
 8002d34:	601a      	str	r2, [r3, #0]
      if (RCC_OscInitStruct->HSEState != RCC_HSE_OFF)
 8002d36:	6863      	ldr	r3, [r4, #4]
 8002d38:	b373      	cbz	r3, 8002d98 <HAL_RCC_OscConfig+0x15c>
        tickstart = HAL_GetTick();
 8002d3a:	f7fe f950 	bl	8000fde <HAL_GetTick>
 8002d3e:	4605      	mov	r5, r0
        while (__HAL_RCC_GET_FLAG(RCC_FLAG_HSERDY) == RESET)
 8002d40:	f44f 5380 	mov.w	r3, #4096	@ 0x1000
 8002d44:	f2c4 0302 	movt	r3, #16386	@ 0x4002
 8002d48:	681b      	ldr	r3, [r3, #0]
 8002d4a:	f413 3f00 	tst.w	r3, #131072	@ 0x20000
 8002d4e:	d1b8      	bne.n	8002cc2 <HAL_RCC_OscConfig+0x86>
          if ((HAL_GetTick() - tickstart) > HSE_TIMEOUT_VALUE)
 8002d50:	f7fe f945 	bl	8000fde <HAL_GetTick>
 8002d54:	1b40      	subs	r0, r0, r5
 8002d56:	2864      	cmp	r0, #100	@ 0x64
 8002d58:	d9f2      	bls.n	8002d40 <HAL_RCC_OscConfig+0x104>
            return HAL_TIMEOUT;
 8002d5a:	2003      	movs	r0, #3
 8002d5c:	e1e0      	b.n	8003120 <HAL_RCC_OscConfig+0x4e4>
      __HAL_RCC_HSE_CONFIG(RCC_OscInitStruct->HSEState);
 8002d5e:	f5b3 2fa0 	cmp.w	r3, #327680	@ 0x50000
 8002d62:	d00c      	beq.n	8002d7e <HAL_RCC_OscConfig+0x142>
 8002d64:	f44f 5380 	mov.w	r3, #4096	@ 0x1000
 8002d68:	f2c4 0302 	movt	r3, #16386	@ 0x4002
 8002d6c:	681a      	ldr	r2, [r3, #0]
 8002d6e:	f422 3280 	bic.w	r2, r2, #65536	@ 0x10000
 8002d72:	601a      	str	r2, [r3, #0]
 8002d74:	681a      	ldr	r2, [r3, #0]
 8002d76:	f422 2280 	bic.w	r2, r2, #262144	@ 0x40000
 8002d7a:	601a      	str	r2, [r3, #0]
 8002d7c:	e7db      	b.n	8002d36 <HAL_RCC_OscConfig+0xfa>
 8002d7e:	f44f 5380 	mov.w	r3, #4096	@ 0x1000
 8002d82:	f2c4 0302 	movt	r3, #16386	@ 0x4002
 8002d86:	681a      	ldr	r2, [r3, #0]
 8002d88:	f442 2280 	orr.w	r2, r2, #262144	@ 0x40000
 8002d8c:	601a      	str	r2, [r3, #0]
 8002d8e:	681a      	ldr	r2, [r3, #0]
 8002d90:	f442 3280 	orr.w	r2, r2, #65536	@ 0x10000
 8002d94:	601a      	str	r2, [r3, #0]
 8002d96:	e7ce      	b.n	8002d36 <HAL_RCC_OscConfig+0xfa>
        tickstart = HAL_GetTick();
 8002d98:	f7fe f921 	bl	8000fde <HAL_GetTick>
 8002d9c:	4605      	mov	r5, r0
        while (__HAL_RCC_GET_FLAG(RCC_FLAG_HSERDY) != RESET)
 8002d9e:	f44f 5380 	mov.w	r3, #4096	@ 0x1000
 8002da2:	f2c4 0302 	movt	r3, #16386	@ 0x4002
 8002da6:	681b      	ldr	r3, [r3, #0]
 8002da8:	f413 3f00 	tst.w	r3, #131072	@ 0x20000
 8002dac:	d089      	beq.n	8002cc2 <HAL_RCC_OscConfig+0x86>
          if ((HAL_GetTick() - tickstart) > HSE_TIMEOUT_VALUE)
 8002dae:	f7fe f916 	bl	8000fde <HAL_GetTick>
 8002db2:	1b40      	subs	r0, r0, r5
 8002db4:	2864      	cmp	r0, #100	@ 0x64
 8002db6:	d9f2      	bls.n	8002d9e <HAL_RCC_OscConfig+0x162>
            return HAL_TIMEOUT;
 8002db8:	2003      	movs	r0, #3
 8002dba:	e1b1      	b.n	8003120 <HAL_RCC_OscConfig+0x4e4>
        || ((__HAL_RCC_GET_SYSCLK_SOURCE() == RCC_SYSCLKSOURCE_STATUS_PLLCLK) && (__HAL_RCC_GET_PLL_OSCSOURCE() == RCC_PLLSOURCE_HSI_DIV2)))
 8002dbc:	f44f 5380 	mov.w	r3, #4096	@ 0x1000
 8002dc0:	f2c4 0302 	movt	r3, #16386	@ 0x4002
 8002dc4:	685b      	ldr	r3, [r3, #4]
 8002dc6:	f413 3f80 	tst.w	r3, #65536	@ 0x10000
 8002dca:	d190      	bne.n	8002cee <HAL_RCC_OscConfig+0xb2>
      if ((__HAL_RCC_GET_FLAG(RCC_FLAG_HSIRDY) != RESET) && (RCC_OscInitStruct->HSIState != RCC_HSI_ON))
 8002dcc:	f44f 5380 	mov.w	r3, #4096	@ 0x1000
 8002dd0:	f2c4 0302 	movt	r3, #16386	@ 0x4002
 8002dd4:	681b      	ldr	r3, [r3, #0]
 8002dd6:	f013 0f02 	tst.w	r3, #2
 8002dda:	d003      	beq.n	8002de4 <HAL_RCC_OscConfig+0x1a8>
 8002ddc:	6923      	ldr	r3, [r4, #16]
 8002dde:	2b01      	cmp	r3, #1
 8002de0:	f040 819b 	bne.w	800311a <HAL_RCC_OscConfig+0x4de>
        __HAL_RCC_HSI_CALIBRATIONVALUE_ADJUST(RCC_OscInitStruct->HSICalibrationValue);
 8002de4:	f44f 5280 	mov.w	r2, #4096	@ 0x1000
 8002de8:	f2c4 0202 	movt	r2, #16386	@ 0x4002
 8002dec:	6813      	ldr	r3, [r2, #0]
 8002dee:	f023 03f8 	bic.w	r3, r3, #248	@ 0xf8
 8002df2:	6961      	ldr	r1, [r4, #20]
 8002df4:	ea43 03c1 	orr.w	r3, r3, r1, lsl #3
 8002df8:	6013      	str	r3, [r2, #0]
  if (((RCC_OscInitStruct->OscillatorType) & RCC_OSCILLATORTYPE_LSI) == RCC_OSCILLATORTYPE_LSI)
 8002dfa:	6823      	ldr	r3, [r4, #0]
 8002dfc:	f013 0f08 	tst.w	r3, #8
 8002e00:	d040      	beq.n	8002e84 <HAL_RCC_OscConfig+0x248>
    if (RCC_OscInitStruct->LSIState != RCC_LSI_OFF)
 8002e02:	69a3      	ldr	r3, [r4, #24]
 8002e04:	2b00      	cmp	r3, #0
 8002e06:	d072      	beq.n	8002eee <HAL_RCC_OscConfig+0x2b2>
      __HAL_RCC_LSI_ENABLE();
 8002e08:	2300      	movs	r3, #0
 8002e0a:	f2c4 2342 	movt	r3, #16962	@ 0x4242
 8002e0e:	2201      	movs	r2, #1
 8002e10:	f8c3 2480 	str.w	r2, [r3, #1152]	@ 0x480
      tickstart = HAL_GetTick();
 8002e14:	f7fe f8e3 	bl	8000fde <HAL_GetTick>
 8002e18:	4605      	mov	r5, r0
      while (__HAL_RCC_GET_FLAG(RCC_FLAG_LSIRDY) == RESET)
 8002e1a:	f44f 5380 	mov.w	r3, #4096	@ 0x1000
 8002e1e:	f2c4 0302 	movt	r3, #16386	@ 0x4002
 8002e22:	6a5b      	ldr	r3, [r3, #36]	@ 0x24
 8002e24:	f013 0f02 	tst.w	r3, #2
 8002e28:	d129      	bne.n	8002e7e <HAL_RCC_OscConfig+0x242>
        if ((HAL_GetTick() - tickstart) > LSI_TIMEOUT_VALUE)
 8002e2a:	f7fe f8d8 	bl	8000fde <HAL_GetTick>
 8002e2e:	1b40      	subs	r0, r0, r5
 8002e30:	2802      	cmp	r0, #2
 8002e32:	d9f2      	bls.n	8002e1a <HAL_RCC_OscConfig+0x1de>
          return HAL_TIMEOUT;
 8002e34:	2003      	movs	r0, #3
 8002e36:	e173      	b.n	8003120 <HAL_RCC_OscConfig+0x4e4>
        __HAL_RCC_HSI_CALIBRATIONVALUE_ADJUST(RCC_OscInitStruct->HSICalibrationValue);
 8002e38:	f44f 5280 	mov.w	r2, #4096	@ 0x1000
 8002e3c:	f2c4 0202 	movt	r2, #16386	@ 0x4002
 8002e40:	6813      	ldr	r3, [r2, #0]
 8002e42:	f023 03f8 	bic.w	r3, r3, #248	@ 0xf8
 8002e46:	6961      	ldr	r1, [r4, #20]
 8002e48:	ea43 03c1 	orr.w	r3, r3, r1, lsl #3
 8002e4c:	6013      	str	r3, [r2, #0]
 8002e4e:	e7d4      	b.n	8002dfa <HAL_RCC_OscConfig+0x1be>
        __HAL_RCC_HSI_DISABLE();
 8002e50:	2300      	movs	r3, #0
 8002e52:	f2c4 2342 	movt	r3, #16962	@ 0x4242
 8002e56:	2200      	movs	r2, #0
 8002e58:	601a      	str	r2, [r3, #0]
        tickstart = HAL_GetTick();
 8002e5a:	f7fe f8c0 	bl	8000fde <HAL_GetTick>
 8002e5e:	4605      	mov	r5, r0
        while (__HAL_RCC_GET_FLAG(RCC_FLAG_HSIRDY) != RESET)
 8002e60:	f44f 5380 	mov.w	r3, #4096	@ 0x1000
 8002e64:	f2c4 0302 	movt	r3, #16386	@ 0x4002
 8002e68:	681b      	ldr	r3, [r3, #0]
 8002e6a:	f013 0f02 	tst.w	r3, #2
 8002e6e:	d0c4      	beq.n	8002dfa <HAL_RCC_OscConfig+0x1be>
          if ((HAL_GetTick() - tickstart) > HSI_TIMEOUT_VALUE)
 8002e70:	f7fe f8b5 	bl	8000fde <HAL_GetTick>
 8002e74:	1b40      	subs	r0, r0, r5
 8002e76:	2802      	cmp	r0, #2
 8002e78:	d9f2      	bls.n	8002e60 <HAL_RCC_OscConfig+0x224>
            return HAL_TIMEOUT;
 8002e7a:	2003      	movs	r0, #3
 8002e7c:	e150      	b.n	8003120 <HAL_RCC_OscConfig+0x4e4>
      RCC_Delay(1);
 8002e7e:	2001      	movs	r0, #1
 8002e80:	f7ff fec4 	bl	8002c0c <RCC_Delay>
  if (((RCC_OscInitStruct->OscillatorType) & RCC_OSCILLATORTYPE_LSE) == RCC_OSCILLATORTYPE_LSE)
 8002e84:	6823      	ldr	r3, [r4, #0]
 8002e86:	f013 0f04 	tst.w	r3, #4
 8002e8a:	f000 80b3 	beq.w	8002ff4 <HAL_RCC_OscConfig+0x3b8>
    if (__HAL_RCC_PWR_IS_CLK_DISABLED())
 8002e8e:	f44f 5380 	mov.w	r3, #4096	@ 0x1000
 8002e92:	f2c4 0302 	movt	r3, #16386	@ 0x4002
 8002e96:	69db      	ldr	r3, [r3, #28]
 8002e98:	f013 5f80 	tst.w	r3, #268435456	@ 0x10000000
 8002e9c:	d13f      	bne.n	8002f1e <HAL_RCC_OscConfig+0x2e2>
      __HAL_RCC_PWR_CLK_ENABLE();
 8002e9e:	f44f 5380 	mov.w	r3, #4096	@ 0x1000
 8002ea2:	f2c4 0302 	movt	r3, #16386	@ 0x4002
 8002ea6:	69da      	ldr	r2, [r3, #28]
 8002ea8:	f042 5280 	orr.w	r2, r2, #268435456	@ 0x10000000
 8002eac:	61da      	str	r2, [r3, #28]
 8002eae:	69db      	ldr	r3, [r3, #28]
 8002eb0:	f003 5380 	and.w	r3, r3, #268435456	@ 0x10000000
 8002eb4:	9301      	str	r3, [sp, #4]
 8002eb6:	9b01      	ldr	r3, [sp, #4]
      pwrclkchanged = SET;
 8002eb8:	2501      	movs	r5, #1
    if (HAL_IS_BIT_CLR(PWR->CR, PWR_CR_DBP))
 8002eba:	f44f 43e0 	mov.w	r3, #28672	@ 0x7000
 8002ebe:	f2c4 0300 	movt	r3, #16384	@ 0x4000
 8002ec2:	681b      	ldr	r3, [r3, #0]
 8002ec4:	f413 7f80 	tst.w	r3, #256	@ 0x100
 8002ec8:	d02b      	beq.n	8002f22 <HAL_RCC_OscConfig+0x2e6>
    __HAL_RCC_LSE_CONFIG(RCC_OscInitStruct->LSEState);
 8002eca:	68e3      	ldr	r3, [r4, #12]
 8002ecc:	2b01      	cmp	r3, #1
 8002ece:	d042      	beq.n	8002f56 <HAL_RCC_OscConfig+0x31a>
 8002ed0:	2b00      	cmp	r3, #0
 8002ed2:	d15e      	bne.n	8002f92 <HAL_RCC_OscConfig+0x356>
 8002ed4:	f44f 5380 	mov.w	r3, #4096	@ 0x1000
 8002ed8:	f2c4 0302 	movt	r3, #16386	@ 0x4002
 8002edc:	6a1a      	ldr	r2, [r3, #32]
 8002ede:	f022 0201 	bic.w	r2, r2, #1
 8002ee2:	621a      	str	r2, [r3, #32]
 8002ee4:	6a1a      	ldr	r2, [r3, #32]
 8002ee6:	f022 0204 	bic.w	r2, r2, #4
 8002eea:	621a      	str	r2, [r3, #32]
 8002eec:	e03b      	b.n	8002f66 <HAL_RCC_OscConfig+0x32a>
      __HAL_RCC_LSI_DISABLE();
 8002eee:	2300      	movs	r3, #0
 8002ef0:	f2c4 2342 	movt	r3, #16962	@ 0x4242
 8002ef4:	2200      	movs	r2, #0
 8002ef6:	f8c3 2480 	str.w	r2, [r3, #1152]	@ 0x480
      tickstart = HAL_GetTick();
 8002efa:	f7fe f870 	bl	8000fde <HAL_GetTick>
 8002efe:	4605      	mov	r5, r0
      while (__HAL_RCC_GET_FLAG(RCC_FLAG_LSIRDY) != RESET)
 8002f00:	f44f 5380 	mov.w	r3, #4096	@ 0x1000
 8002f04:	f2c4 0302 	movt	r3, #16386	@ 0x4002
 8002f08:	6a5b      	ldr	r3, [r3, #36]	@ 0x24
 8002f0a:	f013 0f02 	tst.w	r3, #2
 8002f0e:	d0b9      	beq.n	8002e84 <HAL_RCC_OscConfig+0x248>
        if ((HAL_GetTick() - tickstart) > LSI_TIMEOUT_VALUE)
 8002f10:	f7fe f865 	bl	8000fde <HAL_GetTick>
 8002f14:	1b40      	subs	r0, r0, r5
 8002f16:	2802      	cmp	r0, #2
 8002f18:	d9f2      	bls.n	8002f00 <HAL_RCC_OscConfig+0x2c4>
          return HAL_TIMEOUT;
 8002f1a:	2003      	movs	r0, #3
 8002f1c:	e100      	b.n	8003120 <HAL_RCC_OscConfig+0x4e4>
    FlagStatus       pwrclkchanged = RESET;
 8002f1e:	2500      	movs	r5, #0
 8002f20:	e7cb      	b.n	8002eba <HAL_RCC_OscConfig+0x27e>
      SET_BIT(PWR->CR, PWR_CR_DBP);
 8002f22:	f44f 43e0 	mov.w	r3, #28672	@ 0x7000
 8002f26:	f2c4 0300 	movt	r3, #16384	@ 0x4000
 8002f2a:	681a      	ldr	r2, [r3, #0]
 8002f2c:	f442 7280 	orr.w	r2, r2, #256	@ 0x100
 8002f30:	601a      	str	r2, [r3, #0]
      tickstart = HAL_GetTick();
 8002f32:	f7fe f854 	bl	8000fde <HAL_GetTick>
 8002f36:	4606      	mov	r6, r0
      while (HAL_IS_BIT_CLR(PWR->CR, PWR_CR_DBP))
 8002f38:	f44f 43e0 	mov.w	r3, #28672	@ 0x7000
 8002f3c:	f2c4 0300 	movt	r3, #16384	@ 0x4000
 8002f40:	681b      	ldr	r3, [r3, #0]
 8002f42:	f413 7f80 	tst.w	r3, #256	@ 0x100
 8002f46:	d1c0      	bne.n	8002eca <HAL_RCC_OscConfig+0x28e>
        if ((HAL_GetTick() - tickstart) > RCC_DBP_TIMEOUT_VALUE)
 8002f48:	f7fe f849 	bl	8000fde <HAL_GetTick>
 8002f4c:	1b80      	subs	r0, r0, r6
 8002f4e:	2864      	cmp	r0, #100	@ 0x64
 8002f50:	d9f2      	bls.n	8002f38 <HAL_RCC_OscConfig+0x2fc>
          return HAL_TIMEOUT;
 8002f52:	2003      	movs	r0, #3
 8002f54:	e0e4      	b.n	8003120 <HAL_RCC_OscConfig+0x4e4>
    __HAL_RCC_LSE_CONFIG(RCC_OscInitStruct->LSEState);
 8002f56:	f44f 5380 	mov.w	r3, #4096	@ 0x1000
 8002f5a:	f2c4 0302 	movt	r3, #16386	@ 0x4002
 8002f5e:	6a1a      	ldr	r2, [r3, #32]
 8002f60:	f042 0201 	orr.w	r2, r2, #1
 8002f64:	621a      	str	r2, [r3, #32]
    if (RCC_OscInitStruct->LSEState != RCC_LSE_OFF)
 8002f66:	68e3      	ldr	r3, [r4, #12]
 8002f68:	b37b      	cbz	r3, 8002fca <HAL_RCC_OscConfig+0x38e>
      tickstart = HAL_GetTick();
 8002f6a:	f7fe f838 	bl	8000fde <HAL_GetTick>
 8002f6e:	4606      	mov	r6, r0
      while (__HAL_RCC_GET_FLAG(RCC_FLAG_LSERDY) == RESET)
 8002f70:	f44f 5380 	mov.w	r3, #4096	@ 0x1000
 8002f74:	f2c4 0302 	movt	r3, #16386	@ 0x4002
 8002f78:	6a1b      	ldr	r3, [r3, #32]
 8002f7a:	f013 0f02 	tst.w	r3, #2
 8002f7e:	d138      	bne.n	8002ff2 <HAL_RCC_OscConfig+0x3b6>
        if ((HAL_GetTick() - tickstart) > RCC_LSE_TIMEOUT_VALUE)
 8002f80:	f7fe f82d 	bl	8000fde <HAL_GetTick>
 8002f84:	1b80      	subs	r0, r0, r6
 8002f86:	f241 3388 	movw	r3, #5000	@ 0x1388
 8002f8a:	4298      	cmp	r0, r3
 8002f8c:	d9f0      	bls.n	8002f70 <HAL_RCC_OscConfig+0x334>
          return HAL_TIMEOUT;
 8002f8e:	2003      	movs	r0, #3
 8002f90:	e0c6      	b.n	8003120 <HAL_RCC_OscConfig+0x4e4>
    __HAL_RCC_LSE_CONFIG(RCC_OscInitStruct->LSEState);
 8002f92:	2b05      	cmp	r3, #5
 8002f94:	d00c      	beq.n	8002fb0 <HAL_RCC_OscConfig+0x374>
 8002f96:	f44f 5380 	mov.w	r3, #4096	@ 0x1000
 8002f9a:	f2c4 0302 	movt	r3, #16386	@ 0x4002
 8002f9e:	6a1a      	ldr	r2, [r3, #32]
 8002fa0:	f022 0201 	bic.w	r2, r2, #1
 8002fa4:	621a      	str	r2, [r3, #32]
 8002fa6:	6a1a      	ldr	r2, [r3, #32]
 8002fa8:	f022 0204 	bic.w	r2, r2, #4
 8002fac:	621a      	str	r2, [r3, #32]
 8002fae:	e7da      	b.n	8002f66 <HAL_RCC_OscConfig+0x32a>
 8002fb0:	f44f 5380 	mov.w	r3, #4096	@ 0x1000
 8002fb4:	f2c4 0302 	movt	r3, #16386	@ 0x4002
 8002fb8:	6a1a      	ldr	r2, [r3, #32]
 8002fba:	f042 0204 	orr.w	r2, r2, #4
 8002fbe:	621a      	str	r2, [r3, #32]
 8002fc0:	6a1a      	ldr	r2, [r3, #32]
 8002fc2:	f042 0201 	orr.w	r2, r2, #1
 8002fc6:	621a      	str	r2, [r3, #32]
 8002fc8:	e7cd      	b.n	8002f66 <HAL_RCC_OscConfig+0x32a>
      tickstart = HAL_GetTick();
 8002fca:	f7fe f808 	bl	8000fde <HAL_GetTick>
 8002fce:	4606      	mov	r6, r0
      while (__HAL_RCC_GET_FLAG(RCC_FLAG_LSERDY) != RESET)
 8002fd0:	f44f 5380 	mov.w	r3, #4096	@ 0x1000
 8002fd4:	f2c4 0302 	movt	r3, #16386	@ 0x4002
 8002fd8:	6a1b      	ldr	r3, [r3, #32]
 8002fda:	f013 0f02 	tst.w	r3, #2
 8002fde:	d008      	beq.n	8002ff2 <HAL_RCC_OscConfig+0x3b6>
        if ((HAL_GetTick() - tickstart) > RCC_LSE_TIMEOUT_VALUE)
 8002fe0:	f7fd fffd 	bl	8000fde <HAL_GetTick>
 8002fe4:	1b80      	subs	r0, r0, r6
 8002fe6:	f241 3388 	movw	r3, #5000	@ 0x1388
 8002fea:	4298      	cmp	r0, r3
 8002fec:	d9f0      	bls.n	8002fd0 <HAL_RCC_OscConfig+0x394>
          return HAL_TIMEOUT;
 8002fee:	2003      	movs	r0, #3
 8002ff0:	e096      	b.n	8003120 <HAL_RCC_OscConfig+0x4e4>
    if (pwrclkchanged == SET)
 8002ff2:	bb2d      	cbnz	r5, 8003040 <HAL_RCC_OscConfig+0x404>
  if ((RCC_OscInitStruct->PLL.PLLState) != RCC_PLL_NONE)
 8002ff4:	69e3      	ldr	r3, [r4, #28]
 8002ff6:	2b00      	cmp	r3, #0
 8002ff8:	f000 8091 	beq.w	800311e <HAL_RCC_OscConfig+0x4e2>
    if (__HAL_RCC_GET_SYSCLK_SOURCE() != RCC_SYSCLKSOURCE_STATUS_PLLCLK)
 8002ffc:	f44f 5280 	mov.w	r2, #4096	@ 0x1000
 8003000:	f2c4 0202 	movt	r2, #16386	@ 0x4002
 8003004:	6852      	ldr	r2, [r2, #4]
 8003006:	f002 020c 	and.w	r2, r2, #12
 800300a:	2a08      	cmp	r2, #8
 800300c:	d06e      	beq.n	80030ec <HAL_RCC_OscConfig+0x4b0>
      if ((RCC_OscInitStruct->PLL.PLLState) == RCC_PLL_ON)
 800300e:	2b02      	cmp	r3, #2
 8003010:	d01f      	beq.n	8003052 <HAL_RCC_OscConfig+0x416>
        __HAL_RCC_PLL_DISABLE();
 8003012:	2300      	movs	r3, #0
 8003014:	f2c4 2342 	movt	r3, #16962	@ 0x4242
 8003018:	2200      	movs	r2, #0
 800301a:	661a      	str	r2, [r3, #96]	@ 0x60
        tickstart = HAL_GetTick();
 800301c:	f7fd ffdf 	bl	8000fde <HAL_GetTick>
 8003020:	4604      	mov	r4, r0
        while (__HAL_RCC_GET_FLAG(RCC_FLAG_PLLRDY)  != RESET)
 8003022:	f44f 5380 	mov.w	r3, #4096	@ 0x1000
 8003026:	f2c4 0302 	movt	r3, #16386	@ 0x4002
 800302a:	681b      	ldr	r3, [r3, #0]
 800302c:	f013 7f00 	tst.w	r3, #33554432	@ 0x2000000
 8003030:	d05a      	beq.n	80030e8 <HAL_RCC_OscConfig+0x4ac>
          if ((HAL_GetTick() - tickstart) > PLL_TIMEOUT_VALUE)
 8003032:	f7fd ffd4 	bl	8000fde <HAL_GetTick>
 8003036:	1b00      	subs	r0, r0, r4
 8003038:	2802      	cmp	r0, #2
 800303a:	d9f2      	bls.n	8003022 <HAL_RCC_OscConfig+0x3e6>
            return HAL_TIMEOUT;
 800303c:	2003      	movs	r0, #3
 800303e:	e06f      	b.n	8003120 <HAL_RCC_OscConfig+0x4e4>
      __HAL_RCC_PWR_CLK_DISABLE();
 8003040:	f44f 5380 	mov.w	r3, #4096	@ 0x1000
 8003044:	f2c4 0302 	movt	r3, #16386	@ 0x4002
 8003048:	69da      	ldr	r2, [r3, #28]
 800304a:	f022 5280 	bic.w	r2, r2, #268435456	@ 0x10000000
 800304e:	61da      	str	r2, [r3, #28]
 8003050:	e7d0      	b.n	8002ff4 <HAL_RCC_OscConfig+0x3b8>
        __HAL_RCC_PLL_DISABLE();
 8003052:	2300      	movs	r3, #0
 8003054:	f2c4 2342 	movt	r3, #16962	@ 0x4242
 8003058:	2200      	movs	r2, #0
 800305a:	661a      	str	r2, [r3, #96]	@ 0x60
        tickstart = HAL_GetTick();
 800305c:	f7fd ffbf 	bl	8000fde <HAL_GetTick>
 8003060:	4605      	mov	r5, r0
        while (__HAL_RCC_GET_FLAG(RCC_FLAG_PLLRDY)  != RESET)
 8003062:	f44f 5380 	mov.w	r3, #4096	@ 0x1000
 8003066:	f2c4 0302 	movt	r3, #16386	@ 0x4002
 800306a:	681b      	ldr	r3, [r3, #0]
 800306c:	f013 7f00 	tst.w	r3, #33554432	@ 0x2000000
 8003070:	d006      	beq.n	8003080 <HAL_RCC_OscConfig+0x444>
          if ((HAL_GetTick() - tickstart) > PLL_TIMEOUT_VALUE)
 8003072:	f7fd ffb4 	bl	8000fde <HAL_GetTick>
 8003076:	1b40      	subs	r0, r0, r5
 8003078:	2802      	cmp	r0, #2
 800307a:	d9f2      	bls.n	8003062 <HAL_RCC_OscConfig+0x426>
            return HAL_TIMEOUT;
 800307c:	2003      	movs	r0, #3
 800307e:	e04f      	b.n	8003120 <HAL_RCC_OscConfig+0x4e4>
        if (RCC_OscInitStruct->PLL.PLLSource == RCC_PLLSOURCE_HSE)
 8003080:	6a23      	ldr	r3, [r4, #32]
 8003082:	f5b3 3f80 	cmp.w	r3, #65536	@ 0x10000
 8003086:	d022      	beq.n	80030ce <HAL_RCC_OscConfig+0x492>
        __HAL_RCC_PLL_CONFIG(RCC_OscInitStruct->PLL.PLLSource,
 8003088:	f44f 5280 	mov.w	r2, #4096	@ 0x1000
 800308c:	f2c4 0202 	movt	r2, #16386	@ 0x4002
 8003090:	6853      	ldr	r3, [r2, #4]
 8003092:	f423 1374 	bic.w	r3, r3, #3997696	@ 0x3d0000
 8003096:	6a21      	ldr	r1, [r4, #32]
 8003098:	6a60      	ldr	r0, [r4, #36]	@ 0x24
 800309a:	4301      	orrs	r1, r0
 800309c:	430b      	orrs	r3, r1
 800309e:	6053      	str	r3, [r2, #4]
        __HAL_RCC_PLL_ENABLE();
 80030a0:	2300      	movs	r3, #0
 80030a2:	f2c4 2342 	movt	r3, #16962	@ 0x4242
 80030a6:	2201      	movs	r2, #1
 80030a8:	661a      	str	r2, [r3, #96]	@ 0x60
        tickstart = HAL_GetTick();
 80030aa:	f7fd ff98 	bl	8000fde <HAL_GetTick>
 80030ae:	4604      	mov	r4, r0
        while (__HAL_RCC_GET_FLAG(RCC_FLAG_PLLRDY)  == RESET)
 80030b0:	f44f 5380 	mov.w	r3, #4096	@ 0x1000
 80030b4:	f2c4 0302 	movt	r3, #16386	@ 0x4002
 80030b8:	681b      	ldr	r3, [r3, #0]
 80030ba:	f013 7f00 	tst.w	r3, #33554432	@ 0x2000000
 80030be:	d111      	bne.n	80030e4 <HAL_RCC_OscConfig+0x4a8>
          if ((HAL_GetTick() - tickstart) > PLL_TIMEOUT_VALUE)
 80030c0:	f7fd ff8d 	bl	8000fde <HAL_GetTick>
 80030c4:	1b00      	subs	r0, r0, r4
 80030c6:	2802      	cmp	r0, #2
 80030c8:	d9f2      	bls.n	80030b0 <HAL_RCC_OscConfig+0x474>
            return HAL_TIMEOUT;
 80030ca:	2003      	movs	r0, #3
 80030cc:	e028      	b.n	8003120 <HAL_RCC_OscConfig+0x4e4>
          __HAL_RCC_HSE_PREDIV_CONFIG(RCC_OscInitStruct->HSEPredivValue);
 80030ce:	f44f 5280 	mov.w	r2, #4096	@ 0x1000
 80030d2:	f2c4 0202 	movt	r2, #16386	@ 0x4002
 80030d6:	6853      	ldr	r3, [r2, #4]
 80030d8:	f423 3300 	bic.w	r3, r3, #131072	@ 0x20000
 80030dc:	68a1      	ldr	r1, [r4, #8]
 80030de:	430b      	orrs	r3, r1
 80030e0:	6053      	str	r3, [r2, #4]
 80030e2:	e7d1      	b.n	8003088 <HAL_RCC_OscConfig+0x44c>
  return HAL_OK;
 80030e4:	2000      	movs	r0, #0
 80030e6:	e01b      	b.n	8003120 <HAL_RCC_OscConfig+0x4e4>
 80030e8:	2000      	movs	r0, #0
 80030ea:	e019      	b.n	8003120 <HAL_RCC_OscConfig+0x4e4>
      if ((RCC_OscInitStruct->PLL.PLLState) == RCC_PLL_OFF)
 80030ec:	2b01      	cmp	r3, #1
 80030ee:	d019      	beq.n	8003124 <HAL_RCC_OscConfig+0x4e8>
        pll_config = RCC->CFGR;
 80030f0:	f44f 5380 	mov.w	r3, #4096	@ 0x1000
 80030f4:	f2c4 0302 	movt	r3, #16386	@ 0x4002
 80030f8:	685b      	ldr	r3, [r3, #4]
        if ((READ_BIT(pll_config, RCC_CFGR_PLLSRC) != RCC_OscInitStruct->PLL.PLLSource) ||
 80030fa:	f403 3180 	and.w	r1, r3, #65536	@ 0x10000
 80030fe:	6a22      	ldr	r2, [r4, #32]
 8003100:	4291      	cmp	r1, r2
 8003102:	d111      	bne.n	8003128 <HAL_RCC_OscConfig+0x4ec>
            (READ_BIT(pll_config, RCC_CFGR_PLLMULL) != RCC_OscInitStruct->PLL.PLLMUL))
 8003104:	f403 1370 	and.w	r3, r3, #3932160	@ 0x3c0000
 8003108:	6a62      	ldr	r2, [r4, #36]	@ 0x24
        if ((READ_BIT(pll_config, RCC_CFGR_PLLSRC) != RCC_OscInitStruct->PLL.PLLSource) ||
 800310a:	4293      	cmp	r3, r2
 800310c:	d10e      	bne.n	800312c <HAL_RCC_OscConfig+0x4f0>
  return HAL_OK;
 800310e:	2000      	movs	r0, #0
 8003110:	e006      	b.n	8003120 <HAL_RCC_OscConfig+0x4e4>
    return HAL_ERROR;
 8003112:	2001      	movs	r0, #1
}
 8003114:	4770      	bx	lr
        return HAL_ERROR;
 8003116:	2001      	movs	r0, #1
 8003118:	e002      	b.n	8003120 <HAL_RCC_OscConfig+0x4e4>
        return HAL_ERROR;
 800311a:	2001      	movs	r0, #1
 800311c:	e000      	b.n	8003120 <HAL_RCC_OscConfig+0x4e4>
  return HAL_OK;
 800311e:	2000      	movs	r0, #0
}
 8003120:	b002      	add	sp, #8
 8003122:	bd70      	pop	{r4, r5, r6, pc}
        return HAL_ERROR;
 8003124:	2001      	movs	r0, #1
 8003126:	e7fb      	b.n	8003120 <HAL_RCC_OscConfig+0x4e4>
          return HAL_ERROR;
 8003128:	2001      	movs	r0, #1
 800312a:	e7f9      	b.n	8003120 <HAL_RCC_OscConfig+0x4e4>
 800312c:	2001      	movs	r0, #1
 800312e:	e7f7      	b.n	8003120 <HAL_RCC_OscConfig+0x4e4>

08003130 <HAL_RCC_GetSysClockFreq>:
  tmpreg = RCC->CFGR;
 8003130:	f44f 5380 	mov.w	r3, #4096	@ 0x1000
 8003134:	f2c4 0302 	movt	r3, #16386	@ 0x4002
 8003138:	685b      	ldr	r3, [r3, #4]
  switch (tmpreg & RCC_CFGR_SWS)
 800313a:	f003 020c 	and.w	r2, r3, #12
 800313e:	2a08      	cmp	r2, #8
 8003140:	d004      	beq.n	800314c <HAL_RCC_GetSysClockFreq+0x1c>
      sysclockfreq = HSE_VALUE;
 8003142:	f44f 5090 	mov.w	r0, #4608	@ 0x1200
 8003146:	f2c0 007a 	movt	r0, #122	@ 0x7a
}
 800314a:	4770      	bx	lr
      pllmul = aPLLMULFactorTable[(uint32_t)(tmpreg & RCC_CFGR_PLLMULL) >> RCC_CFGR_PLLMULL_Pos];
 800314c:	f3c3 4183 	ubfx	r1, r3, #18, #4
 8003150:	f648 12a0 	movw	r2, #35232	@ 0x89a0
 8003154:	f6c0 0200 	movt	r2, #2048	@ 0x800
 8003158:	5c50      	ldrb	r0, [r2, r1]
      if ((tmpreg & RCC_CFGR_PLLSRC) != RCC_PLLSOURCE_HSI_DIV2)
 800315a:	f413 3f80 	tst.w	r3, #65536	@ 0x10000
 800315e:	d014      	beq.n	800318a <HAL_RCC_GetSysClockFreq+0x5a>
        prediv = aPredivFactorTable[(uint32_t)(RCC->CFGR & RCC_CFGR_PLLXTPRE) >> RCC_CFGR_PLLXTPRE_Pos];
 8003160:	f44f 5380 	mov.w	r3, #4096	@ 0x1000
 8003164:	f2c4 0302 	movt	r3, #16386	@ 0x4002
 8003168:	685b      	ldr	r3, [r3, #4]
 800316a:	f3c3 4340 	ubfx	r3, r3, #17, #1
 800316e:	f648 129c 	movw	r2, #35228	@ 0x899c
 8003172:	f6c0 0200 	movt	r2, #2048	@ 0x800
 8003176:	5cd2      	ldrb	r2, [r2, r3]
        pllclk = (uint32_t)((HSE_VALUE  * pllmul) / prediv);
 8003178:	f44f 5390 	mov.w	r3, #4608	@ 0x1200
 800317c:	f2c0 037a 	movt	r3, #122	@ 0x7a
 8003180:	fb03 f000 	mul.w	r0, r3, r0
 8003184:	fbb0 f0f2 	udiv	r0, r0, r2
 8003188:	4770      	bx	lr
        pllclk = (uint32_t)((HSI_VALUE >> 1) * pllmul);
 800318a:	f44f 6310 	mov.w	r3, #2304	@ 0x900
 800318e:	f2c0 033d 	movt	r3, #61	@ 0x3d
 8003192:	fb03 f000 	mul.w	r0, r3, r0
 8003196:	4770      	bx	lr

08003198 <HAL_RCC_ClockConfig>:
  if (RCC_ClkInitStruct == NULL)
 8003198:	2800      	cmp	r0, #0
 800319a:	f000 80d7 	beq.w	800334c <HAL_RCC_ClockConfig+0x1b4>
{
 800319e:	b570      	push	{r4, r5, r6, lr}
 80031a0:	460d      	mov	r5, r1
 80031a2:	4604      	mov	r4, r0
  if (FLatency > __HAL_FLASH_GET_LATENCY())
 80031a4:	f44f 5300 	mov.w	r3, #8192	@ 0x2000
 80031a8:	f2c4 0302 	movt	r3, #16386	@ 0x4002
 80031ac:	681b      	ldr	r3, [r3, #0]
 80031ae:	f003 0307 	and.w	r3, r3, #7
 80031b2:	428b      	cmp	r3, r1
 80031b4:	d20e      	bcs.n	80031d4 <HAL_RCC_ClockConfig+0x3c>
    __HAL_FLASH_SET_LATENCY(FLatency);
 80031b6:	f44f 5200 	mov.w	r2, #8192	@ 0x2000
 80031ba:	f2c4 0202 	movt	r2, #16386	@ 0x4002
 80031be:	6813      	ldr	r3, [r2, #0]
 80031c0:	f023 0307 	bic.w	r3, r3, #7
 80031c4:	430b      	orrs	r3, r1
 80031c6:	6013      	str	r3, [r2, #0]
    if (__HAL_FLASH_GET_LATENCY() != FLatency)
 80031c8:	6813      	ldr	r3, [r2, #0]
 80031ca:	f003 0307 	and.w	r3, r3, #7
 80031ce:	428b      	cmp	r3, r1
 80031d0:	f040 80be 	bne.w	8003350 <HAL_RCC_ClockConfig+0x1b8>
if (((RCC_ClkInitStruct->ClockType) & RCC_CLOCKTYPE_HCLK) == RCC_CLOCKTYPE_HCLK)
 80031d4:	6823      	ldr	r3, [r4, #0]
 80031d6:	f013 0f02 	tst.w	r3, #2
 80031da:	d020      	beq.n	800321e <HAL_RCC_ClockConfig+0x86>
    if (((RCC_ClkInitStruct->ClockType) & RCC_CLOCKTYPE_PCLK1) == RCC_CLOCKTYPE_PCLK1)
 80031dc:	f013 0f04 	tst.w	r3, #4
 80031e0:	d007      	beq.n	80031f2 <HAL_RCC_ClockConfig+0x5a>
      MODIFY_REG(RCC->CFGR, RCC_CFGR_PPRE1, RCC_HCLK_DIV16);
 80031e2:	f44f 5380 	mov.w	r3, #4096	@ 0x1000
 80031e6:	f2c4 0302 	movt	r3, #16386	@ 0x4002
 80031ea:	685a      	ldr	r2, [r3, #4]
 80031ec:	f442 62e0 	orr.w	r2, r2, #1792	@ 0x700
 80031f0:	605a      	str	r2, [r3, #4]
    if (((RCC_ClkInitStruct->ClockType) & RCC_CLOCKTYPE_PCLK2) == RCC_CLOCKTYPE_PCLK2)
 80031f2:	6823      	ldr	r3, [r4, #0]
 80031f4:	f013 0f08 	tst.w	r3, #8
 80031f8:	d007      	beq.n	800320a <HAL_RCC_ClockConfig+0x72>
      MODIFY_REG(RCC->CFGR, RCC_CFGR_PPRE2, (RCC_HCLK_DIV16 << 3));
 80031fa:	f44f 5380 	mov.w	r3, #4096	@ 0x1000
 80031fe:	f2c4 0302 	movt	r3, #16386	@ 0x4002
 8003202:	685a      	ldr	r2, [r3, #4]
 8003204:	f442 5260 	orr.w	r2, r2, #14336	@ 0x3800
 8003208:	605a      	str	r2, [r3, #4]
    MODIFY_REG(RCC->CFGR, RCC_CFGR_HPRE, RCC_ClkInitStruct->AHBCLKDivider);
 800320a:	f44f 5280 	mov.w	r2, #4096	@ 0x1000
 800320e:	f2c4 0202 	movt	r2, #16386	@ 0x4002
 8003212:	6853      	ldr	r3, [r2, #4]
 8003214:	f023 03f0 	bic.w	r3, r3, #240	@ 0xf0
 8003218:	68a1      	ldr	r1, [r4, #8]
 800321a:	430b      	orrs	r3, r1
 800321c:	6053      	str	r3, [r2, #4]
  if (((RCC_ClkInitStruct->ClockType) & RCC_CLOCKTYPE_SYSCLK) == RCC_CLOCKTYPE_SYSCLK)
 800321e:	6823      	ldr	r3, [r4, #0]
 8003220:	f013 0f01 	tst.w	r3, #1
 8003224:	d041      	beq.n	80032aa <HAL_RCC_ClockConfig+0x112>
    if (RCC_ClkInitStruct->SYSCLKSource == RCC_SYSCLKSOURCE_HSE)
 8003226:	6863      	ldr	r3, [r4, #4]
 8003228:	2b01      	cmp	r3, #1
 800322a:	d02a      	beq.n	8003282 <HAL_RCC_ClockConfig+0xea>
    else if (RCC_ClkInitStruct->SYSCLKSource == RCC_SYSCLKSOURCE_PLLCLK)
 800322c:	2b02      	cmp	r3, #2
 800322e:	d032      	beq.n	8003296 <HAL_RCC_ClockConfig+0xfe>
      if (__HAL_RCC_GET_FLAG(RCC_FLAG_HSIRDY) == RESET)
 8003230:	f44f 5280 	mov.w	r2, #4096	@ 0x1000
 8003234:	f2c4 0202 	movt	r2, #16386	@ 0x4002
 8003238:	6812      	ldr	r2, [r2, #0]
 800323a:	f012 0f02 	tst.w	r2, #2
 800323e:	f000 8089 	beq.w	8003354 <HAL_RCC_ClockConfig+0x1bc>
    __HAL_RCC_SYSCLK_CONFIG(RCC_ClkInitStruct->SYSCLKSource);
 8003242:	f44f 5280 	mov.w	r2, #4096	@ 0x1000
 8003246:	f2c4 0202 	movt	r2, #16386	@ 0x4002
 800324a:	6851      	ldr	r1, [r2, #4]
 800324c:	f021 0103 	bic.w	r1, r1, #3
 8003250:	430b      	orrs	r3, r1
 8003252:	6053      	str	r3, [r2, #4]
    tickstart = HAL_GetTick();
 8003254:	f7fd fec3 	bl	8000fde <HAL_GetTick>
 8003258:	4606      	mov	r6, r0
    while (__HAL_RCC_GET_SYSCLK_SOURCE() != (RCC_ClkInitStruct->SYSCLKSource << RCC_CFGR_SWS_Pos))
 800325a:	f44f 5380 	mov.w	r3, #4096	@ 0x1000
 800325e:	f2c4 0302 	movt	r3, #16386	@ 0x4002
 8003262:	685b      	ldr	r3, [r3, #4]
 8003264:	f003 030c 	and.w	r3, r3, #12
 8003268:	6862      	ldr	r2, [r4, #4]
 800326a:	ebb3 0f82 	cmp.w	r3, r2, lsl #2
 800326e:	d01c      	beq.n	80032aa <HAL_RCC_ClockConfig+0x112>
      if ((HAL_GetTick() - tickstart) > CLOCKSWITCH_TIMEOUT_VALUE)
 8003270:	f7fd feb5 	bl	8000fde <HAL_GetTick>
 8003274:	1b80      	subs	r0, r0, r6
 8003276:	f241 3388 	movw	r3, #5000	@ 0x1388
 800327a:	4298      	cmp	r0, r3
 800327c:	d9ed      	bls.n	800325a <HAL_RCC_ClockConfig+0xc2>
        return HAL_TIMEOUT;
 800327e:	2003      	movs	r0, #3
 8003280:	e063      	b.n	800334a <HAL_RCC_ClockConfig+0x1b2>
      if (__HAL_RCC_GET_FLAG(RCC_FLAG_HSERDY) == RESET)
 8003282:	f44f 5280 	mov.w	r2, #4096	@ 0x1000
 8003286:	f2c4 0202 	movt	r2, #16386	@ 0x4002
 800328a:	6812      	ldr	r2, [r2, #0]
 800328c:	f412 3f00 	tst.w	r2, #131072	@ 0x20000
 8003290:	d1d7      	bne.n	8003242 <HAL_RCC_ClockConfig+0xaa>
        return HAL_ERROR;
 8003292:	2001      	movs	r0, #1
 8003294:	e059      	b.n	800334a <HAL_RCC_ClockConfig+0x1b2>
      if (__HAL_RCC_GET_FLAG(RCC_FLAG_PLLRDY) == RESET)
 8003296:	f44f 5280 	mov.w	r2, #4096	@ 0x1000
 800329a:	f2c4 0202 	movt	r2, #16386	@ 0x4002
 800329e:	6812      	ldr	r2, [r2, #0]
 80032a0:	f012 7f00 	tst.w	r2, #33554432	@ 0x2000000
 80032a4:	d1cd      	bne.n	8003242 <HAL_RCC_ClockConfig+0xaa>
        return HAL_ERROR;
 80032a6:	2001      	movs	r0, #1
 80032a8:	e04f      	b.n	800334a <HAL_RCC_ClockConfig+0x1b2>
  if (FLatency < __HAL_FLASH_GET_LATENCY())
 80032aa:	f44f 5300 	mov.w	r3, #8192	@ 0x2000
 80032ae:	f2c4 0302 	movt	r3, #16386	@ 0x4002
 80032b2:	681b      	ldr	r3, [r3, #0]
 80032b4:	f003 0307 	and.w	r3, r3, #7
 80032b8:	42ab      	cmp	r3, r5
 80032ba:	d90d      	bls.n	80032d8 <HAL_RCC_ClockConfig+0x140>
    __HAL_FLASH_SET_LATENCY(FLatency);
 80032bc:	f44f 5200 	mov.w	r2, #8192	@ 0x2000
 80032c0:	f2c4 0202 	movt	r2, #16386	@ 0x4002
 80032c4:	6813      	ldr	r3, [r2, #0]
 80032c6:	f023 0307 	bic.w	r3, r3, #7
 80032ca:	432b      	orrs	r3, r5
 80032cc:	6013      	str	r3, [r2, #0]
    if (__HAL_FLASH_GET_LATENCY() != FLatency)
 80032ce:	6813      	ldr	r3, [r2, #0]
 80032d0:	f003 0307 	and.w	r3, r3, #7
 80032d4:	42ab      	cmp	r3, r5
 80032d6:	d13f      	bne.n	8003358 <HAL_RCC_ClockConfig+0x1c0>
if (((RCC_ClkInitStruct->ClockType) & RCC_CLOCKTYPE_PCLK1) == RCC_CLOCKTYPE_PCLK1)
 80032d8:	6823      	ldr	r3, [r4, #0]
 80032da:	f013 0f04 	tst.w	r3, #4
 80032de:	d009      	beq.n	80032f4 <HAL_RCC_ClockConfig+0x15c>
    MODIFY_REG(RCC->CFGR, RCC_CFGR_PPRE1, RCC_ClkInitStruct->APB1CLKDivider);
 80032e0:	f44f 5280 	mov.w	r2, #4096	@ 0x1000
 80032e4:	f2c4 0202 	movt	r2, #16386	@ 0x4002
 80032e8:	6853      	ldr	r3, [r2, #4]
 80032ea:	f423 63e0 	bic.w	r3, r3, #1792	@ 0x700
 80032ee:	68e1      	ldr	r1, [r4, #12]
 80032f0:	430b      	orrs	r3, r1
 80032f2:	6053      	str	r3, [r2, #4]
  if (((RCC_ClkInitStruct->ClockType) & RCC_CLOCKTYPE_PCLK2) == RCC_CLOCKTYPE_PCLK2)
 80032f4:	6823      	ldr	r3, [r4, #0]
 80032f6:	f013 0f08 	tst.w	r3, #8
 80032fa:	d00a      	beq.n	8003312 <HAL_RCC_ClockConfig+0x17a>
    MODIFY_REG(RCC->CFGR, RCC_CFGR_PPRE2, ((RCC_ClkInitStruct->APB2CLKDivider) << 3));
 80032fc:	f44f 5280 	mov.w	r2, #4096	@ 0x1000
 8003300:	f2c4 0202 	movt	r2, #16386	@ 0x4002
 8003304:	6853      	ldr	r3, [r2, #4]
 8003306:	f423 5360 	bic.w	r3, r3, #14336	@ 0x3800
 800330a:	6921      	ldr	r1, [r4, #16]
 800330c:	ea43 03c1 	orr.w	r3, r3, r1, lsl #3
 8003310:	6053      	str	r3, [r2, #4]
  SystemCoreClock = HAL_RCC_GetSysClockFreq() >> AHBPrescTable[(RCC->CFGR & RCC_CFGR_HPRE) >> RCC_CFGR_HPRE_Pos];
 8003312:	f7ff ff0d 	bl	8003130 <HAL_RCC_GetSysClockFreq>
 8003316:	f44f 5380 	mov.w	r3, #4096	@ 0x1000
 800331a:	f2c4 0302 	movt	r3, #16386	@ 0x4002
 800331e:	685b      	ldr	r3, [r3, #4]
 8003320:	f3c3 1303 	ubfx	r3, r3, #4, #4
 8003324:	f648 128c 	movw	r2, #35212	@ 0x898c
 8003328:	f6c0 0200 	movt	r2, #2048	@ 0x800
 800332c:	5cd3      	ldrb	r3, [r2, r3]
 800332e:	40d8      	lsrs	r0, r3
 8003330:	f240 0300 	movw	r3, #0
 8003334:	f2c2 0300 	movt	r3, #8192	@ 0x2000
 8003338:	6018      	str	r0, [r3, #0]
  HAL_InitTick(uwTickPrio);
 800333a:	f240 0308 	movw	r3, #8
 800333e:	f2c2 0300 	movt	r3, #8192	@ 0x2000
 8003342:	6818      	ldr	r0, [r3, #0]
 8003344:	f7fd fe03 	bl	8000f4e <HAL_InitTick>
  return HAL_OK;
 8003348:	2000      	movs	r0, #0
}
 800334a:	bd70      	pop	{r4, r5, r6, pc}
    return HAL_ERROR;
 800334c:	2001      	movs	r0, #1
}
 800334e:	4770      	bx	lr
    return HAL_ERROR;
 8003350:	2001      	movs	r0, #1
 8003352:	e7fa      	b.n	800334a <HAL_RCC_ClockConfig+0x1b2>
        return HAL_ERROR;
 8003354:	2001      	movs	r0, #1
 8003356:	e7f8      	b.n	800334a <HAL_RCC_ClockConfig+0x1b2>
    return HAL_ERROR;
 8003358:	2001      	movs	r0, #1
 800335a:	e7f6      	b.n	800334a <HAL_RCC_ClockConfig+0x1b2>

0800335c <HAL_RCCEx_PeriphCLKConfig>:
  *         manually disable it.
  *
  * @retval HAL status
  */
HAL_StatusTypeDef HAL_RCCEx_PeriphCLKConfig(RCC_PeriphCLKInitTypeDef  *PeriphClkInit)
{
 800335c:	b570      	push	{r4, r5, r6, lr}
 800335e:	b082      	sub	sp, #8
 8003360:	4604      	mov	r4, r0

  /* Check the parameters */
  assert_param(IS_RCC_PERIPHCLOCK(PeriphClkInit->PeriphClockSelection));

  /*------------------------------- RTC/LCD Configuration ------------------------*/
  if ((((PeriphClkInit->PeriphClockSelection) & RCC_PERIPHCLK_RTC) == RCC_PERIPHCLK_RTC))
 8003362:	6803      	ldr	r3, [r0, #0]
 8003364:	f013 0f01 	tst.w	r3, #1
 8003368:	d04a      	beq.n	8003400 <HAL_RCCEx_PeriphCLKConfig+0xa4>
    assert_param(IS_RCC_RTCCLKSOURCE(PeriphClkInit->RTCClockSelection));

    /* As soon as function is called to change RTC clock source, activation of the
       power domain is done. */
    /* Requires to enable write access to Backup Domain of necessary */
    if (__HAL_RCC_PWR_IS_CLK_DISABLED())
 800336a:	f44f 5380 	mov.w	r3, #4096	@ 0x1000
 800336e:	f2c4 0302 	movt	r3, #16386	@ 0x4002
 8003372:	69db      	ldr	r3, [r3, #28]
 8003374:	f013 5f80 	tst.w	r3, #268435456	@ 0x10000000
 8003378:	d160      	bne.n	800343c <HAL_RCCEx_PeriphCLKConfig+0xe0>
    {
      __HAL_RCC_PWR_CLK_ENABLE();
 800337a:	f44f 5380 	mov.w	r3, #4096	@ 0x1000
 800337e:	f2c4 0302 	movt	r3, #16386	@ 0x4002
 8003382:	69da      	ldr	r2, [r3, #28]
 8003384:	f042 5280 	orr.w	r2, r2, #268435456	@ 0x10000000
 8003388:	61da      	str	r2, [r3, #28]
 800338a:	69db      	ldr	r3, [r3, #28]
 800338c:	f003 5380 	and.w	r3, r3, #268435456	@ 0x10000000
 8003390:	9301      	str	r3, [sp, #4]
 8003392:	9b01      	ldr	r3, [sp, #4]
      pwrclkchanged = SET;
 8003394:	2501      	movs	r5, #1
    }

    if (HAL_IS_BIT_CLR(PWR->CR, PWR_CR_DBP))
 8003396:	f44f 43e0 	mov.w	r3, #28672	@ 0x7000
 800339a:	f2c4 0300 	movt	r3, #16384	@ 0x4000
 800339e:	681b      	ldr	r3, [r3, #0]
 80033a0:	f413 7f80 	tst.w	r3, #256	@ 0x100
 80033a4:	d04c      	beq.n	8003440 <HAL_RCCEx_PeriphCLKConfig+0xe4>
        }
      }
    }

    /* Reset the Backup domain only if the RTC Clock source selection is modified from reset value */
    temp_reg = (RCC->BDCR & RCC_BDCR_RTCSEL);
 80033a6:	f44f 5380 	mov.w	r3, #4096	@ 0x1000
 80033aa:	f2c4 0302 	movt	r3, #16386	@ 0x4002
 80033ae:	6a1b      	ldr	r3, [r3, #32]
    if ((temp_reg != 0x00000000U) && (temp_reg != (PeriphClkInit->RTCClockSelection & RCC_BDCR_RTCSEL)))
 80033b0:	f413 7340 	ands.w	r3, r3, #768	@ 0x300
 80033b4:	d018      	beq.n	80033e8 <HAL_RCCEx_PeriphCLKConfig+0x8c>
 80033b6:	6862      	ldr	r2, [r4, #4]
 80033b8:	f402 7240 	and.w	r2, r2, #768	@ 0x300
 80033bc:	429a      	cmp	r2, r3
 80033be:	d013      	beq.n	80033e8 <HAL_RCCEx_PeriphCLKConfig+0x8c>
    {
      /* Store the content of BDCR register before the reset of Backup Domain */
      temp_reg = (RCC->BDCR & ~(RCC_BDCR_RTCSEL));
 80033c0:	f44f 5380 	mov.w	r3, #4096	@ 0x1000
 80033c4:	f2c4 0302 	movt	r3, #16386	@ 0x4002
 80033c8:	6a19      	ldr	r1, [r3, #32]
 80033ca:	f421 7040 	bic.w	r0, r1, #768	@ 0x300
      /* RTC Clock selection can be changed only if the Backup Domain is reset */
      __HAL_RCC_BACKUPRESET_FORCE();
 80033ce:	2200      	movs	r2, #0
 80033d0:	f2c4 2242 	movt	r2, #16962	@ 0x4242
 80033d4:	2601      	movs	r6, #1
 80033d6:	f8c2 6440 	str.w	r6, [r2, #1088]	@ 0x440
      __HAL_RCC_BACKUPRESET_RELEASE();
 80033da:	2600      	movs	r6, #0
 80033dc:	f8c2 6440 	str.w	r6, [r2, #1088]	@ 0x440
      /* Restore the Content of BDCR register */
      RCC->BDCR = temp_reg;
 80033e0:	6218      	str	r0, [r3, #32]

      /* Wait for LSERDY if LSE was enabled */
      if (HAL_IS_BIT_SET(temp_reg, RCC_BDCR_LSEON))
 80033e2:	f011 0f01 	tst.w	r1, #1
 80033e6:	d145      	bne.n	8003474 <HAL_RCCEx_PeriphCLKConfig+0x118>
            return HAL_TIMEOUT;
          }
        }
      }
    }
    __HAL_RCC_RTC_CONFIG(PeriphClkInit->RTCClockSelection);
 80033e8:	f44f 5280 	mov.w	r2, #4096	@ 0x1000
 80033ec:	f2c4 0202 	movt	r2, #16386	@ 0x4002
 80033f0:	6a13      	ldr	r3, [r2, #32]
 80033f2:	f423 7340 	bic.w	r3, r3, #768	@ 0x300
 80033f6:	6861      	ldr	r1, [r4, #4]
 80033f8:	430b      	orrs	r3, r1
 80033fa:	6213      	str	r3, [r2, #32]

    /* Require to disable power clock if necessary */
    if (pwrclkchanged == SET)
 80033fc:	2d00      	cmp	r5, #0
 80033fe:	d14d      	bne.n	800349c <HAL_RCCEx_PeriphCLKConfig+0x140>
      __HAL_RCC_PWR_CLK_DISABLE();
    }
  }

  /*------------------------------ ADC clock Configuration ------------------*/
  if (((PeriphClkInit->PeriphClockSelection) & RCC_PERIPHCLK_ADC) == RCC_PERIPHCLK_ADC)
 8003400:	6823      	ldr	r3, [r4, #0]
 8003402:	f013 0f02 	tst.w	r3, #2
 8003406:	d009      	beq.n	800341c <HAL_RCCEx_PeriphCLKConfig+0xc0>
  {
    /* Check the parameters */
    assert_param(IS_RCC_ADCPLLCLK_DIV(PeriphClkInit->AdcClockSelection));

    /* Configure the ADC clock source */
    __HAL_RCC_ADC_CONFIG(PeriphClkInit->AdcClockSelection);
 8003408:	f44f 5280 	mov.w	r2, #4096	@ 0x1000
 800340c:	f2c4 0202 	movt	r2, #16386	@ 0x4002
 8003410:	6853      	ldr	r3, [r2, #4]
 8003412:	f423 4340 	bic.w	r3, r3, #49152	@ 0xc000
 8003416:	68a1      	ldr	r1, [r4, #8]
 8003418:	430b      	orrs	r3, r1
 800341a:	6053      	str	r3, [r2, #4]

#if defined(STM32F102x6) || defined(STM32F102xB) || defined(STM32F103x6)\
 || defined(STM32F103xB) || defined(STM32F103xE) || defined(STM32F103xG)\
 || defined(STM32F105xC) || defined(STM32F107xC)
  /*------------------------------ USB clock Configuration ------------------*/
  if (((PeriphClkInit->PeriphClockSelection) & RCC_PERIPHCLK_USB) == RCC_PERIPHCLK_USB)
 800341c:	6823      	ldr	r3, [r4, #0]
 800341e:	f013 0f10 	tst.w	r3, #16
 8003422:	d044      	beq.n	80034ae <HAL_RCCEx_PeriphCLKConfig+0x152>
  {
    /* Check the parameters */
    assert_param(IS_RCC_USBPLLCLK_DIV(PeriphClkInit->UsbClockSelection));

    /* Configure the USB clock source */
    __HAL_RCC_USB_CONFIG(PeriphClkInit->UsbClockSelection);
 8003424:	f44f 5280 	mov.w	r2, #4096	@ 0x1000
 8003428:	f2c4 0202 	movt	r2, #16386	@ 0x4002
 800342c:	6853      	ldr	r3, [r2, #4]
 800342e:	f423 0380 	bic.w	r3, r3, #4194304	@ 0x400000
 8003432:	68e1      	ldr	r1, [r4, #12]
 8003434:	430b      	orrs	r3, r1
 8003436:	6053      	str	r3, [r2, #4]
  }
#endif /* STM32F102x6 || STM32F102xB || STM32F103x6 || STM32F103xB || STM32F103xE || STM32F103xG || STM32F105xC || STM32F107xC */

  return HAL_OK;
 8003438:	2000      	movs	r0, #0
 800343a:	e039      	b.n	80034b0 <HAL_RCCEx_PeriphCLKConfig+0x154>
    FlagStatus pwrclkchanged = RESET;
 800343c:	2500      	movs	r5, #0
 800343e:	e7aa      	b.n	8003396 <HAL_RCCEx_PeriphCLKConfig+0x3a>
      SET_BIT(PWR->CR, PWR_CR_DBP);
 8003440:	f44f 43e0 	mov.w	r3, #28672	@ 0x7000
 8003444:	f2c4 0300 	movt	r3, #16384	@ 0x4000
 8003448:	681a      	ldr	r2, [r3, #0]
 800344a:	f442 7280 	orr.w	r2, r2, #256	@ 0x100
 800344e:	601a      	str	r2, [r3, #0]
      tickstart = HAL_GetTick();
 8003450:	f7fd fdc5 	bl	8000fde <HAL_GetTick>
 8003454:	4606      	mov	r6, r0
      while (HAL_IS_BIT_CLR(PWR->CR, PWR_CR_DBP))
 8003456:	f44f 43e0 	mov.w	r3, #28672	@ 0x7000
 800345a:	f2c4 0300 	movt	r3, #16384	@ 0x4000
 800345e:	681b      	ldr	r3, [r3, #0]
 8003460:	f413 7f80 	tst.w	r3, #256	@ 0x100
 8003464:	d19f      	bne.n	80033a6 <HAL_RCCEx_PeriphCLKConfig+0x4a>
        if ((HAL_GetTick() - tickstart) > RCC_DBP_TIMEOUT_VALUE)
 8003466:	f7fd fdba 	bl	8000fde <HAL_GetTick>
 800346a:	1b80      	subs	r0, r0, r6
 800346c:	2864      	cmp	r0, #100	@ 0x64
 800346e:	d9f2      	bls.n	8003456 <HAL_RCCEx_PeriphCLKConfig+0xfa>
          return HAL_TIMEOUT;
 8003470:	2003      	movs	r0, #3
 8003472:	e01d      	b.n	80034b0 <HAL_RCCEx_PeriphCLKConfig+0x154>
        tickstart = HAL_GetTick();
 8003474:	f7fd fdb3 	bl	8000fde <HAL_GetTick>
 8003478:	4606      	mov	r6, r0
        while (__HAL_RCC_GET_FLAG(RCC_FLAG_LSERDY) == RESET)
 800347a:	f44f 5380 	mov.w	r3, #4096	@ 0x1000
 800347e:	f2c4 0302 	movt	r3, #16386	@ 0x4002
 8003482:	6a1b      	ldr	r3, [r3, #32]
 8003484:	f013 0f02 	tst.w	r3, #2
 8003488:	d1ae      	bne.n	80033e8 <HAL_RCCEx_PeriphCLKConfig+0x8c>
          if ((HAL_GetTick() - tickstart) > RCC_LSE_TIMEOUT_VALUE)
 800348a:	f7fd fda8 	bl	8000fde <HAL_GetTick>
 800348e:	1b80      	subs	r0, r0, r6
 8003490:	f241 3388 	movw	r3, #5000	@ 0x1388
 8003494:	4298      	cmp	r0, r3
 8003496:	d9f0      	bls.n	800347a <HAL_RCCEx_PeriphCLKConfig+0x11e>
            return HAL_TIMEOUT;
 8003498:	2003      	movs	r0, #3
 800349a:	e009      	b.n	80034b0 <HAL_RCCEx_PeriphCLKConfig+0x154>
      __HAL_RCC_PWR_CLK_DISABLE();
 800349c:	f44f 5380 	mov.w	r3, #4096	@ 0x1000
 80034a0:	f2c4 0302 	movt	r3, #16386	@ 0x4002
 80034a4:	69da      	ldr	r2, [r3, #28]
 80034a6:	f022 5280 	bic.w	r2, r2, #268435456	@ 0x10000000
 80034aa:	61da      	str	r2, [r3, #28]
 80034ac:	e7a8      	b.n	8003400 <HAL_RCCEx_PeriphCLKConfig+0xa4>
  return HAL_OK;
 80034ae:	2000      	movs	r0, #0
}
 80034b0:	b002      	add	sp, #8
 80034b2:	bd70      	pop	{r4, r5, r6, pc}

080034b4 <SPI_WaitFlagStateUntilTimeout>:
  * @param  Tickstart tick start value
  * @retval HAL status
  */
static HAL_StatusTypeDef SPI_WaitFlagStateUntilTimeout(SPI_HandleTypeDef *hspi, uint32_t Flag, FlagStatus State,
                                                       uint32_t Timeout, uint32_t Tickstart)
{
 80034b4:	e92d 47f0 	stmdb	sp!, {r4, r5, r6, r7, r8, r9, sl, lr}
 80034b8:	b082      	sub	sp, #8
 80034ba:	4605      	mov	r5, r0
 80034bc:	4688      	mov	r8, r1
 80034be:	4617      	mov	r7, r2
 80034c0:	461e      	mov	r6, r3
  __IO uint32_t count;
  uint32_t tmp_timeout;
  uint32_t tmp_tickstart;

  /* Adjust Timeout value  in case of end of transfer */
  tmp_timeout   = Timeout - (HAL_GetTick() - Tickstart);
 80034c2:	f7fd fd8c 	bl	8000fde <HAL_GetTick>
 80034c6:	9b0a      	ldr	r3, [sp, #40]	@ 0x28
 80034c8:	1a1b      	subs	r3, r3, r0
 80034ca:	eb03 0906 	add.w	r9, r3, r6
  tmp_tickstart = HAL_GetTick();
 80034ce:	f7fd fd86 	bl	8000fde <HAL_GetTick>
 80034d2:	4682      	mov	sl, r0

  /* Calculate Timeout based on a software loop to avoid blocking issue if Systick is disabled */
  count = tmp_timeout * ((SystemCoreClock * 32U) >> 20U);
 80034d4:	f240 0300 	movw	r3, #0
 80034d8:	f2c2 0300 	movt	r3, #8192	@ 0x2000
 80034dc:	681b      	ldr	r3, [r3, #0]
 80034de:	f3c3 33cb 	ubfx	r3, r3, #15, #12
 80034e2:	fb09 f303 	mul.w	r3, r9, r3
 80034e6:	9301      	str	r3, [sp, #4]

  while ((__HAL_SPI_GET_FLAG(hspi, Flag) ? SET : RESET) != State)
 80034e8:	682b      	ldr	r3, [r5, #0]
 80034ea:	689c      	ldr	r4, [r3, #8]
 80034ec:	ea38 0404 	bics.w	r4, r8, r4
 80034f0:	bf0c      	ite	eq
 80034f2:	2301      	moveq	r3, #1
 80034f4:	2300      	movne	r3, #0
 80034f6:	42bb      	cmp	r3, r7
 80034f8:	d03d      	beq.n	8003576 <SPI_WaitFlagStateUntilTimeout+0xc2>
  {
    if (Timeout != HAL_MAX_DELAY)
 80034fa:	f1b6 3fff 	cmp.w	r6, #4294967295
 80034fe:	d0f3      	beq.n	80034e8 <SPI_WaitFlagStateUntilTimeout+0x34>
    {
      if (((HAL_GetTick() - tmp_tickstart) >= tmp_timeout) || (tmp_timeout == 0U))
 8003500:	f7fd fd6d 	bl	8000fde <HAL_GetTick>
 8003504:	eba0 000a 	sub.w	r0, r0, sl
 8003508:	4548      	cmp	r0, r9
 800350a:	d207      	bcs.n	800351c <SPI_WaitFlagStateUntilTimeout+0x68>
        __HAL_UNLOCK(hspi);

        return HAL_TIMEOUT;
      }
      /* If Systick is disabled or not incremented, deactivate timeout to go in disable loop procedure */
      if (count == 0U)
 800350c:	9a01      	ldr	r2, [sp, #4]
 800350e:	b102      	cbz	r2, 8003512 <SPI_WaitFlagStateUntilTimeout+0x5e>
 8003510:	464a      	mov	r2, r9
      {
        tmp_timeout = 0U;
      }
      count--;
 8003512:	9b01      	ldr	r3, [sp, #4]
 8003514:	3b01      	subs	r3, #1
 8003516:	9301      	str	r3, [sp, #4]
 8003518:	4691      	mov	r9, r2
 800351a:	e7e5      	b.n	80034e8 <SPI_WaitFlagStateUntilTimeout+0x34>
        __HAL_SPI_DISABLE_IT(hspi, (SPI_IT_TXE | SPI_IT_RXNE | SPI_IT_ERR));
 800351c:	682a      	ldr	r2, [r5, #0]
 800351e:	6853      	ldr	r3, [r2, #4]
 8003520:	f023 03e0 	bic.w	r3, r3, #224	@ 0xe0
 8003524:	6053      	str	r3, [r2, #4]
        if ((hspi->Init.Mode == SPI_MODE_MASTER) && ((hspi->Init.Direction == SPI_DIRECTION_1LINE)
 8003526:	686b      	ldr	r3, [r5, #4]
 8003528:	f5b3 7f82 	cmp.w	r3, #260	@ 0x104
 800352c:	d00b      	beq.n	8003546 <SPI_WaitFlagStateUntilTimeout+0x92>
        if (hspi->Init.CRCCalculation == SPI_CRCCALCULATION_ENABLE)
 800352e:	6aab      	ldr	r3, [r5, #40]	@ 0x28
 8003530:	f5b3 5f00 	cmp.w	r3, #8192	@ 0x2000
 8003534:	d014      	beq.n	8003560 <SPI_WaitFlagStateUntilTimeout+0xac>
        hspi->State = HAL_SPI_STATE_READY;
 8003536:	2301      	movs	r3, #1
 8003538:	f885 3051 	strb.w	r3, [r5, #81]	@ 0x51
        __HAL_UNLOCK(hspi);
 800353c:	2300      	movs	r3, #0
 800353e:	f885 3050 	strb.w	r3, [r5, #80]	@ 0x50
        return HAL_TIMEOUT;
 8003542:	2003      	movs	r0, #3
 8003544:	e018      	b.n	8003578 <SPI_WaitFlagStateUntilTimeout+0xc4>
        if ((hspi->Init.Mode == SPI_MODE_MASTER) && ((hspi->Init.Direction == SPI_DIRECTION_1LINE)
 8003546:	68ab      	ldr	r3, [r5, #8]
 8003548:	f5b3 4f00 	cmp.w	r3, #32768	@ 0x8000
 800354c:	d002      	beq.n	8003554 <SPI_WaitFlagStateUntilTimeout+0xa0>
                                                     || (hspi->Init.Direction == SPI_DIRECTION_2LINES_RXONLY)))
 800354e:	f5b3 6f80 	cmp.w	r3, #1024	@ 0x400
 8003552:	d1ec      	bne.n	800352e <SPI_WaitFlagStateUntilTimeout+0x7a>
          __HAL_SPI_DISABLE(hspi);
 8003554:	682a      	ldr	r2, [r5, #0]
 8003556:	6813      	ldr	r3, [r2, #0]
 8003558:	f023 0340 	bic.w	r3, r3, #64	@ 0x40
 800355c:	6013      	str	r3, [r2, #0]
 800355e:	e7e6      	b.n	800352e <SPI_WaitFlagStateUntilTimeout+0x7a>
          SPI_RESET_CRC(hspi);
 8003560:	682a      	ldr	r2, [r5, #0]
 8003562:	6813      	ldr	r3, [r2, #0]
 8003564:	f423 5300 	bic.w	r3, r3, #8192	@ 0x2000
 8003568:	6013      	str	r3, [r2, #0]
 800356a:	682a      	ldr	r2, [r5, #0]
 800356c:	6813      	ldr	r3, [r2, #0]
 800356e:	f443 5300 	orr.w	r3, r3, #8192	@ 0x2000
 8003572:	6013      	str	r3, [r2, #0]
 8003574:	e7df      	b.n	8003536 <SPI_WaitFlagStateUntilTimeout+0x82>
    }
  }

  return HAL_OK;
 8003576:	2000      	movs	r0, #0
}
 8003578:	b002      	add	sp, #8
 800357a:	e8bd 87f0 	ldmia.w	sp!, {r4, r5, r6, r7, r8, r9, sl, pc}

0800357e <SPI_EndRxTxTransaction>:
  * @param  Timeout Timeout duration
  * @param  Tickstart tick start value
  * @retval HAL status
  */
static HAL_StatusTypeDef SPI_EndRxTxTransaction(SPI_HandleTypeDef *hspi, uint32_t Timeout, uint32_t Tickstart)
{
 800357e:	b570      	push	{r4, r5, r6, lr}
 8003580:	b082      	sub	sp, #8
 8003582:	4606      	mov	r6, r0
 8003584:	460c      	mov	r4, r1
 8003586:	4615      	mov	r5, r2
  /* Wait until TXE flag */
  if (SPI_WaitFlagStateUntilTimeout(hspi, SPI_FLAG_TXE, SET, Timeout, Tickstart) != HAL_OK)
 8003588:	9200      	str	r2, [sp, #0]
 800358a:	460b      	mov	r3, r1
 800358c:	2201      	movs	r2, #1
 800358e:	2102      	movs	r1, #2
 8003590:	f7ff ff90 	bl	80034b4 <SPI_WaitFlagStateUntilTimeout>
 8003594:	b948      	cbnz	r0, 80035aa <SPI_EndRxTxTransaction+0x2c>
    SET_BIT(hspi->ErrorCode, HAL_SPI_ERROR_FLAG);
    return HAL_TIMEOUT;
  }

  /* Control the BSY flag */
  if (SPI_WaitFlagStateUntilTimeout(hspi, SPI_FLAG_BSY, RESET, Timeout, Tickstart) != HAL_OK)
 8003596:	9500      	str	r5, [sp, #0]
 8003598:	4623      	mov	r3, r4
 800359a:	2200      	movs	r2, #0
 800359c:	2180      	movs	r1, #128	@ 0x80
 800359e:	4630      	mov	r0, r6
 80035a0:	f7ff ff88 	bl	80034b4 <SPI_WaitFlagStateUntilTimeout>
 80035a4:	b938      	cbnz	r0, 80035b6 <SPI_EndRxTxTransaction+0x38>
  {
    SET_BIT(hspi->ErrorCode, HAL_SPI_ERROR_FLAG);
    return HAL_TIMEOUT;
  }
  return HAL_OK;
}
 80035a6:	b002      	add	sp, #8
 80035a8:	bd70      	pop	{r4, r5, r6, pc}
    SET_BIT(hspi->ErrorCode, HAL_SPI_ERROR_FLAG);
 80035aa:	6d73      	ldr	r3, [r6, #84]	@ 0x54
 80035ac:	f043 0320 	orr.w	r3, r3, #32
 80035b0:	6573      	str	r3, [r6, #84]	@ 0x54
    return HAL_TIMEOUT;
 80035b2:	2003      	movs	r0, #3
 80035b4:	e7f7      	b.n	80035a6 <SPI_EndRxTxTransaction+0x28>
    SET_BIT(hspi->ErrorCode, HAL_SPI_ERROR_FLAG);
 80035b6:	6d73      	ldr	r3, [r6, #84]	@ 0x54
 80035b8:	f043 0320 	orr.w	r3, r3, #32
 80035bc:	6573      	str	r3, [r6, #84]	@ 0x54
    return HAL_TIMEOUT;
 80035be:	2003      	movs	r0, #3
 80035c0:	e7f1      	b.n	80035a6 <SPI_EndRxTxTransaction+0x28>

080035c2 <SPI_EndRxTransaction>:
{
 80035c2:	b510      	push	{r4, lr}
 80035c4:	b082      	sub	sp, #8
 80035c6:	4604      	mov	r4, r0
 80035c8:	460b      	mov	r3, r1
  if ((hspi->Init.Mode == SPI_MODE_MASTER) && ((hspi->Init.Direction == SPI_DIRECTION_1LINE)
 80035ca:	6841      	ldr	r1, [r0, #4]
 80035cc:	f5b1 7f82 	cmp.w	r1, #260	@ 0x104
 80035d0:	d010      	beq.n	80035f4 <SPI_EndRxTransaction+0x32>
  if ((hspi->Init.Mode == SPI_MODE_MASTER) && (hspi->Init.Direction == SPI_DIRECTION_2LINES_RXONLY))
 80035d2:	6861      	ldr	r1, [r4, #4]
 80035d4:	f5b1 7f82 	cmp.w	r1, #260	@ 0x104
 80035d8:	d103      	bne.n	80035e2 <SPI_EndRxTransaction+0x20>
 80035da:	68a1      	ldr	r1, [r4, #8]
 80035dc:	f5b1 6f80 	cmp.w	r1, #1024	@ 0x400
 80035e0:	d015      	beq.n	800360e <SPI_EndRxTransaction+0x4c>
    if (SPI_WaitFlagStateUntilTimeout(hspi, SPI_FLAG_BSY, RESET, Timeout, Tickstart) != HAL_OK)
 80035e2:	9200      	str	r2, [sp, #0]
 80035e4:	2200      	movs	r2, #0
 80035e6:	2180      	movs	r1, #128	@ 0x80
 80035e8:	4620      	mov	r0, r4
 80035ea:	f7ff ff63 	bl	80034b4 <SPI_WaitFlagStateUntilTimeout>
 80035ee:	b9e0      	cbnz	r0, 800362a <SPI_EndRxTransaction+0x68>
}
 80035f0:	b002      	add	sp, #8
 80035f2:	bd10      	pop	{r4, pc}
  if ((hspi->Init.Mode == SPI_MODE_MASTER) && ((hspi->Init.Direction == SPI_DIRECTION_1LINE)
 80035f4:	6881      	ldr	r1, [r0, #8]
 80035f6:	f5b1 4f00 	cmp.w	r1, #32768	@ 0x8000
 80035fa:	d002      	beq.n	8003602 <SPI_EndRxTransaction+0x40>
                                               || (hspi->Init.Direction == SPI_DIRECTION_2LINES_RXONLY)))
 80035fc:	f5b1 6f80 	cmp.w	r1, #1024	@ 0x400
 8003600:	d1e7      	bne.n	80035d2 <SPI_EndRxTransaction+0x10>
    __HAL_SPI_DISABLE(hspi);
 8003602:	6820      	ldr	r0, [r4, #0]
 8003604:	6801      	ldr	r1, [r0, #0]
 8003606:	f021 0140 	bic.w	r1, r1, #64	@ 0x40
 800360a:	6001      	str	r1, [r0, #0]
 800360c:	e7e1      	b.n	80035d2 <SPI_EndRxTransaction+0x10>
    if (SPI_WaitFlagStateUntilTimeout(hspi, SPI_FLAG_RXNE, RESET, Timeout, Tickstart) != HAL_OK)
 800360e:	9200      	str	r2, [sp, #0]
 8003610:	2200      	movs	r2, #0
 8003612:	2101      	movs	r1, #1
 8003614:	4620      	mov	r0, r4
 8003616:	f7ff ff4d 	bl	80034b4 <SPI_WaitFlagStateUntilTimeout>
 800361a:	2800      	cmp	r0, #0
 800361c:	d0e8      	beq.n	80035f0 <SPI_EndRxTransaction+0x2e>
      SET_BIT(hspi->ErrorCode, HAL_SPI_ERROR_FLAG);
 800361e:	6d63      	ldr	r3, [r4, #84]	@ 0x54
 8003620:	f043 0320 	orr.w	r3, r3, #32
 8003624:	6563      	str	r3, [r4, #84]	@ 0x54
      return HAL_TIMEOUT;
 8003626:	2003      	movs	r0, #3
 8003628:	e7e2      	b.n	80035f0 <SPI_EndRxTransaction+0x2e>
      SET_BIT(hspi->ErrorCode, HAL_SPI_ERROR_FLAG);
 800362a:	6d63      	ldr	r3, [r4, #84]	@ 0x54
 800362c:	f043 0320 	orr.w	r3, r3, #32
 8003630:	6563      	str	r3, [r4, #84]	@ 0x54
      return HAL_TIMEOUT;
 8003632:	2003      	movs	r0, #3
 8003634:	e7dc      	b.n	80035f0 <SPI_EndRxTransaction+0x2e>

08003636 <HAL_SPI_Init>:
  if (hspi == NULL)
 8003636:	2800      	cmp	r0, #0
 8003638:	d056      	beq.n	80036e8 <HAL_SPI_Init+0xb2>
{
 800363a:	b510      	push	{r4, lr}
 800363c:	4604      	mov	r4, r0
  if (hspi->Init.TIMode == SPI_TIMODE_DISABLE)
 800363e:	6a43      	ldr	r3, [r0, #36]	@ 0x24
 8003640:	b933      	cbnz	r3, 8003650 <HAL_SPI_Init+0x1a>
    if (hspi->Init.Mode == SPI_MODE_MASTER)
 8003642:	6843      	ldr	r3, [r0, #4]
 8003644:	f5b3 7f82 	cmp.w	r3, #260	@ 0x104
 8003648:	d005      	beq.n	8003656 <HAL_SPI_Init+0x20>
      hspi->Init.BaudRatePrescaler = SPI_BAUDRATEPRESCALER_2;
 800364a:	2300      	movs	r3, #0
 800364c:	61c3      	str	r3, [r0, #28]
 800364e:	e002      	b.n	8003656 <HAL_SPI_Init+0x20>
    hspi->Init.CLKPolarity = SPI_POLARITY_LOW;
 8003650:	2300      	movs	r3, #0
 8003652:	6103      	str	r3, [r0, #16]
    hspi->Init.CLKPhase    = SPI_PHASE_1EDGE;
 8003654:	6143      	str	r3, [r0, #20]
  hspi->Init.CRCCalculation = SPI_CRCCALCULATION_DISABLE;
 8003656:	2300      	movs	r3, #0
 8003658:	62a3      	str	r3, [r4, #40]	@ 0x28
  if (hspi->State == HAL_SPI_STATE_RESET)
 800365a:	f894 3051 	ldrb.w	r3, [r4, #81]	@ 0x51
 800365e:	2b00      	cmp	r3, #0
 8003660:	d03c      	beq.n	80036dc <HAL_SPI_Init+0xa6>
  hspi->State = HAL_SPI_STATE_BUSY;
 8003662:	2302      	movs	r3, #2
 8003664:	f884 3051 	strb.w	r3, [r4, #81]	@ 0x51
  __HAL_SPI_DISABLE(hspi);
 8003668:	6822      	ldr	r2, [r4, #0]
 800366a:	6813      	ldr	r3, [r2, #0]
 800366c:	f023 0340 	bic.w	r3, r3, #64	@ 0x40
 8003670:	6013      	str	r3, [r2, #0]
  WRITE_REG(hspi->Instance->CR1, ((hspi->Init.Mode & (SPI_CR1_MSTR | SPI_CR1_SSI)) |
 8003672:	6863      	ldr	r3, [r4, #4]
 8003674:	f403 7382 	and.w	r3, r3, #260	@ 0x104
 8003678:	68a2      	ldr	r2, [r4, #8]
 800367a:	f402 4204 	and.w	r2, r2, #33792	@ 0x8400
 800367e:	4313      	orrs	r3, r2
 8003680:	68e2      	ldr	r2, [r4, #12]
 8003682:	f402 6200 	and.w	r2, r2, #2048	@ 0x800
 8003686:	4313      	orrs	r3, r2
 8003688:	6922      	ldr	r2, [r4, #16]
 800368a:	f002 0202 	and.w	r2, r2, #2
 800368e:	4313      	orrs	r3, r2
 8003690:	6962      	ldr	r2, [r4, #20]
 8003692:	f002 0201 	and.w	r2, r2, #1
 8003696:	4313      	orrs	r3, r2
 8003698:	69a2      	ldr	r2, [r4, #24]
 800369a:	f402 7200 	and.w	r2, r2, #512	@ 0x200
 800369e:	4313      	orrs	r3, r2
 80036a0:	69e2      	ldr	r2, [r4, #28]
 80036a2:	f002 0238 	and.w	r2, r2, #56	@ 0x38
 80036a6:	4313      	orrs	r3, r2
 80036a8:	6a22      	ldr	r2, [r4, #32]
 80036aa:	f002 0280 	and.w	r2, r2, #128	@ 0x80
 80036ae:	4313      	orrs	r3, r2
 80036b0:	6aa2      	ldr	r2, [r4, #40]	@ 0x28
 80036b2:	f402 5200 	and.w	r2, r2, #8192	@ 0x2000
 80036b6:	6821      	ldr	r1, [r4, #0]
 80036b8:	4313      	orrs	r3, r2
 80036ba:	600b      	str	r3, [r1, #0]
  WRITE_REG(hspi->Instance->CR2, ((hspi->Init.NSS >> 16U) & SPI_CR2_SSOE));
 80036bc:	8b63      	ldrh	r3, [r4, #26]
 80036be:	6822      	ldr	r2, [r4, #0]
 80036c0:	f003 0304 	and.w	r3, r3, #4
 80036c4:	6053      	str	r3, [r2, #4]
  CLEAR_BIT(hspi->Instance->I2SCFGR, SPI_I2SCFGR_I2SMOD);
 80036c6:	6822      	ldr	r2, [r4, #0]
 80036c8:	69d3      	ldr	r3, [r2, #28]
 80036ca:	f423 6300 	bic.w	r3, r3, #2048	@ 0x800
 80036ce:	61d3      	str	r3, [r2, #28]
  hspi->ErrorCode = HAL_SPI_ERROR_NONE;
 80036d0:	2000      	movs	r0, #0
 80036d2:	6560      	str	r0, [r4, #84]	@ 0x54
  hspi->State     = HAL_SPI_STATE_READY;
 80036d4:	2301      	movs	r3, #1
 80036d6:	f884 3051 	strb.w	r3, [r4, #81]	@ 0x51
}
 80036da:	bd10      	pop	{r4, pc}
    hspi->Lock = HAL_UNLOCKED;
 80036dc:	f884 3050 	strb.w	r3, [r4, #80]	@ 0x50
    HAL_SPI_MspInit(hspi);
 80036e0:	4620      	mov	r0, r4
 80036e2:	f7fd fb0a 	bl	8000cfa <HAL_SPI_MspInit>
 80036e6:	e7bc      	b.n	8003662 <HAL_SPI_Init+0x2c>
    return HAL_ERROR;
 80036e8:	2001      	movs	r0, #1
}
 80036ea:	4770      	bx	lr

080036ec <HAL_SPI_Transmit>:
{
 80036ec:	e92d 43f0 	stmdb	sp!, {r4, r5, r6, r7, r8, r9, lr}
 80036f0:	b083      	sub	sp, #12
 80036f2:	4604      	mov	r4, r0
 80036f4:	4689      	mov	r9, r1
 80036f6:	4690      	mov	r8, r2
 80036f8:	461d      	mov	r5, r3
  tickstart = HAL_GetTick();
 80036fa:	f7fd fc70 	bl	8000fde <HAL_GetTick>
  if (hspi->State != HAL_SPI_STATE_READY)
 80036fe:	f894 6051 	ldrb.w	r6, [r4, #81]	@ 0x51
 8003702:	b2f6      	uxtb	r6, r6
 8003704:	2e01      	cmp	r6, #1
 8003706:	f040 80cc 	bne.w	80038a2 <HAL_SPI_Transmit+0x1b6>
 800370a:	4607      	mov	r7, r0
  if ((pData == NULL) || (Size == 0U))
 800370c:	f1b9 0f00 	cmp.w	r9, #0
 8003710:	f000 80c8 	beq.w	80038a4 <HAL_SPI_Transmit+0x1b8>
 8003714:	f1b8 0f00 	cmp.w	r8, #0
 8003718:	f000 80c4 	beq.w	80038a4 <HAL_SPI_Transmit+0x1b8>
  __HAL_LOCK(hspi);
 800371c:	f894 3050 	ldrb.w	r3, [r4, #80]	@ 0x50
 8003720:	2b01      	cmp	r3, #1
 8003722:	f000 80c3 	beq.w	80038ac <HAL_SPI_Transmit+0x1c0>
 8003726:	2301      	movs	r3, #1
 8003728:	f884 3050 	strb.w	r3, [r4, #80]	@ 0x50
  hspi->State       = HAL_SPI_STATE_BUSY_TX;
 800372c:	2303      	movs	r3, #3
 800372e:	f884 3051 	strb.w	r3, [r4, #81]	@ 0x51
  hspi->ErrorCode   = HAL_SPI_ERROR_NONE;
 8003732:	2300      	movs	r3, #0
 8003734:	6563      	str	r3, [r4, #84]	@ 0x54
  hspi->pTxBuffPtr  = (const uint8_t *)pData;
 8003736:	f8c4 9030 	str.w	r9, [r4, #48]	@ 0x30
  hspi->TxXferSize  = Size;
 800373a:	f8a4 8034 	strh.w	r8, [r4, #52]	@ 0x34
  hspi->TxXferCount = Size;
 800373e:	f8a4 8036 	strh.w	r8, [r4, #54]	@ 0x36
  hspi->pRxBuffPtr  = (uint8_t *)NULL;
 8003742:	63a3      	str	r3, [r4, #56]	@ 0x38
  hspi->RxXferSize  = 0U;
 8003744:	87a3      	strh	r3, [r4, #60]	@ 0x3c
  hspi->RxXferCount = 0U;
 8003746:	87e3      	strh	r3, [r4, #62]	@ 0x3e
  hspi->TxISR       = NULL;
 8003748:	6463      	str	r3, [r4, #68]	@ 0x44
  hspi->RxISR       = NULL;
 800374a:	6423      	str	r3, [r4, #64]	@ 0x40
  if (hspi->Init.Direction == SPI_DIRECTION_1LINE)
 800374c:	68a3      	ldr	r3, [r4, #8]
 800374e:	f5b3 4f00 	cmp.w	r3, #32768	@ 0x8000
 8003752:	d01e      	beq.n	8003792 <HAL_SPI_Transmit+0xa6>
  if ((hspi->Instance->CR1 & SPI_CR1_SPE) != SPI_CR1_SPE)
 8003754:	6823      	ldr	r3, [r4, #0]
 8003756:	681a      	ldr	r2, [r3, #0]
 8003758:	f012 0f40 	tst.w	r2, #64	@ 0x40
 800375c:	d103      	bne.n	8003766 <HAL_SPI_Transmit+0x7a>
    __HAL_SPI_ENABLE(hspi);
 800375e:	681a      	ldr	r2, [r3, #0]
 8003760:	f042 0240 	orr.w	r2, r2, #64	@ 0x40
 8003764:	601a      	str	r2, [r3, #0]
  if (hspi->Init.DataSize == SPI_DATASIZE_16BIT)
 8003766:	68e3      	ldr	r3, [r4, #12]
 8003768:	f5b3 6f00 	cmp.w	r3, #2048	@ 0x800
 800376c:	d01c      	beq.n	80037a8 <HAL_SPI_Transmit+0xbc>
    if ((hspi->Init.Mode == SPI_MODE_SLAVE) || (initial_TxXferCount == 0x01U))
 800376e:	6863      	ldr	r3, [r4, #4]
 8003770:	b113      	cbz	r3, 8003778 <HAL_SPI_Transmit+0x8c>
 8003772:	f1b8 0f01 	cmp.w	r8, #1
 8003776:	d15f      	bne.n	8003838 <HAL_SPI_Transmit+0x14c>
      *((__IO uint8_t *)&hspi->Instance->DR) = *((const uint8_t *)hspi->pTxBuffPtr);
 8003778:	6b22      	ldr	r2, [r4, #48]	@ 0x30
 800377a:	6823      	ldr	r3, [r4, #0]
 800377c:	7812      	ldrb	r2, [r2, #0]
 800377e:	731a      	strb	r2, [r3, #12]
      hspi->pTxBuffPtr += sizeof(uint8_t);
 8003780:	6b23      	ldr	r3, [r4, #48]	@ 0x30
 8003782:	3301      	adds	r3, #1
 8003784:	6323      	str	r3, [r4, #48]	@ 0x30
      hspi->TxXferCount--;
 8003786:	8ee3      	ldrh	r3, [r4, #54]	@ 0x36
 8003788:	b29b      	uxth	r3, r3
 800378a:	3b01      	subs	r3, #1
 800378c:	b29b      	uxth	r3, r3
 800378e:	86e3      	strh	r3, [r4, #54]	@ 0x36
 8003790:	e052      	b.n	8003838 <HAL_SPI_Transmit+0x14c>
    __HAL_SPI_DISABLE(hspi);
 8003792:	6822      	ldr	r2, [r4, #0]
 8003794:	6813      	ldr	r3, [r2, #0]
 8003796:	f023 0340 	bic.w	r3, r3, #64	@ 0x40
 800379a:	6013      	str	r3, [r2, #0]
    SPI_1LINE_TX(hspi);
 800379c:	6822      	ldr	r2, [r4, #0]
 800379e:	6813      	ldr	r3, [r2, #0]
 80037a0:	f443 4380 	orr.w	r3, r3, #16384	@ 0x4000
 80037a4:	6013      	str	r3, [r2, #0]
 80037a6:	e7d5      	b.n	8003754 <HAL_SPI_Transmit+0x68>
    if ((hspi->Init.Mode == SPI_MODE_SLAVE) || (initial_TxXferCount == 0x01U))
 80037a8:	6863      	ldr	r3, [r4, #4]
 80037aa:	b113      	cbz	r3, 80037b2 <HAL_SPI_Transmit+0xc6>
 80037ac:	f1b8 0f01 	cmp.w	r8, #1
 80037b0:	d115      	bne.n	80037de <HAL_SPI_Transmit+0xf2>
      hspi->Instance->DR = *((const uint16_t *)hspi->pTxBuffPtr);
 80037b2:	6b22      	ldr	r2, [r4, #48]	@ 0x30
 80037b4:	6823      	ldr	r3, [r4, #0]
 80037b6:	8812      	ldrh	r2, [r2, #0]
 80037b8:	60da      	str	r2, [r3, #12]
      hspi->pTxBuffPtr += sizeof(uint16_t);
 80037ba:	6b23      	ldr	r3, [r4, #48]	@ 0x30
 80037bc:	3302      	adds	r3, #2
 80037be:	6323      	str	r3, [r4, #48]	@ 0x30
      hspi->TxXferCount--;
 80037c0:	8ee3      	ldrh	r3, [r4, #54]	@ 0x36
 80037c2:	b29b      	uxth	r3, r3
 80037c4:	3b01      	subs	r3, #1
 80037c6:	b29b      	uxth	r3, r3
 80037c8:	86e3      	strh	r3, [r4, #54]	@ 0x36
 80037ca:	e008      	b.n	80037de <HAL_SPI_Transmit+0xf2>
        if ((((HAL_GetTick() - tickstart) >=  Timeout) && (Timeout != HAL_MAX_DELAY)) || (Timeout == 0U))
 80037cc:	f7fd fc07 	bl	8000fde <HAL_GetTick>
 80037d0:	1bc0      	subs	r0, r0, r7
 80037d2:	42a8      	cmp	r0, r5
 80037d4:	d302      	bcc.n	80037dc <HAL_SPI_Transmit+0xf0>
 80037d6:	f1b5 3fff 	cmp.w	r5, #4294967295
 80037da:	d115      	bne.n	8003808 <HAL_SPI_Transmit+0x11c>
 80037dc:	b1a5      	cbz	r5, 8003808 <HAL_SPI_Transmit+0x11c>
    while (hspi->TxXferCount > 0U)
 80037de:	8ee3      	ldrh	r3, [r4, #54]	@ 0x36
 80037e0:	b29b      	uxth	r3, r3
 80037e2:	2b00      	cmp	r3, #0
 80037e4:	d042      	beq.n	800386c <HAL_SPI_Transmit+0x180>
      if (__HAL_SPI_GET_FLAG(hspi, SPI_FLAG_TXE))
 80037e6:	6823      	ldr	r3, [r4, #0]
 80037e8:	689a      	ldr	r2, [r3, #8]
 80037ea:	f012 0f02 	tst.w	r2, #2
 80037ee:	d0ed      	beq.n	80037cc <HAL_SPI_Transmit+0xe0>
        hspi->Instance->DR = *((const uint16_t *)hspi->pTxBuffPtr);
 80037f0:	6b22      	ldr	r2, [r4, #48]	@ 0x30
 80037f2:	8812      	ldrh	r2, [r2, #0]
 80037f4:	60da      	str	r2, [r3, #12]
        hspi->pTxBuffPtr += sizeof(uint16_t);
 80037f6:	6b23      	ldr	r3, [r4, #48]	@ 0x30
 80037f8:	3302      	adds	r3, #2
 80037fa:	6323      	str	r3, [r4, #48]	@ 0x30
        hspi->TxXferCount--;
 80037fc:	8ee3      	ldrh	r3, [r4, #54]	@ 0x36
 80037fe:	b29b      	uxth	r3, r3
 8003800:	3b01      	subs	r3, #1
 8003802:	b29b      	uxth	r3, r3
 8003804:	86e3      	strh	r3, [r4, #54]	@ 0x36
 8003806:	e7ea      	b.n	80037de <HAL_SPI_Transmit+0xf2>
          hspi->State = HAL_SPI_STATE_READY;
 8003808:	2301      	movs	r3, #1
 800380a:	f884 3051 	strb.w	r3, [r4, #81]	@ 0x51
          __HAL_UNLOCK(hspi);
 800380e:	2300      	movs	r3, #0
 8003810:	f884 3050 	strb.w	r3, [r4, #80]	@ 0x50
          return HAL_TIMEOUT;
 8003814:	2603      	movs	r6, #3
 8003816:	e045      	b.n	80038a4 <HAL_SPI_Transmit+0x1b8>
        *((__IO uint8_t *)&hspi->Instance->DR) = *((const uint8_t *)hspi->pTxBuffPtr);
 8003818:	6b22      	ldr	r2, [r4, #48]	@ 0x30
 800381a:	7812      	ldrb	r2, [r2, #0]
 800381c:	731a      	strb	r2, [r3, #12]
        hspi->pTxBuffPtr += sizeof(uint8_t);
 800381e:	6b23      	ldr	r3, [r4, #48]	@ 0x30
 8003820:	3301      	adds	r3, #1
 8003822:	6323      	str	r3, [r4, #48]	@ 0x30
        hspi->TxXferCount--;
 8003824:	f8b4 c036 	ldrh.w	ip, [r4, #54]	@ 0x36
 8003828:	fa1f fc8c 	uxth.w	ip, ip
 800382c:	f10c 3cff 	add.w	ip, ip, #4294967295
 8003830:	fa1f fc8c 	uxth.w	ip, ip
 8003834:	f8a4 c036 	strh.w	ip, [r4, #54]	@ 0x36
    while (hspi->TxXferCount > 0U)
 8003838:	8ee3      	ldrh	r3, [r4, #54]	@ 0x36
 800383a:	b29b      	uxth	r3, r3
 800383c:	b1b3      	cbz	r3, 800386c <HAL_SPI_Transmit+0x180>
      if (__HAL_SPI_GET_FLAG(hspi, SPI_FLAG_TXE))
 800383e:	6823      	ldr	r3, [r4, #0]
 8003840:	689a      	ldr	r2, [r3, #8]
 8003842:	f012 0f02 	tst.w	r2, #2
 8003846:	d1e7      	bne.n	8003818 <HAL_SPI_Transmit+0x12c>
        if ((((HAL_GetTick() - tickstart) >=  Timeout) && (Timeout != HAL_MAX_DELAY)) || (Timeout == 0U))
 8003848:	f7fd fbc9 	bl	8000fde <HAL_GetTick>
 800384c:	1bc0      	subs	r0, r0, r7
 800384e:	42a8      	cmp	r0, r5
 8003850:	d302      	bcc.n	8003858 <HAL_SPI_Transmit+0x16c>
 8003852:	f1b5 3fff 	cmp.w	r5, #4294967295
 8003856:	d101      	bne.n	800385c <HAL_SPI_Transmit+0x170>
 8003858:	2d00      	cmp	r5, #0
 800385a:	d1ed      	bne.n	8003838 <HAL_SPI_Transmit+0x14c>
          hspi->State = HAL_SPI_STATE_READY;
 800385c:	2301      	movs	r3, #1
 800385e:	f884 3051 	strb.w	r3, [r4, #81]	@ 0x51
          __HAL_UNLOCK(hspi);
 8003862:	2300      	movs	r3, #0
 8003864:	f884 3050 	strb.w	r3, [r4, #80]	@ 0x50
          return HAL_TIMEOUT;
 8003868:	2603      	movs	r6, #3
 800386a:	e01b      	b.n	80038a4 <HAL_SPI_Transmit+0x1b8>
  if (SPI_EndRxTxTransaction(hspi, Timeout, tickstart) != HAL_OK)
 800386c:	463a      	mov	r2, r7
 800386e:	4629      	mov	r1, r5
 8003870:	4620      	mov	r0, r4
 8003872:	f7ff fe84 	bl	800357e <SPI_EndRxTxTransaction>
 8003876:	b108      	cbz	r0, 800387c <HAL_SPI_Transmit+0x190>
    hspi->ErrorCode = HAL_SPI_ERROR_FLAG;
 8003878:	2320      	movs	r3, #32
 800387a:	6563      	str	r3, [r4, #84]	@ 0x54
  if (hspi->Init.Direction == SPI_DIRECTION_2LINES)
 800387c:	68a3      	ldr	r3, [r4, #8]
 800387e:	b933      	cbnz	r3, 800388e <HAL_SPI_Transmit+0x1a2>
    __HAL_SPI_CLEAR_OVRFLAG(hspi);
 8003880:	9301      	str	r3, [sp, #4]
 8003882:	6823      	ldr	r3, [r4, #0]
 8003884:	68da      	ldr	r2, [r3, #12]
 8003886:	9201      	str	r2, [sp, #4]
 8003888:	689b      	ldr	r3, [r3, #8]
 800388a:	9301      	str	r3, [sp, #4]
 800388c:	9b01      	ldr	r3, [sp, #4]
  hspi->State = HAL_SPI_STATE_READY;
 800388e:	2301      	movs	r3, #1
 8003890:	f884 3051 	strb.w	r3, [r4, #81]	@ 0x51
  __HAL_UNLOCK(hspi);
 8003894:	2300      	movs	r3, #0
 8003896:	f884 3050 	strb.w	r3, [r4, #80]	@ 0x50
  if (hspi->ErrorCode != HAL_SPI_ERROR_NONE)
 800389a:	6d63      	ldr	r3, [r4, #84]	@ 0x54
 800389c:	b913      	cbnz	r3, 80038a4 <HAL_SPI_Transmit+0x1b8>
    return HAL_OK;
 800389e:	2600      	movs	r6, #0
 80038a0:	e000      	b.n	80038a4 <HAL_SPI_Transmit+0x1b8>
    return HAL_BUSY;
 80038a2:	2602      	movs	r6, #2
}
 80038a4:	4630      	mov	r0, r6
 80038a6:	b003      	add	sp, #12
 80038a8:	e8bd 83f0 	ldmia.w	sp!, {r4, r5, r6, r7, r8, r9, pc}
  __HAL_LOCK(hspi);
 80038ac:	2602      	movs	r6, #2
 80038ae:	e7f9      	b.n	80038a4 <HAL_SPI_Transmit+0x1b8>

080038b0 <HAL_SPI_TransmitReceive_DMA>:
{
 80038b0:	b538      	push	{r3, r4, r5, lr}
 80038b2:	4604      	mov	r4, r0
  tmp_state           = hspi->State;
 80038b4:	f890 0051 	ldrb.w	r0, [r0, #81]	@ 0x51
 80038b8:	b2c0      	uxtb	r0, r0
  tmp_mode            = hspi->Init.Mode;
 80038ba:	6865      	ldr	r5, [r4, #4]
  if (!((tmp_state == HAL_SPI_STATE_READY) ||
 80038bc:	2801      	cmp	r0, #1
 80038be:	d00a      	beq.n	80038d6 <HAL_SPI_TransmitReceive_DMA+0x26>
 80038c0:	f5b5 7f82 	cmp.w	r5, #260	@ 0x104
 80038c4:	f040 809a 	bne.w	80039fc <HAL_SPI_TransmitReceive_DMA+0x14c>
        ((tmp_mode == SPI_MODE_MASTER) && (hspi->Init.Direction == SPI_DIRECTION_2LINES) &&
 80038c8:	68a5      	ldr	r5, [r4, #8]
 80038ca:	2d00      	cmp	r5, #0
 80038cc:	f040 8098 	bne.w	8003a00 <HAL_SPI_TransmitReceive_DMA+0x150>
 80038d0:	2804      	cmp	r0, #4
 80038d2:	f040 8097 	bne.w	8003a04 <HAL_SPI_TransmitReceive_DMA+0x154>
  if ((pTxData == NULL) || (pRxData == NULL) || (Size == 0U))
 80038d6:	2900      	cmp	r1, #0
 80038d8:	f000 8096 	beq.w	8003a08 <HAL_SPI_TransmitReceive_DMA+0x158>
 80038dc:	2a00      	cmp	r2, #0
 80038de:	f000 8095 	beq.w	8003a0c <HAL_SPI_TransmitReceive_DMA+0x15c>
 80038e2:	2b00      	cmp	r3, #0
 80038e4:	f000 8094 	beq.w	8003a10 <HAL_SPI_TransmitReceive_DMA+0x160>
  __HAL_LOCK(hspi);
 80038e8:	f894 0050 	ldrb.w	r0, [r4, #80]	@ 0x50
 80038ec:	2801      	cmp	r0, #1
 80038ee:	f000 8091 	beq.w	8003a14 <HAL_SPI_TransmitReceive_DMA+0x164>
 80038f2:	2001      	movs	r0, #1
 80038f4:	f884 0050 	strb.w	r0, [r4, #80]	@ 0x50
  if (hspi->State != HAL_SPI_STATE_BUSY_RX)
 80038f8:	f894 0051 	ldrb.w	r0, [r4, #81]	@ 0x51
 80038fc:	b2c0      	uxtb	r0, r0
 80038fe:	2804      	cmp	r0, #4
 8003900:	d002      	beq.n	8003908 <HAL_SPI_TransmitReceive_DMA+0x58>
    hspi->State = HAL_SPI_STATE_BUSY_TX_RX;
 8003902:	2005      	movs	r0, #5
 8003904:	f884 0051 	strb.w	r0, [r4, #81]	@ 0x51
  hspi->ErrorCode   = HAL_SPI_ERROR_NONE;
 8003908:	2000      	movs	r0, #0
 800390a:	6560      	str	r0, [r4, #84]	@ 0x54
  hspi->pTxBuffPtr  = (const uint8_t *)pTxData;
 800390c:	6321      	str	r1, [r4, #48]	@ 0x30
  hspi->TxXferSize  = Size;
 800390e:	86a3      	strh	r3, [r4, #52]	@ 0x34
  hspi->TxXferCount = Size;
 8003910:	86e3      	strh	r3, [r4, #54]	@ 0x36
  hspi->pRxBuffPtr  = (uint8_t *)pRxData;
 8003912:	63a2      	str	r2, [r4, #56]	@ 0x38
  hspi->RxXferSize  = Size;
 8003914:	87a3      	strh	r3, [r4, #60]	@ 0x3c
  hspi->RxXferCount = Size;
 8003916:	87e3      	strh	r3, [r4, #62]	@ 0x3e
  hspi->RxISR       = NULL;
 8003918:	6420      	str	r0, [r4, #64]	@ 0x40
  hspi->TxISR       = NULL;
 800391a:	6460      	str	r0, [r4, #68]	@ 0x44
  if (hspi->State == HAL_SPI_STATE_BUSY_RX)
 800391c:	f894 3051 	ldrb.w	r3, [r4, #81]	@ 0x51
 8003920:	b2db      	uxtb	r3, r3
 8003922:	2b04      	cmp	r3, #4
 8003924:	d026      	beq.n	8003974 <HAL_SPI_TransmitReceive_DMA+0xc4>
    hspi->hdmarx->XferHalfCpltCallback = SPI_DMAHalfTransmitReceiveCplt;
 8003926:	6ce2      	ldr	r2, [r4, #76]	@ 0x4c
 8003928:	f643 2329 	movw	r3, #14889	@ 0x3a29
 800392c:	f6c0 0300 	movt	r3, #2048	@ 0x800
 8003930:	62d3      	str	r3, [r2, #44]	@ 0x2c
    hspi->hdmarx->XferCpltCallback     = SPI_DMATransmitReceiveCplt;
 8003932:	6ce2      	ldr	r2, [r4, #76]	@ 0x4c
 8003934:	f643 23c5 	movw	r3, #15045	@ 0x3ac5
 8003938:	f6c0 0300 	movt	r3, #2048	@ 0x800
 800393c:	6293      	str	r3, [r2, #40]	@ 0x28
  hspi->hdmarx->XferErrorCallback = SPI_DMAError;
 800393e:	6ce2      	ldr	r2, [r4, #76]	@ 0x4c
 8003940:	f643 2335 	movw	r3, #14901	@ 0x3a35
 8003944:	f6c0 0300 	movt	r3, #2048	@ 0x800
 8003948:	6313      	str	r3, [r2, #48]	@ 0x30
  hspi->hdmarx->XferAbortCallback = NULL;
 800394a:	6ce3      	ldr	r3, [r4, #76]	@ 0x4c
 800394c:	2200      	movs	r2, #0
 800394e:	635a      	str	r2, [r3, #52]	@ 0x34
  if (HAL_OK != HAL_DMA_Start_IT(hspi->hdmarx, (uint32_t)&hspi->Instance->DR, (uint32_t)hspi->pRxBuffPtr,
 8003950:	6821      	ldr	r1, [r4, #0]
                                 hspi->RxXferCount))
 8003952:	8fe3      	ldrh	r3, [r4, #62]	@ 0x3e
  if (HAL_OK != HAL_DMA_Start_IT(hspi->hdmarx, (uint32_t)&hspi->Instance->DR, (uint32_t)hspi->pRxBuffPtr,
 8003954:	b29b      	uxth	r3, r3
 8003956:	6ba2      	ldr	r2, [r4, #56]	@ 0x38
 8003958:	310c      	adds	r1, #12
 800395a:	6ce0      	ldr	r0, [r4, #76]	@ 0x4c
 800395c:	f7fd fed2 	bl	8001704 <HAL_DMA_Start_IT>
 8003960:	b1a8      	cbz	r0, 800398e <HAL_SPI_TransmitReceive_DMA+0xde>
    SET_BIT(hspi->ErrorCode, HAL_SPI_ERROR_DMA);
 8003962:	6d63      	ldr	r3, [r4, #84]	@ 0x54
 8003964:	f043 0310 	orr.w	r3, r3, #16
 8003968:	6563      	str	r3, [r4, #84]	@ 0x54
    __HAL_UNLOCK(hspi);
 800396a:	2300      	movs	r3, #0
 800396c:	f884 3050 	strb.w	r3, [r4, #80]	@ 0x50
    return HAL_ERROR;
 8003970:	2001      	movs	r0, #1
 8003972:	e044      	b.n	80039fe <HAL_SPI_TransmitReceive_DMA+0x14e>
    hspi->hdmarx->XferHalfCpltCallback = SPI_DMAHalfReceiveCplt;
 8003974:	6ce2      	ldr	r2, [r4, #76]	@ 0x4c
 8003976:	f643 231d 	movw	r3, #14877	@ 0x3a1d
 800397a:	f6c0 0300 	movt	r3, #2048	@ 0x800
 800397e:	62d3      	str	r3, [r2, #44]	@ 0x2c
    hspi->hdmarx->XferCpltCallback     = SPI_DMAReceiveCplt;
 8003980:	6ce2      	ldr	r2, [r4, #76]	@ 0x4c
 8003982:	f643 2357 	movw	r3, #14935	@ 0x3a57
 8003986:	f6c0 0300 	movt	r3, #2048	@ 0x800
 800398a:	6293      	str	r3, [r2, #40]	@ 0x28
 800398c:	e7d7      	b.n	800393e <HAL_SPI_TransmitReceive_DMA+0x8e>
  SET_BIT(hspi->Instance->CR2, SPI_CR2_RXDMAEN);
 800398e:	6822      	ldr	r2, [r4, #0]
 8003990:	6853      	ldr	r3, [r2, #4]
 8003992:	f043 0301 	orr.w	r3, r3, #1
 8003996:	6053      	str	r3, [r2, #4]
  hspi->hdmatx->XferHalfCpltCallback = NULL;
 8003998:	6ca2      	ldr	r2, [r4, #72]	@ 0x48
 800399a:	2300      	movs	r3, #0
 800399c:	62d3      	str	r3, [r2, #44]	@ 0x2c
  hspi->hdmatx->XferCpltCallback     = NULL;
 800399e:	6ca2      	ldr	r2, [r4, #72]	@ 0x48
 80039a0:	6293      	str	r3, [r2, #40]	@ 0x28
  hspi->hdmatx->XferErrorCallback    = NULL;
 80039a2:	6ca2      	ldr	r2, [r4, #72]	@ 0x48
 80039a4:	6313      	str	r3, [r2, #48]	@ 0x30
  hspi->hdmatx->XferAbortCallback    = NULL;
 80039a6:	6ca2      	ldr	r2, [r4, #72]	@ 0x48
 80039a8:	6353      	str	r3, [r2, #52]	@ 0x34
  if (HAL_OK != HAL_DMA_Start_IT(hspi->hdmatx, (uint32_t)hspi->pTxBuffPtr, (uint32_t)&hspi->Instance->DR,
 80039aa:	6822      	ldr	r2, [r4, #0]
                                 hspi->TxXferCount))
 80039ac:	8ee3      	ldrh	r3, [r4, #54]	@ 0x36
  if (HAL_OK != HAL_DMA_Start_IT(hspi->hdmatx, (uint32_t)hspi->pTxBuffPtr, (uint32_t)&hspi->Instance->DR,
 80039ae:	b29b      	uxth	r3, r3
 80039b0:	320c      	adds	r2, #12
 80039b2:	6b21      	ldr	r1, [r4, #48]	@ 0x30
 80039b4:	6ca0      	ldr	r0, [r4, #72]	@ 0x48
 80039b6:	f7fd fea5 	bl	8001704 <HAL_DMA_Start_IT>
 80039ba:	b9b0      	cbnz	r0, 80039ea <HAL_SPI_TransmitReceive_DMA+0x13a>
  if ((hspi->Instance->CR1 & SPI_CR1_SPE) != SPI_CR1_SPE)
 80039bc:	6823      	ldr	r3, [r4, #0]
 80039be:	681a      	ldr	r2, [r3, #0]
 80039c0:	f012 0f40 	tst.w	r2, #64	@ 0x40
 80039c4:	d103      	bne.n	80039ce <HAL_SPI_TransmitReceive_DMA+0x11e>
    __HAL_SPI_ENABLE(hspi);
 80039c6:	681a      	ldr	r2, [r3, #0]
 80039c8:	f042 0240 	orr.w	r2, r2, #64	@ 0x40
 80039cc:	601a      	str	r2, [r3, #0]
  __HAL_UNLOCK(hspi);
 80039ce:	2300      	movs	r3, #0
 80039d0:	f884 3050 	strb.w	r3, [r4, #80]	@ 0x50
  __HAL_SPI_ENABLE_IT(hspi, (SPI_IT_ERR));
 80039d4:	6822      	ldr	r2, [r4, #0]
 80039d6:	6853      	ldr	r3, [r2, #4]
 80039d8:	f043 0320 	orr.w	r3, r3, #32
 80039dc:	6053      	str	r3, [r2, #4]
  SET_BIT(hspi->Instance->CR2, SPI_CR2_TXDMAEN);
 80039de:	6822      	ldr	r2, [r4, #0]
 80039e0:	6853      	ldr	r3, [r2, #4]
 80039e2:	f043 0302 	orr.w	r3, r3, #2
 80039e6:	6053      	str	r3, [r2, #4]
  return HAL_OK;
 80039e8:	e009      	b.n	80039fe <HAL_SPI_TransmitReceive_DMA+0x14e>
    SET_BIT(hspi->ErrorCode, HAL_SPI_ERROR_DMA);
 80039ea:	6d63      	ldr	r3, [r4, #84]	@ 0x54
 80039ec:	f043 0310 	orr.w	r3, r3, #16
 80039f0:	6563      	str	r3, [r4, #84]	@ 0x54
    __HAL_UNLOCK(hspi);
 80039f2:	2300      	movs	r3, #0
 80039f4:	f884 3050 	strb.w	r3, [r4, #80]	@ 0x50
    return HAL_ERROR;
 80039f8:	2001      	movs	r0, #1
 80039fa:	e000      	b.n	80039fe <HAL_SPI_TransmitReceive_DMA+0x14e>
    return HAL_BUSY;
 80039fc:	2002      	movs	r0, #2
}
 80039fe:	bd38      	pop	{r3, r4, r5, pc}
    return HAL_BUSY;
 8003a00:	2002      	movs	r0, #2
 8003a02:	e7fc      	b.n	80039fe <HAL_SPI_TransmitReceive_DMA+0x14e>
 8003a04:	2002      	movs	r0, #2
 8003a06:	e7fa      	b.n	80039fe <HAL_SPI_TransmitReceive_DMA+0x14e>
    return HAL_ERROR;
 8003a08:	2001      	movs	r0, #1
 8003a0a:	e7f8      	b.n	80039fe <HAL_SPI_TransmitReceive_DMA+0x14e>
 8003a0c:	2001      	movs	r0, #1
 8003a0e:	e7f6      	b.n	80039fe <HAL_SPI_TransmitReceive_DMA+0x14e>
 8003a10:	2001      	movs	r0, #1
 8003a12:	e7f4      	b.n	80039fe <HAL_SPI_TransmitReceive_DMA+0x14e>
  __HAL_LOCK(hspi);
 8003a14:	2002      	movs	r0, #2
 8003a16:	e7f2      	b.n	80039fe <HAL_SPI_TransmitReceive_DMA+0x14e>

08003a18 <HAL_SPI_RxCpltCallback>:
}
 8003a18:	4770      	bx	lr

08003a1a <HAL_SPI_RxHalfCpltCallback>:
}
 8003a1a:	4770      	bx	lr

08003a1c <SPI_DMAHalfReceiveCplt>:
{
 8003a1c:	b508      	push	{r3, lr}
  HAL_SPI_RxHalfCpltCallback(hspi);
 8003a1e:	6a40      	ldr	r0, [r0, #36]	@ 0x24
 8003a20:	f7ff fffb 	bl	8003a1a <HAL_SPI_RxHalfCpltCallback>
}
 8003a24:	bd08      	pop	{r3, pc}

08003a26 <HAL_SPI_TxRxHalfCpltCallback>:
}
 8003a26:	4770      	bx	lr

08003a28 <SPI_DMAHalfTransmitReceiveCplt>:
{
 8003a28:	b508      	push	{r3, lr}
  HAL_SPI_TxRxHalfCpltCallback(hspi);
 8003a2a:	6a40      	ldr	r0, [r0, #36]	@ 0x24
 8003a2c:	f7ff fffb 	bl	8003a26 <HAL_SPI_TxRxHalfCpltCallback>
}
 8003a30:	bd08      	pop	{r3, pc}

08003a32 <HAL_SPI_ErrorCallback>:
}
 8003a32:	4770      	bx	lr

08003a34 <SPI_DMAError>:
{
 8003a34:	b508      	push	{r3, lr}
  SPI_HandleTypeDef *hspi = (SPI_HandleTypeDef *)(((DMA_HandleTypeDef *)hdma)->Parent);
 8003a36:	6a40      	ldr	r0, [r0, #36]	@ 0x24
  CLEAR_BIT(hspi->Instance->CR2, SPI_CR2_TXDMAEN | SPI_CR2_RXDMAEN);
 8003a38:	6802      	ldr	r2, [r0, #0]
 8003a3a:	6853      	ldr	r3, [r2, #4]
 8003a3c:	f023 0303 	bic.w	r3, r3, #3
 8003a40:	6053      	str	r3, [r2, #4]
  SET_BIT(hspi->ErrorCode, HAL_SPI_ERROR_DMA);
 8003a42:	6d43      	ldr	r3, [r0, #84]	@ 0x54
 8003a44:	f043 0310 	orr.w	r3, r3, #16
 8003a48:	6543      	str	r3, [r0, #84]	@ 0x54
  hspi->State = HAL_SPI_STATE_READY;
 8003a4a:	2301      	movs	r3, #1
 8003a4c:	f880 3051 	strb.w	r3, [r0, #81]	@ 0x51
  HAL_SPI_ErrorCallback(hspi);
 8003a50:	f7ff ffef 	bl	8003a32 <HAL_SPI_ErrorCallback>
}
 8003a54:	bd08      	pop	{r3, pc}

08003a56 <SPI_DMAReceiveCplt>:
{
 8003a56:	b538      	push	{r3, r4, r5, lr}
 8003a58:	4605      	mov	r5, r0
  SPI_HandleTypeDef *hspi = (SPI_HandleTypeDef *)(((DMA_HandleTypeDef *)hdma)->Parent);
 8003a5a:	6a44      	ldr	r4, [r0, #36]	@ 0x24
  tickstart = HAL_GetTick();
 8003a5c:	f7fd fabf 	bl	8000fde <HAL_GetTick>
  if ((hdma->Instance->CCR & DMA_CCR_CIRC) != DMA_CCR_CIRC)
 8003a60:	682b      	ldr	r3, [r5, #0]
 8003a62:	681b      	ldr	r3, [r3, #0]
 8003a64:	f013 0f20 	tst.w	r3, #32
 8003a68:	d11e      	bne.n	8003aa8 <SPI_DMAReceiveCplt+0x52>
 8003a6a:	4602      	mov	r2, r0
    __HAL_SPI_DISABLE_IT(hspi, SPI_IT_ERR);
 8003a6c:	6821      	ldr	r1, [r4, #0]
 8003a6e:	684b      	ldr	r3, [r1, #4]
 8003a70:	f023 0320 	bic.w	r3, r3, #32
 8003a74:	604b      	str	r3, [r1, #4]
    if ((hspi->Init.Direction == SPI_DIRECTION_2LINES) && (hspi->Init.Mode == SPI_MODE_MASTER))
 8003a76:	68a3      	ldr	r3, [r4, #8]
 8003a78:	b91b      	cbnz	r3, 8003a82 <SPI_DMAReceiveCplt+0x2c>
 8003a7a:	6863      	ldr	r3, [r4, #4]
 8003a7c:	f5b3 7f82 	cmp.w	r3, #260	@ 0x104
 8003a80:	d016      	beq.n	8003ab0 <SPI_DMAReceiveCplt+0x5a>
      CLEAR_BIT(hspi->Instance->CR2, SPI_CR2_RXDMAEN);
 8003a82:	6821      	ldr	r1, [r4, #0]
 8003a84:	684b      	ldr	r3, [r1, #4]
 8003a86:	f023 0301 	bic.w	r3, r3, #1
 8003a8a:	604b      	str	r3, [r1, #4]
    if (SPI_EndRxTransaction(hspi, SPI_DEFAULT_TIMEOUT, tickstart) != HAL_OK)
 8003a8c:	2164      	movs	r1, #100	@ 0x64
 8003a8e:	4620      	mov	r0, r4
 8003a90:	f7ff fd97 	bl	80035c2 <SPI_EndRxTransaction>
 8003a94:	b108      	cbz	r0, 8003a9a <SPI_DMAReceiveCplt+0x44>
      hspi->ErrorCode = HAL_SPI_ERROR_FLAG;
 8003a96:	2320      	movs	r3, #32
 8003a98:	6563      	str	r3, [r4, #84]	@ 0x54
    hspi->RxXferCount = 0U;
 8003a9a:	2300      	movs	r3, #0
 8003a9c:	87e3      	strh	r3, [r4, #62]	@ 0x3e
    hspi->State = HAL_SPI_STATE_READY;
 8003a9e:	2301      	movs	r3, #1
 8003aa0:	f884 3051 	strb.w	r3, [r4, #81]	@ 0x51
    if (hspi->ErrorCode != HAL_SPI_ERROR_NONE)
 8003aa4:	6d63      	ldr	r3, [r4, #84]	@ 0x54
 8003aa6:	b94b      	cbnz	r3, 8003abc <SPI_DMAReceiveCplt+0x66>
  HAL_SPI_RxCpltCallback(hspi);
 8003aa8:	4620      	mov	r0, r4
 8003aaa:	f7ff ffb5 	bl	8003a18 <HAL_SPI_RxCpltCallback>
}
 8003aae:	bd38      	pop	{r3, r4, r5, pc}
      CLEAR_BIT(hspi->Instance->CR2, SPI_CR2_TXDMAEN | SPI_CR2_RXDMAEN);
 8003ab0:	6821      	ldr	r1, [r4, #0]
 8003ab2:	684b      	ldr	r3, [r1, #4]
 8003ab4:	f023 0303 	bic.w	r3, r3, #3
 8003ab8:	604b      	str	r3, [r1, #4]
 8003aba:	e7e7      	b.n	8003a8c <SPI_DMAReceiveCplt+0x36>
      HAL_SPI_ErrorCallback(hspi);
 8003abc:	4620      	mov	r0, r4
 8003abe:	f7ff ffb8 	bl	8003a32 <HAL_SPI_ErrorCallback>
      return;
 8003ac2:	e7f4      	b.n	8003aae <SPI_DMAReceiveCplt+0x58>

08003ac4 <SPI_DMATransmitReceiveCplt>:
{
 8003ac4:	b538      	push	{r3, r4, r5, lr}
 8003ac6:	4605      	mov	r5, r0
  SPI_HandleTypeDef *hspi = (SPI_HandleTypeDef *)(((DMA_HandleTypeDef *)hdma)->Parent);
 8003ac8:	6a44      	ldr	r4, [r0, #36]	@ 0x24
  tickstart = HAL_GetTick();
 8003aca:	f7fd fa88 	bl	8000fde <HAL_GetTick>
  if ((hdma->Instance->CCR & DMA_CCR_CIRC) != DMA_CCR_CIRC)
 8003ace:	682b      	ldr	r3, [r5, #0]
 8003ad0:	681b      	ldr	r3, [r3, #0]
 8003ad2:	f013 0f20 	tst.w	r3, #32
 8003ad6:	d11b      	bne.n	8003b10 <SPI_DMATransmitReceiveCplt+0x4c>
 8003ad8:	4602      	mov	r2, r0
    __HAL_SPI_DISABLE_IT(hspi, SPI_IT_ERR);
 8003ada:	6821      	ldr	r1, [r4, #0]
 8003adc:	684b      	ldr	r3, [r1, #4]
 8003ade:	f023 0320 	bic.w	r3, r3, #32
 8003ae2:	604b      	str	r3, [r1, #4]
    if (SPI_EndRxTxTransaction(hspi, SPI_DEFAULT_TIMEOUT, tickstart) != HAL_OK)
 8003ae4:	2164      	movs	r1, #100	@ 0x64
 8003ae6:	4620      	mov	r0, r4
 8003ae8:	f7ff fd49 	bl	800357e <SPI_EndRxTxTransaction>
 8003aec:	b118      	cbz	r0, 8003af6 <SPI_DMATransmitReceiveCplt+0x32>
      SET_BIT(hspi->ErrorCode, HAL_SPI_ERROR_FLAG);
 8003aee:	6d63      	ldr	r3, [r4, #84]	@ 0x54
 8003af0:	f043 0320 	orr.w	r3, r3, #32
 8003af4:	6563      	str	r3, [r4, #84]	@ 0x54
    CLEAR_BIT(hspi->Instance->CR2, SPI_CR2_TXDMAEN | SPI_CR2_RXDMAEN);
 8003af6:	6822      	ldr	r2, [r4, #0]
 8003af8:	6853      	ldr	r3, [r2, #4]
 8003afa:	f023 0303 	bic.w	r3, r3, #3
 8003afe:	6053      	str	r3, [r2, #4]
    hspi->TxXferCount = 0U;
 8003b00:	2300      	movs	r3, #0
 8003b02:	86e3      	strh	r3, [r4, #54]	@ 0x36
    hspi->RxXferCount = 0U;
 8003b04:	87e3      	strh	r3, [r4, #62]	@ 0x3e
    hspi->State = HAL_SPI_STATE_READY;
 8003b06:	2301      	movs	r3, #1
 8003b08:	f884 3051 	strb.w	r3, [r4, #81]	@ 0x51
    if (hspi->ErrorCode != HAL_SPI_ERROR_NONE)
 8003b0c:	6d63      	ldr	r3, [r4, #84]	@ 0x54
 8003b0e:	b91b      	cbnz	r3, 8003b18 <SPI_DMATransmitReceiveCplt+0x54>
  HAL_SPI_TxRxCpltCallback(hspi);
 8003b10:	4620      	mov	r0, r4
 8003b12:	f003 fdc4 	bl	800769e <HAL_SPI_TxRxCpltCallback>
}
 8003b16:	bd38      	pop	{r3, r4, r5, pc}
      HAL_SPI_ErrorCallback(hspi);
 8003b18:	4620      	mov	r0, r4
 8003b1a:	f7ff ff8a 	bl	8003a32 <HAL_SPI_ErrorCallback>
      return;
 8003b1e:	e7fa      	b.n	8003b16 <SPI_DMATransmitReceiveCplt+0x52>

08003b20 <TIM_TI1_ConfigInputStage>:
  * @param  TIM_ICFilter Specifies the Input Capture Filter.
  *          This parameter must be a value between 0x00 and 0x0F.
  * @retval None
  */
static void TIM_TI1_ConfigInputStage(TIM_TypeDef *TIMx, uint32_t TIM_ICPolarity, uint32_t TIM_ICFilter)
{
 8003b20:	b410      	push	{r4}
  uint32_t tmpccmr1;
  uint32_t tmpccer;

  /* Disable the Channel 1: Reset the CC1E Bit */
  tmpccer = TIMx->CCER;
 8003b22:	6a03      	ldr	r3, [r0, #32]
  TIMx->CCER &= ~TIM_CCER_CC1E;
 8003b24:	6a04      	ldr	r4, [r0, #32]
 8003b26:	f024 0401 	bic.w	r4, r4, #1
 8003b2a:	6204      	str	r4, [r0, #32]
  tmpccmr1 = TIMx->CCMR1;
 8003b2c:	6984      	ldr	r4, [r0, #24]

  /* Set the filter */
  tmpccmr1 &= ~TIM_CCMR1_IC1F;
 8003b2e:	f024 0cf0 	bic.w	ip, r4, #240	@ 0xf0
  tmpccmr1 |= (TIM_ICFilter << 4U);
 8003b32:	ea4c 1202 	orr.w	r2, ip, r2, lsl #4

  /* Select the Polarity and set the CC1E Bit */
  tmpccer &= ~(TIM_CCER_CC1P | TIM_CCER_CC1NP);
 8003b36:	f023 030a 	bic.w	r3, r3, #10
  tmpccer |= TIM_ICPolarity;
 8003b3a:	430b      	orrs	r3, r1

  /* Write to TIMx CCMR1 and CCER registers */
  TIMx->CCMR1 = tmpccmr1;
 8003b3c:	6182      	str	r2, [r0, #24]
  TIMx->CCER = tmpccer;
 8003b3e:	6203      	str	r3, [r0, #32]
}
 8003b40:	bc10      	pop	{r4}
 8003b42:	4770      	bx	lr

08003b44 <TIM_TI2_ConfigInputStage>:
  * @param  TIM_ICFilter Specifies the Input Capture Filter.
  *          This parameter must be a value between 0x00 and 0x0F.
  * @retval None
  */
static void TIM_TI2_ConfigInputStage(TIM_TypeDef *TIMx, uint32_t TIM_ICPolarity, uint32_t TIM_ICFilter)
{
 8003b44:	b410      	push	{r4}
  uint32_t tmpccmr1;
  uint32_t tmpccer;

  /* Disable the Channel 2: Reset the CC2E Bit */
  tmpccer = TIMx->CCER;
 8003b46:	6a03      	ldr	r3, [r0, #32]
  TIMx->CCER &= ~TIM_CCER_CC2E;
 8003b48:	6a04      	ldr	r4, [r0, #32]
 8003b4a:	f024 0410 	bic.w	r4, r4, #16
 8003b4e:	6204      	str	r4, [r0, #32]
  tmpccmr1 = TIMx->CCMR1;
 8003b50:	6984      	ldr	r4, [r0, #24]

  /* Set the filter */
  tmpccmr1 &= ~TIM_CCMR1_IC2F;
 8003b52:	f424 4c70 	bic.w	ip, r4, #61440	@ 0xf000
  tmpccmr1 |= (TIM_ICFilter << 12U);
 8003b56:	ea4c 3202 	orr.w	r2, ip, r2, lsl #12

  /* Select the Polarity and set the CC2E Bit */
  tmpccer &= ~(TIM_CCER_CC2P | TIM_CCER_CC2NP);
 8003b5a:	f023 03a0 	bic.w	r3, r3, #160	@ 0xa0
  tmpccer |= (TIM_ICPolarity << 4U);
 8003b5e:	ea43 1301 	orr.w	r3, r3, r1, lsl #4

  /* Write to TIMx CCMR1 and CCER registers */
  TIMx->CCMR1 = tmpccmr1 ;
 8003b62:	6182      	str	r2, [r0, #24]
  TIMx->CCER = tmpccer;
 8003b64:	6203      	str	r3, [r0, #32]
}
 8003b66:	bc10      	pop	{r4}
 8003b68:	4770      	bx	lr

08003b6a <TIM_ITRx_SetConfig>:
static void TIM_ITRx_SetConfig(TIM_TypeDef *TIMx, uint32_t InputTriggerSource)
{
  uint32_t tmpsmcr;

  /* Get the TIMx SMCR register value */
  tmpsmcr = TIMx->SMCR;
 8003b6a:	6883      	ldr	r3, [r0, #8]
  /* Reset the TS Bits */
  tmpsmcr &= ~TIM_SMCR_TS;
 8003b6c:	f023 0370 	bic.w	r3, r3, #112	@ 0x70
  /* Set the Input Trigger source and the slave mode*/
  tmpsmcr |= (InputTriggerSource | TIM_SLAVEMODE_EXTERNAL1);
 8003b70:	430b      	orrs	r3, r1
 8003b72:	f043 0307 	orr.w	r3, r3, #7
  /* Write to TIMx SMCR */
  TIMx->SMCR = tmpsmcr;
 8003b76:	6083      	str	r3, [r0, #8]
}
 8003b78:	4770      	bx	lr

08003b7a <HAL_TIM_Base_Start_IT>:
  if (htim->State != HAL_TIM_STATE_READY)
 8003b7a:	f890 303d 	ldrb.w	r3, [r0, #61]	@ 0x3d
 8003b7e:	b2db      	uxtb	r3, r3
 8003b80:	2b01      	cmp	r3, #1
 8003b82:	d12e      	bne.n	8003be2 <HAL_TIM_Base_Start_IT+0x68>
  htim->State = HAL_TIM_STATE_BUSY;
 8003b84:	2302      	movs	r3, #2
 8003b86:	f880 303d 	strb.w	r3, [r0, #61]	@ 0x3d
  __HAL_TIM_ENABLE_IT(htim, TIM_IT_UPDATE);
 8003b8a:	6802      	ldr	r2, [r0, #0]
 8003b8c:	68d3      	ldr	r3, [r2, #12]
 8003b8e:	f043 0301 	orr.w	r3, r3, #1
 8003b92:	60d3      	str	r3, [r2, #12]
  if (IS_TIM_SLAVE_INSTANCE(htim->Instance))
 8003b94:	6803      	ldr	r3, [r0, #0]
 8003b96:	f44f 5230 	mov.w	r2, #11264	@ 0x2c00
 8003b9a:	f2c4 0201 	movt	r2, #16385	@ 0x4001
 8003b9e:	4293      	cmp	r3, r2
 8003ba0:	d014      	beq.n	8003bcc <HAL_TIM_Base_Start_IT+0x52>
 8003ba2:	f1b3 4f80 	cmp.w	r3, #1073741824	@ 0x40000000
 8003ba6:	d011      	beq.n	8003bcc <HAL_TIM_Base_Start_IT+0x52>
 8003ba8:	f44f 6280 	mov.w	r2, #1024	@ 0x400
 8003bac:	f2c4 0200 	movt	r2, #16384	@ 0x4000
 8003bb0:	4293      	cmp	r3, r2
 8003bb2:	d00b      	beq.n	8003bcc <HAL_TIM_Base_Start_IT+0x52>
 8003bb4:	f44f 6200 	mov.w	r2, #2048	@ 0x800
 8003bb8:	f2c4 0200 	movt	r2, #16384	@ 0x4000
 8003bbc:	4293      	cmp	r3, r2
 8003bbe:	d005      	beq.n	8003bcc <HAL_TIM_Base_Start_IT+0x52>
    __HAL_TIM_ENABLE(htim);
 8003bc0:	681a      	ldr	r2, [r3, #0]
 8003bc2:	f042 0201 	orr.w	r2, r2, #1
 8003bc6:	601a      	str	r2, [r3, #0]
  return HAL_OK;
 8003bc8:	2000      	movs	r0, #0
 8003bca:	4770      	bx	lr
    tmpsmcr = htim->Instance->SMCR & TIM_SMCR_SMS;
 8003bcc:	689a      	ldr	r2, [r3, #8]
 8003bce:	f002 0207 	and.w	r2, r2, #7
    if (!IS_TIM_SLAVEMODE_TRIGGER_ENABLED(tmpsmcr))
 8003bd2:	2a06      	cmp	r2, #6
 8003bd4:	d007      	beq.n	8003be6 <HAL_TIM_Base_Start_IT+0x6c>
      __HAL_TIM_ENABLE(htim);
 8003bd6:	681a      	ldr	r2, [r3, #0]
 8003bd8:	f042 0201 	orr.w	r2, r2, #1
 8003bdc:	601a      	str	r2, [r3, #0]
  return HAL_OK;
 8003bde:	2000      	movs	r0, #0
 8003be0:	4770      	bx	lr
    return HAL_ERROR;
 8003be2:	2001      	movs	r0, #1
 8003be4:	4770      	bx	lr
  return HAL_OK;
 8003be6:	2000      	movs	r0, #0
}
 8003be8:	4770      	bx	lr

08003bea <HAL_TIM_Base_Stop_IT>:
  __HAL_TIM_DISABLE_IT(htim, TIM_IT_UPDATE);
 8003bea:	6802      	ldr	r2, [r0, #0]
 8003bec:	68d3      	ldr	r3, [r2, #12]
 8003bee:	f023 0301 	bic.w	r3, r3, #1
 8003bf2:	60d3      	str	r3, [r2, #12]
  __HAL_TIM_DISABLE(htim);
 8003bf4:	6803      	ldr	r3, [r0, #0]
 8003bf6:	6a19      	ldr	r1, [r3, #32]
 8003bf8:	f241 1211 	movw	r2, #4369	@ 0x1111
 8003bfc:	4211      	tst	r1, r2
 8003bfe:	d108      	bne.n	8003c12 <HAL_TIM_Base_Stop_IT+0x28>
 8003c00:	6a19      	ldr	r1, [r3, #32]
 8003c02:	f240 4244 	movw	r2, #1092	@ 0x444
 8003c06:	4211      	tst	r1, r2
 8003c08:	d103      	bne.n	8003c12 <HAL_TIM_Base_Stop_IT+0x28>
 8003c0a:	681a      	ldr	r2, [r3, #0]
 8003c0c:	f022 0201 	bic.w	r2, r2, #1
 8003c10:	601a      	str	r2, [r3, #0]
  htim->State = HAL_TIM_STATE_READY;
 8003c12:	2301      	movs	r3, #1
 8003c14:	f880 303d 	strb.w	r3, [r0, #61]	@ 0x3d
}
 8003c18:	2000      	movs	r0, #0
 8003c1a:	4770      	bx	lr

08003c1c <HAL_TIM_OC_DelayElapsedCallback>:
}
 8003c1c:	4770      	bx	lr

08003c1e <HAL_TIM_IC_CaptureCallback>:
}
 8003c1e:	4770      	bx	lr

08003c20 <HAL_TIM_PWM_PulseFinishedCallback>:
}
 8003c20:	4770      	bx	lr

08003c22 <HAL_TIM_TriggerCallback>:
}
 8003c22:	4770      	bx	lr

08003c24 <HAL_TIM_IRQHandler>:
{
 8003c24:	b570      	push	{r4, r5, r6, lr}
 8003c26:	4604      	mov	r4, r0
  uint32_t itsource = htim->Instance->DIER;
 8003c28:	6803      	ldr	r3, [r0, #0]
 8003c2a:	68de      	ldr	r6, [r3, #12]
  uint32_t itflag   = htim->Instance->SR;
 8003c2c:	691d      	ldr	r5, [r3, #16]
  if ((itflag & (TIM_FLAG_CC1)) == (TIM_FLAG_CC1))
 8003c2e:	f015 0f02 	tst.w	r5, #2
 8003c32:	d010      	beq.n	8003c56 <HAL_TIM_IRQHandler+0x32>
    if ((itsource & (TIM_IT_CC1)) == (TIM_IT_CC1))
 8003c34:	f016 0f02 	tst.w	r6, #2
 8003c38:	d00d      	beq.n	8003c56 <HAL_TIM_IRQHandler+0x32>
        __HAL_TIM_CLEAR_FLAG(htim, TIM_FLAG_CC1);
 8003c3a:	f06f 0202 	mvn.w	r2, #2
 8003c3e:	611a      	str	r2, [r3, #16]
        htim->Channel = HAL_TIM_ACTIVE_CHANNEL_1;
 8003c40:	2301      	movs	r3, #1
 8003c42:	7703      	strb	r3, [r0, #28]
        if ((htim->Instance->CCMR1 & TIM_CCMR1_CC1S) != 0x00U)
 8003c44:	6803      	ldr	r3, [r0, #0]
 8003c46:	699b      	ldr	r3, [r3, #24]
 8003c48:	f013 0f03 	tst.w	r3, #3
 8003c4c:	d05e      	beq.n	8003d0c <HAL_TIM_IRQHandler+0xe8>
          HAL_TIM_IC_CaptureCallback(htim);
 8003c4e:	f7ff ffe6 	bl	8003c1e <HAL_TIM_IC_CaptureCallback>
        htim->Channel = HAL_TIM_ACTIVE_CHANNEL_CLEARED;
 8003c52:	2300      	movs	r3, #0
 8003c54:	7723      	strb	r3, [r4, #28]
  if ((itflag & (TIM_FLAG_CC2)) == (TIM_FLAG_CC2))
 8003c56:	f015 0f04 	tst.w	r5, #4
 8003c5a:	d012      	beq.n	8003c82 <HAL_TIM_IRQHandler+0x5e>
    if ((itsource & (TIM_IT_CC2)) == (TIM_IT_CC2))
 8003c5c:	f016 0f04 	tst.w	r6, #4
 8003c60:	d00f      	beq.n	8003c82 <HAL_TIM_IRQHandler+0x5e>
      __HAL_TIM_CLEAR_FLAG(htim, TIM_FLAG_CC2);
 8003c62:	6823      	ldr	r3, [r4, #0]
 8003c64:	f06f 0204 	mvn.w	r2, #4
 8003c68:	611a      	str	r2, [r3, #16]
      htim->Channel = HAL_TIM_ACTIVE_CHANNEL_2;
 8003c6a:	2302      	movs	r3, #2
 8003c6c:	7723      	strb	r3, [r4, #28]
      if ((htim->Instance->CCMR1 & TIM_CCMR1_CC2S) != 0x00U)
 8003c6e:	6823      	ldr	r3, [r4, #0]
 8003c70:	699b      	ldr	r3, [r3, #24]
 8003c72:	f413 7f40 	tst.w	r3, #768	@ 0x300
 8003c76:	d04f      	beq.n	8003d18 <HAL_TIM_IRQHandler+0xf4>
        HAL_TIM_IC_CaptureCallback(htim);
 8003c78:	4620      	mov	r0, r4
 8003c7a:	f7ff ffd0 	bl	8003c1e <HAL_TIM_IC_CaptureCallback>
      htim->Channel = HAL_TIM_ACTIVE_CHANNEL_CLEARED;
 8003c7e:	2300      	movs	r3, #0
 8003c80:	7723      	strb	r3, [r4, #28]
  if ((itflag & (TIM_FLAG_CC3)) == (TIM_FLAG_CC3))
 8003c82:	f015 0f08 	tst.w	r5, #8
 8003c86:	d012      	beq.n	8003cae <HAL_TIM_IRQHandler+0x8a>
    if ((itsource & (TIM_IT_CC3)) == (TIM_IT_CC3))
 8003c88:	f016 0f08 	tst.w	r6, #8
 8003c8c:	d00f      	beq.n	8003cae <HAL_TIM_IRQHandler+0x8a>
      __HAL_TIM_CLEAR_FLAG(htim, TIM_FLAG_CC3);
 8003c8e:	6823      	ldr	r3, [r4, #0]
 8003c90:	f06f 0208 	mvn.w	r2, #8
 8003c94:	611a      	str	r2, [r3, #16]
      htim->Channel = HAL_TIM_ACTIVE_CHANNEL_3;
 8003c96:	2304      	movs	r3, #4
 8003c98:	7723      	strb	r3, [r4, #28]
      if ((htim->Instance->CCMR2 & TIM_CCMR2_CC3S) != 0x00U)
 8003c9a:	6823      	ldr	r3, [r4, #0]
 8003c9c:	69db      	ldr	r3, [r3, #28]
 8003c9e:	f013 0f03 	tst.w	r3, #3
 8003ca2:	d040      	beq.n	8003d26 <HAL_TIM_IRQHandler+0x102>
        HAL_TIM_IC_CaptureCallback(htim);
 8003ca4:	4620      	mov	r0, r4
 8003ca6:	f7ff ffba 	bl	8003c1e <HAL_TIM_IC_CaptureCallback>
      htim->Channel = HAL_TIM_ACTIVE_CHANNEL_CLEARED;
 8003caa:	2300      	movs	r3, #0
 8003cac:	7723      	strb	r3, [r4, #28]
  if ((itflag & (TIM_FLAG_CC4)) == (TIM_FLAG_CC4))
 8003cae:	f015 0f10 	tst.w	r5, #16
 8003cb2:	d012      	beq.n	8003cda <HAL_TIM_IRQHandler+0xb6>
    if ((itsource & (TIM_IT_CC4)) == (TIM_IT_CC4))
 8003cb4:	f016 0f10 	tst.w	r6, #16
 8003cb8:	d00f      	beq.n	8003cda <HAL_TIM_IRQHandler+0xb6>
      __HAL_TIM_CLEAR_FLAG(htim, TIM_FLAG_CC4);
 8003cba:	6823      	ldr	r3, [r4, #0]
 8003cbc:	f06f 0210 	mvn.w	r2, #16
 8003cc0:	611a      	str	r2, [r3, #16]
      htim->Channel = HAL_TIM_ACTIVE_CHANNEL_4;
 8003cc2:	2308      	movs	r3, #8
 8003cc4:	7723      	strb	r3, [r4, #28]
      if ((htim->Instance->CCMR2 & TIM_CCMR2_CC4S) != 0x00U)
 8003cc6:	6823      	ldr	r3, [r4, #0]
 8003cc8:	69db      	ldr	r3, [r3, #28]
 8003cca:	f413 7f40 	tst.w	r3, #768	@ 0x300
 8003cce:	d031      	beq.n	8003d34 <HAL_TIM_IRQHandler+0x110>
        HAL_TIM_IC_CaptureCallback(htim);
 8003cd0:	4620      	mov	r0, r4
 8003cd2:	f7ff ffa4 	bl	8003c1e <HAL_TIM_IC_CaptureCallback>
      htim->Channel = HAL_TIM_ACTIVE_CHANNEL_CLEARED;
 8003cd6:	2300      	movs	r3, #0
 8003cd8:	7723      	strb	r3, [r4, #28]
  if ((itflag & (TIM_FLAG_UPDATE)) == (TIM_FLAG_UPDATE))
 8003cda:	f015 0f01 	tst.w	r5, #1
 8003cde:	d002      	beq.n	8003ce6 <HAL_TIM_IRQHandler+0xc2>
    if ((itsource & (TIM_IT_UPDATE)) == (TIM_IT_UPDATE))
 8003ce0:	f016 0f01 	tst.w	r6, #1
 8003ce4:	d12d      	bne.n	8003d42 <HAL_TIM_IRQHandler+0x11e>
  if ((itflag & (TIM_FLAG_BREAK)) == (TIM_FLAG_BREAK))
 8003ce6:	f015 0f80 	tst.w	r5, #128	@ 0x80
 8003cea:	d002      	beq.n	8003cf2 <HAL_TIM_IRQHandler+0xce>
    if ((itsource & (TIM_IT_BREAK)) == (TIM_IT_BREAK))
 8003cec:	f016 0f80 	tst.w	r6, #128	@ 0x80
 8003cf0:	d12f      	bne.n	8003d52 <HAL_TIM_IRQHandler+0x12e>
  if ((itflag & (TIM_FLAG_TRIGGER)) == (TIM_FLAG_TRIGGER))
 8003cf2:	f015 0f40 	tst.w	r5, #64	@ 0x40
 8003cf6:	d002      	beq.n	8003cfe <HAL_TIM_IRQHandler+0xda>
    if ((itsource & (TIM_IT_TRIGGER)) == (TIM_IT_TRIGGER))
 8003cf8:	f016 0f40 	tst.w	r6, #64	@ 0x40
 8003cfc:	d131      	bne.n	8003d62 <HAL_TIM_IRQHandler+0x13e>
  if ((itflag & (TIM_FLAG_COM)) == (TIM_FLAG_COM))
 8003cfe:	f015 0f20 	tst.w	r5, #32
 8003d02:	d002      	beq.n	8003d0a <HAL_TIM_IRQHandler+0xe6>
    if ((itsource & (TIM_IT_COM)) == (TIM_IT_COM))
 8003d04:	f016 0f20 	tst.w	r6, #32
 8003d08:	d133      	bne.n	8003d72 <HAL_TIM_IRQHandler+0x14e>
}
 8003d0a:	bd70      	pop	{r4, r5, r6, pc}
          HAL_TIM_OC_DelayElapsedCallback(htim);
 8003d0c:	f7ff ff86 	bl	8003c1c <HAL_TIM_OC_DelayElapsedCallback>
          HAL_TIM_PWM_PulseFinishedCallback(htim);
 8003d10:	4620      	mov	r0, r4
 8003d12:	f7ff ff85 	bl	8003c20 <HAL_TIM_PWM_PulseFinishedCallback>
 8003d16:	e79c      	b.n	8003c52 <HAL_TIM_IRQHandler+0x2e>
        HAL_TIM_OC_DelayElapsedCallback(htim);
 8003d18:	4620      	mov	r0, r4
 8003d1a:	f7ff ff7f 	bl	8003c1c <HAL_TIM_OC_DelayElapsedCallback>
        HAL_TIM_PWM_PulseFinishedCallback(htim);
 8003d1e:	4620      	mov	r0, r4
 8003d20:	f7ff ff7e 	bl	8003c20 <HAL_TIM_PWM_PulseFinishedCallback>
 8003d24:	e7ab      	b.n	8003c7e <HAL_TIM_IRQHandler+0x5a>
        HAL_TIM_OC_DelayElapsedCallback(htim);
 8003d26:	4620      	mov	r0, r4
 8003d28:	f7ff ff78 	bl	8003c1c <HAL_TIM_OC_DelayElapsedCallback>
        HAL_TIM_PWM_PulseFinishedCallback(htim);
 8003d2c:	4620      	mov	r0, r4
 8003d2e:	f7ff ff77 	bl	8003c20 <HAL_TIM_PWM_PulseFinishedCallback>
 8003d32:	e7ba      	b.n	8003caa <HAL_TIM_IRQHandler+0x86>
        HAL_TIM_OC_DelayElapsedCallback(htim);
 8003d34:	4620      	mov	r0, r4
 8003d36:	f7ff ff71 	bl	8003c1c <HAL_TIM_OC_DelayElapsedCallback>
        HAL_TIM_PWM_PulseFinishedCallback(htim);
 8003d3a:	4620      	mov	r0, r4
 8003d3c:	f7ff ff70 	bl	8003c20 <HAL_TIM_PWM_PulseFinishedCallback>
 8003d40:	e7c9      	b.n	8003cd6 <HAL_TIM_IRQHandler+0xb2>
      __HAL_TIM_CLEAR_FLAG(htim, TIM_FLAG_UPDATE);
 8003d42:	6823      	ldr	r3, [r4, #0]
 8003d44:	f06f 0201 	mvn.w	r2, #1
 8003d48:	611a      	str	r2, [r3, #16]
      HAL_TIM_PeriodElapsedCallback(htim);
 8003d4a:	4620      	mov	r0, r4
 8003d4c:	f003 fcbf 	bl	80076ce <HAL_TIM_PeriodElapsedCallback>
 8003d50:	e7c9      	b.n	8003ce6 <HAL_TIM_IRQHandler+0xc2>
      __HAL_TIM_CLEAR_FLAG(htim, TIM_FLAG_BREAK);
 8003d52:	6823      	ldr	r3, [r4, #0]
 8003d54:	f06f 0280 	mvn.w	r2, #128	@ 0x80
 8003d58:	611a      	str	r2, [r3, #16]
      HAL_TIMEx_BreakCallback(htim);
 8003d5a:	4620      	mov	r0, r4
 8003d5c:	f000 f953 	bl	8004006 <HAL_TIMEx_BreakCallback>
 8003d60:	e7c7      	b.n	8003cf2 <HAL_TIM_IRQHandler+0xce>
      __HAL_TIM_CLEAR_FLAG(htim, TIM_FLAG_TRIGGER);
 8003d62:	6823      	ldr	r3, [r4, #0]
 8003d64:	f06f 0240 	mvn.w	r2, #64	@ 0x40
 8003d68:	611a      	str	r2, [r3, #16]
      HAL_TIM_TriggerCallback(htim);
 8003d6a:	4620      	mov	r0, r4
 8003d6c:	f7ff ff59 	bl	8003c22 <HAL_TIM_TriggerCallback>
 8003d70:	e7c5      	b.n	8003cfe <HAL_TIM_IRQHandler+0xda>
      __HAL_TIM_CLEAR_FLAG(htim, TIM_FLAG_COM);
 8003d72:	6823      	ldr	r3, [r4, #0]
 8003d74:	f06f 0220 	mvn.w	r2, #32
 8003d78:	611a      	str	r2, [r3, #16]
      HAL_TIMEx_CommutCallback(htim);
 8003d7a:	4620      	mov	r0, r4
 8003d7c:	f000 f942 	bl	8004004 <HAL_TIMEx_CommutCallback>
}
 8003d80:	e7c3      	b.n	8003d0a <HAL_TIM_IRQHandler+0xe6>

08003d82 <TIM_Base_SetConfig>:
  tmpcr1 = TIMx->CR1;
 8003d82:	6803      	ldr	r3, [r0, #0]
  if (IS_TIM_COUNTER_MODE_SELECT_INSTANCE(TIMx))
 8003d84:	f44f 5230 	mov.w	r2, #11264	@ 0x2c00
 8003d88:	f2c4 0201 	movt	r2, #16385	@ 0x4001
 8003d8c:	4290      	cmp	r0, r2
 8003d8e:	d00e      	beq.n	8003dae <TIM_Base_SetConfig+0x2c>
 8003d90:	f1b0 4f80 	cmp.w	r0, #1073741824	@ 0x40000000
 8003d94:	d00b      	beq.n	8003dae <TIM_Base_SetConfig+0x2c>
 8003d96:	f44f 6280 	mov.w	r2, #1024	@ 0x400
 8003d9a:	f2c4 0200 	movt	r2, #16384	@ 0x4000
 8003d9e:	4290      	cmp	r0, r2
 8003da0:	d005      	beq.n	8003dae <TIM_Base_SetConfig+0x2c>
 8003da2:	f44f 6200 	mov.w	r2, #2048	@ 0x800
 8003da6:	f2c4 0200 	movt	r2, #16384	@ 0x4000
 8003daa:	4290      	cmp	r0, r2
 8003dac:	d103      	bne.n	8003db6 <TIM_Base_SetConfig+0x34>
    tmpcr1 &= ~(TIM_CR1_DIR | TIM_CR1_CMS);
 8003dae:	f023 0370 	bic.w	r3, r3, #112	@ 0x70
    tmpcr1 |= Structure->CounterMode;
 8003db2:	684a      	ldr	r2, [r1, #4]
 8003db4:	4313      	orrs	r3, r2
  if (IS_TIM_CLOCK_DIVISION_INSTANCE(TIMx))
 8003db6:	f44f 5230 	mov.w	r2, #11264	@ 0x2c00
 8003dba:	f2c4 0201 	movt	r2, #16385	@ 0x4001
 8003dbe:	4290      	cmp	r0, r2
 8003dc0:	d00e      	beq.n	8003de0 <TIM_Base_SetConfig+0x5e>
 8003dc2:	f1b0 4f80 	cmp.w	r0, #1073741824	@ 0x40000000
 8003dc6:	d00b      	beq.n	8003de0 <TIM_Base_SetConfig+0x5e>
 8003dc8:	f44f 6280 	mov.w	r2, #1024	@ 0x400
 8003dcc:	f2c4 0200 	movt	r2, #16384	@ 0x4000
 8003dd0:	4290      	cmp	r0, r2
 8003dd2:	d005      	beq.n	8003de0 <TIM_Base_SetConfig+0x5e>
 8003dd4:	f44f 6200 	mov.w	r2, #2048	@ 0x800
 8003dd8:	f2c4 0200 	movt	r2, #16384	@ 0x4000
 8003ddc:	4290      	cmp	r0, r2
 8003dde:	d103      	bne.n	8003de8 <TIM_Base_SetConfig+0x66>
    tmpcr1 &= ~TIM_CR1_CKD;
 8003de0:	f423 7340 	bic.w	r3, r3, #768	@ 0x300
    tmpcr1 |= (uint32_t)Structure->ClockDivision;
 8003de4:	68ca      	ldr	r2, [r1, #12]
 8003de6:	4313      	orrs	r3, r2
  MODIFY_REG(tmpcr1, TIM_CR1_ARPE, Structure->AutoReloadPreload);
 8003de8:	f023 0380 	bic.w	r3, r3, #128	@ 0x80
 8003dec:	694a      	ldr	r2, [r1, #20]
 8003dee:	4313      	orrs	r3, r2
  TIMx->CR1 = tmpcr1;
 8003df0:	6003      	str	r3, [r0, #0]
  TIMx->ARR = (uint32_t)Structure->Period ;
 8003df2:	688b      	ldr	r3, [r1, #8]
 8003df4:	62c3      	str	r3, [r0, #44]	@ 0x2c
  TIMx->PSC = Structure->Prescaler;
 8003df6:	680b      	ldr	r3, [r1, #0]
 8003df8:	6283      	str	r3, [r0, #40]	@ 0x28
  if (IS_TIM_REPETITION_COUNTER_INSTANCE(TIMx))
 8003dfa:	f44f 5330 	mov.w	r3, #11264	@ 0x2c00
 8003dfe:	f2c4 0301 	movt	r3, #16385	@ 0x4001
 8003e02:	4298      	cmp	r0, r3
 8003e04:	d00a      	beq.n	8003e1c <TIM_Base_SetConfig+0x9a>
  TIMx->EGR = TIM_EGR_UG;
 8003e06:	2301      	movs	r3, #1
 8003e08:	6143      	str	r3, [r0, #20]
  if (HAL_IS_BIT_SET(TIMx->SR, TIM_FLAG_UPDATE))
 8003e0a:	6903      	ldr	r3, [r0, #16]
 8003e0c:	f013 0f01 	tst.w	r3, #1
 8003e10:	d003      	beq.n	8003e1a <TIM_Base_SetConfig+0x98>
    CLEAR_BIT(TIMx->SR, TIM_FLAG_UPDATE);
 8003e12:	6903      	ldr	r3, [r0, #16]
 8003e14:	f023 0301 	bic.w	r3, r3, #1
 8003e18:	6103      	str	r3, [r0, #16]
}
 8003e1a:	4770      	bx	lr
    TIMx->RCR = Structure->RepetitionCounter;
 8003e1c:	690b      	ldr	r3, [r1, #16]
 8003e1e:	6303      	str	r3, [r0, #48]	@ 0x30
 8003e20:	e7f1      	b.n	8003e06 <TIM_Base_SetConfig+0x84>

08003e22 <HAL_TIM_Base_Init>:
  if (htim == NULL)
 8003e22:	b340      	cbz	r0, 8003e76 <HAL_TIM_Base_Init+0x54>
{
 8003e24:	b510      	push	{r4, lr}
 8003e26:	4604      	mov	r4, r0
  if (htim->State == HAL_TIM_STATE_RESET)
 8003e28:	f890 303d 	ldrb.w	r3, [r0, #61]	@ 0x3d
 8003e2c:	b1f3      	cbz	r3, 8003e6c <HAL_TIM_Base_Init+0x4a>
  htim->State = HAL_TIM_STATE_BUSY;
 8003e2e:	2302      	movs	r3, #2
 8003e30:	f884 303d 	strb.w	r3, [r4, #61]	@ 0x3d
  TIM_Base_SetConfig(htim->Instance, &htim->Init);
 8003e34:	4621      	mov	r1, r4
 8003e36:	f851 0b04 	ldr.w	r0, [r1], #4
 8003e3a:	f7ff ffa2 	bl	8003d82 <TIM_Base_SetConfig>
  htim->DMABurstState = HAL_DMA_BURST_STATE_READY;
 8003e3e:	2301      	movs	r3, #1
 8003e40:	f884 3046 	strb.w	r3, [r4, #70]	@ 0x46
  TIM_CHANNEL_STATE_SET_ALL(htim, HAL_TIM_CHANNEL_STATE_READY);
 8003e44:	f884 303e 	strb.w	r3, [r4, #62]	@ 0x3e
 8003e48:	f884 303f 	strb.w	r3, [r4, #63]	@ 0x3f
 8003e4c:	f884 3040 	strb.w	r3, [r4, #64]	@ 0x40
 8003e50:	f884 3041 	strb.w	r3, [r4, #65]	@ 0x41
  TIM_CHANNEL_N_STATE_SET_ALL(htim, HAL_TIM_CHANNEL_STATE_READY);
 8003e54:	f884 3042 	strb.w	r3, [r4, #66]	@ 0x42
 8003e58:	f884 3043 	strb.w	r3, [r4, #67]	@ 0x43
 8003e5c:	f884 3044 	strb.w	r3, [r4, #68]	@ 0x44
 8003e60:	f884 3045 	strb.w	r3, [r4, #69]	@ 0x45
  htim->State = HAL_TIM_STATE_READY;
 8003e64:	f884 303d 	strb.w	r3, [r4, #61]	@ 0x3d
  return HAL_OK;
 8003e68:	2000      	movs	r0, #0
}
 8003e6a:	bd10      	pop	{r4, pc}
    htim->Lock = HAL_UNLOCKED;
 8003e6c:	f880 303c 	strb.w	r3, [r0, #60]	@ 0x3c
    HAL_TIM_Base_MspInit(htim);
 8003e70:	f7fc ffc2 	bl	8000df8 <HAL_TIM_Base_MspInit>
 8003e74:	e7db      	b.n	8003e2e <HAL_TIM_Base_Init+0xc>
    return HAL_ERROR;
 8003e76:	2001      	movs	r0, #1
}
 8003e78:	4770      	bx	lr

08003e7a <TIM_ETR_SetConfig>:
  *          This parameter must be a value between 0x00 and 0x0F
  * @retval None
  */
void TIM_ETR_SetConfig(TIM_TypeDef *TIMx, uint32_t TIM_ExtTRGPrescaler,
                       uint32_t TIM_ExtTRGPolarity, uint32_t ExtTRGFilter)
{
 8003e7a:	b410      	push	{r4}
  uint32_t tmpsmcr;

  tmpsmcr = TIMx->SMCR;
 8003e7c:	6884      	ldr	r4, [r0, #8]

  /* Reset the ETR Bits */
  tmpsmcr &= ~(TIM_SMCR_ETF | TIM_SMCR_ETPS | TIM_SMCR_ECE | TIM_SMCR_ETP);
 8003e7e:	f424 4c7f 	bic.w	ip, r4, #65280	@ 0xff00

  /* Set the Prescaler, the Filter value and the Polarity */
  tmpsmcr |= (uint32_t)(TIM_ExtTRGPrescaler | (TIM_ExtTRGPolarity | (ExtTRGFilter << 8U)));
 8003e82:	ea42 2203 	orr.w	r2, r2, r3, lsl #8
 8003e86:	430a      	orrs	r2, r1
 8003e88:	ea42 020c 	orr.w	r2, r2, ip

  /* Write to TIMx SMCR */
  TIMx->SMCR = tmpsmcr;
 8003e8c:	6082      	str	r2, [r0, #8]
}
 8003e8e:	bc10      	pop	{r4}
 8003e90:	4770      	bx	lr

08003e92 <HAL_TIM_ConfigClockSource>:
  __HAL_LOCK(htim);
 8003e92:	f890 303c 	ldrb.w	r3, [r0, #60]	@ 0x3c
 8003e96:	2b01      	cmp	r3, #1
 8003e98:	d078      	beq.n	8003f8c <HAL_TIM_ConfigClockSource+0xfa>
{
 8003e9a:	b510      	push	{r4, lr}
 8003e9c:	4604      	mov	r4, r0
  __HAL_LOCK(htim);
 8003e9e:	2301      	movs	r3, #1
 8003ea0:	f880 303c 	strb.w	r3, [r0, #60]	@ 0x3c
  htim->State = HAL_TIM_STATE_BUSY;
 8003ea4:	2302      	movs	r3, #2
 8003ea6:	f880 303d 	strb.w	r3, [r0, #61]	@ 0x3d
  tmpsmcr = htim->Instance->SMCR;
 8003eaa:	6802      	ldr	r2, [r0, #0]
 8003eac:	6893      	ldr	r3, [r2, #8]
  tmpsmcr &= ~(TIM_SMCR_ETF | TIM_SMCR_ETPS | TIM_SMCR_ECE | TIM_SMCR_ETP);
 8003eae:	f423 437f 	bic.w	r3, r3, #65280	@ 0xff00
 8003eb2:	f023 0377 	bic.w	r3, r3, #119	@ 0x77
  htim->Instance->SMCR = tmpsmcr;
 8003eb6:	6093      	str	r3, [r2, #8]
  switch (sClockSourceConfig->ClockSource)
 8003eb8:	680b      	ldr	r3, [r1, #0]
 8003eba:	2b60      	cmp	r3, #96	@ 0x60
 8003ebc:	d04c      	beq.n	8003f58 <HAL_TIM_ConfigClockSource+0xc6>
 8003ebe:	d823      	bhi.n	8003f08 <HAL_TIM_ConfigClockSource+0x76>
 8003ec0:	2b40      	cmp	r3, #64	@ 0x40
 8003ec2:	d054      	beq.n	8003f6e <HAL_TIM_ConfigClockSource+0xdc>
 8003ec4:	d811      	bhi.n	8003eea <HAL_TIM_ConfigClockSource+0x58>
 8003ec6:	2b20      	cmp	r3, #32
 8003ec8:	d003      	beq.n	8003ed2 <HAL_TIM_ConfigClockSource+0x40>
 8003eca:	d80a      	bhi.n	8003ee2 <HAL_TIM_ConfigClockSource+0x50>
 8003ecc:	b10b      	cbz	r3, 8003ed2 <HAL_TIM_ConfigClockSource+0x40>
 8003ece:	2b10      	cmp	r3, #16
 8003ed0:	d105      	bne.n	8003ede <HAL_TIM_ConfigClockSource+0x4c>
      TIM_ITRx_SetConfig(htim->Instance, sClockSourceConfig->ClockSource);
 8003ed2:	4619      	mov	r1, r3
 8003ed4:	6820      	ldr	r0, [r4, #0]
 8003ed6:	f7ff fe48 	bl	8003b6a <TIM_ITRx_SetConfig>
  HAL_StatusTypeDef status = HAL_OK;
 8003eda:	2000      	movs	r0, #0
      break;
 8003edc:	e028      	b.n	8003f30 <HAL_TIM_ConfigClockSource+0x9e>
      status = HAL_ERROR;
 8003ede:	2001      	movs	r0, #1
 8003ee0:	e026      	b.n	8003f30 <HAL_TIM_ConfigClockSource+0x9e>
  switch (sClockSourceConfig->ClockSource)
 8003ee2:	2b30      	cmp	r3, #48	@ 0x30
 8003ee4:	d0f5      	beq.n	8003ed2 <HAL_TIM_ConfigClockSource+0x40>
      status = HAL_ERROR;
 8003ee6:	2001      	movs	r0, #1
 8003ee8:	e022      	b.n	8003f30 <HAL_TIM_ConfigClockSource+0x9e>
  switch (sClockSourceConfig->ClockSource)
 8003eea:	2b50      	cmp	r3, #80	@ 0x50
 8003eec:	d10a      	bne.n	8003f04 <HAL_TIM_ConfigClockSource+0x72>
      TIM_TI1_ConfigInputStage(htim->Instance,
 8003eee:	68ca      	ldr	r2, [r1, #12]
 8003ef0:	6849      	ldr	r1, [r1, #4]
 8003ef2:	6800      	ldr	r0, [r0, #0]
 8003ef4:	f7ff fe14 	bl	8003b20 <TIM_TI1_ConfigInputStage>
      TIM_ITRx_SetConfig(htim->Instance, TIM_CLOCKSOURCE_TI1);
 8003ef8:	2150      	movs	r1, #80	@ 0x50
 8003efa:	6820      	ldr	r0, [r4, #0]
 8003efc:	f7ff fe35 	bl	8003b6a <TIM_ITRx_SetConfig>
  HAL_StatusTypeDef status = HAL_OK;
 8003f00:	2000      	movs	r0, #0
      break;
 8003f02:	e015      	b.n	8003f30 <HAL_TIM_ConfigClockSource+0x9e>
      status = HAL_ERROR;
 8003f04:	2001      	movs	r0, #1
 8003f06:	e013      	b.n	8003f30 <HAL_TIM_ConfigClockSource+0x9e>
  switch (sClockSourceConfig->ClockSource)
 8003f08:	f5b3 5f80 	cmp.w	r3, #4096	@ 0x1000
 8003f0c:	d03a      	beq.n	8003f84 <HAL_TIM_ConfigClockSource+0xf2>
 8003f0e:	f5b3 5f00 	cmp.w	r3, #8192	@ 0x2000
 8003f12:	d014      	beq.n	8003f3e <HAL_TIM_ConfigClockSource+0xac>
 8003f14:	2b70      	cmp	r3, #112	@ 0x70
 8003f16:	d137      	bne.n	8003f88 <HAL_TIM_ConfigClockSource+0xf6>
      TIM_ETR_SetConfig(htim->Instance,
 8003f18:	68cb      	ldr	r3, [r1, #12]
 8003f1a:	684a      	ldr	r2, [r1, #4]
 8003f1c:	6889      	ldr	r1, [r1, #8]
 8003f1e:	6800      	ldr	r0, [r0, #0]
 8003f20:	f7ff ffab 	bl	8003e7a <TIM_ETR_SetConfig>
      tmpsmcr = htim->Instance->SMCR;
 8003f24:	6822      	ldr	r2, [r4, #0]
 8003f26:	6893      	ldr	r3, [r2, #8]
      tmpsmcr |= (TIM_SLAVEMODE_EXTERNAL1 | TIM_CLOCKSOURCE_ETRMODE1);
 8003f28:	f043 0377 	orr.w	r3, r3, #119	@ 0x77
      htim->Instance->SMCR = tmpsmcr;
 8003f2c:	6093      	str	r3, [r2, #8]
  HAL_StatusTypeDef status = HAL_OK;
 8003f2e:	2000      	movs	r0, #0
  htim->State = HAL_TIM_STATE_READY;
 8003f30:	2301      	movs	r3, #1
 8003f32:	f884 303d 	strb.w	r3, [r4, #61]	@ 0x3d
  __HAL_UNLOCK(htim);
 8003f36:	2300      	movs	r3, #0
 8003f38:	f884 303c 	strb.w	r3, [r4, #60]	@ 0x3c
}
 8003f3c:	bd10      	pop	{r4, pc}
      TIM_ETR_SetConfig(htim->Instance,
 8003f3e:	68cb      	ldr	r3, [r1, #12]
 8003f40:	684a      	ldr	r2, [r1, #4]
 8003f42:	6889      	ldr	r1, [r1, #8]
 8003f44:	6800      	ldr	r0, [r0, #0]
 8003f46:	f7ff ff98 	bl	8003e7a <TIM_ETR_SetConfig>
      htim->Instance->SMCR |= TIM_SMCR_ECE;
 8003f4a:	6822      	ldr	r2, [r4, #0]
 8003f4c:	6893      	ldr	r3, [r2, #8]
 8003f4e:	f443 4380 	orr.w	r3, r3, #16384	@ 0x4000
 8003f52:	6093      	str	r3, [r2, #8]
  HAL_StatusTypeDef status = HAL_OK;
 8003f54:	2000      	movs	r0, #0
      break;
 8003f56:	e7eb      	b.n	8003f30 <HAL_TIM_ConfigClockSource+0x9e>
      TIM_TI2_ConfigInputStage(htim->Instance,
 8003f58:	68ca      	ldr	r2, [r1, #12]
 8003f5a:	6849      	ldr	r1, [r1, #4]
 8003f5c:	6800      	ldr	r0, [r0, #0]
 8003f5e:	f7ff fdf1 	bl	8003b44 <TIM_TI2_ConfigInputStage>
      TIM_ITRx_SetConfig(htim->Instance, TIM_CLOCKSOURCE_TI2);
 8003f62:	2160      	movs	r1, #96	@ 0x60
 8003f64:	6820      	ldr	r0, [r4, #0]
 8003f66:	f7ff fe00 	bl	8003b6a <TIM_ITRx_SetConfig>
  HAL_StatusTypeDef status = HAL_OK;
 8003f6a:	2000      	movs	r0, #0
      break;
 8003f6c:	e7e0      	b.n	8003f30 <HAL_TIM_ConfigClockSource+0x9e>
      TIM_TI1_ConfigInputStage(htim->Instance,
 8003f6e:	68ca      	ldr	r2, [r1, #12]
 8003f70:	6849      	ldr	r1, [r1, #4]
 8003f72:	6800      	ldr	r0, [r0, #0]
 8003f74:	f7ff fdd4 	bl	8003b20 <TIM_TI1_ConfigInputStage>
      TIM_ITRx_SetConfig(htim->Instance, TIM_CLOCKSOURCE_TI1ED);
 8003f78:	2140      	movs	r1, #64	@ 0x40
 8003f7a:	6820      	ldr	r0, [r4, #0]
 8003f7c:	f7ff fdf5 	bl	8003b6a <TIM_ITRx_SetConfig>
  HAL_StatusTypeDef status = HAL_OK;
 8003f80:	2000      	movs	r0, #0
      break;
 8003f82:	e7d5      	b.n	8003f30 <HAL_TIM_ConfigClockSource+0x9e>
  switch (sClockSourceConfig->ClockSource)
 8003f84:	2000      	movs	r0, #0
 8003f86:	e7d3      	b.n	8003f30 <HAL_TIM_ConfigClockSource+0x9e>
      status = HAL_ERROR;
 8003f88:	2001      	movs	r0, #1
 8003f8a:	e7d1      	b.n	8003f30 <HAL_TIM_ConfigClockSource+0x9e>
  __HAL_LOCK(htim);
 8003f8c:	2002      	movs	r0, #2
}
 8003f8e:	4770      	bx	lr

08003f90 <HAL_TIMEx_MasterConfigSynchronization>:
  assert_param(IS_TIM_MASTER_INSTANCE(htim->Instance));
  assert_param(IS_TIM_TRGO_SOURCE(sMasterConfig->MasterOutputTrigger));
  assert_param(IS_TIM_MSM_STATE(sMasterConfig->MasterSlaveMode));

  /* Check input state */
  __HAL_LOCK(htim);
 8003f90:	f890 203c 	ldrb.w	r2, [r0, #60]	@ 0x3c
 8003f94:	2a01      	cmp	r2, #1
 8003f96:	d033      	beq.n	8004000 <HAL_TIMEx_MasterConfigSynchronization+0x70>
{
 8003f98:	b410      	push	{r4}
 8003f9a:	4603      	mov	r3, r0
  __HAL_LOCK(htim);
 8003f9c:	2201      	movs	r2, #1
 8003f9e:	f880 203c 	strb.w	r2, [r0, #60]	@ 0x3c

  /* Change the handler state */
  htim->State = HAL_TIM_STATE_BUSY;
 8003fa2:	2202      	movs	r2, #2
 8003fa4:	f880 203d 	strb.w	r2, [r0, #61]	@ 0x3d

  /* Get the TIMx CR2 register value */
  tmpcr2 = htim->Instance->CR2;
 8003fa8:	6802      	ldr	r2, [r0, #0]
 8003faa:	6850      	ldr	r0, [r2, #4]

  /* Get the TIMx SMCR register value */
  tmpsmcr = htim->Instance->SMCR;
 8003fac:	6894      	ldr	r4, [r2, #8]

  /* Reset the MMS Bits */
  tmpcr2 &= ~TIM_CR2_MMS;
 8003fae:	f020 0c70 	bic.w	ip, r0, #112	@ 0x70
  /* Select the TRGO source */
  tmpcr2 |=  sMasterConfig->MasterOutputTrigger;
 8003fb2:	6808      	ldr	r0, [r1, #0]
 8003fb4:	ea40 000c 	orr.w	r0, r0, ip

  /* Update TIMx CR2 */
  htim->Instance->CR2 = tmpcr2;
 8003fb8:	6050      	str	r0, [r2, #4]

  if (IS_TIM_SLAVE_INSTANCE(htim->Instance))
 8003fba:	681a      	ldr	r2, [r3, #0]
 8003fbc:	f44f 5030 	mov.w	r0, #11264	@ 0x2c00
 8003fc0:	f2c4 0001 	movt	r0, #16385	@ 0x4001
 8003fc4:	4282      	cmp	r2, r0
 8003fc6:	d00e      	beq.n	8003fe6 <HAL_TIMEx_MasterConfigSynchronization+0x56>
 8003fc8:	f1b2 4f80 	cmp.w	r2, #1073741824	@ 0x40000000
 8003fcc:	d00b      	beq.n	8003fe6 <HAL_TIMEx_MasterConfigSynchronization+0x56>
 8003fce:	f44f 6080 	mov.w	r0, #1024	@ 0x400
 8003fd2:	f2c4 0000 	movt	r0, #16384	@ 0x4000
 8003fd6:	4282      	cmp	r2, r0
 8003fd8:	d005      	beq.n	8003fe6 <HAL_TIMEx_MasterConfigSynchronization+0x56>
 8003fda:	f44f 6000 	mov.w	r0, #2048	@ 0x800
 8003fde:	f2c4 0000 	movt	r0, #16384	@ 0x4000
 8003fe2:	4282      	cmp	r2, r0
 8003fe4:	d104      	bne.n	8003ff0 <HAL_TIMEx_MasterConfigSynchronization+0x60>
  {
    /* Reset the MSM Bit */
    tmpsmcr &= ~TIM_SMCR_MSM;
 8003fe6:	f024 0480 	bic.w	r4, r4, #128	@ 0x80
    /* Set master mode */
    tmpsmcr |= sMasterConfig->MasterSlaveMode;
 8003fea:	6849      	ldr	r1, [r1, #4]
 8003fec:	4321      	orrs	r1, r4

    /* Update TIMx SMCR */
    htim->Instance->SMCR = tmpsmcr;
 8003fee:	6091      	str	r1, [r2, #8]
  }

  /* Change the htim state */
  htim->State = HAL_TIM_STATE_READY;
 8003ff0:	2201      	movs	r2, #1
 8003ff2:	f883 203d 	strb.w	r2, [r3, #61]	@ 0x3d

  __HAL_UNLOCK(htim);
 8003ff6:	2000      	movs	r0, #0
 8003ff8:	f883 003c 	strb.w	r0, [r3, #60]	@ 0x3c

  return HAL_OK;
}
 8003ffc:	bc10      	pop	{r4}
 8003ffe:	4770      	bx	lr
  __HAL_LOCK(htim);
 8004000:	2002      	movs	r0, #2
}
 8004002:	4770      	bx	lr

08004004 <HAL_TIMEx_CommutCallback>:
  UNUSED(htim);

  /* NOTE : This function should not be modified, when the callback is needed,
            the HAL_TIMEx_CommutCallback could be implemented in the user file
   */
}
 8004004:	4770      	bx	lr

08004006 <HAL_TIMEx_BreakCallback>:
  UNUSED(htim);

  /* NOTE : This function should not be modified, when the callback is needed,
            the HAL_TIMEx_BreakCallback could be implemented in the user file
   */
}
 8004006:	4770      	bx	lr

08004008 <USB_CoreInit>:
  * @param  cfg pointer to a USB_CfgTypeDef structure that contains
  *         the configuration information for the specified USBx peripheral.
  * @retval HAL status
  */
HAL_StatusTypeDef USB_CoreInit(USB_TypeDef *USBx, USB_CfgTypeDef cfg)
{
 8004008:	b084      	sub	sp, #16
 800400a:	a804      	add	r0, sp, #16
 800400c:	e900 000e 	stmdb	r0, {r1, r2, r3}
              only by USB OTG FS peripheral.
            - This function is added to ensure compatibility across platforms.
   */

  return HAL_OK;
}
 8004010:	2000      	movs	r0, #0
 8004012:	b004      	add	sp, #16
 8004014:	4770      	bx	lr

08004016 <USB_EnableGlobalInt>:
  *         Enables the controller's Global Int in the AHB Config reg
  * @param  USBx Selected device
  * @retval HAL status
  */
HAL_StatusTypeDef USB_EnableGlobalInt(USB_TypeDef *USBx)
{
 8004016:	4603      	mov	r3, r0
  uint32_t winterruptmask;

  /* Clear pending interrupts */
  USBx->ISTR = 0U;
 8004018:	2000      	movs	r0, #0
 800401a:	f8a3 0044 	strh.w	r0, [r3, #68]	@ 0x44
                   USB_CNTR_SUSPM | USB_CNTR_ERRM |
                   USB_CNTR_SOFM | USB_CNTR_ESOFM |
                   USB_CNTR_RESETM;

  /* Set interrupt mask */
  USBx->CNTR = (uint16_t)winterruptmask;
 800401e:	f44f 423f 	mov.w	r2, #48896	@ 0xbf00
 8004022:	f8a3 2040 	strh.w	r2, [r3, #64]	@ 0x40

  return HAL_OK;
}
 8004026:	4770      	bx	lr

08004028 <USB_DisableGlobalInt>:
                   USB_CNTR_SUSPM | USB_CNTR_ERRM |
                   USB_CNTR_SOFM | USB_CNTR_ESOFM |
                   USB_CNTR_RESETM;

  /* Clear interrupt mask */
  USBx->CNTR &= (uint16_t)(~winterruptmask);
 8004028:	f8b0 3040 	ldrh.w	r3, [r0, #64]	@ 0x40
 800402c:	f423 537c 	bic.w	r3, r3, #16128	@ 0x3f00
 8004030:	045b      	lsls	r3, r3, #17
 8004032:	0c5b      	lsrs	r3, r3, #17
 8004034:	f8a0 3040 	strh.w	r3, [r0, #64]	@ 0x40

  return HAL_OK;
}
 8004038:	2000      	movs	r0, #0
 800403a:	4770      	bx	lr

0800403c <USB_SetCurrentMode>:
  /* NOTE : - This function is not required by USB Device FS peripheral, it is used
              only by USB OTG FS peripheral.
            - This function is added to ensure compatibility across platforms.
   */
  return HAL_OK;
}
 800403c:	2000      	movs	r0, #0
 800403e:	4770      	bx	lr

08004040 <USB_DevInit>:
  * @param  cfg  pointer to a USB_CfgTypeDef structure that contains
  *         the configuration information for the specified USBx peripheral.
  * @retval HAL status
  */
HAL_StatusTypeDef USB_DevInit(USB_TypeDef *USBx, USB_CfgTypeDef cfg)
{
 8004040:	b084      	sub	sp, #16
 8004042:	4684      	mov	ip, r0
 8004044:	a804      	add	r0, sp, #16
 8004046:	e900 000e 	stmdb	r0, {r1, r2, r3}
  /* Prevent unused argument(s) compilation warning */
  UNUSED(cfg);

  /* Init Device */
  /* CNTR_FRES = 1 */
  USBx->CNTR = (uint16_t)USB_CNTR_FRES;
 800404a:	2301      	movs	r3, #1
 800404c:	f8ac 3040 	strh.w	r3, [ip, #64]	@ 0x40

  /* CNTR_FRES = 0 */
  USBx->CNTR = 0U;
 8004050:	2000      	movs	r0, #0
 8004052:	f8ac 0040 	strh.w	r0, [ip, #64]	@ 0x40

  /* Clear pending interrupts */
  USBx->ISTR = 0U;
 8004056:	f8ac 0044 	strh.w	r0, [ip, #68]	@ 0x44

  /*Set Btable Address*/
  USBx->BTABLE = BTABLE_ADDRESS;
 800405a:	f8ac 0050 	strh.w	r0, [ip, #80]	@ 0x50

  return HAL_OK;
}
 800405e:	b004      	add	sp, #16
 8004060:	4770      	bx	lr

08004062 <USB_ActivateEndpoint>:
  * @param  USBx Selected device
  * @param  ep pointer to endpoint structure
  * @retval HAL status
  */
HAL_StatusTypeDef USB_ActivateEndpoint(USB_TypeDef *USBx, USB_EPTypeDef *ep)
{
 8004062:	b510      	push	{r4, lr}
 8004064:	4603      	mov	r3, r0
  HAL_StatusTypeDef ret = HAL_OK;
  uint16_t wEpRegVal;

  wEpRegVal = PCD_GET_ENDPOINT(USBx, ep->num) & USB_EP_T_MASK;
 8004066:	f891 c000 	ldrb.w	ip, [r1]
 800406a:	f830 202c 	ldrh.w	r2, [r0, ip, lsl #2]
 800406e:	b292      	uxth	r2, r2
 8004070:	f422 42ec 	bic.w	r2, r2, #30208	@ 0x7600
 8004074:	f022 0270 	bic.w	r2, r2, #112	@ 0x70
 8004078:	b292      	uxth	r2, r2

  /* initialize Endpoint */
  switch (ep->type)
 800407a:	78c8      	ldrb	r0, [r1, #3]
 800407c:	2803      	cmp	r0, #3
 800407e:	d861      	bhi.n	8004144 <USB_ActivateEndpoint+0xe2>
 8004080:	e8df f000 	tbb	[pc, r0]
 8004084:	58025c55 	.word	0x58025c55
 8004088:	2000      	movs	r0, #0
    default:
      ret = HAL_ERROR;
      break;
  }

  PCD_SET_ENDPOINT(USBx, ep->num, (wEpRegVal | USB_EP_CTR_RX | USB_EP_CTR_TX));
 800408a:	f248 0e80 	movw	lr, #32896	@ 0x8080
 800408e:	ea42 020e 	orr.w	r2, r2, lr
 8004092:	f823 202c 	strh.w	r2, [r3, ip, lsl #2]

  PCD_SET_EP_ADDRESS(USBx, ep->num, ep->num);
 8004096:	f891 c000 	ldrb.w	ip, [r1]
 800409a:	f833 202c 	ldrh.w	r2, [r3, ip, lsl #2]
 800409e:	b292      	uxth	r2, r2
 80040a0:	f422 42e0 	bic.w	r2, r2, #28672	@ 0x7000
 80040a4:	f022 0270 	bic.w	r2, r2, #112	@ 0x70
 80040a8:	ea42 020c 	orr.w	r2, r2, ip
 80040ac:	ea42 020e 	orr.w	r2, r2, lr
 80040b0:	f823 202c 	strh.w	r2, [r3, ip, lsl #2]

  if (ep->doublebuffer == 0U)
 80040b4:	7b0a      	ldrb	r2, [r1, #12]
 80040b6:	2a00      	cmp	r2, #0
 80040b8:	f040 80dc 	bne.w	8004274 <USB_ActivateEndpoint+0x212>
  {
    if (ep->is_in != 0U)
 80040bc:	784a      	ldrb	r2, [r1, #1]
 80040be:	2a00      	cmp	r2, #0
 80040c0:	d051      	beq.n	8004166 <USB_ActivateEndpoint+0x104>
    {
      /*Set the endpoint Transmit buffer address */
      PCD_SET_EP_TX_ADDRESS(USBx, ep->num, ep->pmaadress);
 80040c2:	f8b3 2050 	ldrh.w	r2, [r3, #80]	@ 0x50
 80040c6:	b292      	uxth	r2, r2
 80040c8:	441a      	add	r2, r3
 80040ca:	780c      	ldrb	r4, [r1, #0]
 80040cc:	eb02 1204 	add.w	r2, r2, r4, lsl #4
 80040d0:	f8b1 c006 	ldrh.w	ip, [r1, #6]
 80040d4:	ea4f 0c5c 	mov.w	ip, ip, lsr #1
 80040d8:	ea4f 0c4c 	mov.w	ip, ip, lsl #1
 80040dc:	f8a2 c400 	strh.w	ip, [r2, #1024]	@ 0x400
      PCD_CLEAR_TX_DTOG(USBx, ep->num);
 80040e0:	780c      	ldrb	r4, [r1, #0]
 80040e2:	f833 2024 	ldrh.w	r2, [r3, r4, lsl #2]
 80040e6:	f012 0f40 	tst.w	r2, #64	@ 0x40
 80040ea:	d00c      	beq.n	8004106 <USB_ActivateEndpoint+0xa4>
 80040ec:	f833 2024 	ldrh.w	r2, [r3, r4, lsl #2]
 80040f0:	b292      	uxth	r2, r2
 80040f2:	f422 42e0 	bic.w	r2, r2, #28672	@ 0x7000
 80040f6:	f022 0270 	bic.w	r2, r2, #112	@ 0x70
 80040fa:	f442 4200 	orr.w	r2, r2, #32768	@ 0x8000
 80040fe:	f042 02c0 	orr.w	r2, r2, #192	@ 0xc0
 8004102:	f823 2024 	strh.w	r2, [r3, r4, lsl #2]

      if (ep->type != EP_TYPE_ISOC)
 8004106:	78ca      	ldrb	r2, [r1, #3]
 8004108:	2a01      	cmp	r2, #1
 800410a:	d01d      	beq.n	8004148 <USB_ActivateEndpoint+0xe6>
      {
        /* Configure NAK status for the Endpoint */
        PCD_SET_EP_TX_STATUS(USBx, ep->num, USB_EP_TX_NAK);
 800410c:	7809      	ldrb	r1, [r1, #0]
 800410e:	f833 2021 	ldrh.w	r2, [r3, r1, lsl #2]
 8004112:	b292      	uxth	r2, r2
 8004114:	f422 42e0 	bic.w	r2, r2, #28672	@ 0x7000
 8004118:	f022 0240 	bic.w	r2, r2, #64	@ 0x40
 800411c:	f082 0220 	eor.w	r2, r2, #32
 8004120:	f442 4200 	orr.w	r2, r2, #32768	@ 0x8000
 8004124:	f042 0280 	orr.w	r2, r2, #128	@ 0x80
 8004128:	f823 2021 	strh.w	r2, [r3, r1, lsl #2]
 800412c:	e117      	b.n	800435e <USB_ActivateEndpoint+0x2fc>
      wEpRegVal |= USB_EP_CONTROL;
 800412e:	f442 7200 	orr.w	r2, r2, #512	@ 0x200
      break;
 8004132:	e7aa      	b.n	800408a <USB_ActivateEndpoint+0x28>
      wEpRegVal |= USB_EP_INTERRUPT;
 8004134:	f442 62c0 	orr.w	r2, r2, #1536	@ 0x600
  HAL_StatusTypeDef ret = HAL_OK;
 8004138:	2000      	movs	r0, #0
      break;
 800413a:	e7a6      	b.n	800408a <USB_ActivateEndpoint+0x28>
      wEpRegVal |= USB_EP_ISOCHRONOUS;
 800413c:	f442 6280 	orr.w	r2, r2, #1024	@ 0x400
  HAL_StatusTypeDef ret = HAL_OK;
 8004140:	2000      	movs	r0, #0
      break;
 8004142:	e7a2      	b.n	800408a <USB_ActivateEndpoint+0x28>
      ret = HAL_ERROR;
 8004144:	2001      	movs	r0, #1
 8004146:	e7a0      	b.n	800408a <USB_ActivateEndpoint+0x28>
      }
      else
      {
        /* Configure TX Endpoint to disabled state */
        PCD_SET_EP_TX_STATUS(USBx, ep->num, USB_EP_TX_DIS);
 8004148:	7809      	ldrb	r1, [r1, #0]
 800414a:	f833 2021 	ldrh.w	r2, [r3, r1, lsl #2]
 800414e:	b292      	uxth	r2, r2
 8004150:	f422 42e0 	bic.w	r2, r2, #28672	@ 0x7000
 8004154:	f022 0240 	bic.w	r2, r2, #64	@ 0x40
 8004158:	f442 4200 	orr.w	r2, r2, #32768	@ 0x8000
 800415c:	f042 0280 	orr.w	r2, r2, #128	@ 0x80
 8004160:	f823 2021 	strh.w	r2, [r3, r1, lsl #2]
 8004164:	e0fb      	b.n	800435e <USB_ActivateEndpoint+0x2fc>
      }
    }
    else
    {
      /* Set the endpoint Receive buffer address */
      PCD_SET_EP_RX_ADDRESS(USBx, ep->num, ep->pmaadress);
 8004166:	f8b3 2050 	ldrh.w	r2, [r3, #80]	@ 0x50
 800416a:	b292      	uxth	r2, r2
 800416c:	441a      	add	r2, r3
 800416e:	780c      	ldrb	r4, [r1, #0]
 8004170:	eb02 1204 	add.w	r2, r2, r4, lsl #4
 8004174:	f8b1 c006 	ldrh.w	ip, [r1, #6]
 8004178:	ea4f 0c5c 	mov.w	ip, ip, lsr #1
 800417c:	ea4f 0c4c 	mov.w	ip, ip, lsl #1
 8004180:	f8a2 c408 	strh.w	ip, [r2, #1032]	@ 0x408

      /* Set the endpoint Receive buffer counter */
      PCD_SET_EP_RX_CNT(USBx, ep->num, ep->maxpacket);
 8004184:	f8b3 2050 	ldrh.w	r2, [r3, #80]	@ 0x50
 8004188:	b292      	uxth	r2, r2
 800418a:	441a      	add	r2, r3
 800418c:	780c      	ldrb	r4, [r1, #0]
 800418e:	eb02 1204 	add.w	r2, r2, r4, lsl #4
 8004192:	f8b2 c40c 	ldrh.w	ip, [r2, #1036]	@ 0x40c
 8004196:	f3cc 0c09 	ubfx	ip, ip, #0, #10
 800419a:	f8a2 c40c 	strh.w	ip, [r2, #1036]	@ 0x40c
 800419e:	690c      	ldr	r4, [r1, #16]
 80041a0:	2c3e      	cmp	r4, #62	@ 0x3e
 80041a2:	d939      	bls.n	8004218 <USB_ActivateEndpoint+0x1b6>
 80041a4:	ea4f 1e54 	mov.w	lr, r4, lsr #5
 80041a8:	f014 0f1f 	tst.w	r4, #31
 80041ac:	d101      	bne.n	80041b2 <USB_ActivateEndpoint+0x150>
 80041ae:	f10e 3eff 	add.w	lr, lr, #4294967295
 80041b2:	f8b2 c40c 	ldrh.w	ip, [r2, #1036]	@ 0x40c
 80041b6:	fa1f fc8c 	uxth.w	ip, ip
 80041ba:	ea4f 2e8e 	mov.w	lr, lr, lsl #10
 80041be:	fa1f fe8e 	uxth.w	lr, lr
 80041c2:	ea4c 0c0e 	orr.w	ip, ip, lr
 80041c6:	f44c 4c00 	orr.w	ip, ip, #32768	@ 0x8000
 80041ca:	f8a2 c40c 	strh.w	ip, [r2, #1036]	@ 0x40c
      PCD_CLEAR_RX_DTOG(USBx, ep->num);
 80041ce:	780c      	ldrb	r4, [r1, #0]
 80041d0:	f833 2024 	ldrh.w	r2, [r3, r4, lsl #2]
 80041d4:	f412 4f80 	tst.w	r2, #16384	@ 0x4000
 80041d8:	d00c      	beq.n	80041f4 <USB_ActivateEndpoint+0x192>
 80041da:	f833 2024 	ldrh.w	r2, [r3, r4, lsl #2]
 80041de:	b292      	uxth	r2, r2
 80041e0:	f422 42e0 	bic.w	r2, r2, #28672	@ 0x7000
 80041e4:	f022 0270 	bic.w	r2, r2, #112	@ 0x70
 80041e8:	f442 4240 	orr.w	r2, r2, #49152	@ 0xc000
 80041ec:	f042 0280 	orr.w	r2, r2, #128	@ 0x80
 80041f0:	f823 2024 	strh.w	r2, [r3, r4, lsl #2]

      if (ep->num == 0U)
 80041f4:	7809      	ldrb	r1, [r1, #0]
 80041f6:	bb69      	cbnz	r1, 8004254 <USB_ActivateEndpoint+0x1f2>
      {
        /* Configure VALID status for EP0 */
        PCD_SET_EP_RX_STATUS(USBx, ep->num, USB_EP_RX_VALID);
 80041f8:	f833 2021 	ldrh.w	r2, [r3, r1, lsl #2]
 80041fc:	b292      	uxth	r2, r2
 80041fe:	f422 4280 	bic.w	r2, r2, #16384	@ 0x4000
 8004202:	f022 0270 	bic.w	r2, r2, #112	@ 0x70
 8004206:	f482 5240 	eor.w	r2, r2, #12288	@ 0x3000
 800420a:	f442 4200 	orr.w	r2, r2, #32768	@ 0x8000
 800420e:	f042 0280 	orr.w	r2, r2, #128	@ 0x80
 8004212:	f823 2021 	strh.w	r2, [r3, r1, lsl #2]
 8004216:	e0a2      	b.n	800435e <USB_ActivateEndpoint+0x2fc>
      PCD_SET_EP_RX_CNT(USBx, ep->num, ep->maxpacket);
 8004218:	b94c      	cbnz	r4, 800422e <USB_ActivateEndpoint+0x1cc>
 800421a:	f8b2 440c 	ldrh.w	r4, [r2, #1036]	@ 0x40c
 800421e:	ea6f 4444 	mvn.w	r4, r4, lsl #17
 8004222:	ea6f 4454 	mvn.w	r4, r4, lsr #17
 8004226:	b2a4      	uxth	r4, r4
 8004228:	f8a2 440c 	strh.w	r4, [r2, #1036]	@ 0x40c
 800422c:	e7cf      	b.n	80041ce <USB_ActivateEndpoint+0x16c>
 800422e:	ea4f 0c54 	mov.w	ip, r4, lsr #1
 8004232:	f014 0f01 	tst.w	r4, #1
 8004236:	d001      	beq.n	800423c <USB_ActivateEndpoint+0x1da>
 8004238:	f10c 0c01 	add.w	ip, ip, #1
 800423c:	f8b2 440c 	ldrh.w	r4, [r2, #1036]	@ 0x40c
 8004240:	b2a4      	uxth	r4, r4
 8004242:	ea4f 2c8c 	mov.w	ip, ip, lsl #10
 8004246:	fa1f fc8c 	uxth.w	ip, ip
 800424a:	ea44 040c 	orr.w	r4, r4, ip
 800424e:	f8a2 440c 	strh.w	r4, [r2, #1036]	@ 0x40c
 8004252:	e7bc      	b.n	80041ce <USB_ActivateEndpoint+0x16c>
      }
      else
      {
        /* Configure NAK status for OUT Endpoint */
        PCD_SET_EP_RX_STATUS(USBx, ep->num, USB_EP_RX_NAK);
 8004254:	f833 2021 	ldrh.w	r2, [r3, r1, lsl #2]
 8004258:	b292      	uxth	r2, r2
 800425a:	f422 4280 	bic.w	r2, r2, #16384	@ 0x4000
 800425e:	f022 0270 	bic.w	r2, r2, #112	@ 0x70
 8004262:	f482 5200 	eor.w	r2, r2, #8192	@ 0x2000
 8004266:	f442 4200 	orr.w	r2, r2, #32768	@ 0x8000
 800426a:	f042 0280 	orr.w	r2, r2, #128	@ 0x80
 800426e:	f823 2021 	strh.w	r2, [r3, r1, lsl #2]
 8004272:	e074      	b.n	800435e <USB_ActivateEndpoint+0x2fc>
  }
#if (USE_USB_DOUBLE_BUFFER == 1U)
  /* Double Buffer */
  else
  {
    if (ep->type == EP_TYPE_BULK)
 8004274:	78ca      	ldrb	r2, [r1, #3]
 8004276:	2a02      	cmp	r2, #2
 8004278:	d072      	beq.n	8004360 <USB_ActivateEndpoint+0x2fe>
      PCD_SET_BULK_EP_DBUF(USBx, ep->num);
    }
    else
    {
      /* Set the ISOC endpoint in double buffer mode */
      PCD_CLEAR_EP_KIND(USBx, ep->num);
 800427a:	780c      	ldrb	r4, [r1, #0]
 800427c:	f833 2024 	ldrh.w	r2, [r3, r4, lsl #2]
 8004280:	b292      	uxth	r2, r2
 8004282:	f422 42e2 	bic.w	r2, r2, #28928	@ 0x7100
 8004286:	f022 0270 	bic.w	r2, r2, #112	@ 0x70
 800428a:	f442 4200 	orr.w	r2, r2, #32768	@ 0x8000
 800428e:	f042 0280 	orr.w	r2, r2, #128	@ 0x80
 8004292:	f823 2024 	strh.w	r2, [r3, r4, lsl #2]
    }

    /* Set buffer address for double buffered mode */
    PCD_SET_EP_DBUF_ADDR(USBx, ep->num, ep->pmaaddr0, ep->pmaaddr1);
 8004296:	f8b3 2050 	ldrh.w	r2, [r3, #80]	@ 0x50
 800429a:	b292      	uxth	r2, r2
 800429c:	441a      	add	r2, r3
 800429e:	f891 c000 	ldrb.w	ip, [r1]
 80042a2:	eb02 120c 	add.w	r2, r2, ip, lsl #4
 80042a6:	f8b1 c008 	ldrh.w	ip, [r1, #8]
 80042aa:	ea4f 0c5c 	mov.w	ip, ip, lsr #1
 80042ae:	ea4f 0c4c 	mov.w	ip, ip, lsl #1
 80042b2:	f8a2 c400 	strh.w	ip, [r2, #1024]	@ 0x400
 80042b6:	f8b3 2050 	ldrh.w	r2, [r3, #80]	@ 0x50
 80042ba:	b292      	uxth	r2, r2
 80042bc:	441a      	add	r2, r3
 80042be:	f891 c000 	ldrb.w	ip, [r1]
 80042c2:	eb02 120c 	add.w	r2, r2, ip, lsl #4
 80042c6:	f8b1 c00a 	ldrh.w	ip, [r1, #10]
 80042ca:	ea4f 0c5c 	mov.w	ip, ip, lsr #1
 80042ce:	ea4f 0c4c 	mov.w	ip, ip, lsl #1
 80042d2:	f8a2 c408 	strh.w	ip, [r2, #1032]	@ 0x408

    if (ep->is_in == 0U)
 80042d6:	784a      	ldrb	r2, [r1, #1]
 80042d8:	2a00      	cmp	r2, #0
 80042da:	d150      	bne.n	800437e <USB_ActivateEndpoint+0x31c>
    {
      /* Clear the data toggle bits for the endpoint IN/OUT */
      PCD_CLEAR_RX_DTOG(USBx, ep->num);
 80042dc:	780c      	ldrb	r4, [r1, #0]
 80042de:	f833 2024 	ldrh.w	r2, [r3, r4, lsl #2]
 80042e2:	f412 4f80 	tst.w	r2, #16384	@ 0x4000
 80042e6:	d00c      	beq.n	8004302 <USB_ActivateEndpoint+0x2a0>
 80042e8:	f833 2024 	ldrh.w	r2, [r3, r4, lsl #2]
 80042ec:	b292      	uxth	r2, r2
 80042ee:	f422 42e0 	bic.w	r2, r2, #28672	@ 0x7000
 80042f2:	f022 0270 	bic.w	r2, r2, #112	@ 0x70
 80042f6:	f442 4240 	orr.w	r2, r2, #49152	@ 0xc000
 80042fa:	f042 0280 	orr.w	r2, r2, #128	@ 0x80
 80042fe:	f823 2024 	strh.w	r2, [r3, r4, lsl #2]
      PCD_CLEAR_TX_DTOG(USBx, ep->num);
 8004302:	780c      	ldrb	r4, [r1, #0]
 8004304:	f833 2024 	ldrh.w	r2, [r3, r4, lsl #2]
 8004308:	f012 0f40 	tst.w	r2, #64	@ 0x40
 800430c:	d00c      	beq.n	8004328 <USB_ActivateEndpoint+0x2c6>
 800430e:	f833 2024 	ldrh.w	r2, [r3, r4, lsl #2]
 8004312:	b292      	uxth	r2, r2
 8004314:	f422 42e0 	bic.w	r2, r2, #28672	@ 0x7000
 8004318:	f022 0270 	bic.w	r2, r2, #112	@ 0x70
 800431c:	f442 4200 	orr.w	r2, r2, #32768	@ 0x8000
 8004320:	f042 02c0 	orr.w	r2, r2, #192	@ 0xc0
 8004324:	f823 2024 	strh.w	r2, [r3, r4, lsl #2]

      PCD_SET_EP_RX_STATUS(USBx, ep->num, USB_EP_RX_VALID);
 8004328:	f891 c000 	ldrb.w	ip, [r1]
 800432c:	f833 202c 	ldrh.w	r2, [r3, ip, lsl #2]
 8004330:	b292      	uxth	r2, r2
 8004332:	f422 4280 	bic.w	r2, r2, #16384	@ 0x4000
 8004336:	f022 0270 	bic.w	r2, r2, #112	@ 0x70
 800433a:	f482 5240 	eor.w	r2, r2, #12288	@ 0x3000
 800433e:	f248 0480 	movw	r4, #32896	@ 0x8080
 8004342:	4322      	orrs	r2, r4
 8004344:	f823 202c 	strh.w	r2, [r3, ip, lsl #2]
      PCD_SET_EP_TX_STATUS(USBx, ep->num, USB_EP_TX_DIS);
 8004348:	7809      	ldrb	r1, [r1, #0]
 800434a:	f833 2021 	ldrh.w	r2, [r3, r1, lsl #2]
 800434e:	b292      	uxth	r2, r2
 8004350:	f422 42e0 	bic.w	r2, r2, #28672	@ 0x7000
 8004354:	f022 0240 	bic.w	r2, r2, #64	@ 0x40
 8004358:	4322      	orrs	r2, r4
 800435a:	f823 2021 	strh.w	r2, [r3, r1, lsl #2]
    }
  }
#endif /* (USE_USB_DOUBLE_BUFFER == 1U) */

  return ret;
}
 800435e:	bd10      	pop	{r4, pc}
      PCD_SET_BULK_EP_DBUF(USBx, ep->num);
 8004360:	780c      	ldrb	r4, [r1, #0]
 8004362:	f833 2024 	ldrh.w	r2, [r3, r4, lsl #2]
 8004366:	b292      	uxth	r2, r2
 8004368:	f422 42e0 	bic.w	r2, r2, #28672	@ 0x7000
 800436c:	f022 0270 	bic.w	r2, r2, #112	@ 0x70
 8004370:	f442 4201 	orr.w	r2, r2, #33024	@ 0x8100
 8004374:	f042 0280 	orr.w	r2, r2, #128	@ 0x80
 8004378:	f823 2024 	strh.w	r2, [r3, r4, lsl #2]
 800437c:	e78b      	b.n	8004296 <USB_ActivateEndpoint+0x234>
      PCD_CLEAR_RX_DTOG(USBx, ep->num);
 800437e:	780c      	ldrb	r4, [r1, #0]
 8004380:	f833 2024 	ldrh.w	r2, [r3, r4, lsl #2]
 8004384:	f412 4f80 	tst.w	r2, #16384	@ 0x4000
 8004388:	d00c      	beq.n	80043a4 <USB_ActivateEndpoint+0x342>
 800438a:	f833 2024 	ldrh.w	r2, [r3, r4, lsl #2]
 800438e:	b292      	uxth	r2, r2
 8004390:	f422 42e0 	bic.w	r2, r2, #28672	@ 0x7000
 8004394:	f022 0270 	bic.w	r2, r2, #112	@ 0x70
 8004398:	f442 4240 	orr.w	r2, r2, #49152	@ 0xc000
 800439c:	f042 0280 	orr.w	r2, r2, #128	@ 0x80
 80043a0:	f823 2024 	strh.w	r2, [r3, r4, lsl #2]
      PCD_CLEAR_TX_DTOG(USBx, ep->num);
 80043a4:	780c      	ldrb	r4, [r1, #0]
 80043a6:	f833 2024 	ldrh.w	r2, [r3, r4, lsl #2]
 80043aa:	f012 0f40 	tst.w	r2, #64	@ 0x40
 80043ae:	d00c      	beq.n	80043ca <USB_ActivateEndpoint+0x368>
 80043b0:	f833 2024 	ldrh.w	r2, [r3, r4, lsl #2]
 80043b4:	b292      	uxth	r2, r2
 80043b6:	f422 42e0 	bic.w	r2, r2, #28672	@ 0x7000
 80043ba:	f022 0270 	bic.w	r2, r2, #112	@ 0x70
 80043be:	f442 4200 	orr.w	r2, r2, #32768	@ 0x8000
 80043c2:	f042 02c0 	orr.w	r2, r2, #192	@ 0xc0
 80043c6:	f823 2024 	strh.w	r2, [r3, r4, lsl #2]
      if (ep->type != EP_TYPE_ISOC)
 80043ca:	78ca      	ldrb	r2, [r1, #3]
 80043cc:	2a01      	cmp	r2, #1
 80043ce:	d01e      	beq.n	800440e <USB_ActivateEndpoint+0x3ac>
        PCD_SET_EP_TX_STATUS(USBx, ep->num, USB_EP_TX_NAK);
 80043d0:	780c      	ldrb	r4, [r1, #0]
 80043d2:	f833 2024 	ldrh.w	r2, [r3, r4, lsl #2]
 80043d6:	b292      	uxth	r2, r2
 80043d8:	f422 42e0 	bic.w	r2, r2, #28672	@ 0x7000
 80043dc:	f022 0240 	bic.w	r2, r2, #64	@ 0x40
 80043e0:	f082 0220 	eor.w	r2, r2, #32
 80043e4:	f442 4200 	orr.w	r2, r2, #32768	@ 0x8000
 80043e8:	f042 0280 	orr.w	r2, r2, #128	@ 0x80
 80043ec:	f823 2024 	strh.w	r2, [r3, r4, lsl #2]
      PCD_SET_EP_RX_STATUS(USBx, ep->num, USB_EP_RX_DIS);
 80043f0:	7809      	ldrb	r1, [r1, #0]
 80043f2:	f833 2021 	ldrh.w	r2, [r3, r1, lsl #2]
 80043f6:	b292      	uxth	r2, r2
 80043f8:	f422 4280 	bic.w	r2, r2, #16384	@ 0x4000
 80043fc:	f022 0270 	bic.w	r2, r2, #112	@ 0x70
 8004400:	f442 4200 	orr.w	r2, r2, #32768	@ 0x8000
 8004404:	f042 0280 	orr.w	r2, r2, #128	@ 0x80
 8004408:	f823 2021 	strh.w	r2, [r3, r1, lsl #2]
 800440c:	e7a7      	b.n	800435e <USB_ActivateEndpoint+0x2fc>
        PCD_SET_EP_TX_STATUS(USBx, ep->num, USB_EP_TX_DIS);
 800440e:	780c      	ldrb	r4, [r1, #0]
 8004410:	f833 2024 	ldrh.w	r2, [r3, r4, lsl #2]
 8004414:	b292      	uxth	r2, r2
 8004416:	f422 42e0 	bic.w	r2, r2, #28672	@ 0x7000
 800441a:	f022 0240 	bic.w	r2, r2, #64	@ 0x40
 800441e:	f442 4200 	orr.w	r2, r2, #32768	@ 0x8000
 8004422:	f042 0280 	orr.w	r2, r2, #128	@ 0x80
 8004426:	f823 2024 	strh.w	r2, [r3, r4, lsl #2]
 800442a:	e7e1      	b.n	80043f0 <USB_ActivateEndpoint+0x38e>

0800442c <USB_DeactivateEndpoint>:
  * @param  ep pointer to endpoint structure
  * @retval HAL status
  */
HAL_StatusTypeDef USB_DeactivateEndpoint(USB_TypeDef *USBx, USB_EPTypeDef *ep)
{
  if (ep->doublebuffer == 0U)
 800442c:	7b0b      	ldrb	r3, [r1, #12]
 800442e:	2b00      	cmp	r3, #0
 8004430:	d146      	bne.n	80044c0 <USB_DeactivateEndpoint+0x94>
  {
    if (ep->is_in != 0U)
 8004432:	784b      	ldrb	r3, [r1, #1]
 8004434:	b313      	cbz	r3, 800447c <USB_DeactivateEndpoint+0x50>
    {
      PCD_CLEAR_TX_DTOG(USBx, ep->num);
 8004436:	780a      	ldrb	r2, [r1, #0]
 8004438:	f830 3022 	ldrh.w	r3, [r0, r2, lsl #2]
 800443c:	f013 0f40 	tst.w	r3, #64	@ 0x40
 8004440:	d00c      	beq.n	800445c <USB_DeactivateEndpoint+0x30>
 8004442:	f830 3022 	ldrh.w	r3, [r0, r2, lsl #2]
 8004446:	b29b      	uxth	r3, r3
 8004448:	f423 43e0 	bic.w	r3, r3, #28672	@ 0x7000
 800444c:	f023 0370 	bic.w	r3, r3, #112	@ 0x70
 8004450:	f443 4300 	orr.w	r3, r3, #32768	@ 0x8000
 8004454:	f043 03c0 	orr.w	r3, r3, #192	@ 0xc0
 8004458:	f820 3022 	strh.w	r3, [r0, r2, lsl #2]

      /* Configure DISABLE status for the Endpoint */
      PCD_SET_EP_TX_STATUS(USBx, ep->num, USB_EP_TX_DIS);
 800445c:	780a      	ldrb	r2, [r1, #0]
 800445e:	f830 3022 	ldrh.w	r3, [r0, r2, lsl #2]
 8004462:	b29b      	uxth	r3, r3
 8004464:	f423 43e0 	bic.w	r3, r3, #28672	@ 0x7000
 8004468:	f023 0340 	bic.w	r3, r3, #64	@ 0x40
 800446c:	f443 4300 	orr.w	r3, r3, #32768	@ 0x8000
 8004470:	f043 0380 	orr.w	r3, r3, #128	@ 0x80
 8004474:	f820 3022 	strh.w	r3, [r0, r2, lsl #2]
    }
  }
#endif /* (USE_USB_DOUBLE_BUFFER == 1U) */

  return HAL_OK;
}
 8004478:	2000      	movs	r0, #0
 800447a:	4770      	bx	lr
      PCD_CLEAR_RX_DTOG(USBx, ep->num);
 800447c:	780a      	ldrb	r2, [r1, #0]
 800447e:	f830 3022 	ldrh.w	r3, [r0, r2, lsl #2]
 8004482:	f413 4f80 	tst.w	r3, #16384	@ 0x4000
 8004486:	d00c      	beq.n	80044a2 <USB_DeactivateEndpoint+0x76>
 8004488:	f830 3022 	ldrh.w	r3, [r0, r2, lsl #2]
 800448c:	b29b      	uxth	r3, r3
 800448e:	f423 43e0 	bic.w	r3, r3, #28672	@ 0x7000
 8004492:	f023 0370 	bic.w	r3, r3, #112	@ 0x70
 8004496:	f443 4340 	orr.w	r3, r3, #49152	@ 0xc000
 800449a:	f043 0380 	orr.w	r3, r3, #128	@ 0x80
 800449e:	f820 3022 	strh.w	r3, [r0, r2, lsl #2]
      PCD_SET_EP_RX_STATUS(USBx, ep->num, USB_EP_RX_DIS);
 80044a2:	780a      	ldrb	r2, [r1, #0]
 80044a4:	f830 3022 	ldrh.w	r3, [r0, r2, lsl #2]
 80044a8:	b29b      	uxth	r3, r3
 80044aa:	f423 4380 	bic.w	r3, r3, #16384	@ 0x4000
 80044ae:	f023 0370 	bic.w	r3, r3, #112	@ 0x70
 80044b2:	f443 4300 	orr.w	r3, r3, #32768	@ 0x8000
 80044b6:	f043 0380 	orr.w	r3, r3, #128	@ 0x80
 80044ba:	f820 3022 	strh.w	r3, [r0, r2, lsl #2]
 80044be:	e7db      	b.n	8004478 <USB_DeactivateEndpoint+0x4c>
    if (ep->is_in == 0U)
 80044c0:	784b      	ldrb	r3, [r1, #1]
 80044c2:	2b00      	cmp	r3, #0
 80044c4:	d14e      	bne.n	8004564 <USB_DeactivateEndpoint+0x138>
      PCD_CLEAR_RX_DTOG(USBx, ep->num);
 80044c6:	780a      	ldrb	r2, [r1, #0]
 80044c8:	f830 3022 	ldrh.w	r3, [r0, r2, lsl #2]
 80044cc:	f413 4f80 	tst.w	r3, #16384	@ 0x4000
 80044d0:	d00c      	beq.n	80044ec <USB_DeactivateEndpoint+0xc0>
 80044d2:	f830 3022 	ldrh.w	r3, [r0, r2, lsl #2]
 80044d6:	b29b      	uxth	r3, r3
 80044d8:	f423 43e0 	bic.w	r3, r3, #28672	@ 0x7000
 80044dc:	f023 0370 	bic.w	r3, r3, #112	@ 0x70
 80044e0:	f443 4340 	orr.w	r3, r3, #49152	@ 0xc000
 80044e4:	f043 0380 	orr.w	r3, r3, #128	@ 0x80
 80044e8:	f820 3022 	strh.w	r3, [r0, r2, lsl #2]
      PCD_CLEAR_TX_DTOG(USBx, ep->num);
 80044ec:	780a      	ldrb	r2, [r1, #0]
 80044ee:	f830 3022 	ldrh.w	r3, [r0, r2, lsl #2]
 80044f2:	f013 0f40 	tst.w	r3, #64	@ 0x40
 80044f6:	d00c      	beq.n	8004512 <USB_DeactivateEndpoint+0xe6>
 80044f8:	f830 3022 	ldrh.w	r3, [r0, r2, lsl #2]
 80044fc:	b29b      	uxth	r3, r3
 80044fe:	f423 43e0 	bic.w	r3, r3, #28672	@ 0x7000
 8004502:	f023 0370 	bic.w	r3, r3, #112	@ 0x70
 8004506:	f443 4300 	orr.w	r3, r3, #32768	@ 0x8000
 800450a:	f043 03c0 	orr.w	r3, r3, #192	@ 0xc0
 800450e:	f820 3022 	strh.w	r3, [r0, r2, lsl #2]
      PCD_TX_DTOG(USBx, ep->num);
 8004512:	780a      	ldrb	r2, [r1, #0]
 8004514:	f830 3022 	ldrh.w	r3, [r0, r2, lsl #2]
 8004518:	b29b      	uxth	r3, r3
 800451a:	f423 43e0 	bic.w	r3, r3, #28672	@ 0x7000
 800451e:	f023 0370 	bic.w	r3, r3, #112	@ 0x70
 8004522:	f443 4300 	orr.w	r3, r3, #32768	@ 0x8000
 8004526:	f043 03c0 	orr.w	r3, r3, #192	@ 0xc0
 800452a:	f820 3022 	strh.w	r3, [r0, r2, lsl #2]
      PCD_SET_EP_RX_STATUS(USBx, ep->num, USB_EP_RX_DIS);
 800452e:	780a      	ldrb	r2, [r1, #0]
 8004530:	f830 3022 	ldrh.w	r3, [r0, r2, lsl #2]
 8004534:	b29b      	uxth	r3, r3
 8004536:	f423 4380 	bic.w	r3, r3, #16384	@ 0x4000
 800453a:	f023 0370 	bic.w	r3, r3, #112	@ 0x70
 800453e:	f248 0c80 	movw	ip, #32896	@ 0x8080
 8004542:	ea43 030c 	orr.w	r3, r3, ip
 8004546:	f820 3022 	strh.w	r3, [r0, r2, lsl #2]
      PCD_SET_EP_TX_STATUS(USBx, ep->num, USB_EP_TX_DIS);
 800454a:	780a      	ldrb	r2, [r1, #0]
 800454c:	f830 3022 	ldrh.w	r3, [r0, r2, lsl #2]
 8004550:	b29b      	uxth	r3, r3
 8004552:	f423 43e0 	bic.w	r3, r3, #28672	@ 0x7000
 8004556:	f023 0340 	bic.w	r3, r3, #64	@ 0x40
 800455a:	ea43 030c 	orr.w	r3, r3, ip
 800455e:	f820 3022 	strh.w	r3, [r0, r2, lsl #2]
 8004562:	e789      	b.n	8004478 <USB_DeactivateEndpoint+0x4c>
      PCD_CLEAR_RX_DTOG(USBx, ep->num);
 8004564:	780a      	ldrb	r2, [r1, #0]
 8004566:	f830 3022 	ldrh.w	r3, [r0, r2, lsl #2]
 800456a:	f413 4f80 	tst.w	r3, #16384	@ 0x4000
 800456e:	d00c      	beq.n	800458a <USB_DeactivateEndpoint+0x15e>
 8004570:	f830 3022 	ldrh.w	r3, [r0, r2, lsl #2]
 8004574:	b29b      	uxth	r3, r3
 8004576:	f423 43e0 	bic.w	r3, r3, #28672	@ 0x7000
 800457a:	f023 0370 	bic.w	r3, r3, #112	@ 0x70
 800457e:	f443 4340 	orr.w	r3, r3, #49152	@ 0xc000
 8004582:	f043 0380 	orr.w	r3, r3, #128	@ 0x80
 8004586:	f820 3022 	strh.w	r3, [r0, r2, lsl #2]
      PCD_CLEAR_TX_DTOG(USBx, ep->num);
 800458a:	780a      	ldrb	r2, [r1, #0]
 800458c:	f830 3022 	ldrh.w	r3, [r0, r2, lsl #2]
 8004590:	f013 0f40 	tst.w	r3, #64	@ 0x40
 8004594:	d00c      	beq.n	80045b0 <USB_DeactivateEndpoint+0x184>
 8004596:	f830 3022 	ldrh.w	r3, [r0, r2, lsl #2]
 800459a:	b29b      	uxth	r3, r3
 800459c:	f423 43e0 	bic.w	r3, r3, #28672	@ 0x7000
 80045a0:	f023 0370 	bic.w	r3, r3, #112	@ 0x70
 80045a4:	f443 4300 	orr.w	r3, r3, #32768	@ 0x8000
 80045a8:	f043 03c0 	orr.w	r3, r3, #192	@ 0xc0
 80045ac:	f820 3022 	strh.w	r3, [r0, r2, lsl #2]
      PCD_RX_DTOG(USBx, ep->num);
 80045b0:	780a      	ldrb	r2, [r1, #0]
 80045b2:	f830 3022 	ldrh.w	r3, [r0, r2, lsl #2]
 80045b6:	b29b      	uxth	r3, r3
 80045b8:	f423 43e0 	bic.w	r3, r3, #28672	@ 0x7000
 80045bc:	f023 0370 	bic.w	r3, r3, #112	@ 0x70
 80045c0:	f443 4340 	orr.w	r3, r3, #49152	@ 0xc000
 80045c4:	f043 0380 	orr.w	r3, r3, #128	@ 0x80
 80045c8:	f820 3022 	strh.w	r3, [r0, r2, lsl #2]
      PCD_SET_EP_TX_STATUS(USBx, ep->num, USB_EP_TX_DIS);
 80045cc:	780a      	ldrb	r2, [r1, #0]
 80045ce:	f830 3022 	ldrh.w	r3, [r0, r2, lsl #2]
 80045d2:	b29b      	uxth	r3, r3
 80045d4:	f423 43e0 	bic.w	r3, r3, #28672	@ 0x7000
 80045d8:	f023 0340 	bic.w	r3, r3, #64	@ 0x40
 80045dc:	f248 0c80 	movw	ip, #32896	@ 0x8080
 80045e0:	ea43 030c 	orr.w	r3, r3, ip
 80045e4:	f820 3022 	strh.w	r3, [r0, r2, lsl #2]
      PCD_SET_EP_RX_STATUS(USBx, ep->num, USB_EP_RX_DIS);
 80045e8:	780a      	ldrb	r2, [r1, #0]
 80045ea:	f830 3022 	ldrh.w	r3, [r0, r2, lsl #2]
 80045ee:	b29b      	uxth	r3, r3
 80045f0:	f423 4380 	bic.w	r3, r3, #16384	@ 0x4000
 80045f4:	f023 0370 	bic.w	r3, r3, #112	@ 0x70
 80045f8:	ea43 030c 	orr.w	r3, r3, ip
 80045fc:	f820 3022 	strh.w	r3, [r0, r2, lsl #2]
 8004600:	e73a      	b.n	8004478 <USB_DeactivateEndpoint+0x4c>

08004602 <USB_EPSetStall>:
  * @param  ep pointer to endpoint structure
  * @retval HAL status
  */
HAL_StatusTypeDef USB_EPSetStall(USB_TypeDef *USBx, USB_EPTypeDef *ep)
{
  if (ep->is_in != 0U)
 8004602:	784b      	ldrb	r3, [r1, #1]
 8004604:	b18b      	cbz	r3, 800462a <USB_EPSetStall+0x28>
  {
    PCD_SET_EP_TX_STATUS(USBx, ep->num, USB_EP_TX_STALL);
 8004606:	780a      	ldrb	r2, [r1, #0]
 8004608:	f830 3022 	ldrh.w	r3, [r0, r2, lsl #2]
 800460c:	b29b      	uxth	r3, r3
 800460e:	f423 43e0 	bic.w	r3, r3, #28672	@ 0x7000
 8004612:	f023 0340 	bic.w	r3, r3, #64	@ 0x40
 8004616:	f083 0310 	eor.w	r3, r3, #16
 800461a:	f443 4300 	orr.w	r3, r3, #32768	@ 0x8000
 800461e:	f043 0380 	orr.w	r3, r3, #128	@ 0x80
 8004622:	f820 3022 	strh.w	r3, [r0, r2, lsl #2]
  {
    PCD_SET_EP_RX_STATUS(USBx, ep->num, USB_EP_RX_STALL);
  }

  return HAL_OK;
}
 8004626:	2000      	movs	r0, #0
 8004628:	4770      	bx	lr
    PCD_SET_EP_RX_STATUS(USBx, ep->num, USB_EP_RX_STALL);
 800462a:	780a      	ldrb	r2, [r1, #0]
 800462c:	f830 3022 	ldrh.w	r3, [r0, r2, lsl #2]
 8004630:	b29b      	uxth	r3, r3
 8004632:	f423 4380 	bic.w	r3, r3, #16384	@ 0x4000
 8004636:	f023 0370 	bic.w	r3, r3, #112	@ 0x70
 800463a:	f483 5380 	eor.w	r3, r3, #4096	@ 0x1000
 800463e:	f443 4300 	orr.w	r3, r3, #32768	@ 0x8000
 8004642:	f043 0380 	orr.w	r3, r3, #128	@ 0x80
 8004646:	f820 3022 	strh.w	r3, [r0, r2, lsl #2]
 800464a:	e7ec      	b.n	8004626 <USB_EPSetStall+0x24>

0800464c <USB_EPClearStall>:
  * @param  ep pointer to endpoint structure
  * @retval HAL status
  */
HAL_StatusTypeDef USB_EPClearStall(USB_TypeDef *USBx, USB_EPTypeDef *ep)
{
  if (ep->doublebuffer == 0U)
 800464c:	7b0b      	ldrb	r3, [r1, #12]
 800464e:	2b00      	cmp	r3, #0
 8004650:	d14b      	bne.n	80046ea <USB_EPClearStall+0x9e>
  {
    if (ep->is_in != 0U)
 8004652:	784b      	ldrb	r3, [r1, #1]
 8004654:	b333      	cbz	r3, 80046a4 <USB_EPClearStall+0x58>
    {
      PCD_CLEAR_TX_DTOG(USBx, ep->num);
 8004656:	780a      	ldrb	r2, [r1, #0]
 8004658:	f830 3022 	ldrh.w	r3, [r0, r2, lsl #2]
 800465c:	f013 0f40 	tst.w	r3, #64	@ 0x40
 8004660:	d00c      	beq.n	800467c <USB_EPClearStall+0x30>
 8004662:	f830 3022 	ldrh.w	r3, [r0, r2, lsl #2]
 8004666:	b29b      	uxth	r3, r3
 8004668:	f423 43e0 	bic.w	r3, r3, #28672	@ 0x7000
 800466c:	f023 0370 	bic.w	r3, r3, #112	@ 0x70
 8004670:	f443 4300 	orr.w	r3, r3, #32768	@ 0x8000
 8004674:	f043 03c0 	orr.w	r3, r3, #192	@ 0xc0
 8004678:	f820 3022 	strh.w	r3, [r0, r2, lsl #2]

      if (ep->type != EP_TYPE_ISOC)
 800467c:	78cb      	ldrb	r3, [r1, #3]
 800467e:	2b01      	cmp	r3, #1
 8004680:	d033      	beq.n	80046ea <USB_EPClearStall+0x9e>
      {
        /* Configure NAK status for the Endpoint */
        PCD_SET_EP_TX_STATUS(USBx, ep->num, USB_EP_TX_NAK);
 8004682:	780a      	ldrb	r2, [r1, #0]
 8004684:	f830 3022 	ldrh.w	r3, [r0, r2, lsl #2]
 8004688:	b29b      	uxth	r3, r3
 800468a:	f423 43e0 	bic.w	r3, r3, #28672	@ 0x7000
 800468e:	f023 0340 	bic.w	r3, r3, #64	@ 0x40
 8004692:	f083 0320 	eor.w	r3, r3, #32
 8004696:	f443 4300 	orr.w	r3, r3, #32768	@ 0x8000
 800469a:	f043 0380 	orr.w	r3, r3, #128	@ 0x80
 800469e:	f820 3022 	strh.w	r3, [r0, r2, lsl #2]
 80046a2:	e022      	b.n	80046ea <USB_EPClearStall+0x9e>
      }
    }
    else
    {
      PCD_CLEAR_RX_DTOG(USBx, ep->num);
 80046a4:	780a      	ldrb	r2, [r1, #0]
 80046a6:	f830 3022 	ldrh.w	r3, [r0, r2, lsl #2]
 80046aa:	f413 4f80 	tst.w	r3, #16384	@ 0x4000
 80046ae:	d00c      	beq.n	80046ca <USB_EPClearStall+0x7e>
 80046b0:	f830 3022 	ldrh.w	r3, [r0, r2, lsl #2]
 80046b4:	b29b      	uxth	r3, r3
 80046b6:	f423 43e0 	bic.w	r3, r3, #28672	@ 0x7000
 80046ba:	f023 0370 	bic.w	r3, r3, #112	@ 0x70
 80046be:	f443 4340 	orr.w	r3, r3, #49152	@ 0xc000
 80046c2:	f043 0380 	orr.w	r3, r3, #128	@ 0x80
 80046c6:	f820 3022 	strh.w	r3, [r0, r2, lsl #2]

      /* Configure VALID status for the Endpoint */
      PCD_SET_EP_RX_STATUS(USBx, ep->num, USB_EP_RX_VALID);
 80046ca:	780a      	ldrb	r2, [r1, #0]
 80046cc:	f830 3022 	ldrh.w	r3, [r0, r2, lsl #2]
 80046d0:	b29b      	uxth	r3, r3
 80046d2:	f423 4380 	bic.w	r3, r3, #16384	@ 0x4000
 80046d6:	f023 0370 	bic.w	r3, r3, #112	@ 0x70
 80046da:	f483 5340 	eor.w	r3, r3, #12288	@ 0x3000
 80046de:	f443 4300 	orr.w	r3, r3, #32768	@ 0x8000
 80046e2:	f043 0380 	orr.w	r3, r3, #128	@ 0x80
 80046e6:	f820 3022 	strh.w	r3, [r0, r2, lsl #2]
    }
  }

  return HAL_OK;
}
 80046ea:	2000      	movs	r0, #0
 80046ec:	4770      	bx	lr

080046ee <USB_SetDevAddress>:
  *          This parameter can be a value from 0 to 255
  * @retval HAL status
  */
HAL_StatusTypeDef  USB_SetDevAddress(USB_TypeDef *USBx, uint8_t address)
{
  if (address == 0U)
 80046ee:	b911      	cbnz	r1, 80046f6 <USB_SetDevAddress+0x8>
  {
    /* set device address and enable function */
    USBx->DADDR = (uint16_t)USB_DADDR_EF;
 80046f0:	2380      	movs	r3, #128	@ 0x80
 80046f2:	f8a0 304c 	strh.w	r3, [r0, #76]	@ 0x4c
  }

  return HAL_OK;
}
 80046f6:	2000      	movs	r0, #0
 80046f8:	4770      	bx	lr

080046fa <USB_DevConnect>:
              only by USB OTG FS peripheral.
            - This function is added to ensure compatibility across platforms.
   */

  return HAL_OK;
}
 80046fa:	2000      	movs	r0, #0
 80046fc:	4770      	bx	lr

080046fe <USB_DevDisconnect>:
              only by USB OTG FS peripheral.
            - This function is added to ensure compatibility across platforms.
   */

  return HAL_OK;
}
 80046fe:	2000      	movs	r0, #0
 8004700:	4770      	bx	lr

08004702 <USB_ReadInterrupts>:
  */
uint32_t USB_ReadInterrupts(USB_TypeDef const *USBx)
{
  uint32_t tmpreg;

  tmpreg = USBx->ISTR;
 8004702:	f8b0 0044 	ldrh.w	r0, [r0, #68]	@ 0x44
  return tmpreg;
}
 8004706:	b280      	uxth	r0, r0
 8004708:	4770      	bx	lr

0800470a <USB_EP0_OutStart>:
  /* NOTE : - This function is not required by USB Device FS peripheral, it is used
              only by USB OTG FS peripheral.
            - This function is added to ensure compatibility across platforms.
   */
  return HAL_OK;
}
 800470a:	2000      	movs	r0, #0
 800470c:	4770      	bx	lr

0800470e <USB_WritePMA>:
  * @param   wNBytes no. of bytes to be copied.
  * @retval None
  */
void USB_WritePMA(USB_TypeDef const *USBx, uint8_t *pbUsrBuf, uint16_t wPMABufAddr, uint16_t wNBytes)
{
  uint32_t n = ((uint32_t)wNBytes + 1U) >> 1;
 800470e:	3301      	adds	r3, #1
 8004710:	085b      	lsrs	r3, r3, #1
  uint32_t count;
  uint16_t WrVal;
  __IO uint16_t *pdwVal;
  uint8_t *pBuf = pbUsrBuf;

  pdwVal = (__IO uint16_t *)(BaseAddr + 0x400U + ((uint32_t)wPMABufAddr * PMA_ACCESS));
 8004712:	eb00 0042 	add.w	r0, r0, r2, lsl #1
 8004716:	f500 6080 	add.w	r0, r0, #1024	@ 0x400

  for (count = n; count != 0U; count--)
 800471a:	e008      	b.n	800472e <USB_WritePMA+0x20>
  {
    WrVal = pBuf[0];
 800471c:	780a      	ldrb	r2, [r1, #0]
    WrVal |= (uint16_t)pBuf[1] << 8;
 800471e:	f891 c001 	ldrb.w	ip, [r1, #1]
 8004722:	ea42 220c 	orr.w	r2, r2, ip, lsl #8
    *pdwVal = (WrVal & 0xFFFFU);
 8004726:	f820 2b04 	strh.w	r2, [r0], #4
#if PMA_ACCESS > 1U
    pdwVal++;
#endif /* PMA_ACCESS */

    pBuf++;
    pBuf++;
 800472a:	3102      	adds	r1, #2
  for (count = n; count != 0U; count--)
 800472c:	3b01      	subs	r3, #1
 800472e:	2b00      	cmp	r3, #0
 8004730:	d1f4      	bne.n	800471c <USB_WritePMA+0xe>
  }
}
 8004732:	4770      	bx	lr

08004734 <USB_EPStartXfer>:
{
 8004734:	b570      	push	{r4, r5, r6, lr}
 8004736:	4605      	mov	r5, r0
 8004738:	460c      	mov	r4, r1
  if (ep->is_in == 1U)
 800473a:	784a      	ldrb	r2, [r1, #1]
 800473c:	2a01      	cmp	r2, #1
 800473e:	d03b      	beq.n	80047b8 <USB_EPStartXfer+0x84>
    if (ep->doublebuffer == 0U)
 8004740:	7b0b      	ldrb	r3, [r1, #12]
 8004742:	2b00      	cmp	r3, #0
 8004744:	f040 82a6 	bne.w	8004c94 <USB_EPStartXfer+0x560>
      if (ep->xfer_len > ep->maxpacket)
 8004748:	698b      	ldr	r3, [r1, #24]
 800474a:	690a      	ldr	r2, [r1, #16]
 800474c:	4293      	cmp	r3, r2
 800474e:	f240 8284 	bls.w	8004c5a <USB_EPStartXfer+0x526>
        ep->xfer_len -= len;
 8004752:	1a9b      	subs	r3, r3, r2
 8004754:	618b      	str	r3, [r1, #24]
      PCD_SET_EP_RX_CNT(USBx, ep->num, len);
 8004756:	f8b5 3050 	ldrh.w	r3, [r5, #80]	@ 0x50
 800475a:	b29b      	uxth	r3, r3
 800475c:	442b      	add	r3, r5
 800475e:	7821      	ldrb	r1, [r4, #0]
 8004760:	eb03 1301 	add.w	r3, r3, r1, lsl #4
 8004764:	f8b3 140c 	ldrh.w	r1, [r3, #1036]	@ 0x40c
 8004768:	f3c1 0109 	ubfx	r1, r1, #0, #10
 800476c:	f8a3 140c 	strh.w	r1, [r3, #1036]	@ 0x40c
 8004770:	2a3e      	cmp	r2, #62	@ 0x3e
 8004772:	f240 8276 	bls.w	8004c62 <USB_EPStartXfer+0x52e>
 8004776:	0951      	lsrs	r1, r2, #5
 8004778:	f012 0f1f 	tst.w	r2, #31
 800477c:	d100      	bne.n	8004780 <USB_EPStartXfer+0x4c>
 800477e:	3901      	subs	r1, #1
 8004780:	f8b3 240c 	ldrh.w	r2, [r3, #1036]	@ 0x40c
 8004784:	b292      	uxth	r2, r2
 8004786:	0289      	lsls	r1, r1, #10
 8004788:	b289      	uxth	r1, r1
 800478a:	430a      	orrs	r2, r1
 800478c:	f442 4200 	orr.w	r2, r2, #32768	@ 0x8000
 8004790:	f8a3 240c 	strh.w	r2, [r3, #1036]	@ 0x40c
    PCD_SET_EP_RX_STATUS(USBx, ep->num, USB_EP_RX_VALID);
 8004794:	7822      	ldrb	r2, [r4, #0]
 8004796:	f835 3022 	ldrh.w	r3, [r5, r2, lsl #2]
 800479a:	b29b      	uxth	r3, r3
 800479c:	f423 4380 	bic.w	r3, r3, #16384	@ 0x4000
 80047a0:	f023 0370 	bic.w	r3, r3, #112	@ 0x70
 80047a4:	f483 5340 	eor.w	r3, r3, #12288	@ 0x3000
 80047a8:	f443 4300 	orr.w	r3, r3, #32768	@ 0x8000
 80047ac:	f043 0380 	orr.w	r3, r3, #128	@ 0x80
 80047b0:	f825 3022 	strh.w	r3, [r5, r2, lsl #2]
  return HAL_OK;
 80047b4:	2000      	movs	r0, #0
}
 80047b6:	bd70      	pop	{r4, r5, r6, pc}
    if (ep->xfer_len > ep->maxpacket)
 80047b8:	698e      	ldr	r6, [r1, #24]
 80047ba:	6909      	ldr	r1, [r1, #16]
 80047bc:	428e      	cmp	r6, r1
 80047be:	d900      	bls.n	80047c2 <USB_EPStartXfer+0x8e>
      len = ep->maxpacket;
 80047c0:	460e      	mov	r6, r1
    if (ep->doublebuffer == 0U)
 80047c2:	7b23      	ldrb	r3, [r4, #12]
 80047c4:	b373      	cbz	r3, 8004824 <USB_EPStartXfer+0xf0>
      if (ep->type == EP_TYPE_BULK)
 80047c6:	78e3      	ldrb	r3, [r4, #3]
 80047c8:	2b02      	cmp	r3, #2
 80047ca:	d04d      	beq.n	8004868 <USB_EPStartXfer+0x134>
        ep->xfer_len_db -= len;
 80047cc:	6a23      	ldr	r3, [r4, #32]
 80047ce:	1b9b      	subs	r3, r3, r6
 80047d0:	6223      	str	r3, [r4, #32]
        if ((PCD_GET_ENDPOINT(USBx, ep->num) & USB_EP_DTOG_TX) != 0U)
 80047d2:	7821      	ldrb	r1, [r4, #0]
 80047d4:	f835 3021 	ldrh.w	r3, [r5, r1, lsl #2]
 80047d8:	f013 0f40 	tst.w	r3, #64	@ 0x40
 80047dc:	f000 81f5 	beq.w	8004bca <USB_EPStartXfer+0x496>
          PCD_SET_EP_DBUF1_CNT(USBx, ep->num, ep->is_in, len);
 80047e0:	2a00      	cmp	r2, #0
 80047e2:	f040 81e2 	bne.w	8004baa <USB_EPStartXfer+0x476>
 80047e6:	f8b5 3050 	ldrh.w	r3, [r5, #80]	@ 0x50
 80047ea:	b29b      	uxth	r3, r3
 80047ec:	442b      	add	r3, r5
 80047ee:	eb03 1301 	add.w	r3, r3, r1, lsl #4
 80047f2:	f8b3 240c 	ldrh.w	r2, [r3, #1036]	@ 0x40c
 80047f6:	f3c2 0209 	ubfx	r2, r2, #0, #10
 80047fa:	f8a3 240c 	strh.w	r2, [r3, #1036]	@ 0x40c
 80047fe:	2e3e      	cmp	r6, #62	@ 0x3e
 8004800:	f240 81ba 	bls.w	8004b78 <USB_EPStartXfer+0x444>
 8004804:	0971      	lsrs	r1, r6, #5
 8004806:	f016 0f1f 	tst.w	r6, #31
 800480a:	d100      	bne.n	800480e <USB_EPStartXfer+0xda>
 800480c:	3901      	subs	r1, #1
 800480e:	f8b3 240c 	ldrh.w	r2, [r3, #1036]	@ 0x40c
 8004812:	b292      	uxth	r2, r2
 8004814:	0289      	lsls	r1, r1, #10
 8004816:	b289      	uxth	r1, r1
 8004818:	430a      	orrs	r2, r1
 800481a:	f442 4200 	orr.w	r2, r2, #32768	@ 0x8000
 800481e:	f8a3 240c 	strh.w	r2, [r3, #1036]	@ 0x40c
 8004822:	e1cb      	b.n	8004bbc <USB_EPStartXfer+0x488>
      USB_WritePMA(USBx, ep->xfer_buff, ep->pmaadress, (uint16_t)len);
 8004824:	b2b6      	uxth	r6, r6
 8004826:	4633      	mov	r3, r6
 8004828:	88e2      	ldrh	r2, [r4, #6]
 800482a:	6961      	ldr	r1, [r4, #20]
 800482c:	4628      	mov	r0, r5
 800482e:	f7ff ff6e 	bl	800470e <USB_WritePMA>
      PCD_SET_EP_TX_CNT(USBx, ep->num, len);
 8004832:	f8b5 3050 	ldrh.w	r3, [r5, #80]	@ 0x50
 8004836:	b29b      	uxth	r3, r3
 8004838:	442b      	add	r3, r5
 800483a:	7822      	ldrb	r2, [r4, #0]
 800483c:	eb03 1302 	add.w	r3, r3, r2, lsl #4
 8004840:	f8a3 6404 	strh.w	r6, [r3, #1028]	@ 0x404
    PCD_SET_EP_TX_STATUS(USBx, ep->num, USB_EP_TX_VALID);
 8004844:	7822      	ldrb	r2, [r4, #0]
 8004846:	f835 3022 	ldrh.w	r3, [r5, r2, lsl #2]
 800484a:	b29b      	uxth	r3, r3
 800484c:	f423 43e0 	bic.w	r3, r3, #28672	@ 0x7000
 8004850:	f023 0340 	bic.w	r3, r3, #64	@ 0x40
 8004854:	f083 0330 	eor.w	r3, r3, #48	@ 0x30
 8004858:	f443 4300 	orr.w	r3, r3, #32768	@ 0x8000
 800485c:	f043 0380 	orr.w	r3, r3, #128	@ 0x80
 8004860:	f825 3022 	strh.w	r3, [r5, r2, lsl #2]
  return HAL_OK;
 8004864:	2000      	movs	r0, #0
 8004866:	e7a6      	b.n	80047b6 <USB_EPStartXfer+0x82>
        if (ep->xfer_len_db > ep->maxpacket)
 8004868:	6a23      	ldr	r3, [r4, #32]
 800486a:	4299      	cmp	r1, r3
 800486c:	f080 8166 	bcs.w	8004b3c <USB_EPStartXfer+0x408>
          PCD_SET_BULK_EP_DBUF(USBx, ep->num);
 8004870:	7822      	ldrb	r2, [r4, #0]
 8004872:	f835 3022 	ldrh.w	r3, [r5, r2, lsl #2]
 8004876:	b29b      	uxth	r3, r3
 8004878:	f423 43e0 	bic.w	r3, r3, #28672	@ 0x7000
 800487c:	f023 0370 	bic.w	r3, r3, #112	@ 0x70
 8004880:	f443 4301 	orr.w	r3, r3, #33024	@ 0x8100
 8004884:	f043 0380 	orr.w	r3, r3, #128	@ 0x80
 8004888:	f825 3022 	strh.w	r3, [r5, r2, lsl #2]
          ep->xfer_len_db -= len;
 800488c:	6a23      	ldr	r3, [r4, #32]
 800488e:	1b9b      	subs	r3, r3, r6
 8004890:	6223      	str	r3, [r4, #32]
          if ((PCD_GET_ENDPOINT(USBx, ep->num) & USB_EP_DTOG_TX) != 0U)
 8004892:	7822      	ldrb	r2, [r4, #0]
 8004894:	f835 3022 	ldrh.w	r3, [r5, r2, lsl #2]
 8004898:	f013 0f40 	tst.w	r3, #64	@ 0x40
 800489c:	f000 80a7 	beq.w	80049ee <USB_EPStartXfer+0x2ba>
            PCD_SET_EP_DBUF1_CNT(USBx, ep->num, ep->is_in, len);
 80048a0:	7863      	ldrb	r3, [r4, #1]
 80048a2:	bbb3      	cbnz	r3, 8004912 <USB_EPStartXfer+0x1de>
 80048a4:	f8b5 3050 	ldrh.w	r3, [r5, #80]	@ 0x50
 80048a8:	b29b      	uxth	r3, r3
 80048aa:	442b      	add	r3, r5
 80048ac:	eb03 1302 	add.w	r3, r3, r2, lsl #4
 80048b0:	f8b3 240c 	ldrh.w	r2, [r3, #1036]	@ 0x40c
 80048b4:	f3c2 0209 	ubfx	r2, r2, #0, #10
 80048b8:	f8a3 240c 	strh.w	r2, [r3, #1036]	@ 0x40c
 80048bc:	2e3e      	cmp	r6, #62	@ 0x3e
 80048be:	d90f      	bls.n	80048e0 <USB_EPStartXfer+0x1ac>
 80048c0:	0971      	lsrs	r1, r6, #5
 80048c2:	f016 0f1f 	tst.w	r6, #31
 80048c6:	d100      	bne.n	80048ca <USB_EPStartXfer+0x196>
 80048c8:	3901      	subs	r1, #1
 80048ca:	f8b3 240c 	ldrh.w	r2, [r3, #1036]	@ 0x40c
 80048ce:	b292      	uxth	r2, r2
 80048d0:	0289      	lsls	r1, r1, #10
 80048d2:	b289      	uxth	r1, r1
 80048d4:	430a      	orrs	r2, r1
 80048d6:	f442 4200 	orr.w	r2, r2, #32768	@ 0x8000
 80048da:	f8a3 240c 	strh.w	r2, [r3, #1036]	@ 0x40c
 80048de:	e01a      	b.n	8004916 <USB_EPStartXfer+0x1e2>
 80048e0:	b94e      	cbnz	r6, 80048f6 <USB_EPStartXfer+0x1c2>
 80048e2:	f8b3 240c 	ldrh.w	r2, [r3, #1036]	@ 0x40c
 80048e6:	ea6f 4242 	mvn.w	r2, r2, lsl #17
 80048ea:	ea6f 4252 	mvn.w	r2, r2, lsr #17
 80048ee:	b292      	uxth	r2, r2
 80048f0:	f8a3 240c 	strh.w	r2, [r3, #1036]	@ 0x40c
 80048f4:	e00f      	b.n	8004916 <USB_EPStartXfer+0x1e2>
 80048f6:	0872      	lsrs	r2, r6, #1
 80048f8:	f016 0f01 	tst.w	r6, #1
 80048fc:	d000      	beq.n	8004900 <USB_EPStartXfer+0x1cc>
 80048fe:	3201      	adds	r2, #1
 8004900:	f8b3 140c 	ldrh.w	r1, [r3, #1036]	@ 0x40c
 8004904:	b289      	uxth	r1, r1
 8004906:	0292      	lsls	r2, r2, #10
 8004908:	b292      	uxth	r2, r2
 800490a:	430a      	orrs	r2, r1
 800490c:	f8a3 240c 	strh.w	r2, [r3, #1036]	@ 0x40c
 8004910:	e001      	b.n	8004916 <USB_EPStartXfer+0x1e2>
 8004912:	2b01      	cmp	r3, #1
 8004914:	d030      	beq.n	8004978 <USB_EPStartXfer+0x244>
            USB_WritePMA(USBx, ep->xfer_buff, pmabuffer, (uint16_t)len);
 8004916:	b2b3      	uxth	r3, r6
 8004918:	8962      	ldrh	r2, [r4, #10]
 800491a:	6961      	ldr	r1, [r4, #20]
 800491c:	4628      	mov	r0, r5
 800491e:	f7ff fef6 	bl	800470e <USB_WritePMA>
            ep->xfer_buff += len;
 8004922:	6963      	ldr	r3, [r4, #20]
 8004924:	4433      	add	r3, r6
 8004926:	6163      	str	r3, [r4, #20]
            if (ep->xfer_len_db > ep->maxpacket)
 8004928:	6a23      	ldr	r3, [r4, #32]
 800492a:	6922      	ldr	r2, [r4, #16]
 800492c:	4293      	cmp	r3, r2
 800492e:	d92d      	bls.n	800498c <USB_EPStartXfer+0x258>
              ep->xfer_len_db -= len;
 8004930:	1b9b      	subs	r3, r3, r6
 8004932:	6223      	str	r3, [r4, #32]
            PCD_SET_EP_DBUF0_CNT(USBx, ep->num, ep->is_in, len);
 8004934:	7863      	ldrb	r3, [r4, #1]
 8004936:	2b00      	cmp	r3, #0
 8004938:	d145      	bne.n	80049c6 <USB_EPStartXfer+0x292>
 800493a:	f8b5 3050 	ldrh.w	r3, [r5, #80]	@ 0x50
 800493e:	b29b      	uxth	r3, r3
 8004940:	442b      	add	r3, r5
 8004942:	7822      	ldrb	r2, [r4, #0]
 8004944:	eb03 1302 	add.w	r3, r3, r2, lsl #4
 8004948:	f8b3 2404 	ldrh.w	r2, [r3, #1028]	@ 0x404
 800494c:	f3c2 0209 	ubfx	r2, r2, #0, #10
 8004950:	f8a3 2404 	strh.w	r2, [r3, #1028]	@ 0x404
 8004954:	2e3e      	cmp	r6, #62	@ 0x3e
 8004956:	d91d      	bls.n	8004994 <USB_EPStartXfer+0x260>
 8004958:	0971      	lsrs	r1, r6, #5
 800495a:	f016 0f1f 	tst.w	r6, #31
 800495e:	d100      	bne.n	8004962 <USB_EPStartXfer+0x22e>
 8004960:	3901      	subs	r1, #1
 8004962:	f8b3 2404 	ldrh.w	r2, [r3, #1028]	@ 0x404
 8004966:	b292      	uxth	r2, r2
 8004968:	0289      	lsls	r1, r1, #10
 800496a:	b289      	uxth	r1, r1
 800496c:	430a      	orrs	r2, r1
 800496e:	f442 4200 	orr.w	r2, r2, #32768	@ 0x8000
 8004972:	f8a3 2404 	strh.w	r2, [r3, #1028]	@ 0x404
 8004976:	e028      	b.n	80049ca <USB_EPStartXfer+0x296>
            PCD_SET_EP_DBUF1_CNT(USBx, ep->num, ep->is_in, len);
 8004978:	f8b5 3050 	ldrh.w	r3, [r5, #80]	@ 0x50
 800497c:	b29b      	uxth	r3, r3
 800497e:	442b      	add	r3, r5
 8004980:	eb03 1302 	add.w	r3, r3, r2, lsl #4
 8004984:	b2b2      	uxth	r2, r6
 8004986:	f8a3 240c 	strh.w	r2, [r3, #1036]	@ 0x40c
 800498a:	e7c4      	b.n	8004916 <USB_EPStartXfer+0x1e2>
              ep->xfer_len_db = 0U;
 800498c:	2200      	movs	r2, #0
 800498e:	6222      	str	r2, [r4, #32]
              len = ep->xfer_len_db;
 8004990:	461e      	mov	r6, r3
 8004992:	e7cf      	b.n	8004934 <USB_EPStartXfer+0x200>
            PCD_SET_EP_DBUF0_CNT(USBx, ep->num, ep->is_in, len);
 8004994:	b94e      	cbnz	r6, 80049aa <USB_EPStartXfer+0x276>
 8004996:	f8b3 2404 	ldrh.w	r2, [r3, #1028]	@ 0x404
 800499a:	ea6f 4242 	mvn.w	r2, r2, lsl #17
 800499e:	ea6f 4252 	mvn.w	r2, r2, lsr #17
 80049a2:	b292      	uxth	r2, r2
 80049a4:	f8a3 2404 	strh.w	r2, [r3, #1028]	@ 0x404
 80049a8:	e00f      	b.n	80049ca <USB_EPStartXfer+0x296>
 80049aa:	0872      	lsrs	r2, r6, #1
 80049ac:	f016 0f01 	tst.w	r6, #1
 80049b0:	d000      	beq.n	80049b4 <USB_EPStartXfer+0x280>
 80049b2:	3201      	adds	r2, #1
 80049b4:	f8b3 1404 	ldrh.w	r1, [r3, #1028]	@ 0x404
 80049b8:	b289      	uxth	r1, r1
 80049ba:	0292      	lsls	r2, r2, #10
 80049bc:	b292      	uxth	r2, r2
 80049be:	430a      	orrs	r2, r1
 80049c0:	f8a3 2404 	strh.w	r2, [r3, #1028]	@ 0x404
 80049c4:	e001      	b.n	80049ca <USB_EPStartXfer+0x296>
 80049c6:	2b01      	cmp	r3, #1
 80049c8:	d006      	beq.n	80049d8 <USB_EPStartXfer+0x2a4>
            USB_WritePMA(USBx, ep->xfer_buff, pmabuffer, (uint16_t)len);
 80049ca:	b2b3      	uxth	r3, r6
 80049cc:	8922      	ldrh	r2, [r4, #8]
 80049ce:	6961      	ldr	r1, [r4, #20]
 80049d0:	4628      	mov	r0, r5
 80049d2:	f7ff fe9c 	bl	800470e <USB_WritePMA>
 80049d6:	e735      	b.n	8004844 <USB_EPStartXfer+0x110>
            PCD_SET_EP_DBUF0_CNT(USBx, ep->num, ep->is_in, len);
 80049d8:	f8b5 3050 	ldrh.w	r3, [r5, #80]	@ 0x50
 80049dc:	b29b      	uxth	r3, r3
 80049de:	442b      	add	r3, r5
 80049e0:	7822      	ldrb	r2, [r4, #0]
 80049e2:	eb03 1302 	add.w	r3, r3, r2, lsl #4
 80049e6:	b2b2      	uxth	r2, r6
 80049e8:	f8a3 2404 	strh.w	r2, [r3, #1028]	@ 0x404
 80049ec:	e7ed      	b.n	80049ca <USB_EPStartXfer+0x296>
            PCD_SET_EP_DBUF0_CNT(USBx, ep->num, ep->is_in, len);
 80049ee:	7863      	ldrb	r3, [r4, #1]
 80049f0:	bbb3      	cbnz	r3, 8004a60 <USB_EPStartXfer+0x32c>
 80049f2:	f8b5 3050 	ldrh.w	r3, [r5, #80]	@ 0x50
 80049f6:	b29b      	uxth	r3, r3
 80049f8:	442b      	add	r3, r5
 80049fa:	eb03 1302 	add.w	r3, r3, r2, lsl #4
 80049fe:	f8b3 2404 	ldrh.w	r2, [r3, #1028]	@ 0x404
 8004a02:	f3c2 0209 	ubfx	r2, r2, #0, #10
 8004a06:	f8a3 2404 	strh.w	r2, [r3, #1028]	@ 0x404
 8004a0a:	2e3e      	cmp	r6, #62	@ 0x3e
 8004a0c:	d90f      	bls.n	8004a2e <USB_EPStartXfer+0x2fa>
 8004a0e:	0971      	lsrs	r1, r6, #5
 8004a10:	f016 0f1f 	tst.w	r6, #31
 8004a14:	d100      	bne.n	8004a18 <USB_EPStartXfer+0x2e4>
 8004a16:	3901      	subs	r1, #1
 8004a18:	f8b3 2404 	ldrh.w	r2, [r3, #1028]	@ 0x404
 8004a1c:	b292      	uxth	r2, r2
 8004a1e:	0289      	lsls	r1, r1, #10
 8004a20:	b289      	uxth	r1, r1
 8004a22:	430a      	orrs	r2, r1
 8004a24:	f442 4200 	orr.w	r2, r2, #32768	@ 0x8000
 8004a28:	f8a3 2404 	strh.w	r2, [r3, #1028]	@ 0x404
 8004a2c:	e01a      	b.n	8004a64 <USB_EPStartXfer+0x330>
 8004a2e:	b94e      	cbnz	r6, 8004a44 <USB_EPStartXfer+0x310>
 8004a30:	f8b3 2404 	ldrh.w	r2, [r3, #1028]	@ 0x404
 8004a34:	ea6f 4242 	mvn.w	r2, r2, lsl #17
 8004a38:	ea6f 4252 	mvn.w	r2, r2, lsr #17
 8004a3c:	b292      	uxth	r2, r2
 8004a3e:	f8a3 2404 	strh.w	r2, [r3, #1028]	@ 0x404
 8004a42:	e00f      	b.n	8004a64 <USB_EPStartXfer+0x330>
 8004a44:	0872      	lsrs	r2, r6, #1
 8004a46:	f016 0f01 	tst.w	r6, #1
 8004a4a:	d000      	beq.n	8004a4e <USB_EPStartXfer+0x31a>
 8004a4c:	3201      	adds	r2, #1
 8004a4e:	f8b3 1404 	ldrh.w	r1, [r3, #1028]	@ 0x404
 8004a52:	b289      	uxth	r1, r1
 8004a54:	0292      	lsls	r2, r2, #10
 8004a56:	b292      	uxth	r2, r2
 8004a58:	430a      	orrs	r2, r1
 8004a5a:	f8a3 2404 	strh.w	r2, [r3, #1028]	@ 0x404
 8004a5e:	e001      	b.n	8004a64 <USB_EPStartXfer+0x330>
 8004a60:	2b01      	cmp	r3, #1
 8004a62:	d030      	beq.n	8004ac6 <USB_EPStartXfer+0x392>
            USB_WritePMA(USBx, ep->xfer_buff, pmabuffer, (uint16_t)len);
 8004a64:	b2b3      	uxth	r3, r6
 8004a66:	8922      	ldrh	r2, [r4, #8]
 8004a68:	6961      	ldr	r1, [r4, #20]
 8004a6a:	4628      	mov	r0, r5
 8004a6c:	f7ff fe4f 	bl	800470e <USB_WritePMA>
            ep->xfer_buff += len;
 8004a70:	6963      	ldr	r3, [r4, #20]
 8004a72:	4433      	add	r3, r6
 8004a74:	6163      	str	r3, [r4, #20]
            if (ep->xfer_len_db > ep->maxpacket)
 8004a76:	6a23      	ldr	r3, [r4, #32]
 8004a78:	6922      	ldr	r2, [r4, #16]
 8004a7a:	4293      	cmp	r3, r2
 8004a7c:	d92d      	bls.n	8004ada <USB_EPStartXfer+0x3a6>
              ep->xfer_len_db -= len;
 8004a7e:	1b9b      	subs	r3, r3, r6
 8004a80:	6223      	str	r3, [r4, #32]
            PCD_SET_EP_DBUF1_CNT(USBx, ep->num, ep->is_in, len);
 8004a82:	7863      	ldrb	r3, [r4, #1]
 8004a84:	2b00      	cmp	r3, #0
 8004a86:	d145      	bne.n	8004b14 <USB_EPStartXfer+0x3e0>
 8004a88:	f8b5 3050 	ldrh.w	r3, [r5, #80]	@ 0x50
 8004a8c:	b29b      	uxth	r3, r3
 8004a8e:	442b      	add	r3, r5
 8004a90:	7822      	ldrb	r2, [r4, #0]
 8004a92:	eb03 1302 	add.w	r3, r3, r2, lsl #4
 8004a96:	f8b3 240c 	ldrh.w	r2, [r3, #1036]	@ 0x40c
 8004a9a:	f3c2 0209 	ubfx	r2, r2, #0, #10
 8004a9e:	f8a3 240c 	strh.w	r2, [r3, #1036]	@ 0x40c
 8004aa2:	2e3e      	cmp	r6, #62	@ 0x3e
 8004aa4:	d91d      	bls.n	8004ae2 <USB_EPStartXfer+0x3ae>
 8004aa6:	0971      	lsrs	r1, r6, #5
 8004aa8:	f016 0f1f 	tst.w	r6, #31
 8004aac:	d100      	bne.n	8004ab0 <USB_EPStartXfer+0x37c>
 8004aae:	3901      	subs	r1, #1
 8004ab0:	f8b3 240c 	ldrh.w	r2, [r3, #1036]	@ 0x40c
 8004ab4:	b292      	uxth	r2, r2
 8004ab6:	0289      	lsls	r1, r1, #10
 8004ab8:	b289      	uxth	r1, r1
 8004aba:	430a      	orrs	r2, r1
 8004abc:	f442 4200 	orr.w	r2, r2, #32768	@ 0x8000
 8004ac0:	f8a3 240c 	strh.w	r2, [r3, #1036]	@ 0x40c
 8004ac4:	e028      	b.n	8004b18 <USB_EPStartXfer+0x3e4>
            PCD_SET_EP_DBUF0_CNT(USBx, ep->num, ep->is_in, len);
 8004ac6:	f8b5 3050 	ldrh.w	r3, [r5, #80]	@ 0x50
 8004aca:	b29b      	uxth	r3, r3
 8004acc:	442b      	add	r3, r5
 8004ace:	eb03 1302 	add.w	r3, r3, r2, lsl #4
 8004ad2:	b2b2      	uxth	r2, r6
 8004ad4:	f8a3 2404 	strh.w	r2, [r3, #1028]	@ 0x404
 8004ad8:	e7c4      	b.n	8004a64 <USB_EPStartXfer+0x330>
              ep->xfer_len_db = 0U;
 8004ada:	2200      	movs	r2, #0
 8004adc:	6222      	str	r2, [r4, #32]
              len = ep->xfer_len_db;
 8004ade:	461e      	mov	r6, r3
 8004ae0:	e7cf      	b.n	8004a82 <USB_EPStartXfer+0x34e>
            PCD_SET_EP_DBUF1_CNT(USBx, ep->num, ep->is_in, len);
 8004ae2:	b94e      	cbnz	r6, 8004af8 <USB_EPStartXfer+0x3c4>
 8004ae4:	f8b3 240c 	ldrh.w	r2, [r3, #1036]	@ 0x40c
 8004ae8:	ea6f 4242 	mvn.w	r2, r2, lsl #17
 8004aec:	ea6f 4252 	mvn.w	r2, r2, lsr #17
 8004af0:	b292      	uxth	r2, r2
 8004af2:	f8a3 240c 	strh.w	r2, [r3, #1036]	@ 0x40c
 8004af6:	e00f      	b.n	8004b18 <USB_EPStartXfer+0x3e4>
 8004af8:	0872      	lsrs	r2, r6, #1
 8004afa:	f016 0f01 	tst.w	r6, #1
 8004afe:	d000      	beq.n	8004b02 <USB_EPStartXfer+0x3ce>
 8004b00:	3201      	adds	r2, #1
 8004b02:	f8b3 140c 	ldrh.w	r1, [r3, #1036]	@ 0x40c
 8004b06:	b289      	uxth	r1, r1
 8004b08:	0292      	lsls	r2, r2, #10
 8004b0a:	b292      	uxth	r2, r2
 8004b0c:	430a      	orrs	r2, r1
 8004b0e:	f8a3 240c 	strh.w	r2, [r3, #1036]	@ 0x40c
 8004b12:	e001      	b.n	8004b18 <USB_EPStartXfer+0x3e4>
 8004b14:	2b01      	cmp	r3, #1
 8004b16:	d006      	beq.n	8004b26 <USB_EPStartXfer+0x3f2>
            USB_WritePMA(USBx, ep->xfer_buff, pmabuffer, (uint16_t)len);
 8004b18:	b2b3      	uxth	r3, r6
 8004b1a:	8962      	ldrh	r2, [r4, #10]
 8004b1c:	6961      	ldr	r1, [r4, #20]
 8004b1e:	4628      	mov	r0, r5
 8004b20:	f7ff fdf5 	bl	800470e <USB_WritePMA>
 8004b24:	e68e      	b.n	8004844 <USB_EPStartXfer+0x110>
            PCD_SET_EP_DBUF1_CNT(USBx, ep->num, ep->is_in, len);
 8004b26:	f8b5 3050 	ldrh.w	r3, [r5, #80]	@ 0x50
 8004b2a:	b29b      	uxth	r3, r3
 8004b2c:	442b      	add	r3, r5
 8004b2e:	7822      	ldrb	r2, [r4, #0]
 8004b30:	eb03 1302 	add.w	r3, r3, r2, lsl #4
 8004b34:	b2b2      	uxth	r2, r6
 8004b36:	f8a3 240c 	strh.w	r2, [r3, #1036]	@ 0x40c
 8004b3a:	e7ed      	b.n	8004b18 <USB_EPStartXfer+0x3e4>
          PCD_CLEAR_BULK_EP_DBUF(USBx, ep->num);
 8004b3c:	7821      	ldrb	r1, [r4, #0]
 8004b3e:	f835 2021 	ldrh.w	r2, [r5, r1, lsl #2]
 8004b42:	b292      	uxth	r2, r2
 8004b44:	f422 42e2 	bic.w	r2, r2, #28928	@ 0x7100
 8004b48:	f022 0270 	bic.w	r2, r2, #112	@ 0x70
 8004b4c:	f442 4200 	orr.w	r2, r2, #32768	@ 0x8000
 8004b50:	f042 0280 	orr.w	r2, r2, #128	@ 0x80
 8004b54:	f825 2021 	strh.w	r2, [r5, r1, lsl #2]
          PCD_SET_EP_TX_CNT(USBx, ep->num, len);
 8004b58:	f8b5 2050 	ldrh.w	r2, [r5, #80]	@ 0x50
 8004b5c:	b292      	uxth	r2, r2
 8004b5e:	442a      	add	r2, r5
 8004b60:	7821      	ldrb	r1, [r4, #0]
 8004b62:	eb02 1201 	add.w	r2, r2, r1, lsl #4
 8004b66:	b29b      	uxth	r3, r3
 8004b68:	f8a2 3404 	strh.w	r3, [r2, #1028]	@ 0x404
          USB_WritePMA(USBx, ep->xfer_buff, pmabuffer, (uint16_t)len);
 8004b6c:	8922      	ldrh	r2, [r4, #8]
 8004b6e:	6961      	ldr	r1, [r4, #20]
 8004b70:	4628      	mov	r0, r5
 8004b72:	f7ff fdcc 	bl	800470e <USB_WritePMA>
 8004b76:	e665      	b.n	8004844 <USB_EPStartXfer+0x110>
          PCD_SET_EP_DBUF1_CNT(USBx, ep->num, ep->is_in, len);
 8004b78:	b94e      	cbnz	r6, 8004b8e <USB_EPStartXfer+0x45a>
 8004b7a:	f8b3 240c 	ldrh.w	r2, [r3, #1036]	@ 0x40c
 8004b7e:	ea6f 4242 	mvn.w	r2, r2, lsl #17
 8004b82:	ea6f 4252 	mvn.w	r2, r2, lsr #17
 8004b86:	b292      	uxth	r2, r2
 8004b88:	f8a3 240c 	strh.w	r2, [r3, #1036]	@ 0x40c
 8004b8c:	e016      	b.n	8004bbc <USB_EPStartXfer+0x488>
 8004b8e:	0872      	lsrs	r2, r6, #1
 8004b90:	f016 0f01 	tst.w	r6, #1
 8004b94:	d000      	beq.n	8004b98 <USB_EPStartXfer+0x464>
 8004b96:	3201      	adds	r2, #1
 8004b98:	f8b3 140c 	ldrh.w	r1, [r3, #1036]	@ 0x40c
 8004b9c:	b289      	uxth	r1, r1
 8004b9e:	0292      	lsls	r2, r2, #10
 8004ba0:	b292      	uxth	r2, r2
 8004ba2:	430a      	orrs	r2, r1
 8004ba4:	f8a3 240c 	strh.w	r2, [r3, #1036]	@ 0x40c
 8004ba8:	e008      	b.n	8004bbc <USB_EPStartXfer+0x488>
 8004baa:	f8b5 3050 	ldrh.w	r3, [r5, #80]	@ 0x50
 8004bae:	b29b      	uxth	r3, r3
 8004bb0:	442b      	add	r3, r5
 8004bb2:	eb03 1301 	add.w	r3, r3, r1, lsl #4
 8004bb6:	b2b2      	uxth	r2, r6
 8004bb8:	f8a3 240c 	strh.w	r2, [r3, #1036]	@ 0x40c
          USB_WritePMA(USBx, ep->xfer_buff, pmabuffer, (uint16_t)len);
 8004bbc:	b2b3      	uxth	r3, r6
 8004bbe:	8962      	ldrh	r2, [r4, #10]
 8004bc0:	6961      	ldr	r1, [r4, #20]
 8004bc2:	4628      	mov	r0, r5
 8004bc4:	f7ff fda3 	bl	800470e <USB_WritePMA>
 8004bc8:	e63c      	b.n	8004844 <USB_EPStartXfer+0x110>
          PCD_SET_EP_DBUF0_CNT(USBx, ep->num, ep->is_in, len);
 8004bca:	bbb2      	cbnz	r2, 8004c3a <USB_EPStartXfer+0x506>
 8004bcc:	f8b5 3050 	ldrh.w	r3, [r5, #80]	@ 0x50
 8004bd0:	b29b      	uxth	r3, r3
 8004bd2:	442b      	add	r3, r5
 8004bd4:	eb03 1301 	add.w	r3, r3, r1, lsl #4
 8004bd8:	f8b3 2404 	ldrh.w	r2, [r3, #1028]	@ 0x404
 8004bdc:	f3c2 0209 	ubfx	r2, r2, #0, #10
 8004be0:	f8a3 2404 	strh.w	r2, [r3, #1028]	@ 0x404
 8004be4:	2e3e      	cmp	r6, #62	@ 0x3e
 8004be6:	d90f      	bls.n	8004c08 <USB_EPStartXfer+0x4d4>
 8004be8:	0971      	lsrs	r1, r6, #5
 8004bea:	f016 0f1f 	tst.w	r6, #31
 8004bee:	d100      	bne.n	8004bf2 <USB_EPStartXfer+0x4be>
 8004bf0:	3901      	subs	r1, #1
 8004bf2:	f8b3 2404 	ldrh.w	r2, [r3, #1028]	@ 0x404
 8004bf6:	b292      	uxth	r2, r2
 8004bf8:	0289      	lsls	r1, r1, #10
 8004bfa:	b289      	uxth	r1, r1
 8004bfc:	430a      	orrs	r2, r1
 8004bfe:	f442 4200 	orr.w	r2, r2, #32768	@ 0x8000
 8004c02:	f8a3 2404 	strh.w	r2, [r3, #1028]	@ 0x404
 8004c06:	e021      	b.n	8004c4c <USB_EPStartXfer+0x518>
 8004c08:	b94e      	cbnz	r6, 8004c1e <USB_EPStartXfer+0x4ea>
 8004c0a:	f8b3 2404 	ldrh.w	r2, [r3, #1028]	@ 0x404
 8004c0e:	ea6f 4242 	mvn.w	r2, r2, lsl #17
 8004c12:	ea6f 4252 	mvn.w	r2, r2, lsr #17
 8004c16:	b292      	uxth	r2, r2
 8004c18:	f8a3 2404 	strh.w	r2, [r3, #1028]	@ 0x404
 8004c1c:	e016      	b.n	8004c4c <USB_EPStartXfer+0x518>
 8004c1e:	0872      	lsrs	r2, r6, #1
 8004c20:	f016 0f01 	tst.w	r6, #1
 8004c24:	d000      	beq.n	8004c28 <USB_EPStartXfer+0x4f4>
 8004c26:	3201      	adds	r2, #1
 8004c28:	f8b3 1404 	ldrh.w	r1, [r3, #1028]	@ 0x404
 8004c2c:	b289      	uxth	r1, r1
 8004c2e:	0292      	lsls	r2, r2, #10
 8004c30:	b292      	uxth	r2, r2
 8004c32:	430a      	orrs	r2, r1
 8004c34:	f8a3 2404 	strh.w	r2, [r3, #1028]	@ 0x404
 8004c38:	e008      	b.n	8004c4c <USB_EPStartXfer+0x518>
 8004c3a:	f8b5 3050 	ldrh.w	r3, [r5, #80]	@ 0x50
 8004c3e:	b29b      	uxth	r3, r3
 8004c40:	442b      	add	r3, r5
 8004c42:	eb03 1301 	add.w	r3, r3, r1, lsl #4
 8004c46:	b2b2      	uxth	r2, r6
 8004c48:	f8a3 2404 	strh.w	r2, [r3, #1028]	@ 0x404
          USB_WritePMA(USBx, ep->xfer_buff, pmabuffer, (uint16_t)len);
 8004c4c:	b2b3      	uxth	r3, r6
 8004c4e:	8922      	ldrh	r2, [r4, #8]
 8004c50:	6961      	ldr	r1, [r4, #20]
 8004c52:	4628      	mov	r0, r5
 8004c54:	f7ff fd5b 	bl	800470e <USB_WritePMA>
 8004c58:	e5f4      	b.n	8004844 <USB_EPStartXfer+0x110>
        ep->xfer_len = 0U;
 8004c5a:	2200      	movs	r2, #0
 8004c5c:	618a      	str	r2, [r1, #24]
        len = ep->xfer_len;
 8004c5e:	461a      	mov	r2, r3
 8004c60:	e579      	b.n	8004756 <USB_EPStartXfer+0x22>
      PCD_SET_EP_RX_CNT(USBx, ep->num, len);
 8004c62:	b94a      	cbnz	r2, 8004c78 <USB_EPStartXfer+0x544>
 8004c64:	f8b3 240c 	ldrh.w	r2, [r3, #1036]	@ 0x40c
 8004c68:	ea6f 4242 	mvn.w	r2, r2, lsl #17
 8004c6c:	ea6f 4252 	mvn.w	r2, r2, lsr #17
 8004c70:	b292      	uxth	r2, r2
 8004c72:	f8a3 240c 	strh.w	r2, [r3, #1036]	@ 0x40c
 8004c76:	e58d      	b.n	8004794 <USB_EPStartXfer+0x60>
 8004c78:	0851      	lsrs	r1, r2, #1
 8004c7a:	f012 0f01 	tst.w	r2, #1
 8004c7e:	d000      	beq.n	8004c82 <USB_EPStartXfer+0x54e>
 8004c80:	3101      	adds	r1, #1
 8004c82:	f8b3 240c 	ldrh.w	r2, [r3, #1036]	@ 0x40c
 8004c86:	b292      	uxth	r2, r2
 8004c88:	0289      	lsls	r1, r1, #10
 8004c8a:	b289      	uxth	r1, r1
 8004c8c:	430a      	orrs	r2, r1
 8004c8e:	f8a3 240c 	strh.w	r2, [r3, #1036]	@ 0x40c
 8004c92:	e57f      	b.n	8004794 <USB_EPStartXfer+0x60>
      if (ep->type == EP_TYPE_BULK)
 8004c94:	78cb      	ldrb	r3, [r1, #3]
 8004c96:	2b02      	cmp	r3, #2
 8004c98:	d04d      	beq.n	8004d36 <USB_EPStartXfer+0x602>
      else if (ep->type == EP_TYPE_ISOC)
 8004c9a:	2b01      	cmp	r3, #1
 8004c9c:	f040 812f 	bne.w	8004efe <USB_EPStartXfer+0x7ca>
        if (ep->xfer_len > ep->maxpacket)
 8004ca0:	6989      	ldr	r1, [r1, #24]
 8004ca2:	6923      	ldr	r3, [r4, #16]
 8004ca4:	4299      	cmp	r1, r3
 8004ca6:	f240 80e6 	bls.w	8004e76 <USB_EPStartXfer+0x742>
          ep->xfer_len -= len;
 8004caa:	1ac9      	subs	r1, r1, r3
 8004cac:	61a1      	str	r1, [r4, #24]
        PCD_SET_EP_DBUF_CNT(USBx, ep->num, ep->is_in, len);
 8004cae:	b9f2      	cbnz	r2, 8004cee <USB_EPStartXfer+0x5ba>
 8004cb0:	f8b5 2050 	ldrh.w	r2, [r5, #80]	@ 0x50
 8004cb4:	b292      	uxth	r2, r2
 8004cb6:	442a      	add	r2, r5
 8004cb8:	7821      	ldrb	r1, [r4, #0]
 8004cba:	eb02 1201 	add.w	r2, r2, r1, lsl #4
 8004cbe:	f8b2 1404 	ldrh.w	r1, [r2, #1028]	@ 0x404
 8004cc2:	f3c1 0109 	ubfx	r1, r1, #0, #10
 8004cc6:	f8a2 1404 	strh.w	r1, [r2, #1028]	@ 0x404
 8004cca:	2b3e      	cmp	r3, #62	@ 0x3e
 8004ccc:	f240 80d7 	bls.w	8004e7e <USB_EPStartXfer+0x74a>
 8004cd0:	0958      	lsrs	r0, r3, #5
 8004cd2:	f013 0f1f 	tst.w	r3, #31
 8004cd6:	d100      	bne.n	8004cda <USB_EPStartXfer+0x5a6>
 8004cd8:	3801      	subs	r0, #1
 8004cda:	f8b2 1404 	ldrh.w	r1, [r2, #1028]	@ 0x404
 8004cde:	b289      	uxth	r1, r1
 8004ce0:	0280      	lsls	r0, r0, #10
 8004ce2:	b280      	uxth	r0, r0
 8004ce4:	4301      	orrs	r1, r0
 8004ce6:	f441 4100 	orr.w	r1, r1, #32768	@ 0x8000
 8004cea:	f8a2 1404 	strh.w	r1, [r2, #1028]	@ 0x404
 8004cee:	7862      	ldrb	r2, [r4, #1]
 8004cf0:	2a00      	cmp	r2, #0
 8004cf2:	f040 80f6 	bne.w	8004ee2 <USB_EPStartXfer+0x7ae>
 8004cf6:	f8b5 2050 	ldrh.w	r2, [r5, #80]	@ 0x50
 8004cfa:	b292      	uxth	r2, r2
 8004cfc:	442a      	add	r2, r5
 8004cfe:	7821      	ldrb	r1, [r4, #0]
 8004d00:	eb02 1201 	add.w	r2, r2, r1, lsl #4
 8004d04:	f8b2 140c 	ldrh.w	r1, [r2, #1036]	@ 0x40c
 8004d08:	f3c1 0109 	ubfx	r1, r1, #0, #10
 8004d0c:	f8a2 140c 	strh.w	r1, [r2, #1036]	@ 0x40c
 8004d10:	2b3e      	cmp	r3, #62	@ 0x3e
 8004d12:	f240 80cd 	bls.w	8004eb0 <USB_EPStartXfer+0x77c>
 8004d16:	0959      	lsrs	r1, r3, #5
 8004d18:	f013 0f1f 	tst.w	r3, #31
 8004d1c:	d100      	bne.n	8004d20 <USB_EPStartXfer+0x5ec>
 8004d1e:	3901      	subs	r1, #1
 8004d20:	f8b2 340c 	ldrh.w	r3, [r2, #1036]	@ 0x40c
 8004d24:	b29b      	uxth	r3, r3
 8004d26:	0289      	lsls	r1, r1, #10
 8004d28:	b289      	uxth	r1, r1
 8004d2a:	430b      	orrs	r3, r1
 8004d2c:	f443 4300 	orr.w	r3, r3, #32768	@ 0x8000
 8004d30:	f8a2 340c 	strh.w	r3, [r2, #1036]	@ 0x40c
 8004d34:	e52e      	b.n	8004794 <USB_EPStartXfer+0x60>
        PCD_SET_EP_DBUF_CNT(USBx, ep->num, ep->is_in, ep->maxpacket);
 8004d36:	b9f2      	cbnz	r2, 8004d76 <USB_EPStartXfer+0x642>
 8004d38:	f8b0 3050 	ldrh.w	r3, [r0, #80]	@ 0x50
 8004d3c:	b29b      	uxth	r3, r3
 8004d3e:	4403      	add	r3, r0
 8004d40:	780a      	ldrb	r2, [r1, #0]
 8004d42:	eb03 1302 	add.w	r3, r3, r2, lsl #4
 8004d46:	f8b3 2404 	ldrh.w	r2, [r3, #1028]	@ 0x404
 8004d4a:	f3c2 0209 	ubfx	r2, r2, #0, #10
 8004d4e:	f8a3 2404 	strh.w	r2, [r3, #1028]	@ 0x404
 8004d52:	690a      	ldr	r2, [r1, #16]
 8004d54:	2a3e      	cmp	r2, #62	@ 0x3e
 8004d56:	d931      	bls.n	8004dbc <USB_EPStartXfer+0x688>
 8004d58:	0951      	lsrs	r1, r2, #5
 8004d5a:	f012 0f1f 	tst.w	r2, #31
 8004d5e:	d100      	bne.n	8004d62 <USB_EPStartXfer+0x62e>
 8004d60:	3901      	subs	r1, #1
 8004d62:	f8b3 2404 	ldrh.w	r2, [r3, #1028]	@ 0x404
 8004d66:	b292      	uxth	r2, r2
 8004d68:	0289      	lsls	r1, r1, #10
 8004d6a:	b289      	uxth	r1, r1
 8004d6c:	430a      	orrs	r2, r1
 8004d6e:	f442 4200 	orr.w	r2, r2, #32768	@ 0x8000
 8004d72:	f8a3 2404 	strh.w	r2, [r3, #1028]	@ 0x404
 8004d76:	7863      	ldrb	r3, [r4, #1]
 8004d78:	2b00      	cmp	r3, #0
 8004d7a:	d151      	bne.n	8004e20 <USB_EPStartXfer+0x6ec>
 8004d7c:	f8b5 3050 	ldrh.w	r3, [r5, #80]	@ 0x50
 8004d80:	b29b      	uxth	r3, r3
 8004d82:	442b      	add	r3, r5
 8004d84:	7822      	ldrb	r2, [r4, #0]
 8004d86:	eb03 1302 	add.w	r3, r3, r2, lsl #4
 8004d8a:	f8b3 240c 	ldrh.w	r2, [r3, #1036]	@ 0x40c
 8004d8e:	f3c2 0209 	ubfx	r2, r2, #0, #10
 8004d92:	f8a3 240c 	strh.w	r2, [r3, #1036]	@ 0x40c
 8004d96:	6922      	ldr	r2, [r4, #16]
 8004d98:	2a3e      	cmp	r2, #62	@ 0x3e
 8004d9a:	d928      	bls.n	8004dee <USB_EPStartXfer+0x6ba>
 8004d9c:	0951      	lsrs	r1, r2, #5
 8004d9e:	f012 0f1f 	tst.w	r2, #31
 8004da2:	d100      	bne.n	8004da6 <USB_EPStartXfer+0x672>
 8004da4:	3901      	subs	r1, #1
 8004da6:	f8b3 240c 	ldrh.w	r2, [r3, #1036]	@ 0x40c
 8004daa:	b292      	uxth	r2, r2
 8004dac:	0289      	lsls	r1, r1, #10
 8004dae:	b289      	uxth	r1, r1
 8004db0:	430a      	orrs	r2, r1
 8004db2:	f442 4200 	orr.w	r2, r2, #32768	@ 0x8000
 8004db6:	f8a3 240c 	strh.w	r2, [r3, #1036]	@ 0x40c
 8004dba:	e033      	b.n	8004e24 <USB_EPStartXfer+0x6f0>
 8004dbc:	b94a      	cbnz	r2, 8004dd2 <USB_EPStartXfer+0x69e>
 8004dbe:	f8b3 2404 	ldrh.w	r2, [r3, #1028]	@ 0x404
 8004dc2:	ea6f 4242 	mvn.w	r2, r2, lsl #17
 8004dc6:	ea6f 4252 	mvn.w	r2, r2, lsr #17
 8004dca:	b292      	uxth	r2, r2
 8004dcc:	f8a3 2404 	strh.w	r2, [r3, #1028]	@ 0x404
 8004dd0:	e7d1      	b.n	8004d76 <USB_EPStartXfer+0x642>
 8004dd2:	0851      	lsrs	r1, r2, #1
 8004dd4:	f012 0f01 	tst.w	r2, #1
 8004dd8:	d000      	beq.n	8004ddc <USB_EPStartXfer+0x6a8>
 8004dda:	3101      	adds	r1, #1
 8004ddc:	f8b3 2404 	ldrh.w	r2, [r3, #1028]	@ 0x404
 8004de0:	b290      	uxth	r0, r2
 8004de2:	028a      	lsls	r2, r1, #10
 8004de4:	b292      	uxth	r2, r2
 8004de6:	4302      	orrs	r2, r0
 8004de8:	f8a3 2404 	strh.w	r2, [r3, #1028]	@ 0x404
 8004dec:	e7c3      	b.n	8004d76 <USB_EPStartXfer+0x642>
 8004dee:	b94a      	cbnz	r2, 8004e04 <USB_EPStartXfer+0x6d0>
 8004df0:	f8b3 240c 	ldrh.w	r2, [r3, #1036]	@ 0x40c
 8004df4:	ea6f 4242 	mvn.w	r2, r2, lsl #17
 8004df8:	ea6f 4252 	mvn.w	r2, r2, lsr #17
 8004dfc:	b292      	uxth	r2, r2
 8004dfe:	f8a3 240c 	strh.w	r2, [r3, #1036]	@ 0x40c
 8004e02:	e00f      	b.n	8004e24 <USB_EPStartXfer+0x6f0>
 8004e04:	0851      	lsrs	r1, r2, #1
 8004e06:	f012 0f01 	tst.w	r2, #1
 8004e0a:	d000      	beq.n	8004e0e <USB_EPStartXfer+0x6da>
 8004e0c:	3101      	adds	r1, #1
 8004e0e:	f8b3 240c 	ldrh.w	r2, [r3, #1036]	@ 0x40c
 8004e12:	b290      	uxth	r0, r2
 8004e14:	028a      	lsls	r2, r1, #10
 8004e16:	b292      	uxth	r2, r2
 8004e18:	4302      	orrs	r2, r0
 8004e1a:	f8a3 240c 	strh.w	r2, [r3, #1036]	@ 0x40c
 8004e1e:	e001      	b.n	8004e24 <USB_EPStartXfer+0x6f0>
 8004e20:	2b01      	cmp	r3, #1
 8004e22:	d01d      	beq.n	8004e60 <USB_EPStartXfer+0x72c>
        if (ep->xfer_count != 0U)
 8004e24:	69e3      	ldr	r3, [r4, #28]
 8004e26:	2b00      	cmp	r3, #0
 8004e28:	f43f acb4 	beq.w	8004794 <USB_EPStartXfer+0x60>
          wEPVal = PCD_GET_ENDPOINT(USBx, ep->num);
 8004e2c:	7822      	ldrb	r2, [r4, #0]
 8004e2e:	f835 1022 	ldrh.w	r1, [r5, r2, lsl #2]
          if ((((wEPVal & USB_EP_DTOG_RX) != 0U) && ((wEPVal & USB_EP_DTOG_TX) != 0U)) ||
 8004e32:	f244 0340 	movw	r3, #16448	@ 0x4040
 8004e36:	ea03 0001 	and.w	r0, r3, r1
 8004e3a:	438b      	bics	r3, r1
 8004e3c:	d002      	beq.n	8004e44 <USB_EPStartXfer+0x710>
 8004e3e:	2800      	cmp	r0, #0
 8004e40:	f47f aca8 	bne.w	8004794 <USB_EPStartXfer+0x60>
            PCD_FREE_USER_BUFFER(USBx, ep->num, 0U);
 8004e44:	f835 3022 	ldrh.w	r3, [r5, r2, lsl #2]
 8004e48:	b29b      	uxth	r3, r3
 8004e4a:	f423 43e0 	bic.w	r3, r3, #28672	@ 0x7000
 8004e4e:	f023 0370 	bic.w	r3, r3, #112	@ 0x70
 8004e52:	f443 4300 	orr.w	r3, r3, #32768	@ 0x8000
 8004e56:	f043 03c0 	orr.w	r3, r3, #192	@ 0xc0
 8004e5a:	f825 3022 	strh.w	r3, [r5, r2, lsl #2]
 8004e5e:	e499      	b.n	8004794 <USB_EPStartXfer+0x60>
        PCD_SET_EP_DBUF_CNT(USBx, ep->num, ep->is_in, ep->maxpacket);
 8004e60:	f8b5 3050 	ldrh.w	r3, [r5, #80]	@ 0x50
 8004e64:	b29b      	uxth	r3, r3
 8004e66:	442b      	add	r3, r5
 8004e68:	7822      	ldrb	r2, [r4, #0]
 8004e6a:	eb03 1302 	add.w	r3, r3, r2, lsl #4
 8004e6e:	8a22      	ldrh	r2, [r4, #16]
 8004e70:	f8a3 240c 	strh.w	r2, [r3, #1036]	@ 0x40c
 8004e74:	e7d6      	b.n	8004e24 <USB_EPStartXfer+0x6f0>
          ep->xfer_len = 0U;
 8004e76:	2300      	movs	r3, #0
 8004e78:	61a3      	str	r3, [r4, #24]
          len = ep->xfer_len;
 8004e7a:	460b      	mov	r3, r1
 8004e7c:	e717      	b.n	8004cae <USB_EPStartXfer+0x57a>
        PCD_SET_EP_DBUF_CNT(USBx, ep->num, ep->is_in, len);
 8004e7e:	b94b      	cbnz	r3, 8004e94 <USB_EPStartXfer+0x760>
 8004e80:	f8b2 1404 	ldrh.w	r1, [r2, #1028]	@ 0x404
 8004e84:	ea6f 4141 	mvn.w	r1, r1, lsl #17
 8004e88:	ea6f 4151 	mvn.w	r1, r1, lsr #17
 8004e8c:	b289      	uxth	r1, r1
 8004e8e:	f8a2 1404 	strh.w	r1, [r2, #1028]	@ 0x404
 8004e92:	e72c      	b.n	8004cee <USB_EPStartXfer+0x5ba>
 8004e94:	0859      	lsrs	r1, r3, #1
 8004e96:	f013 0f01 	tst.w	r3, #1
 8004e9a:	d000      	beq.n	8004e9e <USB_EPStartXfer+0x76a>
 8004e9c:	3101      	adds	r1, #1
 8004e9e:	f8b2 0404 	ldrh.w	r0, [r2, #1028]	@ 0x404
 8004ea2:	b280      	uxth	r0, r0
 8004ea4:	0289      	lsls	r1, r1, #10
 8004ea6:	b289      	uxth	r1, r1
 8004ea8:	4301      	orrs	r1, r0
 8004eaa:	f8a2 1404 	strh.w	r1, [r2, #1028]	@ 0x404
 8004eae:	e71e      	b.n	8004cee <USB_EPStartXfer+0x5ba>
 8004eb0:	b94b      	cbnz	r3, 8004ec6 <USB_EPStartXfer+0x792>
 8004eb2:	f8b2 340c 	ldrh.w	r3, [r2, #1036]	@ 0x40c
 8004eb6:	ea6f 4343 	mvn.w	r3, r3, lsl #17
 8004eba:	ea6f 4353 	mvn.w	r3, r3, lsr #17
 8004ebe:	b29b      	uxth	r3, r3
 8004ec0:	f8a2 340c 	strh.w	r3, [r2, #1036]	@ 0x40c
 8004ec4:	e466      	b.n	8004794 <USB_EPStartXfer+0x60>
 8004ec6:	0859      	lsrs	r1, r3, #1
 8004ec8:	f013 0f01 	tst.w	r3, #1
 8004ecc:	d000      	beq.n	8004ed0 <USB_EPStartXfer+0x79c>
 8004ece:	3101      	adds	r1, #1
 8004ed0:	f8b2 340c 	ldrh.w	r3, [r2, #1036]	@ 0x40c
 8004ed4:	b298      	uxth	r0, r3
 8004ed6:	028b      	lsls	r3, r1, #10
 8004ed8:	b29b      	uxth	r3, r3
 8004eda:	4303      	orrs	r3, r0
 8004edc:	f8a2 340c 	strh.w	r3, [r2, #1036]	@ 0x40c
 8004ee0:	e458      	b.n	8004794 <USB_EPStartXfer+0x60>
 8004ee2:	2a01      	cmp	r2, #1
 8004ee4:	f47f ac56 	bne.w	8004794 <USB_EPStartXfer+0x60>
 8004ee8:	f8b5 2050 	ldrh.w	r2, [r5, #80]	@ 0x50
 8004eec:	b292      	uxth	r2, r2
 8004eee:	442a      	add	r2, r5
 8004ef0:	7821      	ldrb	r1, [r4, #0]
 8004ef2:	eb02 1201 	add.w	r2, r2, r1, lsl #4
 8004ef6:	b29b      	uxth	r3, r3
 8004ef8:	f8a2 340c 	strh.w	r3, [r2, #1036]	@ 0x40c
 8004efc:	e44a      	b.n	8004794 <USB_EPStartXfer+0x60>
        return HAL_ERROR;
 8004efe:	2001      	movs	r0, #1
 8004f00:	e459      	b.n	80047b6 <USB_EPStartXfer+0x82>

08004f02 <USB_ReadPMA>:
  * @param   wPMABufAddr address into PMA.
  * @param   wNBytes no. of bytes to be copied.
  * @retval None
  */
void USB_ReadPMA(USB_TypeDef const *USBx, uint8_t *pbUsrBuf, uint16_t wPMABufAddr, uint16_t wNBytes)
{
 8004f02:	b410      	push	{r4}
  uint32_t n = (uint32_t)wNBytes >> 1;
 8004f04:	085c      	lsrs	r4, r3, #1
  uint32_t count;
  uint32_t RdVal;
  __IO uint16_t *pdwVal;
  uint8_t *pBuf = pbUsrBuf;

  pdwVal = (__IO uint16_t *)(BaseAddr + 0x400U + ((uint32_t)wPMABufAddr * PMA_ACCESS));
 8004f06:	eb00 0042 	add.w	r0, r0, r2, lsl #1
 8004f0a:	f500 6080 	add.w	r0, r0, #1024	@ 0x400

  for (count = n; count != 0U; count--)
 8004f0e:	e007      	b.n	8004f20 <USB_ReadPMA+0x1e>
  {
    RdVal = *(__IO uint16_t *)pdwVal;
 8004f10:	f830 2b04 	ldrh.w	r2, [r0], #4
    pdwVal++;
    *pBuf = (uint8_t)((RdVal >> 0) & 0xFFU);
 8004f14:	700a      	strb	r2, [r1, #0]
    pBuf++;
    *pBuf = (uint8_t)((RdVal >> 8) & 0xFFU);
 8004f16:	f3c2 2207 	ubfx	r2, r2, #8, #8
 8004f1a:	704a      	strb	r2, [r1, #1]
    pBuf++;
 8004f1c:	3102      	adds	r1, #2
  for (count = n; count != 0U; count--)
 8004f1e:	3c01      	subs	r4, #1
 8004f20:	2c00      	cmp	r4, #0
 8004f22:	d1f5      	bne.n	8004f10 <USB_ReadPMA+0xe>
#if PMA_ACCESS > 1U
    pdwVal++;
#endif /* PMA_ACCESS */
  }

  if ((wNBytes % 2U) != 0U)
 8004f24:	f013 0f01 	tst.w	r3, #1
 8004f28:	d001      	beq.n	8004f2e <USB_ReadPMA+0x2c>
  {
    RdVal = *pdwVal;
 8004f2a:	8803      	ldrh	r3, [r0, #0]
    *pBuf = (uint8_t)((RdVal >> 0) & 0xFFU);
 8004f2c:	700b      	strb	r3, [r1, #0]
  }
}
 8004f2e:	bc10      	pop	{r4}
 8004f30:	4770      	bx	lr

08004f32 <GetNextFreeEffect>:
volatile USB_FFBReport_PIDPool_Feature_Data_t pidPoolReport;
volatile USB_FFBReport_DeviceGain_Output_Data_t deviceGain;

uint8_t GetNextFreeEffect(void)
{
	if (nextEID == MAX_EFFECTS)
 8004f32:	f240 030f 	movw	r3, #15
 8004f36:	f2c2 0300 	movt	r3, #8192	@ 0x2000
 8004f3a:	781b      	ldrb	r3, [r3, #0]
 8004f3c:	b2db      	uxtb	r3, r3
 8004f3e:	2b0a      	cmp	r3, #10
 8004f40:	d031      	beq.n	8004fa6 <GetNextFreeEffect+0x74>
	return 0;

	uint8_t id = nextEID++;
 8004f42:	f240 020f 	movw	r2, #15
 8004f46:	f2c2 0200 	movt	r2, #8192	@ 0x2000
 8004f4a:	7813      	ldrb	r3, [r2, #0]
 8004f4c:	b2d8      	uxtb	r0, r3
 8004f4e:	3301      	adds	r3, #1
 8004f50:	b2db      	uxtb	r3, r3
 8004f52:	7013      	strb	r3, [r2, #0]

	// Find the next free effect ID for next time
	//nextEID=0;
	while (gEffectStates[nextEID].state != 0)
 8004f54:	f240 030f 	movw	r3, #15
 8004f58:	f2c2 0300 	movt	r3, #8192	@ 0x2000
 8004f5c:	781b      	ldrb	r3, [r3, #0]
 8004f5e:	f241 12d0 	movw	r2, #4560	@ 0x11d0
 8004f62:	f2c2 0200 	movt	r2, #8192	@ 0x2000
 8004f66:	eb03 03c3 	add.w	r3, r3, r3, lsl #3
 8004f6a:	0099      	lsls	r1, r3, #2
 8004f6c:	5c53      	ldrb	r3, [r2, r1]
 8004f6e:	b183      	cbz	r3, 8004f92 <GetNextFreeEffect+0x60>
	{
		if (nextEID >= MAX_EFFECTS)
 8004f70:	f240 030f 	movw	r3, #15
 8004f74:	f2c2 0300 	movt	r3, #8192	@ 0x2000
 8004f78:	781b      	ldrb	r3, [r3, #0]
 8004f7a:	b2db      	uxtb	r3, r3
 8004f7c:	2b09      	cmp	r3, #9
 8004f7e:	d808      	bhi.n	8004f92 <GetNextFreeEffect+0x60>
		break;  // the last spot was taken
		nextEID++;
 8004f80:	f240 020f 	movw	r2, #15
 8004f84:	f2c2 0200 	movt	r2, #8192	@ 0x2000
 8004f88:	7813      	ldrb	r3, [r2, #0]
 8004f8a:	3301      	adds	r3, #1
 8004f8c:	b2db      	uxtb	r3, r3
 8004f8e:	7013      	strb	r3, [r2, #0]
 8004f90:	e7e0      	b.n	8004f54 <GetNextFreeEffect+0x22>
	}

	gEffectStates[id].state = MEFFECTSTATE_ALLOCATED;
 8004f92:	f241 13d0 	movw	r3, #4560	@ 0x11d0
 8004f96:	f2c2 0300 	movt	r3, #8192	@ 0x2000
 8004f9a:	eb00 01c0 	add.w	r1, r0, r0, lsl #3
 8004f9e:	008a      	lsls	r2, r1, #2
 8004fa0:	2101      	movs	r1, #1
 8004fa2:	5499      	strb	r1, [r3, r2]

	return id;
 8004fa4:	4770      	bx	lr
	return 0;
 8004fa6:	2000      	movs	r0, #0
}
 8004fa8:	4770      	bx	lr

08004faa <FreeAllEffects>:
	   nextEID = id;

}

void FreeAllEffects(void)
{
 8004faa:	b508      	push	{r3, lr}
	nextEID = 1;
 8004fac:	f240 030f 	movw	r3, #15
 8004fb0:	f2c2 0300 	movt	r3, #8192	@ 0x2000
 8004fb4:	2201      	movs	r2, #1
 8004fb6:	701a      	strb	r2, [r3, #0]
	memset((void*)&gEffectStates, 0, sizeof(gEffectStates));
 8004fb8:	f44f 72c6 	mov.w	r2, #396	@ 0x18c
 8004fbc:	2100      	movs	r1, #0
 8004fbe:	f241 10d0 	movw	r0, #4560	@ 0x11d0
 8004fc2:	f2c2 0000 	movt	r0, #8192	@ 0x2000
 8004fc6:	f002 fea6 	bl	8007d16 <memset>
	pidBlockLoad.ramPoolAvailable = MEMORY_SIZE;
 8004fca:	f241 13b4 	movw	r3, #4532	@ 0x11b4
 8004fce:	f2c2 0300 	movt	r3, #8192	@ 0x2000
 8004fd2:	78da      	ldrb	r2, [r3, #3]
 8004fd4:	2268      	movs	r2, #104	@ 0x68
 8004fd6:	70da      	strb	r2, [r3, #3]
 8004fd8:	791a      	ldrb	r2, [r3, #4]
 8004fda:	2201      	movs	r2, #1
 8004fdc:	711a      	strb	r2, [r3, #4]
}
 8004fde:	bd08      	pop	{r3, pc}

08004fe0 <FfbOnCreateNewEffect>:
	effect->attackTime = data->attackTime;
	effect->fadeTime = data->fadeTime;
}

void FfbOnCreateNewEffect(USB_FFBReport_CreateNewEffect_Feature_Data_t* inData)
{
 8004fe0:	e92d 41f0 	stmdb	sp!, {r4, r5, r6, r7, r8, lr}
	pidBlockLoad.reportId = 6;
 8004fe4:	f241 14b4 	movw	r4, #4532	@ 0x11b4
 8004fe8:	f2c2 0400 	movt	r4, #8192	@ 0x2000
 8004fec:	2306      	movs	r3, #6
 8004fee:	7023      	strb	r3, [r4, #0]
	pidBlockLoad.effectBlockIndex = GetNextFreeEffect();
 8004ff0:	f7ff ff9f 	bl	8004f32 <GetNextFreeEffect>
 8004ff4:	7060      	strb	r0, [r4, #1]

	if (pidBlockLoad.effectBlockIndex == 0)
 8004ff6:	7863      	ldrb	r3, [r4, #1]
 8004ff8:	b91b      	cbnz	r3, 8005002 <FfbOnCreateNewEffect+0x22>
	{
		pidBlockLoad.loadStatus = 2;    // 1=Success,2=Full,3=Error
 8004ffa:	2202      	movs	r2, #2
 8004ffc:	70a2      	strb	r2, [r4, #2]

		memset((void*)effect, 0, sizeof(TEffectState));
		effect->state = MEFFECTSTATE_ALLOCATED;
		pidBlockLoad.ramPoolAvailable -= SIZE_EFFECT;
	}
}
 8004ffe:	e8bd 81f0 	ldmia.w	sp!, {r4, r5, r6, r7, r8, pc}
		pidBlockLoad.loadStatus = 1;    // 1=Success,2=Full,3=Error
 8005002:	f241 14b4 	movw	r4, #4532	@ 0x11b4
 8005006:	f2c2 0400 	movt	r4, #8192	@ 0x2000
 800500a:	2701      	movs	r7, #1
 800500c:	70a7      	strb	r7, [r4, #2]
		volatile TEffectState* effect = &gEffectStates[pidBlockLoad.effectBlockIndex];
 800500e:	7860      	ldrb	r0, [r4, #1]
 8005010:	fa5f f880 	uxtb.w	r8, r0
 8005014:	00c5      	lsls	r5, r0, #3
 8005016:	eb00 00c0 	add.w	r0, r0, r0, lsl #3
 800501a:	f241 16d0 	movw	r6, #4560	@ 0x11d0
 800501e:	f2c2 0600 	movt	r6, #8192	@ 0x2000
		memset((void*)effect, 0, sizeof(TEffectState));
 8005022:	2224      	movs	r2, #36	@ 0x24
 8005024:	2100      	movs	r1, #0
 8005026:	eb06 0080 	add.w	r0, r6, r0, lsl #2
 800502a:	f002 fe74 	bl	8007d16 <memset>
		effect->state = MEFFECTSTATE_ALLOCATED;
 800502e:	4445      	add	r5, r8
 8005030:	00ad      	lsls	r5, r5, #2
 8005032:	5577      	strb	r7, [r6, r5]
		pidBlockLoad.ramPoolAvailable -= SIZE_EFFECT;
 8005034:	f8b4 3003 	ldrh.w	r3, [r4, #3]
 8005038:	3b24      	subs	r3, #36	@ 0x24
 800503a:	b29b      	uxth	r3, r3
 800503c:	f8a4 3003 	strh.w	r3, [r4, #3]
}
 8005040:	e7dd      	b.n	8004ffe <FfbOnCreateNewEffect+0x1e>

08005042 <FfbOnPIDPool>:
//	effect->samplePeriod;   // 0..32767 ms
//	effect->triggerButton;    
}

uint8_t* FfbOnPIDPool()
{
 8005042:	b508      	push	{r3, lr}
	FreeAllEffects();
 8005044:	f7ff ffb1 	bl	8004faa <FreeAllEffects>

	pidPoolReport.reportId = 7;
 8005048:	f241 10ac 	movw	r0, #4524	@ 0x11ac
 800504c:	f2c2 0000 	movt	r0, #8192	@ 0x2000
 8005050:	2307      	movs	r3, #7
 8005052:	7003      	strb	r3, [r0, #0]
	pidPoolReport.ramPoolSize = MEMORY_SIZE;
 8005054:	7843      	ldrb	r3, [r0, #1]
 8005056:	2368      	movs	r3, #104	@ 0x68
 8005058:	7043      	strb	r3, [r0, #1]
 800505a:	7883      	ldrb	r3, [r0, #2]
 800505c:	2301      	movs	r3, #1
 800505e:	7083      	strb	r3, [r0, #2]
	pidPoolReport.maxSimultaneousEffects = MAX_EFFECTS;    
 8005060:	230a      	movs	r3, #10
 8005062:	70c3      	strb	r3, [r0, #3]
	pidPoolReport.memoryManagement = 3;
 8005064:	2303      	movs	r3, #3
 8005066:	7103      	strb	r3, [r0, #4]
	return (uint8_t*)&pidPoolReport;
}
 8005068:	bd08      	pop	{r3, pc}

0800506a <FfbOnPIDBlockLoad>:

uint8_t* FfbOnPIDBlockLoad()
{
	return (uint8_t*)&pidBlockLoad;
}
 800506a:	f241 10b4 	movw	r0, #4532	@ 0x11b4
 800506e:	f2c2 0000 	movt	r0, #8192	@ 0x2000
 8005072:	4770      	bx	lr

08005074 <FfbOnPIDStatus>:

uint8_t* FfbOnPIDStatus()
{
	return (uint8_t*)&pidState;
}
 8005074:	f240 000c 	movw	r0, #12
 8005078:	f2c2 0000 	movt	r0, #8192	@ 0x2000
 800507c:	4770      	bx	lr
	...

08005080 <FfbGetFeedbackValue>:
{
}


void FfbGetFeedbackValue(int16_t* axisPosition, int16_t* out)
{
 8005080:	e92d 4ff0 	stmdb	sp!, {r4, r5, r6, r7, r8, r9, sl, fp, lr}
 8005084:	b09f      	sub	sp, #124	@ 0x7c
 8005086:	4607      	mov	r7, r0
 8005088:	460e      	mov	r6, r1
	int32_t x_y_force[2] = {0,0};
 800508a:	2400      	movs	r4, #0
 800508c:	941c      	str	r4, [sp, #112]	@ 0x70
 800508e:	941d      	str	r4, [sp, #116]	@ 0x74
	
	for (uint8_t id = 0; id <= MAX_EFFECTS; id++)
 8005090:	e038      	b.n	8005104 <FfbGetFeedbackValue+0x84>
		{
			switch (effect.effectType)
			{
			case USB_EFFECT_CONSTANT:
				{
					int32_t tforce = ApplyEnvelope(effect, (int32_t)effect.magnitude);
 8005092:	f89d 3052 	ldrb.w	r3, [sp, #82]	@ 0x52
 8005096:	9305      	str	r3, [sp, #20]
 8005098:	46ec      	mov	ip, sp
 800509a:	f10d 0e5c 	add.w	lr, sp, #92	@ 0x5c
 800509e:	e8be 000f 	ldmia.w	lr!, {r0, r1, r2, r3}
 80050a2:	e8ac 000f 	stmia.w	ip!, {r0, r1, r2, r3}
 80050a6:	f8de 3000 	ldr.w	r3, [lr]
 80050aa:	f8cc 3000 	str.w	r3, [ip]
 80050ae:	f10d 084c 	add.w	r8, sp, #76	@ 0x4c
 80050b2:	e898 000f 	ldmia.w	r8, {r0, r1, r2, r3}
 80050b6:	f000 fc6c 	bl	8005992 <ApplyEnvelope>
					ApplyDirection(effect, tforce, x_y_force);
 80050ba:	ab1c      	add	r3, sp, #112	@ 0x70
 80050bc:	9306      	str	r3, [sp, #24]
 80050be:	9005      	str	r0, [sp, #20]
 80050c0:	46ec      	mov	ip, sp
 80050c2:	f10d 0e5c 	add.w	lr, sp, #92	@ 0x5c
 80050c6:	e8be 000f 	ldmia.w	lr!, {r0, r1, r2, r3}
 80050ca:	e8ac 000f 	stmia.w	ip!, {r0, r1, r2, r3}
 80050ce:	f8de 3000 	ldr.w	r3, [lr]
 80050d2:	f8cc 3000 	str.w	r3, [ip]
 80050d6:	e898 000f 	ldmia.w	r8, {r0, r1, r2, r3}
 80050da:	f000 fc9f 	bl	8005a1c <ApplyDirection>
				}
				break;
			case USB_EFFECT_CUSTOM:
				break;
			}
		gEffectStates[id].elapsedTime += WHEEL_SAMPLE_RATE_MS;
 80050de:	f241 12d0 	movw	r2, #4560	@ 0x11d0
 80050e2:	f2c2 0200 	movt	r2, #8192	@ 0x2000
 80050e6:	eb05 03c5 	add.w	r3, r5, r5, lsl #3
 80050ea:	eb02 0383 	add.w	r3, r2, r3, lsl #2
 80050ee:	8c5b      	ldrh	r3, [r3, #34]	@ 0x22
 80050f0:	b29b      	uxth	r3, r3
 80050f2:	330a      	adds	r3, #10
 80050f4:	b29b      	uxth	r3, r3
 80050f6:	eb05 05c5 	add.w	r5, r5, r5, lsl #3
 80050fa:	eb02 0285 	add.w	r2, r2, r5, lsl #2
 80050fe:	8453      	strh	r3, [r2, #34]	@ 0x22
	for (uint8_t id = 0; id <= MAX_EFFECTS; id++)
 8005100:	3401      	adds	r4, #1
 8005102:	b2e4      	uxtb	r4, r4
 8005104:	2c0a      	cmp	r4, #10
 8005106:	f200 83ed 	bhi.w	80058e4 <FfbGetFeedbackValue+0x864>
		TEffectState effect = gEffectStates[id];
 800510a:	4625      	mov	r5, r4
 800510c:	f241 1cd0 	movw	ip, #4560	@ 0x11d0
 8005110:	f2c2 0c00 	movt	ip, #8192	@ 0x2000
 8005114:	eb04 03c4 	add.w	r3, r4, r4, lsl #3
 8005118:	f10d 0e4c 	add.w	lr, sp, #76	@ 0x4c
 800511c:	eb0c 0c83 	add.w	ip, ip, r3, lsl #2
 8005120:	e8bc 000f 	ldmia.w	ip!, {r0, r1, r2, r3}
 8005124:	e8ae 000f 	stmia.w	lr!, {r0, r1, r2, r3}
 8005128:	e8bc 000f 	ldmia.w	ip!, {r0, r1, r2, r3}
 800512c:	e8ae 000f 	stmia.w	lr!, {r0, r1, r2, r3}
 8005130:	f8dc 3000 	ldr.w	r3, [ip]
 8005134:	f8ce 3000 	str.w	r3, [lr]
		if ((effect.state & MEFFECTSTATE_PLAYING) && ((effect.elapsedTime <= effect.duration)||(effect.duration == USB_DURATION_INFINITE)) && !devicePaused)
 8005138:	f89d 304c 	ldrb.w	r3, [sp, #76]	@ 0x4c
 800513c:	f013 0f02 	tst.w	r3, #2
 8005140:	d0de      	beq.n	8005100 <FfbGetFeedbackValue+0x80>
 8005142:	f8bd 806e 	ldrh.w	r8, [sp, #110]	@ 0x6e
 8005146:	f8bd 2068 	ldrh.w	r2, [sp, #104]	@ 0x68
 800514a:	4590      	cmp	r8, r2
 800514c:	d903      	bls.n	8005156 <FfbGetFeedbackValue+0xd6>
 800514e:	f647 73ff 	movw	r3, #32767	@ 0x7fff
 8005152:	429a      	cmp	r2, r3
 8005154:	d1d4      	bne.n	8005100 <FfbGetFeedbackValue+0x80>
 8005156:	f241 13cc 	movw	r3, #4556	@ 0x11cc
 800515a:	f2c2 0300 	movt	r3, #8192	@ 0x2000
 800515e:	781b      	ldrb	r3, [r3, #0]
 8005160:	2b00      	cmp	r3, #0
 8005162:	d1cd      	bne.n	8005100 <FfbGetFeedbackValue+0x80>
			switch (effect.effectType)
 8005164:	f89d 304d 	ldrb.w	r3, [sp, #77]	@ 0x4d
 8005168:	3b01      	subs	r3, #1
 800516a:	2b0a      	cmp	r3, #10
 800516c:	d8b7      	bhi.n	80050de <FfbGetFeedbackValue+0x5e>
 800516e:	a101      	add	r1, pc, #4	@ (adr r1, 8005174 <FfbGetFeedbackValue+0xf4>)
 8005170:	f851 f023 	ldr.w	pc, [r1, r3, lsl #2]
 8005174:	08005093 	.word	0x08005093
 8005178:	080051a1 	.word	0x080051a1
 800517c:	080051df 	.word	0x080051df
 8005180:	08005267 	.word	0x08005267
 8005184:	08005331 	.word	0x08005331
 8005188:	08005435 	.word	0x08005435
 800518c:	08005523 	.word	0x08005523
 8005190:	080055ff 	.word	0x080055ff
 8005194:	08005671 	.word	0x08005671
 8005198:	08005717 	.word	0x08005717
 800519c:	08005829 	.word	0x08005829
					int32_t end = effect.end * 2;
 80051a0:	f99d 3065 	ldrsb.w	r3, [sp, #101]	@ 0x65
					int32_t start = effect.start * 2;
 80051a4:	f99d 1064 	ldrsb.w	r1, [sp, #100]	@ 0x64
 80051a8:	0049      	lsls	r1, r1, #1
					int32_t temp = (end - start) * elapsedTime;
 80051aa:	ebc1 0343 	rsb	r3, r1, r3, lsl #1
 80051ae:	fb08 f303 	mul.w	r3, r8, r3
					temp /= duration;
 80051b2:	fb93 f3f2 	sdiv	r3, r3, r2
					temp += start;
 80051b6:	4419      	add	r1, r3
					ApplyDirection(effect, temp, x_y_force);
 80051b8:	ab1c      	add	r3, sp, #112	@ 0x70
 80051ba:	9306      	str	r3, [sp, #24]
 80051bc:	9105      	str	r1, [sp, #20]
 80051be:	46ec      	mov	ip, sp
 80051c0:	f10d 0e5c 	add.w	lr, sp, #92	@ 0x5c
 80051c4:	e8be 000f 	ldmia.w	lr!, {r0, r1, r2, r3}
 80051c8:	e8ac 000f 	stmia.w	ip!, {r0, r1, r2, r3}
 80051cc:	f8de 3000 	ldr.w	r3, [lr]
 80051d0:	f8cc 3000 	str.w	r3, [ip]
 80051d4:	ab13      	add	r3, sp, #76	@ 0x4c
 80051d6:	cb0f      	ldmia	r3, {r0, r1, r2, r3}
 80051d8:	f000 fc20 	bl	8005a1c <ApplyDirection>
				break;
 80051dc:	e77f      	b.n	80050de <FfbGetFeedbackValue+0x5e>
					int32_t offset = effect.offset * 2;
 80051de:	f99d 004e 	ldrsb.w	r0, [sp, #78]	@ 0x4e
					uint32_t magnitude = effect.magnitude;
 80051e2:	f89d 1052 	ldrb.w	r1, [sp, #82]	@ 0x52
					uint32_t phase = effect.phase;
 80051e6:	f89d 3063 	ldrb.w	r3, [sp, #99]	@ 0x63
					uint32_t period = effect.period;
 80051ea:	f8bd 2066 	ldrh.w	r2, [sp, #102]	@ 0x66
					int32_t max = offset + magnitude;
 80051ee:	eb01 0c40 	add.w	ip, r1, r0, lsl #1
					int32_t min = offset - magnitude;
 80051f2:	ebc1 0140 	rsb	r1, r1, r0, lsl #1
					uint32_t phasetime = (phase * period) / 255;
 80051f6:	fb02 f303 	mul.w	r3, r2, r3
 80051fa:	f248 0081 	movw	r0, #32897	@ 0x8081
 80051fe:	f2c8 0080 	movt	r0, #32896	@ 0x8080
 8005202:	fba0 0303 	umull	r0, r3, r0, r3
					uint32_t time = elapsedTime + phasetime;
 8005206:	eb08 13d3 	add.w	r3, r8, r3, lsr #7
					uint32_t reminder = time % period;
 800520a:	fbb3 f0f2 	udiv	r0, r3, r2
 800520e:	fb02 3310 	mls	r3, r2, r0, r3
					if (reminder > (period / 2)) tempforce = min;
 8005212:	ebb3 0f52 	cmp.w	r3, r2, lsr #1
 8005216:	d900      	bls.n	800521a <FfbGetFeedbackValue+0x19a>
 8005218:	468c      	mov	ip, r1
					ApplyDirection(effect, ApplyEnvelope(effect, tempforce), x_y_force);
 800521a:	f8cd c014 	str.w	ip, [sp, #20]
 800521e:	46ec      	mov	ip, sp
 8005220:	f10d 0e5c 	add.w	lr, sp, #92	@ 0x5c
 8005224:	e8be 000f 	ldmia.w	lr!, {r0, r1, r2, r3}
 8005228:	e8ac 000f 	stmia.w	ip!, {r0, r1, r2, r3}
 800522c:	f8de 3000 	ldr.w	r3, [lr]
 8005230:	f8cc 3000 	str.w	r3, [ip]
 8005234:	f10d 084c 	add.w	r8, sp, #76	@ 0x4c
 8005238:	e898 000f 	ldmia.w	r8, {r0, r1, r2, r3}
 800523c:	f000 fba9 	bl	8005992 <ApplyEnvelope>
 8005240:	ab1c      	add	r3, sp, #112	@ 0x70
 8005242:	9306      	str	r3, [sp, #24]
 8005244:	9005      	str	r0, [sp, #20]
 8005246:	46ec      	mov	ip, sp
 8005248:	f10d 0e5c 	add.w	lr, sp, #92	@ 0x5c
 800524c:	e8be 000f 	ldmia.w	lr!, {r0, r1, r2, r3}
 8005250:	e8ac 000f 	stmia.w	ip!, {r0, r1, r2, r3}
 8005254:	f8de 3000 	ldr.w	r3, [lr]
 8005258:	f8cc 3000 	str.w	r3, [ip]
 800525c:	e898 000f 	ldmia.w	r8, {r0, r1, r2, r3}
 8005260:	f000 fbdc 	bl	8005a1c <ApplyDirection>
				break;
 8005264:	e73b      	b.n	80050de <FfbGetFeedbackValue+0x5e>
					float offset = effect.offset * 2;
 8005266:	f99d 004e 	ldrsb.w	r0, [sp, #78]	@ 0x4e
 800526a:	0040      	lsls	r0, r0, #1
 800526c:	f7fb f828 	bl	80002c0 <__aeabi_i2f>
 8005270:	9009      	str	r0, [sp, #36]	@ 0x24
					float magnitude = effect.magnitude;
 8005272:	f89d 0052 	ldrb.w	r0, [sp, #82]	@ 0x52
 8005276:	f7fb f81f 	bl	80002b8 <__aeabi_ui2f>
 800527a:	4681      	mov	r9, r0
					float phase = effect.phase;
 800527c:	f89d 0063 	ldrb.w	r0, [sp, #99]	@ 0x63
 8005280:	f7fb f81a 	bl	80002b8 <__aeabi_ui2f>
 8005284:	4682      	mov	sl, r0
					float time = effect.elapsedTime;
 8005286:	4640      	mov	r0, r8
 8005288:	f7fb f816 	bl	80002b8 <__aeabi_ui2f>
 800528c:	4683      	mov	fp, r0
					float period = effect.period;
 800528e:	f8bd 0066 	ldrh.w	r0, [sp, #102]	@ 0x66
 8005292:	f7fb f811 	bl	80002b8 <__aeabi_ui2f>
 8005296:	4680      	mov	r8, r0
					float angle = ((time / period) + (phase / 255) * period) * 2 * PI;
 8005298:	4601      	mov	r1, r0
 800529a:	4658      	mov	r0, fp
 800529c:	f7fb f918 	bl	80004d0 <__aeabi_fdiv>
 80052a0:	4683      	mov	fp, r0
 80052a2:	2100      	movs	r1, #0
 80052a4:	f2c4 317f 	movt	r1, #17279	@ 0x437f
 80052a8:	4650      	mov	r0, sl
 80052aa:	f7fb f911 	bl	80004d0 <__aeabi_fdiv>
 80052ae:	4641      	mov	r1, r8
 80052b0:	f7fb f85a 	bl	8000368 <__aeabi_fmul>
 80052b4:	4601      	mov	r1, r0
 80052b6:	4658      	mov	r0, fp
 80052b8:	f7fa ff4e 	bl	8000158 <__addsf3>
 80052bc:	4601      	mov	r1, r0
 80052be:	f7fa ff4b 	bl	8000158 <__addsf3>
 80052c2:	f640 71db 	movw	r1, #4059	@ 0xfdb
 80052c6:	f2c4 0149 	movt	r1, #16457	@ 0x4049
 80052ca:	f7fb f84d 	bl	8000368 <__aeabi_fmul>
					float sine = FfbSin(angle);
 80052ce:	f000 fb51 	bl	8005974 <FfbSin>
 80052d2:	4601      	mov	r1, r0
					float tempforce = sine * magnitude;
 80052d4:	4648      	mov	r0, r9
 80052d6:	f7fb f847 	bl	8000368 <__aeabi_fmul>
 80052da:	4601      	mov	r1, r0
					tempforce += offset;
 80052dc:	9809      	ldr	r0, [sp, #36]	@ 0x24
 80052de:	f7fa ff3b 	bl	8000158 <__addsf3>
					ApplyDirection(effect, ApplyEnvelope(effect, (int32_t)tempforce), x_y_force);
 80052e2:	f7fb fa07 	bl	80006f4 <__aeabi_f2iz>
 80052e6:	9005      	str	r0, [sp, #20]
 80052e8:	46ec      	mov	ip, sp
 80052ea:	f10d 0e5c 	add.w	lr, sp, #92	@ 0x5c
 80052ee:	e8be 000f 	ldmia.w	lr!, {r0, r1, r2, r3}
 80052f2:	e8ac 000f 	stmia.w	ip!, {r0, r1, r2, r3}
 80052f6:	f8de 3000 	ldr.w	r3, [lr]
 80052fa:	f8cc 3000 	str.w	r3, [ip]
 80052fe:	f10d 084c 	add.w	r8, sp, #76	@ 0x4c
 8005302:	e898 000f 	ldmia.w	r8, {r0, r1, r2, r3}
 8005306:	f000 fb44 	bl	8005992 <ApplyEnvelope>
 800530a:	ab1c      	add	r3, sp, #112	@ 0x70
 800530c:	9306      	str	r3, [sp, #24]
 800530e:	9005      	str	r0, [sp, #20]
 8005310:	46ec      	mov	ip, sp
 8005312:	f10d 0e5c 	add.w	lr, sp, #92	@ 0x5c
 8005316:	e8be 000f 	ldmia.w	lr!, {r0, r1, r2, r3}
 800531a:	e8ac 000f 	stmia.w	ip!, {r0, r1, r2, r3}
 800531e:	f8de 3000 	ldr.w	r3, [lr]
 8005322:	f8cc 3000 	str.w	r3, [ip]
 8005326:	e898 000f 	ldmia.w	r8, {r0, r1, r2, r3}
 800532a:	f000 fb77 	bl	8005a1c <ApplyDirection>
				break;
 800532e:	e6d6      	b.n	80050de <FfbGetFeedbackValue+0x5e>
					float offset = effect.offset*2;
 8005330:	f99d 004e 	ldrsb.w	r0, [sp, #78]	@ 0x4e
 8005334:	0040      	lsls	r0, r0, #1
 8005336:	f7fa ffc3 	bl	80002c0 <__aeabi_i2f>
 800533a:	4683      	mov	fp, r0
					float magnitude = effect.magnitude;
 800533c:	f89d 0052 	ldrb.w	r0, [sp, #82]	@ 0x52
 8005340:	f7fa ffba 	bl	80002b8 <__aeabi_ui2f>
 8005344:	9009      	str	r0, [sp, #36]	@ 0x24
					float elapsedTime=effect.elapsedTime;
 8005346:	4640      	mov	r0, r8
 8005348:	f7fa ffb6 	bl	80002b8 <__aeabi_ui2f>
 800534c:	900a      	str	r0, [sp, #40]	@ 0x28
					uint32_t phase=effect.phase;
 800534e:	f89d 8063 	ldrb.w	r8, [sp, #99]	@ 0x63
					uint32_t period = effect.period;
 8005352:	f8bd a066 	ldrh.w	sl, [sp, #102]	@ 0x66
					float periodF = effect.period;
 8005356:	4650      	mov	r0, sl
 8005358:	f7fa ffae 	bl	80002b8 <__aeabi_ui2f>
 800535c:	4681      	mov	r9, r0
					float max = offset + magnitude;
 800535e:	9909      	ldr	r1, [sp, #36]	@ 0x24
 8005360:	4658      	mov	r0, fp
 8005362:	f7fa fef9 	bl	8000158 <__addsf3>
 8005366:	900b      	str	r0, [sp, #44]	@ 0x2c
					float min = offset - magnitude;
 8005368:	9909      	ldr	r1, [sp, #36]	@ 0x24
 800536a:	4658      	mov	r0, fp
 800536c:	f7fa fef2 	bl	8000154 <__aeabi_fsub>
 8005370:	4683      	mov	fp, r0
					uint32_t phasetime = (phase * period) / 255;
 8005372:	fb0a f008 	mul.w	r0, sl, r8
 8005376:	f248 0381 	movw	r3, #32897	@ 0x8081
 800537a:	f2c8 0380 	movt	r3, #32896	@ 0x8080
 800537e:	fba3 3000 	umull	r3, r0, r3, r0
					uint32_t time = elapsedTime + phasetime;
 8005382:	09c0      	lsrs	r0, r0, #7
 8005384:	f7fa ff98 	bl	80002b8 <__aeabi_ui2f>
 8005388:	990a      	ldr	r1, [sp, #40]	@ 0x28
 800538a:	f7fa fee5 	bl	8000158 <__addsf3>
 800538e:	f7fb f9d7 	bl	8000740 <__aeabi_f2uiz>
					float reminder = time % period;
 8005392:	fbb0 f3fa 	udiv	r3, r0, sl
 8005396:	fb0a 0013 	mls	r0, sl, r3, r0
 800539a:	f7fa ff8d 	bl	80002b8 <__aeabi_ui2f>
 800539e:	4680      	mov	r8, r0
					float slope = ((max - min)*2) / periodF;
 80053a0:	4659      	mov	r1, fp
 80053a2:	980b      	ldr	r0, [sp, #44]	@ 0x2c
 80053a4:	f7fa fed6 	bl	8000154 <__aeabi_fsub>
 80053a8:	4601      	mov	r1, r0
 80053aa:	f7fa fed5 	bl	8000158 <__addsf3>
 80053ae:	4649      	mov	r1, r9
 80053b0:	f7fb f88e 	bl	80004d0 <__aeabi_fdiv>
 80053b4:	4682      	mov	sl, r0
					if (reminder > (periodF / 2)) tempforce = slope * (periodF - reminder);
 80053b6:	f04f 517c 	mov.w	r1, #1056964608	@ 0x3f000000
 80053ba:	4648      	mov	r0, r9
 80053bc:	f7fa ffd4 	bl	8000368 <__aeabi_fmul>
 80053c0:	4641      	mov	r1, r8
 80053c2:	f7fb f96f 	bl	80006a4 <__aeabi_fcmplt>
 80053c6:	b380      	cbz	r0, 800542a <FfbGetFeedbackValue+0x3aa>
 80053c8:	4641      	mov	r1, r8
 80053ca:	4648      	mov	r0, r9
 80053cc:	f7fa fec2 	bl	8000154 <__aeabi_fsub>
 80053d0:	4651      	mov	r1, sl
 80053d2:	f7fa ffc9 	bl	8000368 <__aeabi_fmul>
					tempforce += min;
 80053d6:	4659      	mov	r1, fp
 80053d8:	f7fa febe 	bl	8000158 <__addsf3>
					ApplyDirection(effect, ApplyEnvelope(effect, tempforce), x_y_force);
 80053dc:	f7fb f98a 	bl	80006f4 <__aeabi_f2iz>
 80053e0:	9005      	str	r0, [sp, #20]
 80053e2:	46ec      	mov	ip, sp
 80053e4:	f10d 0e5c 	add.w	lr, sp, #92	@ 0x5c
 80053e8:	e8be 000f 	ldmia.w	lr!, {r0, r1, r2, r3}
 80053ec:	e8ac 000f 	stmia.w	ip!, {r0, r1, r2, r3}
 80053f0:	f8de 3000 	ldr.w	r3, [lr]
 80053f4:	f8cc 3000 	str.w	r3, [ip]
 80053f8:	f10d 084c 	add.w	r8, sp, #76	@ 0x4c
 80053fc:	e898 000f 	ldmia.w	r8, {r0, r1, r2, r3}
 8005400:	f000 fac7 	bl	8005992 <ApplyEnvelope>
 8005404:	ab1c      	add	r3, sp, #112	@ 0x70
 8005406:	9306      	str	r3, [sp, #24]
 8005408:	9005      	str	r0, [sp, #20]
 800540a:	46ec      	mov	ip, sp
 800540c:	f10d 0e5c 	add.w	lr, sp, #92	@ 0x5c
 8005410:	e8be 000f 	ldmia.w	lr!, {r0, r1, r2, r3}
 8005414:	e8ac 000f 	stmia.w	ip!, {r0, r1, r2, r3}
 8005418:	f8de 3000 	ldr.w	r3, [lr]
 800541c:	f8cc 3000 	str.w	r3, [ip]
 8005420:	e898 000f 	ldmia.w	r8, {r0, r1, r2, r3}
 8005424:	f000 fafa 	bl	8005a1c <ApplyDirection>
				break;
 8005428:	e659      	b.n	80050de <FfbGetFeedbackValue+0x5e>
					else tempforce = slope * reminder;
 800542a:	4651      	mov	r1, sl
 800542c:	4640      	mov	r0, r8
 800542e:	f7fa ff9b 	bl	8000368 <__aeabi_fmul>
 8005432:	e7d0      	b.n	80053d6 <FfbGetFeedbackValue+0x356>
					float offset = effect.offset*2;
 8005434:	f99d 004e 	ldrsb.w	r0, [sp, #78]	@ 0x4e
 8005438:	0040      	lsls	r0, r0, #1
 800543a:	f7fa ff41 	bl	80002c0 <__aeabi_i2f>
 800543e:	4681      	mov	r9, r0
					float magnitude = effect.magnitude;
 8005440:	f89d 0052 	ldrb.w	r0, [sp, #82]	@ 0x52
 8005444:	f7fa ff38 	bl	80002b8 <__aeabi_ui2f>
 8005448:	4682      	mov	sl, r0
					float elapsedTime=effect.elapsedTime;
 800544a:	4640      	mov	r0, r8
 800544c:	f7fa ff34 	bl	80002b8 <__aeabi_ui2f>
 8005450:	9009      	str	r0, [sp, #36]	@ 0x24
					float phase=effect.phase;
 8005452:	f89d 0063 	ldrb.w	r0, [sp, #99]	@ 0x63
 8005456:	f7fa ff2f 	bl	80002b8 <__aeabi_ui2f>
 800545a:	900a      	str	r0, [sp, #40]	@ 0x28
					uint32_t period = effect.period;
 800545c:	f8bd b066 	ldrh.w	fp, [sp, #102]	@ 0x66
					float periodF = effect.period;
 8005460:	4658      	mov	r0, fp
 8005462:	f7fa ff29 	bl	80002b8 <__aeabi_ui2f>
 8005466:	4680      	mov	r8, r0
					float max = offset + magnitude;
 8005468:	4651      	mov	r1, sl
 800546a:	4648      	mov	r0, r9
 800546c:	f7fa fe74 	bl	8000158 <__addsf3>
 8005470:	900b      	str	r0, [sp, #44]	@ 0x2c
					float min = offset - magnitude;
 8005472:	4651      	mov	r1, sl
 8005474:	4648      	mov	r0, r9
 8005476:	f7fa fe6d 	bl	8000154 <__aeabi_fsub>
 800547a:	4681      	mov	r9, r0
					int32_t phasetime = (phase * period) / 255;
 800547c:	4641      	mov	r1, r8
 800547e:	980a      	ldr	r0, [sp, #40]	@ 0x28
 8005480:	f7fa ff72 	bl	8000368 <__aeabi_fmul>
 8005484:	2100      	movs	r1, #0
 8005486:	f2c4 317f 	movt	r1, #17279	@ 0x437f
 800548a:	f7fb f821 	bl	80004d0 <__aeabi_fdiv>
 800548e:	f7fb f931 	bl	80006f4 <__aeabi_f2iz>
					uint32_t time = elapsedTime + phasetime;
 8005492:	f7fa ff15 	bl	80002c0 <__aeabi_i2f>
 8005496:	9909      	ldr	r1, [sp, #36]	@ 0x24
 8005498:	f7fa fe5e 	bl	8000158 <__addsf3>
 800549c:	f7fb f950 	bl	8000740 <__aeabi_f2uiz>
					float reminder = time % period;
 80054a0:	fbb0 f3fb 	udiv	r3, r0, fp
 80054a4:	fb0b 0013 	mls	r0, fp, r3, r0
 80054a8:	f7fa ff06 	bl	80002b8 <__aeabi_ui2f>
 80054ac:	4682      	mov	sl, r0
					float slope = (max - min) / periodF;
 80054ae:	4649      	mov	r1, r9
 80054b0:	980b      	ldr	r0, [sp, #44]	@ 0x2c
 80054b2:	f7fa fe4f 	bl	8000154 <__aeabi_fsub>
 80054b6:	4641      	mov	r1, r8
 80054b8:	f7fb f80a 	bl	80004d0 <__aeabi_fdiv>
 80054bc:	4683      	mov	fp, r0
					tempforce = slope * (period - reminder);
 80054be:	4651      	mov	r1, sl
 80054c0:	4640      	mov	r0, r8
 80054c2:	f7fa fe47 	bl	8000154 <__aeabi_fsub>
 80054c6:	4659      	mov	r1, fp
 80054c8:	f7fa ff4e 	bl	8000368 <__aeabi_fmul>
 80054cc:	4601      	mov	r1, r0
					tempforce += min;
 80054ce:	4648      	mov	r0, r9
 80054d0:	f7fa fe42 	bl	8000158 <__addsf3>
					ApplyDirection(effect, ApplyEnvelope(effect, tempforce), x_y_force);
 80054d4:	f7fb f90e 	bl	80006f4 <__aeabi_f2iz>
 80054d8:	9005      	str	r0, [sp, #20]
 80054da:	46ec      	mov	ip, sp
 80054dc:	f10d 0e5c 	add.w	lr, sp, #92	@ 0x5c
 80054e0:	e8be 000f 	ldmia.w	lr!, {r0, r1, r2, r3}
 80054e4:	e8ac 000f 	stmia.w	ip!, {r0, r1, r2, r3}
 80054e8:	f8de 3000 	ldr.w	r3, [lr]
 80054ec:	f8cc 3000 	str.w	r3, [ip]
 80054f0:	f10d 084c 	add.w	r8, sp, #76	@ 0x4c
 80054f4:	e898 000f 	ldmia.w	r8, {r0, r1, r2, r3}
 80054f8:	f000 fa4b 	bl	8005992 <ApplyEnvelope>
 80054fc:	ab1c      	add	r3, sp, #112	@ 0x70
 80054fe:	9306      	str	r3, [sp, #24]
 8005500:	9005      	str	r0, [sp, #20]
 8005502:	46ec      	mov	ip, sp
 8005504:	f10d 0e5c 	add.w	lr, sp, #92	@ 0x5c
 8005508:	e8be 000f 	ldmia.w	lr!, {r0, r1, r2, r3}
 800550c:	e8ac 000f 	stmia.w	ip!, {r0, r1, r2, r3}
 8005510:	f8de 3000 	ldr.w	r3, [lr]
 8005514:	f8cc 3000 	str.w	r3, [ip]
 8005518:	e898 000f 	ldmia.w	r8, {r0, r1, r2, r3}
 800551c:	f000 fa7e 	bl	8005a1c <ApplyDirection>
				break;
 8005520:	e5dd      	b.n	80050de <FfbGetFeedbackValue+0x5e>
					float offset = effect.offset*2;
 8005522:	f99d 004e 	ldrsb.w	r0, [sp, #78]	@ 0x4e
 8005526:	0040      	lsls	r0, r0, #1
 8005528:	f7fa feca 	bl	80002c0 <__aeabi_i2f>
 800552c:	4681      	mov	r9, r0
					float magnitude = effect.magnitude;
 800552e:	f89d 0052 	ldrb.w	r0, [sp, #82]	@ 0x52
 8005532:	f7fa fec1 	bl	80002b8 <__aeabi_ui2f>
 8005536:	4682      	mov	sl, r0
					float elapsedTime=effect.elapsedTime;
 8005538:	4640      	mov	r0, r8
 800553a:	f7fa febd 	bl	80002b8 <__aeabi_ui2f>
 800553e:	9009      	str	r0, [sp, #36]	@ 0x24
					uint32_t phase=effect.phase;
 8005540:	f89d 8063 	ldrb.w	r8, [sp, #99]	@ 0x63
					uint32_t period = effect.period;
 8005544:	f8bd b066 	ldrh.w	fp, [sp, #102]	@ 0x66
					float periodF = effect.period;
 8005548:	4658      	mov	r0, fp
 800554a:	f7fa feb5 	bl	80002b8 <__aeabi_ui2f>
 800554e:	900a      	str	r0, [sp, #40]	@ 0x28
					float max = offset + magnitude;
 8005550:	4651      	mov	r1, sl
 8005552:	4648      	mov	r0, r9
 8005554:	f7fa fe00 	bl	8000158 <__addsf3>
 8005558:	900b      	str	r0, [sp, #44]	@ 0x2c
					float min = offset - magnitude;
 800555a:	4651      	mov	r1, sl
 800555c:	4648      	mov	r0, r9
 800555e:	f7fa fdf9 	bl	8000154 <__aeabi_fsub>
 8005562:	4681      	mov	r9, r0
					int32_t phasetime = (phase * period) / 255;
 8005564:	fb0b f008 	mul.w	r0, fp, r8
 8005568:	f248 0381 	movw	r3, #32897	@ 0x8081
 800556c:	f2c8 0380 	movt	r3, #32896	@ 0x8080
 8005570:	fba3 3000 	umull	r3, r0, r3, r0
					uint32_t time = elapsedTime + phasetime;
 8005574:	09c0      	lsrs	r0, r0, #7
 8005576:	f7fa fea3 	bl	80002c0 <__aeabi_i2f>
 800557a:	9909      	ldr	r1, [sp, #36]	@ 0x24
 800557c:	f7fa fdec 	bl	8000158 <__addsf3>
 8005580:	f7fb f8de 	bl	8000740 <__aeabi_f2uiz>
					float reminder = time % period;
 8005584:	fbb0 f3fb 	udiv	r3, r0, fp
 8005588:	fb0b 0013 	mls	r0, fp, r3, r0
 800558c:	f7fa fe94 	bl	80002b8 <__aeabi_ui2f>
 8005590:	4680      	mov	r8, r0
					float slope = (max - min) / periodF;
 8005592:	4649      	mov	r1, r9
 8005594:	980b      	ldr	r0, [sp, #44]	@ 0x2c
 8005596:	f7fa fddd 	bl	8000154 <__aeabi_fsub>
 800559a:	990a      	ldr	r1, [sp, #40]	@ 0x28
 800559c:	f7fa ff98 	bl	80004d0 <__aeabi_fdiv>
 80055a0:	4601      	mov	r1, r0
					tempforce = slope * reminder;
 80055a2:	4640      	mov	r0, r8
 80055a4:	f7fa fee0 	bl	8000368 <__aeabi_fmul>
 80055a8:	4601      	mov	r1, r0
					tempforce += min;
 80055aa:	4648      	mov	r0, r9
 80055ac:	f7fa fdd4 	bl	8000158 <__addsf3>
					ApplyDirection(effect, ApplyEnvelope(effect, tempforce), x_y_force);
 80055b0:	f7fb f8a0 	bl	80006f4 <__aeabi_f2iz>
 80055b4:	9005      	str	r0, [sp, #20]
 80055b6:	46ec      	mov	ip, sp
 80055b8:	f10d 0e5c 	add.w	lr, sp, #92	@ 0x5c
 80055bc:	e8be 000f 	ldmia.w	lr!, {r0, r1, r2, r3}
 80055c0:	e8ac 000f 	stmia.w	ip!, {r0, r1, r2, r3}
 80055c4:	f8de 3000 	ldr.w	r3, [lr]
 80055c8:	f8cc 3000 	str.w	r3, [ip]
 80055cc:	f10d 084c 	add.w	r8, sp, #76	@ 0x4c
 80055d0:	e898 000f 	ldmia.w	r8, {r0, r1, r2, r3}
 80055d4:	f000 f9dd 	bl	8005992 <ApplyEnvelope>
 80055d8:	ab1c      	add	r3, sp, #112	@ 0x70
 80055da:	9306      	str	r3, [sp, #24]
 80055dc:	9005      	str	r0, [sp, #20]
 80055de:	46ec      	mov	ip, sp
 80055e0:	f10d 0e5c 	add.w	lr, sp, #92	@ 0x5c
 80055e4:	e8be 000f 	ldmia.w	lr!, {r0, r1, r2, r3}
 80055e8:	e8ac 000f 	stmia.w	ip!, {r0, r1, r2, r3}
 80055ec:	f8de 3000 	ldr.w	r3, [lr]
 80055f0:	f8cc 3000 	str.w	r3, [ip]
 80055f4:	e898 000f 	ldmia.w	r8, {r0, r1, r2, r3}
 80055f8:	f000 fa10 	bl	8005a1c <ApplyDirection>
				break;
 80055fc:	e56f      	b.n	80050de <FfbGetFeedbackValue+0x5e>
					int32_t axis[2] = {NORMALIZE_RANGE(axisPosition[0]),NORMALIZE_RANGE(axisPosition[1])};
 80055fe:	f9b7 3000 	ldrsh.w	r3, [r7]
 8005602:	ebc3 2303 	rsb	r3, r3, r3, lsl #8
 8005606:	f245 027d 	movw	r2, #20605	@ 0x507d
 800560a:	f6c8 12d3 	movt	r2, #35283	@ 0x89d3
 800560e:	fb82 0103 	smull	r0, r1, r2, r3
 8005612:	4419      	add	r1, r3
 8005614:	17db      	asrs	r3, r3, #31
 8005616:	ebc3 2361 	rsb	r3, r3, r1, asr #9
 800561a:	930f      	str	r3, [sp, #60]	@ 0x3c
 800561c:	f9b7 3002 	ldrsh.w	r3, [r7, #2]
 8005620:	ebc3 2303 	rsb	r3, r3, r3, lsl #8
 8005624:	fb82 1203 	smull	r1, r2, r2, r3
 8005628:	441a      	add	r2, r3
 800562a:	17db      	asrs	r3, r3, #31
 800562c:	ebc3 2362 	rsb	r3, r3, r2, asr #9
 8005630:	9310      	str	r3, [sp, #64]	@ 0x40
					int32_t temp[2]={0,0};
 8005632:	2300      	movs	r3, #0
 8005634:	9311      	str	r3, [sp, #68]	@ 0x44
 8005636:	9312      	str	r3, [sp, #72]	@ 0x48
					CalcCondition(effect,temp,axis);
 8005638:	ab0f      	add	r3, sp, #60	@ 0x3c
 800563a:	9306      	str	r3, [sp, #24]
 800563c:	ab11      	add	r3, sp, #68	@ 0x44
 800563e:	9305      	str	r3, [sp, #20]
 8005640:	46ec      	mov	ip, sp
 8005642:	f10d 0e5c 	add.w	lr, sp, #92	@ 0x5c
 8005646:	e8be 000f 	ldmia.w	lr!, {r0, r1, r2, r3}
 800564a:	e8ac 000f 	stmia.w	ip!, {r0, r1, r2, r3}
 800564e:	f8de 3000 	ldr.w	r3, [lr]
 8005652:	f8cc 3000 	str.w	r3, [ip]
 8005656:	ab13      	add	r3, sp, #76	@ 0x4c
 8005658:	cb0f      	ldmia	r3, {r0, r1, r2, r3}
 800565a:	f000 fa58 	bl	8005b0e <CalcCondition>
					x_y_force[0] += -temp[0];
 800565e:	9b1c      	ldr	r3, [sp, #112]	@ 0x70
 8005660:	9a11      	ldr	r2, [sp, #68]	@ 0x44
 8005662:	1a9b      	subs	r3, r3, r2
 8005664:	931c      	str	r3, [sp, #112]	@ 0x70
					x_y_force[1] += -temp[1];
 8005666:	9b1d      	ldr	r3, [sp, #116]	@ 0x74
 8005668:	9a12      	ldr	r2, [sp, #72]	@ 0x48
 800566a:	1a9b      	subs	r3, r3, r2
 800566c:	931d      	str	r3, [sp, #116]	@ 0x74
				break;
 800566e:	e536      	b.n	80050de <FfbGetFeedbackValue+0x5e>
					int32_t speed[2] = {NORMALIZE_RANGE(axisPosition[0]) - NORMALIZE_RANGE(oldAxisPosition[0]), NORMALIZE_RANGE(axisPosition[1]) - NORMALIZE_RANGE(oldAxisPosition[1])};
 8005670:	f9b7 3000 	ldrsh.w	r3, [r7]
 8005674:	ebc3 2303 	rsb	r3, r3, r3, lsl #8
 8005678:	f245 027d 	movw	r2, #20605	@ 0x507d
 800567c:	f6c8 12d3 	movt	r2, #35283	@ 0x89d3
 8005680:	fb82 0103 	smull	r0, r1, r2, r3
 8005684:	4419      	add	r1, r3
 8005686:	17db      	asrs	r3, r3, #31
 8005688:	ebc3 2061 	rsb	r0, r3, r1, asr #9
 800568c:	f241 11bc 	movw	r1, #4540	@ 0x11bc
 8005690:	f2c2 0100 	movt	r1, #8192	@ 0x2000
 8005694:	880b      	ldrh	r3, [r1, #0]
 8005696:	b21b      	sxth	r3, r3
 8005698:	ebc3 2303 	rsb	r3, r3, r3, lsl #8
 800569c:	fb82 ec03 	smull	lr, ip, r2, r3
 80056a0:	449c      	add	ip, r3
 80056a2:	17db      	asrs	r3, r3, #31
 80056a4:	eba3 236c 	sub.w	r3, r3, ip, asr #9
 80056a8:	4403      	add	r3, r0
 80056aa:	930f      	str	r3, [sp, #60]	@ 0x3c
 80056ac:	f9b7 3002 	ldrsh.w	r3, [r7, #2]
 80056b0:	ebc3 2303 	rsb	r3, r3, r3, lsl #8
 80056b4:	fb82 c003 	smull	ip, r0, r2, r3
 80056b8:	4418      	add	r0, r3
 80056ba:	17db      	asrs	r3, r3, #31
 80056bc:	ebc3 2060 	rsb	r0, r3, r0, asr #9
 80056c0:	884b      	ldrh	r3, [r1, #2]
 80056c2:	b21b      	sxth	r3, r3
 80056c4:	ebc3 2303 	rsb	r3, r3, r3, lsl #8
 80056c8:	fb82 1203 	smull	r1, r2, r2, r3
 80056cc:	441a      	add	r2, r3
 80056ce:	17db      	asrs	r3, r3, #31
 80056d0:	eba3 2362 	sub.w	r3, r3, r2, asr #9
 80056d4:	4403      	add	r3, r0
 80056d6:	9310      	str	r3, [sp, #64]	@ 0x40
					int32_t temp[2]={0,0};
 80056d8:	2300      	movs	r3, #0
 80056da:	9311      	str	r3, [sp, #68]	@ 0x44
 80056dc:	9312      	str	r3, [sp, #72]	@ 0x48
					CalcCondition(effect,temp,speed);
 80056de:	ab0f      	add	r3, sp, #60	@ 0x3c
 80056e0:	9306      	str	r3, [sp, #24]
 80056e2:	ab11      	add	r3, sp, #68	@ 0x44
 80056e4:	9305      	str	r3, [sp, #20]
 80056e6:	46ec      	mov	ip, sp
 80056e8:	f10d 0e5c 	add.w	lr, sp, #92	@ 0x5c
 80056ec:	e8be 000f 	ldmia.w	lr!, {r0, r1, r2, r3}
 80056f0:	e8ac 000f 	stmia.w	ip!, {r0, r1, r2, r3}
 80056f4:	f8de 3000 	ldr.w	r3, [lr]
 80056f8:	f8cc 3000 	str.w	r3, [ip]
 80056fc:	ab13      	add	r3, sp, #76	@ 0x4c
 80056fe:	cb0f      	ldmia	r3, {r0, r1, r2, r3}
 8005700:	f000 fa05 	bl	8005b0e <CalcCondition>
					x_y_force[0] += -temp[0];
 8005704:	9b1c      	ldr	r3, [sp, #112]	@ 0x70
 8005706:	9a11      	ldr	r2, [sp, #68]	@ 0x44
 8005708:	1a9b      	subs	r3, r3, r2
 800570a:	931c      	str	r3, [sp, #112]	@ 0x70
					x_y_force[1] += -temp[1];				
 800570c:	9b1d      	ldr	r3, [sp, #116]	@ 0x74
 800570e:	9a12      	ldr	r2, [sp, #72]	@ 0x48
 8005710:	1a9b      	subs	r3, r3, r2
 8005712:	931d      	str	r3, [sp, #116]	@ 0x74
				break;
 8005714:	e4e3      	b.n	80050de <FfbGetFeedbackValue+0x5e>
					int32_t speed[2] = {NORMALIZE_RANGE(axisPosition[0]) - NORMALIZE_RANGE(oldAxisPosition[0]), NORMALIZE_RANGE(axisPosition[1]) - NORMALIZE_RANGE(oldAxisPosition[1])};
 8005716:	f9b7 3000 	ldrsh.w	r3, [r7]
 800571a:	ebc3 2303 	rsb	r3, r3, r3, lsl #8
 800571e:	f245 027d 	movw	r2, #20605	@ 0x507d
 8005722:	f6c8 12d3 	movt	r2, #35283	@ 0x89d3
 8005726:	fb82 0103 	smull	r0, r1, r2, r3
 800572a:	4419      	add	r1, r3
 800572c:	17db      	asrs	r3, r3, #31
 800572e:	ebc3 2161 	rsb	r1, r3, r1, asr #9
 8005732:	f241 1cbc 	movw	ip, #4540	@ 0x11bc
 8005736:	f2c2 0c00 	movt	ip, #8192	@ 0x2000
 800573a:	f8bc 3000 	ldrh.w	r3, [ip]
 800573e:	b21b      	sxth	r3, r3
 8005740:	ebc3 2303 	rsb	r3, r3, r3, lsl #8
 8005744:	fb82 e003 	smull	lr, r0, r2, r3
 8005748:	4418      	add	r0, r3
 800574a:	17db      	asrs	r3, r3, #31
 800574c:	eba3 2360 	sub.w	r3, r3, r0, asr #9
 8005750:	4419      	add	r1, r3
 8005752:	910d      	str	r1, [sp, #52]	@ 0x34
 8005754:	f9b7 3002 	ldrsh.w	r3, [r7, #2]
 8005758:	ebc3 2303 	rsb	r3, r3, r3, lsl #8
 800575c:	fb82 e003 	smull	lr, r0, r2, r3
 8005760:	4418      	add	r0, r3
 8005762:	17db      	asrs	r3, r3, #31
 8005764:	ebc3 2060 	rsb	r0, r3, r0, asr #9
 8005768:	f8bc 3002 	ldrh.w	r3, [ip, #2]
 800576c:	b21b      	sxth	r3, r3
 800576e:	ebc3 2303 	rsb	r3, r3, r3, lsl #8
 8005772:	fb82 c203 	smull	ip, r2, r2, r3
 8005776:	441a      	add	r2, r3
 8005778:	17db      	asrs	r3, r3, #31
 800577a:	eba3 2362 	sub.w	r3, r3, r2, asr #9
 800577e:	4418      	add	r0, r3
 8005780:	900e      	str	r0, [sp, #56]	@ 0x38
					int32_t acceleration[2] = {speed[0] - oldSpeed[0], speed[1] - oldSpeed[1]};
 8005782:	f241 13c0 	movw	r3, #4544	@ 0x11c0
 8005786:	f2c2 0300 	movt	r3, #8192	@ 0x2000
 800578a:	881a      	ldrh	r2, [r3, #0]
 800578c:	b212      	sxth	r2, r2
 800578e:	1a89      	subs	r1, r1, r2
 8005790:	910f      	str	r1, [sp, #60]	@ 0x3c
 8005792:	885b      	ldrh	r3, [r3, #2]
 8005794:	b21b      	sxth	r3, r3
 8005796:	1ac0      	subs	r0, r0, r3
 8005798:	9010      	str	r0, [sp, #64]	@ 0x40
					int32_t temp[2] = {0, 0};
 800579a:	2300      	movs	r3, #0
 800579c:	9311      	str	r3, [sp, #68]	@ 0x44
 800579e:	9312      	str	r3, [sp, #72]	@ 0x48
					memset((void*)&effect.positiveSaturation, INERTIA_FORCE, 4);
 80057a0:	f10d 084c 	add.w	r8, sp, #76	@ 0x4c
 80057a4:	f04f 33ff 	mov.w	r3, #4294967295
 80057a8:	f8cd 305d 	str.w	r3, [sp, #93]	@ 0x5d
					memset((void*)&effect.deadBand, INERTIA_DEADBAND, 2);
 80057ac:	f243 0330 	movw	r3, #12336	@ 0x3030
 80057b0:	f8ad 3061 	strh.w	r3, [sp, #97]	@ 0x61
					CalcCondition(effect,temp,speed);
 80057b4:	ab0d      	add	r3, sp, #52	@ 0x34
 80057b6:	9306      	str	r3, [sp, #24]
 80057b8:	ab11      	add	r3, sp, #68	@ 0x44
 80057ba:	9305      	str	r3, [sp, #20]
 80057bc:	46ec      	mov	ip, sp
 80057be:	f10d 0e5c 	add.w	lr, sp, #92	@ 0x5c
 80057c2:	e8be 000f 	ldmia.w	lr!, {r0, r1, r2, r3}
 80057c6:	e8ac 000f 	stmia.w	ip!, {r0, r1, r2, r3}
 80057ca:	f8de 3000 	ldr.w	r3, [lr]
 80057ce:	f8cc 3000 	str.w	r3, [ip]
 80057d2:	e898 000f 	ldmia.w	r8, {r0, r1, r2, r3}
 80057d6:	f000 f99a 	bl	8005b0e <CalcCondition>
					inertiaT[0] += temp[0];
 80057da:	f241 13c4 	movw	r3, #4548	@ 0x11c4
 80057de:	f2c2 0300 	movt	r3, #8192	@ 0x2000
 80057e2:	681a      	ldr	r2, [r3, #0]
 80057e4:	9911      	ldr	r1, [sp, #68]	@ 0x44
 80057e6:	440a      	add	r2, r1
 80057e8:	601a      	str	r2, [r3, #0]
					inertiaT[1] += temp[1];
 80057ea:	685a      	ldr	r2, [r3, #4]
 80057ec:	9912      	ldr	r1, [sp, #72]	@ 0x48
 80057ee:	440a      	add	r2, r1
 80057f0:	605a      	str	r2, [r3, #4]
					x_y_force[0] += inertiaT[0];
 80057f2:	6819      	ldr	r1, [r3, #0]
 80057f4:	9a1c      	ldr	r2, [sp, #112]	@ 0x70
 80057f6:	440a      	add	r2, r1
 80057f8:	921c      	str	r2, [sp, #112]	@ 0x70
					x_y_force[1] += inertiaT[1];
 80057fa:	685a      	ldr	r2, [r3, #4]
 80057fc:	9b1d      	ldr	r3, [sp, #116]	@ 0x74
 80057fe:	4413      	add	r3, r2
 8005800:	931d      	str	r3, [sp, #116]	@ 0x74
					if (speed[0] == 0) inertiaT[0] = 0;
 8005802:	9b0d      	ldr	r3, [sp, #52]	@ 0x34
 8005804:	b92b      	cbnz	r3, 8005812 <FfbGetFeedbackValue+0x792>
 8005806:	f241 13c4 	movw	r3, #4548	@ 0x11c4
 800580a:	f2c2 0300 	movt	r3, #8192	@ 0x2000
 800580e:	2200      	movs	r2, #0
 8005810:	601a      	str	r2, [r3, #0]
					if (speed[1] == 0) inertiaT[1] = 0; 
 8005812:	9b0e      	ldr	r3, [sp, #56]	@ 0x38
 8005814:	2b00      	cmp	r3, #0
 8005816:	f47f ac62 	bne.w	80050de <FfbGetFeedbackValue+0x5e>
 800581a:	f241 13c4 	movw	r3, #4548	@ 0x11c4
 800581e:	f2c2 0300 	movt	r3, #8192	@ 0x2000
 8005822:	2200      	movs	r2, #0
 8005824:	605a      	str	r2, [r3, #4]
				break;
 8005826:	e45a      	b.n	80050de <FfbGetFeedbackValue+0x5e>
					int32_t speed[2] = {NORMALIZE_RANGE(axisPosition[0]) - NORMALIZE_RANGE(oldAxisPosition[0]), NORMALIZE_RANGE(axisPosition[1]) - NORMALIZE_RANGE(oldAxisPosition[1])};
 8005828:	f9b7 3000 	ldrsh.w	r3, [r7]
 800582c:	ebc3 2303 	rsb	r3, r3, r3, lsl #8
 8005830:	f245 027d 	movw	r2, #20605	@ 0x507d
 8005834:	f6c8 12d3 	movt	r2, #35283	@ 0x89d3
 8005838:	fb82 0103 	smull	r0, r1, r2, r3
 800583c:	4419      	add	r1, r3
 800583e:	17db      	asrs	r3, r3, #31
 8005840:	ebc3 2061 	rsb	r0, r3, r1, asr #9
 8005844:	f241 11bc 	movw	r1, #4540	@ 0x11bc
 8005848:	f2c2 0100 	movt	r1, #8192	@ 0x2000
 800584c:	880b      	ldrh	r3, [r1, #0]
 800584e:	b21b      	sxth	r3, r3
 8005850:	ebc3 2303 	rsb	r3, r3, r3, lsl #8
 8005854:	fb82 ec03 	smull	lr, ip, r2, r3
 8005858:	449c      	add	ip, r3
 800585a:	17db      	asrs	r3, r3, #31
 800585c:	eba3 236c 	sub.w	r3, r3, ip, asr #9
 8005860:	4403      	add	r3, r0
 8005862:	930f      	str	r3, [sp, #60]	@ 0x3c
 8005864:	f9b7 3002 	ldrsh.w	r3, [r7, #2]
 8005868:	ebc3 2303 	rsb	r3, r3, r3, lsl #8
 800586c:	fb82 c003 	smull	ip, r0, r2, r3
 8005870:	4418      	add	r0, r3
 8005872:	17db      	asrs	r3, r3, #31
 8005874:	ebc3 2060 	rsb	r0, r3, r0, asr #9
 8005878:	884b      	ldrh	r3, [r1, #2]
 800587a:	b21b      	sxth	r3, r3
 800587c:	ebc3 2303 	rsb	r3, r3, r3, lsl #8
 8005880:	fb82 1203 	smull	r1, r2, r2, r3
 8005884:	441a      	add	r2, r3
 8005886:	17db      	asrs	r3, r3, #31
 8005888:	eba3 2362 	sub.w	r3, r3, r2, asr #9
 800588c:	4403      	add	r3, r0
 800588e:	9310      	str	r3, [sp, #64]	@ 0x40
					int32_t temp[2] = {0, 0};
 8005890:	2300      	movs	r3, #0
 8005892:	9311      	str	r3, [sp, #68]	@ 0x44
 8005894:	9312      	str	r3, [sp, #72]	@ 0x48
					memset((void*)&effect.positiveSaturation, FRICTION_FORCE, 4);
 8005896:	f10d 084c 	add.w	r8, sp, #76	@ 0x4c
 800589a:	f04f 33ff 	mov.w	r3, #4294967295
 800589e:	f8cd 305d 	str.w	r3, [sp, #93]	@ 0x5d
					memset((void*)&effect.deadBand, FRICTION_DEADBAND, 2);
 80058a2:	f243 0330 	movw	r3, #12336	@ 0x3030
 80058a6:	f8ad 3061 	strh.w	r3, [sp, #97]	@ 0x61
					CalcCondition(effect,temp,speed);
 80058aa:	ab0f      	add	r3, sp, #60	@ 0x3c
 80058ac:	9306      	str	r3, [sp, #24]
 80058ae:	ab11      	add	r3, sp, #68	@ 0x44
 80058b0:	9305      	str	r3, [sp, #20]
 80058b2:	46ec      	mov	ip, sp
 80058b4:	f10d 0e5c 	add.w	lr, sp, #92	@ 0x5c
 80058b8:	e8be 000f 	ldmia.w	lr!, {r0, r1, r2, r3}
 80058bc:	e8ac 000f 	stmia.w	ip!, {r0, r1, r2, r3}
 80058c0:	f8de 3000 	ldr.w	r3, [lr]
 80058c4:	f8cc 3000 	str.w	r3, [ip]
 80058c8:	e898 000f 	ldmia.w	r8, {r0, r1, r2, r3}
 80058cc:	f000 f91f 	bl	8005b0e <CalcCondition>
					x_y_force[0] += -temp[0];
 80058d0:	9b1c      	ldr	r3, [sp, #112]	@ 0x70
 80058d2:	9a11      	ldr	r2, [sp, #68]	@ 0x44
 80058d4:	1a9b      	subs	r3, r3, r2
 80058d6:	931c      	str	r3, [sp, #112]	@ 0x70
					x_y_force[1] += -temp[1];				
 80058d8:	9b1d      	ldr	r3, [sp, #116]	@ 0x74
 80058da:	9a12      	ldr	r2, [sp, #72]	@ 0x48
 80058dc:	1a9b      	subs	r3, r3, r2
 80058de:	931d      	str	r3, [sp, #116]	@ 0x74
				break;
 80058e0:	f7ff bbfd 	b.w	80050de <FfbGetFeedbackValue+0x5e>
		}
	}
	
	uint32_t gain = deviceGain.gain;
 80058e4:	f241 13a8 	movw	r3, #4520	@ 0x11a8
 80058e8:	f2c2 0300 	movt	r3, #8192	@ 0x2000
 80058ec:	785c      	ldrb	r4, [r3, #1]
 80058ee:	b2e4      	uxtb	r4, r4
	for(uint32_t i = 0;i < 2; i++)
 80058f0:	2200      	movs	r2, #0
 80058f2:	e022      	b.n	800593a <FfbGetFeedbackValue+0x8ba>
	{
	  x_y_force[i] *= gain;
 80058f4:	ab1e      	add	r3, sp, #120	@ 0x78
 80058f6:	eb03 0082 	add.w	r0, r3, r2, lsl #2
 80058fa:	f850 3c08 	ldr.w	r3, [r0, #-8]
 80058fe:	fb04 f303 	mul.w	r3, r4, r3
 8005902:	f840 3c08 	str.w	r3, [r0, #-8]
	  x_y_force[i] /= 255;
 8005906:	f248 0181 	movw	r1, #32897	@ 0x8081
 800590a:	f2c8 0180 	movt	r1, #32896	@ 0x8080
 800590e:	fb81 5103 	smull	r5, r1, r1, r3
 8005912:	4419      	add	r1, r3
 8005914:	17db      	asrs	r3, r3, #31
 8005916:	ebc3 13e1 	rsb	r3, r3, r1, asr #7
 800591a:	f840 3c08 	str.w	r3, [r0, #-8]
		out[i] = x_y_force[i] > 255 ? 255 : x_y_force[i];
 800591e:	4619      	mov	r1, r3
 8005920:	2bff      	cmp	r3, #255	@ 0xff
 8005922:	bfa8      	it	ge
 8005924:	21ff      	movge	r1, #255	@ 0xff
 8005926:	f826 1012 	strh.w	r1, [r6, r2, lsl #1]
		out[i] = x_y_force[i] < -255 ? -255 : x_y_force[i];
 800592a:	f06f 01fe 	mvn.w	r1, #254	@ 0xfe
 800592e:	428b      	cmp	r3, r1
 8005930:	bfb8      	it	lt
 8005932:	460b      	movlt	r3, r1
 8005934:	f826 3012 	strh.w	r3, [r6, r2, lsl #1]
	for(uint32_t i = 0;i < 2; i++)
 8005938:	3201      	adds	r2, #1
 800593a:	2a01      	cmp	r2, #1
 800593c:	d9da      	bls.n	80058f4 <FfbGetFeedbackValue+0x874>
	}
	
	oldSpeed[0] = axisPosition[0] - oldAxisPosition[0];
 800593e:	883b      	ldrh	r3, [r7, #0]
 8005940:	f241 11bc 	movw	r1, #4540	@ 0x11bc
 8005944:	f2c2 0100 	movt	r1, #8192	@ 0x2000
 8005948:	880a      	ldrh	r2, [r1, #0]
 800594a:	b292      	uxth	r2, r2
 800594c:	1a9b      	subs	r3, r3, r2
 800594e:	b21b      	sxth	r3, r3
 8005950:	f241 12c0 	movw	r2, #4544	@ 0x11c0
 8005954:	f2c2 0200 	movt	r2, #8192	@ 0x2000
 8005958:	8013      	strh	r3, [r2, #0]
	oldSpeed[1] = axisPosition[1] - oldAxisPosition[1];
 800595a:	887b      	ldrh	r3, [r7, #2]
 800595c:	8849      	ldrh	r1, [r1, #2]
 800595e:	b289      	uxth	r1, r1
 8005960:	1a5b      	subs	r3, r3, r1
 8005962:	b21b      	sxth	r3, r3
 8005964:	8053      	strh	r3, [r2, #2]

}
 8005966:	b01f      	add	sp, #124	@ 0x7c
 8005968:	e8bd 8ff0 	ldmia.w	sp!, {r4, r5, r6, r7, r8, r9, sl, fp, pc}

0800596c <FfbCos>:
*/
#include <ffb_math.h>

//implement cos and sin functions
float FfbCos(float angle)
{
 800596c:	b508      	push	{r3, lr}
	//return (int32_t)(arm_cos_f32(angle);
	return cosf(angle);
 800596e:	f002 f9ff 	bl	8007d70 <cosf>
}
 8005972:	bd08      	pop	{r3, pc}

08005974 <FfbSin>:

float FfbSin(float angle)
{
 8005974:	b508      	push	{r3, lr}
	//return (int32_t)(arm_sin_f32(angle);
  return sinf(angle);
 8005976:	f002 fa33 	bl	8007de0 <sinf>
}
 800597a:	bd08      	pop	{r3, pc}

0800597c <ApplyGain>:

int32_t ApplyGain(uint8_t value, uint8_t gain)
{
	int32_t value_32 = (int16_t)value;
	return ((value_32 * gain) / 255);
 800597c:	fb00 f101 	mul.w	r1, r0, r1
 8005980:	f248 0381 	movw	r3, #32897	@ 0x8081
 8005984:	f2c8 0380 	movt	r3, #32896	@ 0x8080
 8005988:	fb83 2301 	smull	r2, r3, r3, r1
 800598c:	1858      	adds	r0, r3, r1
}
 800598e:	11c0      	asrs	r0, r0, #7
 8005990:	4770      	bx	lr

08005992 <ApplyEnvelope>:

int32_t ApplyEnvelope(TEffectState effect, int32_t value)
{
 8005992:	b084      	sub	sp, #16
 8005994:	b570      	push	{r4, r5, r6, lr}
 8005996:	ac04      	add	r4, sp, #16
 8005998:	e884 000f 	stmia.w	r4, {r0, r1, r2, r3}
	int32_t magnitude = ApplyGain(effect.magnitude, effect.gain);
 800599c:	f89d 6013 	ldrb.w	r6, [sp, #19]
 80059a0:	4631      	mov	r1, r6
 80059a2:	f89d 0016 	ldrb.w	r0, [sp, #22]
 80059a6:	f7ff ffe9 	bl	800597c <ApplyGain>
 80059aa:	4605      	mov	r5, r0
	int32_t attackLevel = ApplyGain(effect.attackLevel, effect.gain);
 80059ac:	4631      	mov	r1, r6
 80059ae:	f89d 0014 	ldrb.w	r0, [sp, #20]
 80059b2:	f7ff ffe3 	bl	800597c <ApplyGain>
 80059b6:	4604      	mov	r4, r0
	int32_t fadeLevel = ApplyGain(effect.fadeLevel, effect.gain);
 80059b8:	4631      	mov	r1, r6
 80059ba:	f89d 0015 	ldrb.w	r0, [sp, #21]
 80059be:	f7ff ffdd 	bl	800597c <ApplyGain>
	int32_t newValue = magnitude;
	int32_t attackTime = effect.attackTime;
 80059c2:	f8bd c030 	ldrh.w	ip, [sp, #48]	@ 0x30
	int32_t fadeTime = effect.fadeTime;
 80059c6:	f8bd 602e 	ldrh.w	r6, [sp, #46]	@ 0x2e
	int32_t elapsedTime = effect.elapsedTime;
 80059ca:	f8bd 2032 	ldrh.w	r2, [sp, #50]	@ 0x32
	int32_t duration = effect.duration;
 80059ce:	f8bd 102c 	ldrh.w	r1, [sp, #44]	@ 0x2c

	if (elapsedTime < attackTime)
 80059d2:	4594      	cmp	ip, r2
 80059d4:	dd20      	ble.n	8005a18 <ApplyEnvelope+0x86>
	{
		newValue = (magnitude - attackLevel) * elapsedTime;
 80059d6:	1b2b      	subs	r3, r5, r4
 80059d8:	fb02 f303 	mul.w	r3, r2, r3
		newValue /= attackTime;
 80059dc:	fb93 f3fc 	sdiv	r3, r3, ip
		newValue += attackLevel;
 80059e0:	4423      	add	r3, r4
	}
	if (elapsedTime > (duration - fadeTime))
 80059e2:	1b8c      	subs	r4, r1, r6
 80059e4:	4294      	cmp	r4, r2
 80059e6:	da06      	bge.n	80059f6 <ApplyEnvelope+0x64>
	{
		newValue = (magnitude - fadeLevel) * (duration - elapsedTime);
 80059e8:	1a2d      	subs	r5, r5, r0
 80059ea:	1a89      	subs	r1, r1, r2
 80059ec:	fb01 f505 	mul.w	r5, r1, r5
		newValue /= fadeTime;
 80059f0:	fb95 f5f6 	sdiv	r5, r5, r6
		newValue += fadeLevel;
 80059f4:	1943      	adds	r3, r0, r5
	}
	
	newValue *= value;
 80059f6:	9a0d      	ldr	r2, [sp, #52]	@ 0x34
 80059f8:	fb02 f303 	mul.w	r3, r2, r3
	newValue /= 255;
 80059fc:	f248 0081 	movw	r0, #32897	@ 0x8081
 8005a00:	f2c8 0080 	movt	r0, #32896	@ 0x8080
 8005a04:	fb80 2003 	smull	r2, r0, r0, r3
 8005a08:	4418      	add	r0, r3
 8005a0a:	17db      	asrs	r3, r3, #31
	return newValue;
}
 8005a0c:	ebc3 10e0 	rsb	r0, r3, r0, asr #7
 8005a10:	e8bd 4070 	ldmia.w	sp!, {r4, r5, r6, lr}
 8005a14:	b004      	add	sp, #16
 8005a16:	4770      	bx	lr
	int32_t newValue = magnitude;
 8005a18:	462b      	mov	r3, r5
 8005a1a:	e7e2      	b.n	80059e2 <ApplyEnvelope+0x50>

08005a1c <ApplyDirection>:

void ApplyDirection(TEffectState effect, int32_t force, int32_t* axes)
{
 8005a1c:	b084      	sub	sp, #16
 8005a1e:	e92d 41f0 	stmdb	sp!, {r4, r5, r6, r7, r8, lr}
 8005a22:	ac06      	add	r4, sp, #24
 8005a24:	e884 000f 	stmia.w	r4, {r0, r1, r2, r3}
 8005a28:	9d10      	ldr	r5, [sp, #64]	@ 0x40
	float directionX = effect.directionX;
 8005a2a:	f89d 0020 	ldrb.w	r0, [sp, #32]
 8005a2e:	f7fa fc43 	bl	80002b8 <__aeabi_ui2f>
 8005a32:	4604      	mov	r4, r0
	float directionY = effect.directionY;
 8005a34:	f89d 0021 	ldrb.w	r0, [sp, #33]	@ 0x21
 8005a38:	f7fa fc3e 	bl	80002b8 <__aeabi_ui2f>
	if (effect.enableAxis == DIRECTION_ENABLE)
 8005a3c:	f89d 701f 	ldrb.w	r7, [sp, #31]
 8005a40:	2f04      	cmp	r7, #4
 8005a42:	d03b      	beq.n	8005abc <ApplyDirection+0xa0>
 8005a44:	4606      	mov	r6, r0
		axes[0] += (int32_t)(FfbCos(angle) * fForce);
		axes[1] += (int32_t)(FfbSin(angle) * fForce);
	}
	else
	{
		if (effect.enableAxis & X_AXIS_ENABLE)
 8005a46:	f017 0f01 	tst.w	r7, #1
 8005a4a:	d019      	beq.n	8005a80 <ApplyDirection+0x64>
		{
			float angle = (directionX * 2) * DEG_TO_RAD;
 8005a4c:	4621      	mov	r1, r4
 8005a4e:	4620      	mov	r0, r4
 8005a50:	f7fa fb82 	bl	8000158 <__addsf3>
 8005a54:	f64f 2135 	movw	r1, #64053	@ 0xfa35
 8005a58:	f6c3 418e 	movt	r1, #15502	@ 0x3c8e
 8005a5c:	f7fa fc84 	bl	8000368 <__aeabi_fmul>
 8005a60:	4680      	mov	r8, r0
	  	float fForce = force;
 8005a62:	980f      	ldr	r0, [sp, #60]	@ 0x3c
 8005a64:	f7fa fc2c 	bl	80002c0 <__aeabi_i2f>
 8005a68:	4604      	mov	r4, r0
			axes[0] += (int32_t)(FfbCos(angle) * fForce);
 8005a6a:	4640      	mov	r0, r8
 8005a6c:	f7ff ff7e 	bl	800596c <FfbCos>
 8005a70:	4621      	mov	r1, r4
 8005a72:	f7fa fc79 	bl	8000368 <__aeabi_fmul>
 8005a76:	f7fa fe3d 	bl	80006f4 <__aeabi_f2iz>
 8005a7a:	682b      	ldr	r3, [r5, #0]
 8005a7c:	4403      	add	r3, r0
 8005a7e:	602b      	str	r3, [r5, #0]
		}
		
		if (effect.enableAxis & Y_AXIS_ENABLE)
 8005a80:	f017 0f02 	tst.w	r7, #2
 8005a84:	d03f      	beq.n	8005b06 <ApplyDirection+0xea>
		{
			float angle = (directionY * 2) * DEG_TO_RAD;
 8005a86:	4631      	mov	r1, r6
 8005a88:	4630      	mov	r0, r6
 8005a8a:	f7fa fb65 	bl	8000158 <__addsf3>
 8005a8e:	f64f 2135 	movw	r1, #64053	@ 0xfa35
 8005a92:	f6c3 418e 	movt	r1, #15502	@ 0x3c8e
 8005a96:	f7fa fc67 	bl	8000368 <__aeabi_fmul>
 8005a9a:	4606      	mov	r6, r0
	  	float fForce = force;
 8005a9c:	980f      	ldr	r0, [sp, #60]	@ 0x3c
 8005a9e:	f7fa fc0f 	bl	80002c0 <__aeabi_i2f>
 8005aa2:	4604      	mov	r4, r0
			axes[1] += (int32_t)(FfbSin(angle) * fForce);
 8005aa4:	4630      	mov	r0, r6
 8005aa6:	f7ff ff65 	bl	8005974 <FfbSin>
 8005aaa:	4621      	mov	r1, r4
 8005aac:	f7fa fc5c 	bl	8000368 <__aeabi_fmul>
 8005ab0:	f7fa fe20 	bl	80006f4 <__aeabi_f2iz>
 8005ab4:	686b      	ldr	r3, [r5, #4]
 8005ab6:	4403      	add	r3, r0
 8005ab8:	606b      	str	r3, [r5, #4]
		}
	}
}
 8005aba:	e024      	b.n	8005b06 <ApplyDirection+0xea>
		float angle = (directionX * 2) * DEG_TO_RAD;
 8005abc:	4621      	mov	r1, r4
 8005abe:	4620      	mov	r0, r4
 8005ac0:	f7fa fb4a 	bl	8000158 <__addsf3>
 8005ac4:	f64f 2135 	movw	r1, #64053	@ 0xfa35
 8005ac8:	f6c3 418e 	movt	r1, #15502	@ 0x3c8e
 8005acc:	f7fa fc4c 	bl	8000368 <__aeabi_fmul>
 8005ad0:	4606      	mov	r6, r0
		float fForce = force;
 8005ad2:	980f      	ldr	r0, [sp, #60]	@ 0x3c
 8005ad4:	f7fa fbf4 	bl	80002c0 <__aeabi_i2f>
 8005ad8:	4604      	mov	r4, r0
		axes[0] += (int32_t)(FfbCos(angle) * fForce);
 8005ada:	4630      	mov	r0, r6
 8005adc:	f7ff ff46 	bl	800596c <FfbCos>
 8005ae0:	4621      	mov	r1, r4
 8005ae2:	f7fa fc41 	bl	8000368 <__aeabi_fmul>
 8005ae6:	f7fa fe05 	bl	80006f4 <__aeabi_f2iz>
 8005aea:	682b      	ldr	r3, [r5, #0]
 8005aec:	4403      	add	r3, r0
 8005aee:	602b      	str	r3, [r5, #0]
		axes[1] += (int32_t)(FfbSin(angle) * fForce);
 8005af0:	4630      	mov	r0, r6
 8005af2:	f7ff ff3f 	bl	8005974 <FfbSin>
 8005af6:	4621      	mov	r1, r4
 8005af8:	f7fa fc36 	bl	8000368 <__aeabi_fmul>
 8005afc:	f7fa fdfa 	bl	80006f4 <__aeabi_f2iz>
 8005b00:	686b      	ldr	r3, [r5, #4]
 8005b02:	4403      	add	r3, r0
 8005b04:	606b      	str	r3, [r5, #4]
}
 8005b06:	e8bd 41f0 	ldmia.w	sp!, {r4, r5, r6, r7, r8, lr}
 8005b0a:	b004      	add	sp, #16
 8005b0c:	4770      	bx	lr

08005b0e <CalcCondition>:

void CalcCondition(TEffectState effect, int32_t * outValue, int32_t* inValue)
{
 8005b0e:	b084      	sub	sp, #16
 8005b10:	e92d 4ff0 	stmdb	sp!, {r4, r5, r6, r7, r8, r9, sl, fp, lr}
 8005b14:	b087      	sub	sp, #28
 8005b16:	ac10      	add	r4, sp, #64	@ 0x40
 8005b18:	e884 000f 	stmia.w	r4, {r0, r1, r2, r3}
 8005b1c:	9c1a      	ldr	r4, [sp, #104]	@ 0x68
	float value[2] = {inValue[0],inValue[1]};
 8005b1e:	6820      	ldr	r0, [r4, #0]
 8005b20:	f7fa fbce 	bl	80002c0 <__aeabi_i2f>
 8005b24:	9004      	str	r0, [sp, #16]
 8005b26:	6860      	ldr	r0, [r4, #4]
 8005b28:	f7fa fbca 	bl	80002c0 <__aeabi_i2f>
 8005b2c:	9005      	str	r0, [sp, #20]
	if (effect.axesIdx > 1)
 8005b2e:	f89d 904a 	ldrb.w	r9, [sp, #74]	@ 0x4a
 8005b32:	f1b9 0f01 	cmp.w	r9, #1
 8005b36:	d972      	bls.n	8005c1e <CalcCondition+0x110>
	{
		for (int32_t i = 0; i < effect.axesIdx; i++)
 8005b38:	2400      	movs	r4, #0
 8005b3a:	e006      	b.n	8005b4a <CalcCondition+0x3c>
			float positiveCoefficient = effect.positiveCoefficient[i];
			
			if (value[i] < (cpOffset - deadBand))
			{
				float tempForce = (value[i] - (cpOffset - deadBand)) * negativeCoefficient;
				outValue[i] =(int32_t) (tempForce < negativeSaturation ? negativeSaturation : tempForce);
 8005b3c:	4628      	mov	r0, r5
 8005b3e:	f7fa fdd9 	bl	80006f4 <__aeabi_f2iz>
 8005b42:	9b19      	ldr	r3, [sp, #100]	@ 0x64
 8005b44:	f843 0024 	str.w	r0, [r3, r4, lsl #2]
		for (int32_t i = 0; i < effect.axesIdx; i++)
 8005b48:	3401      	adds	r4, #1
 8005b4a:	45a1      	cmp	r9, r4
 8005b4c:	dd67      	ble.n	8005c1e <CalcCondition+0x110>
			float deadBand = effect.deadBand[i];
 8005b4e:	f104 0340 	add.w	r3, r4, #64	@ 0x40
 8005b52:	eb0d 0703 	add.w	r7, sp, r3
 8005b56:	7d78      	ldrb	r0, [r7, #21]
 8005b58:	f7fa fbae 	bl	80002b8 <__aeabi_ui2f>
 8005b5c:	4605      	mov	r5, r0
      float cpOffset = effect.cpOffset[i];
 8005b5e:	f997 000b 	ldrsb.w	r0, [r7, #11]
 8005b62:	f7fa fbad 	bl	80002c0 <__aeabi_i2f>
 8005b66:	4606      	mov	r6, r0
			float negativeSaturation = -effect.negativeSaturation[i];
 8005b68:	7cf8      	ldrb	r0, [r7, #19]
 8005b6a:	4240      	negs	r0, r0
 8005b6c:	f7fa fba8 	bl	80002c0 <__aeabi_i2f>
 8005b70:	4680      	mov	r8, r0
			float positiveSaturation = effect.positiveSaturation[i];
 8005b72:	f897 b011 	ldrb.w	fp, [r7, #17]
 8005b76:	4658      	mov	r0, fp
 8005b78:	f7fa fb9e 	bl	80002b8 <__aeabi_ui2f>
 8005b7c:	9002      	str	r0, [sp, #8]
			float negativeCoefficient = effect.negativeCoefficient[i];
 8005b7e:	f997 000f 	ldrsb.w	r0, [r7, #15]
 8005b82:	f7fa fb9d 	bl	80002c0 <__aeabi_i2f>
 8005b86:	9001      	str	r0, [sp, #4]
			float positiveCoefficient = effect.positiveCoefficient[i];
 8005b88:	f997 000d 	ldrsb.w	r0, [r7, #13]
 8005b8c:	f7fa fb98 	bl	80002c0 <__aeabi_i2f>
 8005b90:	9003      	str	r0, [sp, #12]
			if (value[i] < (cpOffset - deadBand))
 8005b92:	ab06      	add	r3, sp, #24
 8005b94:	eb03 0384 	add.w	r3, r3, r4, lsl #2
 8005b98:	f853 ac08 	ldr.w	sl, [r3, #-8]
 8005b9c:	4629      	mov	r1, r5
 8005b9e:	4630      	mov	r0, r6
 8005ba0:	f7fa fad8 	bl	8000154 <__aeabi_fsub>
 8005ba4:	4607      	mov	r7, r0
 8005ba6:	4601      	mov	r1, r0
 8005ba8:	4650      	mov	r0, sl
 8005baa:	f7fa fd7b 	bl	80006a4 <__aeabi_fcmplt>
 8005bae:	b188      	cbz	r0, 8005bd4 <CalcCondition+0xc6>
				float tempForce = (value[i] - (cpOffset - deadBand)) * negativeCoefficient;
 8005bb0:	4639      	mov	r1, r7
 8005bb2:	4650      	mov	r0, sl
 8005bb4:	f7fa face 	bl	8000154 <__aeabi_fsub>
 8005bb8:	9901      	ldr	r1, [sp, #4]
 8005bba:	f7fa fbd5 	bl	8000368 <__aeabi_fmul>
 8005bbe:	4605      	mov	r5, r0
				outValue[i] =(int32_t) (tempForce < negativeSaturation ? negativeSaturation : tempForce);
 8005bc0:	4601      	mov	r1, r0
 8005bc2:	4640      	mov	r0, r8
 8005bc4:	f7fa fd8c 	bl	80006e0 <__aeabi_fcmpgt>
 8005bc8:	2800      	cmp	r0, #0
 8005bca:	d0b7      	beq.n	8005b3c <CalcCondition+0x2e>
 8005bcc:	4640      	mov	r0, r8
 8005bce:	f7fa fd91 	bl	80006f4 <__aeabi_f2iz>
 8005bd2:	e7b6      	b.n	8005b42 <CalcCondition+0x34>
			}
			else if (value[i] > (cpOffset + deadBand))
 8005bd4:	4631      	mov	r1, r6
 8005bd6:	4628      	mov	r0, r5
 8005bd8:	f7fa fabe 	bl	8000158 <__addsf3>
 8005bdc:	4605      	mov	r5, r0
 8005bde:	4601      	mov	r1, r0
 8005be0:	4650      	mov	r0, sl
 8005be2:	f7fa fd7d 	bl	80006e0 <__aeabi_fcmpgt>
 8005be6:	b1a8      	cbz	r0, 8005c14 <CalcCondition+0x106>
			{
				float tempForce = (value[i]-(cpOffset + deadBand)) * positiveCoefficient;
 8005be8:	4629      	mov	r1, r5
 8005bea:	4650      	mov	r0, sl
 8005bec:	f7fa fab2 	bl	8000154 <__aeabi_fsub>
 8005bf0:	9903      	ldr	r1, [sp, #12]
 8005bf2:	f7fa fbb9 	bl	8000368 <__aeabi_fmul>
 8005bf6:	4605      	mov	r5, r0
				outValue[i] = (int32_t)(tempForce > positiveSaturation ? positiveSaturation : tempForce);
 8005bf8:	4601      	mov	r1, r0
 8005bfa:	9802      	ldr	r0, [sp, #8]
 8005bfc:	f7fa fd52 	bl	80006a4 <__aeabi_fcmplt>
 8005c00:	b120      	cbz	r0, 8005c0c <CalcCondition+0xfe>
 8005c02:	4658      	mov	r0, fp
 8005c04:	9b19      	ldr	r3, [sp, #100]	@ 0x64
 8005c06:	f843 0024 	str.w	r0, [r3, r4, lsl #2]
 8005c0a:	e79d      	b.n	8005b48 <CalcCondition+0x3a>
 8005c0c:	4628      	mov	r0, r5
 8005c0e:	f7fa fd71 	bl	80006f4 <__aeabi_f2iz>
 8005c12:	e7f7      	b.n	8005c04 <CalcCondition+0xf6>
			} 
			else outValue[i]=0;
 8005c14:	2300      	movs	r3, #0
 8005c16:	9a19      	ldr	r2, [sp, #100]	@ 0x64
 8005c18:	f842 3024 	str.w	r3, [r2, r4, lsl #2]
 8005c1c:	e794      	b.n	8005b48 <CalcCondition+0x3a>
		}
	}
	if (effect.axesIdx == 1)
 8005c1e:	f1b9 0f01 	cmp.w	r9, #1
 8005c22:	d004      	beq.n	8005c2e <CalcCondition+0x120>
			}
			else outValue[i] = 0;
		}
	}

}
 8005c24:	b007      	add	sp, #28
 8005c26:	e8bd 4ff0 	ldmia.w	sp!, {r4, r5, r6, r7, r8, r9, sl, fp, lr}
 8005c2a:	b004      	add	sp, #16
 8005c2c:	4770      	bx	lr
		float deadBand = effect.deadBand[0];
 8005c2e:	f89d 0055 	ldrb.w	r0, [sp, #85]	@ 0x55
 8005c32:	f7fa fb41 	bl	80002b8 <__aeabi_ui2f>
 8005c36:	4680      	mov	r8, r0
    float cpOffset = effect.cpOffset[0];
 8005c38:	f99d 004b 	ldrsb.w	r0, [sp, #75]	@ 0x4b
 8005c3c:	f7fa fb40 	bl	80002c0 <__aeabi_i2f>
 8005c40:	4607      	mov	r7, r0
		float negativeSaturation = -effect.negativeSaturation[0];
 8005c42:	f89d 0053 	ldrb.w	r0, [sp, #83]	@ 0x53
 8005c46:	4240      	negs	r0, r0
 8005c48:	f7fa fb3a 	bl	80002c0 <__aeabi_i2f>
 8005c4c:	4682      	mov	sl, r0
		float positiveSaturation = effect.positiveSaturation[0];
 8005c4e:	f89d 3051 	ldrb.w	r3, [sp, #81]	@ 0x51
 8005c52:	9303      	str	r3, [sp, #12]
 8005c54:	4618      	mov	r0, r3
 8005c56:	f7fa fb2f 	bl	80002b8 <__aeabi_ui2f>
 8005c5a:	9001      	str	r0, [sp, #4]
		float negativeCoefficient = effect.negativeCoefficient[0];
 8005c5c:	f99d 004f 	ldrsb.w	r0, [sp, #79]	@ 0x4f
 8005c60:	f7fa fb2e 	bl	80002c0 <__aeabi_i2f>
 8005c64:	4683      	mov	fp, r0
		float positiveCoefficient = effect.positiveCoefficient[0];
 8005c66:	f99d 004d 	ldrsb.w	r0, [sp, #77]	@ 0x4d
 8005c6a:	f7fa fb29 	bl	80002c0 <__aeabi_i2f>
 8005c6e:	9002      	str	r0, [sp, #8]
		for (int32_t i = 0; i < effect.axesIdx; i++)
 8005c70:	2400      	movs	r4, #0
 8005c72:	e006      	b.n	8005c82 <CalcCondition+0x174>
				outValue[i] = (int32_t)(tempForce < negativeSaturation ? negativeSaturation : tempForce);
 8005c74:	4628      	mov	r0, r5
 8005c76:	f7fa fd3d 	bl	80006f4 <__aeabi_f2iz>
 8005c7a:	9b19      	ldr	r3, [sp, #100]	@ 0x64
 8005c7c:	f843 0024 	str.w	r0, [r3, r4, lsl #2]
		for (int32_t i = 0; i < effect.axesIdx; i++)
 8005c80:	3401      	adds	r4, #1
 8005c82:	45a1      	cmp	r9, r4
 8005c84:	ddce      	ble.n	8005c24 <CalcCondition+0x116>
			if (value[i] < (cpOffset - deadBand))
 8005c86:	ab06      	add	r3, sp, #24
 8005c88:	eb03 0384 	add.w	r3, r3, r4, lsl #2
 8005c8c:	f853 6c08 	ldr.w	r6, [r3, #-8]
 8005c90:	4641      	mov	r1, r8
 8005c92:	4638      	mov	r0, r7
 8005c94:	f7fa fa5e 	bl	8000154 <__aeabi_fsub>
 8005c98:	4605      	mov	r5, r0
 8005c9a:	4601      	mov	r1, r0
 8005c9c:	4630      	mov	r0, r6
 8005c9e:	f7fa fd01 	bl	80006a4 <__aeabi_fcmplt>
 8005ca2:	b188      	cbz	r0, 8005cc8 <CalcCondition+0x1ba>
				tempForce = ((cpOffset - deadBand) - value[i]) * negativeCoefficient;																	  
 8005ca4:	4631      	mov	r1, r6
 8005ca6:	4628      	mov	r0, r5
 8005ca8:	f7fa fa54 	bl	8000154 <__aeabi_fsub>
 8005cac:	4659      	mov	r1, fp
 8005cae:	f7fa fb5b 	bl	8000368 <__aeabi_fmul>
 8005cb2:	4605      	mov	r5, r0
				outValue[i] = (int32_t)(tempForce < negativeSaturation ? negativeSaturation : tempForce);
 8005cb4:	4601      	mov	r1, r0
 8005cb6:	4650      	mov	r0, sl
 8005cb8:	f7fa fd12 	bl	80006e0 <__aeabi_fcmpgt>
 8005cbc:	2800      	cmp	r0, #0
 8005cbe:	d0d9      	beq.n	8005c74 <CalcCondition+0x166>
 8005cc0:	4650      	mov	r0, sl
 8005cc2:	f7fa fd17 	bl	80006f4 <__aeabi_f2iz>
 8005cc6:	e7d8      	b.n	8005c7a <CalcCondition+0x16c>
			else if (value[i] > (cpOffset + deadBand))
 8005cc8:	4639      	mov	r1, r7
 8005cca:	4640      	mov	r0, r8
 8005ccc:	f7fa fa44 	bl	8000158 <__addsf3>
 8005cd0:	4605      	mov	r5, r0
 8005cd2:	4601      	mov	r1, r0
 8005cd4:	4630      	mov	r0, r6
 8005cd6:	f7fa fd03 	bl	80006e0 <__aeabi_fcmpgt>
 8005cda:	b1a8      	cbz	r0, 8005d08 <CalcCondition+0x1fa>
				tempForce = (value[i]-(cpOffset + deadBand)) * positiveCoefficient;
 8005cdc:	4629      	mov	r1, r5
 8005cde:	4630      	mov	r0, r6
 8005ce0:	f7fa fa38 	bl	8000154 <__aeabi_fsub>
 8005ce4:	9902      	ldr	r1, [sp, #8]
 8005ce6:	f7fa fb3f 	bl	8000368 <__aeabi_fmul>
 8005cea:	4605      	mov	r5, r0
				outValue[i] = (int32_t)(tempForce > positiveSaturation ? positiveSaturation : tempForce);
 8005cec:	4601      	mov	r1, r0
 8005cee:	9801      	ldr	r0, [sp, #4]
 8005cf0:	f7fa fcd8 	bl	80006a4 <__aeabi_fcmplt>
 8005cf4:	b120      	cbz	r0, 8005d00 <CalcCondition+0x1f2>
 8005cf6:	9803      	ldr	r0, [sp, #12]
 8005cf8:	9b19      	ldr	r3, [sp, #100]	@ 0x64
 8005cfa:	f843 0024 	str.w	r0, [r3, r4, lsl #2]
 8005cfe:	e7bf      	b.n	8005c80 <CalcCondition+0x172>
 8005d00:	4628      	mov	r0, r5
 8005d02:	f7fa fcf7 	bl	80006f4 <__aeabi_f2iz>
 8005d06:	e7f7      	b.n	8005cf8 <CalcCondition+0x1ea>
			else outValue[i] = 0;
 8005d08:	2300      	movs	r3, #0
 8005d0a:	9a19      	ldr	r2, [sp, #100]	@ 0x64
 8005d0c:	f842 3024 	str.w	r3, [r2, r4, lsl #2]
 8005d10:	e7b6      	b.n	8005c80 <CalcCondition+0x172>

08005d12 <USBD_CUSTOM_HID_GetFSCfgDesc>:
  * @param  length : pointer data length
  * @retval pointer to descriptor buffer
  */
static uint8_t  *USBD_CUSTOM_HID_GetFSCfgDesc(uint16_t *length)
{
  *length = sizeof(USBD_CUSTOM_HID_CfgFSDesc);
 8005d12:	2329      	movs	r3, #41	@ 0x29
 8005d14:	8003      	strh	r3, [r0, #0]
  return USBD_CUSTOM_HID_CfgFSDesc;
}
 8005d16:	f240 0080 	movw	r0, #128	@ 0x80
 8005d1a:	f2c2 0000 	movt	r0, #8192	@ 0x2000
 8005d1e:	4770      	bx	lr

08005d20 <USBD_CUSTOM_HID_GetHSCfgDesc>:
  * @param  length : pointer data length
  * @retval pointer to descriptor buffer
  */
static uint8_t  *USBD_CUSTOM_HID_GetHSCfgDesc(uint16_t *length)
{
  *length = sizeof(USBD_CUSTOM_HID_CfgHSDesc);
 8005d20:	2329      	movs	r3, #41	@ 0x29
 8005d22:	8003      	strh	r3, [r0, #0]
  return USBD_CUSTOM_HID_CfgHSDesc;
}
 8005d24:	f240 0054 	movw	r0, #84	@ 0x54
 8005d28:	f2c2 0000 	movt	r0, #8192	@ 0x2000
 8005d2c:	4770      	bx	lr

08005d2e <USBD_CUSTOM_HID_GetOtherSpeedCfgDesc>:
  * @param  length : pointer data length
  * @retval pointer to descriptor buffer
  */
static uint8_t  *USBD_CUSTOM_HID_GetOtherSpeedCfgDesc(uint16_t *length)
{
  *length = sizeof(USBD_CUSTOM_HID_OtherSpeedCfgDesc);
 8005d2e:	2329      	movs	r3, #41	@ 0x29
 8005d30:	8003      	strh	r3, [r0, #0]
  return USBD_CUSTOM_HID_OtherSpeedCfgDesc;
}
 8005d32:	f240 0028 	movw	r0, #40	@ 0x28
 8005d36:	f2c2 0000 	movt	r0, #8192	@ 0x2000
 8005d3a:	4770      	bx	lr

08005d3c <USBD_CUSTOM_HID_DataIn>:
static uint8_t  USBD_CUSTOM_HID_DataIn(USBD_HandleTypeDef *pdev,
                                       uint8_t epnum)
{
  /* Ensure that the FIFO is empty before a new transfer, this condition could
  be caused by  a new transfer before the end of the previous transfer */
  ((USBD_CUSTOM_HID_HandleTypeDef *)pdev->pClassData)->state = CUSTOM_HID_IDLE;
 8005d3c:	f8d0 32b8 	ldr.w	r3, [r0, #696]	@ 0x2b8
 8005d40:	2000      	movs	r0, #0
 8005d42:	f883 0024 	strb.w	r0, [r3, #36]	@ 0x24

  return USBD_OK;
}
 8005d46:	4770      	bx	lr

08005d48 <USBD_CUSTOM_HID_EP0_RxReady>:
  *         Handles control request data.
  * @param  pdev: device instance
  * @retval status
  */
static uint8_t USBD_CUSTOM_HID_EP0_RxReady(USBD_HandleTypeDef *pdev)
{
 8005d48:	b510      	push	{r4, lr}
  USBD_CUSTOM_HID_HandleTypeDef     *hhid = (USBD_CUSTOM_HID_HandleTypeDef *)pdev->pClassData;
 8005d4a:	f8d0 42b8 	ldr.w	r4, [r0, #696]	@ 0x2b8

  if (hhid->IsReportAvailable == 1U)
 8005d4e:	6a23      	ldr	r3, [r4, #32]
 8005d50:	2b01      	cmp	r3, #1
 8005d52:	d001      	beq.n	8005d58 <USBD_CUSTOM_HID_EP0_RxReady+0x10>
                                                              hhid->Report_buf[1]);
    hhid->IsReportAvailable = 0U;
  }

  return USBD_OK;
}
 8005d54:	2000      	movs	r0, #0
 8005d56:	bd10      	pop	{r4, pc}
    ((USBD_CUSTOM_HID_ItfTypeDef *)pdev->pUserData)->OutEvent(hhid->Report_buf[0],
 8005d58:	f8d0 32bc 	ldr.w	r3, [r0, #700]	@ 0x2bc
 8005d5c:	68db      	ldr	r3, [r3, #12]
 8005d5e:	7861      	ldrb	r1, [r4, #1]
 8005d60:	7820      	ldrb	r0, [r4, #0]
 8005d62:	4798      	blx	r3
    hhid->IsReportAvailable = 0U;
 8005d64:	2300      	movs	r3, #0
 8005d66:	6223      	str	r3, [r4, #32]
 8005d68:	e7f4      	b.n	8005d54 <USBD_CUSTOM_HID_EP0_RxReady+0xc>

08005d6a <USBD_CUSTOM_HID_GetDeviceQualifierDesc>:
* @param  length : pointer data length
* @retval pointer to descriptor buffer
*/
static uint8_t  *USBD_CUSTOM_HID_GetDeviceQualifierDesc(uint16_t *length)
{
  *length = sizeof(USBD_CUSTOM_HID_DeviceQualifierDesc);
 8005d6a:	230a      	movs	r3, #10
 8005d6c:	8003      	strh	r3, [r0, #0]
  return USBD_CUSTOM_HID_DeviceQualifierDesc;
}
 8005d6e:	f240 0010 	movw	r0, #16
 8005d72:	f2c2 0000 	movt	r0, #8192	@ 0x2000
 8005d76:	4770      	bx	lr

08005d78 <USBD_CUSTOM_HID_DataOut>:
{
 8005d78:	b538      	push	{r3, r4, r5, lr}
 8005d7a:	4604      	mov	r4, r0
  USBD_CUSTOM_HID_HandleTypeDef     *hhid = (USBD_CUSTOM_HID_HandleTypeDef *)pdev->pClassData;
 8005d7c:	f8d0 52b8 	ldr.w	r5, [r0, #696]	@ 0x2b8
  ((USBD_CUSTOM_HID_ItfTypeDef *)pdev->pUserData)->OutEvent(hhid->Report_buf[0],
 8005d80:	f8d0 32bc 	ldr.w	r3, [r0, #700]	@ 0x2bc
 8005d84:	68db      	ldr	r3, [r3, #12]
 8005d86:	7869      	ldrb	r1, [r5, #1]
 8005d88:	7828      	ldrb	r0, [r5, #0]
 8005d8a:	4798      	blx	r3
  USBD_LL_PrepareReceive(pdev, CUSTOM_HID_EPOUT_ADDR, hhid->Report_buf,
 8005d8c:	2314      	movs	r3, #20
 8005d8e:	462a      	mov	r2, r5
 8005d90:	2101      	movs	r1, #1
 8005d92:	4620      	mov	r0, r4
 8005d94:	f000 fff5 	bl	8006d82 <USBD_LL_PrepareReceive>
}
 8005d98:	2000      	movs	r0, #0
 8005d9a:	bd38      	pop	{r3, r4, r5, pc}

08005d9c <USBD_CUSTOM_HID_Setup>:
{
 8005d9c:	e92d 41f0 	stmdb	sp!, {r4, r5, r6, r7, r8, lr}
 8005da0:	b082      	sub	sp, #8
 8005da2:	4606      	mov	r6, r0
 8005da4:	460d      	mov	r5, r1
  USBD_CUSTOM_HID_HandleTypeDef *hhid = (USBD_CUSTOM_HID_HandleTypeDef *)pdev->pClassData;
 8005da6:	f8d0 72b8 	ldr.w	r7, [r0, #696]	@ 0x2b8
  uint16_t status_info = 0U;
 8005daa:	2300      	movs	r3, #0
 8005dac:	f8ad 3006 	strh.w	r3, [sp, #6]
  switch (req->bmRequest & USB_REQ_TYPE_MASK)
 8005db0:	780c      	ldrb	r4, [r1, #0]
 8005db2:	f014 0460 	ands.w	r4, r4, #96	@ 0x60
 8005db6:	d03b      	beq.n	8005e30 <USBD_CUSTOM_HID_Setup+0x94>
 8005db8:	2c20      	cmp	r4, #32
 8005dba:	f040 8091 	bne.w	8005ee0 <USBD_CUSTOM_HID_Setup+0x144>
    	if(USB_HID_PID_CTL_PARSER(req)==1){
 8005dbe:	4608      	mov	r0, r1
 8005dc0:	f001 f8df 	bl	8006f82 <USB_HID_PID_CTL_PARSER>
 8005dc4:	2801      	cmp	r0, #1
 8005dc6:	f000 8092 	beq.w	8005eee <USBD_CUSTOM_HID_Setup+0x152>
      switch (req->bRequest)
 8005dca:	786b      	ldrb	r3, [r5, #1]
 8005dcc:	3b02      	subs	r3, #2
 8005dce:	2b09      	cmp	r3, #9
 8005dd0:	d828      	bhi.n	8005e24 <USBD_CUSTOM_HID_Setup+0x88>
 8005dd2:	e8df f003 	tbb	[pc, r3]
 8005dd6:	0916      	.short	0x0916
 8005dd8:	27272727 	.word	0x27272727
 8005ddc:	05111e27 	.word	0x05111e27
          hhid->Protocol = (uint8_t)(req->wValue);
 8005de0:	78ab      	ldrb	r3, [r5, #2]
 8005de2:	617b      	str	r3, [r7, #20]
  uint8_t ret = USBD_OK;
 8005de4:	2400      	movs	r4, #0
          break;
 8005de6:	e07e      	b.n	8005ee6 <USBD_CUSTOM_HID_Setup+0x14a>
          USBD_CtlSendData(pdev, (uint8_t *)(void *)&hhid->Protocol, 1U);
 8005de8:	2201      	movs	r2, #1
 8005dea:	f107 0114 	add.w	r1, r7, #20
 8005dee:	4630      	mov	r0, r6
 8005df0:	f000 fd7b 	bl	80068ea <USBD_CtlSendData>
  uint8_t ret = USBD_OK;
 8005df4:	2400      	movs	r4, #0
          break;
 8005df6:	e076      	b.n	8005ee6 <USBD_CUSTOM_HID_Setup+0x14a>
          hhid->IdleState = (uint8_t)(req->wValue >> 8);
 8005df8:	886b      	ldrh	r3, [r5, #2]
 8005dfa:	0a1b      	lsrs	r3, r3, #8
 8005dfc:	61bb      	str	r3, [r7, #24]
  uint8_t ret = USBD_OK;
 8005dfe:	2400      	movs	r4, #0
          break;
 8005e00:	e071      	b.n	8005ee6 <USBD_CUSTOM_HID_Setup+0x14a>
          USBD_CtlSendData(pdev, (uint8_t *)(void *)&hhid->IdleState, 1U);
 8005e02:	2201      	movs	r2, #1
 8005e04:	f107 0118 	add.w	r1, r7, #24
 8005e08:	4630      	mov	r0, r6
 8005e0a:	f000 fd6e 	bl	80068ea <USBD_CtlSendData>
  uint8_t ret = USBD_OK;
 8005e0e:	2400      	movs	r4, #0
          break;
 8005e10:	e069      	b.n	8005ee6 <USBD_CUSTOM_HID_Setup+0x14a>
          hhid->IsReportAvailable = 1U;
 8005e12:	2301      	movs	r3, #1
 8005e14:	623b      	str	r3, [r7, #32]
          USBD_CtlPrepareRx(pdev, hhid->Report_buf, req->wLength);
 8005e16:	88ea      	ldrh	r2, [r5, #6]
 8005e18:	4639      	mov	r1, r7
 8005e1a:	4630      	mov	r0, r6
 8005e1c:	f000 fd7a 	bl	8006914 <USBD_CtlPrepareRx>
  uint8_t ret = USBD_OK;
 8005e20:	2400      	movs	r4, #0
          break;
 8005e22:	e060      	b.n	8005ee6 <USBD_CUSTOM_HID_Setup+0x14a>
          USBD_CtlError(pdev, req);
 8005e24:	4629      	mov	r1, r5
 8005e26:	4630      	mov	r0, r6
 8005e28:	f000 fa4d 	bl	80062c6 <USBD_CtlError>
          ret = USBD_FAIL;
 8005e2c:	2402      	movs	r4, #2
          break;
 8005e2e:	e05a      	b.n	8005ee6 <USBD_CUSTOM_HID_Setup+0x14a>
      switch (req->bRequest)
 8005e30:	f891 8001 	ldrb.w	r8, [r1, #1]
 8005e34:	f1b8 0f0b 	cmp.w	r8, #11
 8005e38:	d84e      	bhi.n	8005ed8 <USBD_CUSTOM_HID_Setup+0x13c>
 8005e3a:	e8df f008 	tbb	[pc, r8]
 8005e3e:	4d06      	.short	0x4d06
 8005e40:	4d4d4d4d 	.word	0x4d4d4d4d
 8005e44:	4d4d4d15 	.word	0x4d4d4d15
 8005e48:	4234      	.short	0x4234
          if (pdev->dev_state == USBD_STATE_CONFIGURED)
 8005e4a:	f890 329c 	ldrb.w	r3, [r0, #668]	@ 0x29c
 8005e4e:	2b03      	cmp	r3, #3
 8005e50:	d003      	beq.n	8005e5a <USBD_CUSTOM_HID_Setup+0xbe>
            USBD_CtlError(pdev, req);
 8005e52:	f000 fa38 	bl	80062c6 <USBD_CtlError>
            ret = USBD_FAIL;
 8005e56:	2402      	movs	r4, #2
 8005e58:	e045      	b.n	8005ee6 <USBD_CUSTOM_HID_Setup+0x14a>
            USBD_CtlSendData(pdev, (uint8_t *)(void *)&status_info, 2U);
 8005e5a:	2202      	movs	r2, #2
 8005e5c:	f10d 0106 	add.w	r1, sp, #6
 8005e60:	f000 fd43 	bl	80068ea <USBD_CtlSendData>
  uint8_t ret = USBD_OK;
 8005e64:	4644      	mov	r4, r8
 8005e66:	e03e      	b.n	8005ee6 <USBD_CUSTOM_HID_Setup+0x14a>
          if (req->wValue >> 8 == CUSTOM_HID_REPORT_DESC)
 8005e68:	884b      	ldrh	r3, [r1, #2]
 8005e6a:	0a1b      	lsrs	r3, r3, #8
 8005e6c:	2b22      	cmp	r3, #34	@ 0x22
 8005e6e:	d007      	beq.n	8005e80 <USBD_CUSTOM_HID_Setup+0xe4>
            if (req->wValue >> 8 == CUSTOM_HID_DESCRIPTOR_TYPE)
 8005e70:	2b21      	cmp	r3, #33	@ 0x21
 8005e72:	d00f      	beq.n	8005e94 <USBD_CUSTOM_HID_Setup+0xf8>
  uint8_t  *pbuf = NULL;
 8005e74:	2100      	movs	r1, #0
  uint16_t len = 0U;
 8005e76:	460a      	mov	r2, r1
          USBD_CtlSendData(pdev, pbuf, len);
 8005e78:	4630      	mov	r0, r6
 8005e7a:	f000 fd36 	bl	80068ea <USBD_CtlSendData>
          break;
 8005e7e:	e032      	b.n	8005ee6 <USBD_CUSTOM_HID_Setup+0x14a>
            len = MIN(USBD_CUSTOM_HID_REPORT_DESC_SIZE, req->wLength);
 8005e80:	88ca      	ldrh	r2, [r1, #6]
 8005e82:	f240 5302 	movw	r3, #1282	@ 0x502
 8005e86:	429a      	cmp	r2, r3
 8005e88:	bf28      	it	cs
 8005e8a:	461a      	movcs	r2, r3
            pbuf = ((USBD_CUSTOM_HID_ItfTypeDef *)pdev->pUserData)->pReport;
 8005e8c:	f8d0 32bc 	ldr.w	r3, [r0, #700]	@ 0x2bc
 8005e90:	6819      	ldr	r1, [r3, #0]
 8005e92:	e7f1      	b.n	8005e78 <USBD_CUSTOM_HID_Setup+0xdc>
              len = MIN(USB_CUSTOM_HID_DESC_SIZ, req->wLength);
 8005e94:	88ca      	ldrh	r2, [r1, #6]
 8005e96:	2a09      	cmp	r2, #9
 8005e98:	bf28      	it	cs
 8005e9a:	2209      	movcs	r2, #9
              pbuf = USBD_CUSTOM_HID_Desc;
 8005e9c:	f240 011c 	movw	r1, #28
 8005ea0:	f2c2 0100 	movt	r1, #8192	@ 0x2000
 8005ea4:	e7e8      	b.n	8005e78 <USBD_CUSTOM_HID_Setup+0xdc>
          if (pdev->dev_state == USBD_STATE_CONFIGURED)
 8005ea6:	f890 329c 	ldrb.w	r3, [r0, #668]	@ 0x29c
 8005eaa:	2b03      	cmp	r3, #3
 8005eac:	d003      	beq.n	8005eb6 <USBD_CUSTOM_HID_Setup+0x11a>
            USBD_CtlError(pdev, req);
 8005eae:	f000 fa0a 	bl	80062c6 <USBD_CtlError>
            ret = USBD_FAIL;
 8005eb2:	2402      	movs	r4, #2
 8005eb4:	e017      	b.n	8005ee6 <USBD_CUSTOM_HID_Setup+0x14a>
            USBD_CtlSendData(pdev, (uint8_t *)(void *)&hhid->AltSetting, 1U);
 8005eb6:	2201      	movs	r2, #1
 8005eb8:	f107 011c 	add.w	r1, r7, #28
 8005ebc:	f000 fd15 	bl	80068ea <USBD_CtlSendData>
 8005ec0:	e011      	b.n	8005ee6 <USBD_CUSTOM_HID_Setup+0x14a>
          if (pdev->dev_state == USBD_STATE_CONFIGURED)
 8005ec2:	f890 329c 	ldrb.w	r3, [r0, #668]	@ 0x29c
 8005ec6:	2b03      	cmp	r3, #3
 8005ec8:	d102      	bne.n	8005ed0 <USBD_CUSTOM_HID_Setup+0x134>
            hhid->AltSetting = (uint8_t)(req->wValue);
 8005eca:	788b      	ldrb	r3, [r1, #2]
 8005ecc:	61fb      	str	r3, [r7, #28]
 8005ece:	e00a      	b.n	8005ee6 <USBD_CUSTOM_HID_Setup+0x14a>
            USBD_CtlError(pdev, req);
 8005ed0:	f000 f9f9 	bl	80062c6 <USBD_CtlError>
            ret = USBD_FAIL;
 8005ed4:	2402      	movs	r4, #2
 8005ed6:	e006      	b.n	8005ee6 <USBD_CUSTOM_HID_Setup+0x14a>
          USBD_CtlError(pdev, req);
 8005ed8:	f000 f9f5 	bl	80062c6 <USBD_CtlError>
          ret = USBD_FAIL;
 8005edc:	2402      	movs	r4, #2
          break;
 8005ede:	e002      	b.n	8005ee6 <USBD_CUSTOM_HID_Setup+0x14a>
      USBD_CtlError(pdev, req);
 8005ee0:	f000 f9f1 	bl	80062c6 <USBD_CtlError>
      ret = USBD_FAIL;
 8005ee4:	2402      	movs	r4, #2
}
 8005ee6:	4620      	mov	r0, r4
 8005ee8:	b002      	add	sp, #8
 8005eea:	e8bd 81f0 	ldmia.w	sp!, {r4, r5, r6, r7, r8, pc}
    		return USBD_OK;
 8005eee:	2400      	movs	r4, #0
 8005ef0:	e7f9      	b.n	8005ee6 <USBD_CUSTOM_HID_Setup+0x14a>

08005ef2 <USBD_CUSTOM_HID_DeInit>:
{
 8005ef2:	b538      	push	{r3, r4, r5, lr}
 8005ef4:	4604      	mov	r4, r0
  USBD_LL_CloseEP(pdev, CUSTOM_HID_EPIN_ADDR);
 8005ef6:	2181      	movs	r1, #129	@ 0x81
 8005ef8:	f000 ff05 	bl	8006d06 <USBD_LL_CloseEP>
  pdev->ep_in[CUSTOM_HID_EPIN_ADDR & 0xFU].is_used = 0U;
 8005efc:	2500      	movs	r5, #0
 8005efe:	62e5      	str	r5, [r4, #44]	@ 0x2c
  USBD_LL_CloseEP(pdev, CUSTOM_HID_EPOUT_ADDR);
 8005f00:	2101      	movs	r1, #1
 8005f02:	4620      	mov	r0, r4
 8005f04:	f000 feff 	bl	8006d06 <USBD_LL_CloseEP>
  pdev->ep_out[CUSTOM_HID_EPOUT_ADDR & 0xFU].is_used = 0U;
 8005f08:	f8c4 516c 	str.w	r5, [r4, #364]	@ 0x16c
  if (pdev->pClassData != NULL)
 8005f0c:	f8d4 32b8 	ldr.w	r3, [r4, #696]	@ 0x2b8
 8005f10:	b14b      	cbz	r3, 8005f26 <USBD_CUSTOM_HID_DeInit+0x34>
    ((USBD_CUSTOM_HID_ItfTypeDef *)pdev->pUserData)->DeInit();
 8005f12:	f8d4 32bc 	ldr.w	r3, [r4, #700]	@ 0x2bc
 8005f16:	689b      	ldr	r3, [r3, #8]
 8005f18:	4798      	blx	r3
    USBD_free(pdev->pClassData);
 8005f1a:	f8d4 02b8 	ldr.w	r0, [r4, #696]	@ 0x2b8
 8005f1e:	f000 ff3d 	bl	8006d9c <USBD_static_free>
    pdev->pClassData = NULL;
 8005f22:	f8c4 52b8 	str.w	r5, [r4, #696]	@ 0x2b8
}
 8005f26:	2000      	movs	r0, #0
 8005f28:	bd38      	pop	{r3, r4, r5, pc}

08005f2a <USBD_CUSTOM_HID_Init>:
{
 8005f2a:	b570      	push	{r4, r5, r6, lr}
 8005f2c:	4604      	mov	r4, r0
  USBD_LL_OpenEP(pdev, CUSTOM_HID_EPIN_ADDR, USBD_EP_TYPE_INTR,
 8005f2e:	230a      	movs	r3, #10
 8005f30:	2203      	movs	r2, #3
 8005f32:	2181      	movs	r1, #129	@ 0x81
 8005f34:	f000 fedc 	bl	8006cf0 <USBD_LL_OpenEP>
  pdev->ep_in[CUSTOM_HID_EPIN_ADDR & 0xFU].is_used = 1U;
 8005f38:	2501      	movs	r5, #1
 8005f3a:	62e5      	str	r5, [r4, #44]	@ 0x2c
  USBD_LL_OpenEP(pdev, CUSTOM_HID_EPOUT_ADDR, USBD_EP_TYPE_INTR,
 8005f3c:	2302      	movs	r3, #2
 8005f3e:	2203      	movs	r2, #3
 8005f40:	4629      	mov	r1, r5
 8005f42:	4620      	mov	r0, r4
 8005f44:	f000 fed4 	bl	8006cf0 <USBD_LL_OpenEP>
  pdev->ep_out[CUSTOM_HID_EPOUT_ADDR & 0xFU].is_used = 1U;
 8005f48:	f8c4 516c 	str.w	r5, [r4, #364]	@ 0x16c
  pdev->pClassData = USBD_malloc(sizeof(USBD_CUSTOM_HID_HandleTypeDef));
 8005f4c:	2028      	movs	r0, #40	@ 0x28
 8005f4e:	f000 ff20 	bl	8006d92 <USBD_static_malloc>
 8005f52:	f8c4 02b8 	str.w	r0, [r4, #696]	@ 0x2b8
  if (pdev->pClassData == NULL)
 8005f56:	b178      	cbz	r0, 8005f78 <USBD_CUSTOM_HID_Init+0x4e>
 8005f58:	4605      	mov	r5, r0
    hhid->state = CUSTOM_HID_IDLE;
 8005f5a:	2600      	movs	r6, #0
 8005f5c:	f880 6024 	strb.w	r6, [r0, #36]	@ 0x24
    ((USBD_CUSTOM_HID_ItfTypeDef *)pdev->pUserData)->Init();
 8005f60:	f8d4 32bc 	ldr.w	r3, [r4, #700]	@ 0x2bc
 8005f64:	685b      	ldr	r3, [r3, #4]
 8005f66:	4798      	blx	r3
    USBD_LL_PrepareReceive(pdev, CUSTOM_HID_EPOUT_ADDR, hhid->Report_buf,
 8005f68:	2314      	movs	r3, #20
 8005f6a:	462a      	mov	r2, r5
 8005f6c:	2101      	movs	r1, #1
 8005f6e:	4620      	mov	r0, r4
 8005f70:	f000 ff07 	bl	8006d82 <USBD_LL_PrepareReceive>
  uint8_t ret = 0U;
 8005f74:	4630      	mov	r0, r6
}
 8005f76:	bd70      	pop	{r4, r5, r6, pc}
    ret = 1U;
 8005f78:	2001      	movs	r0, #1
 8005f7a:	e7fc      	b.n	8005f76 <USBD_CUSTOM_HID_Init+0x4c>

08005f7c <USBD_CUSTOM_HID_SendReport>:
{
 8005f7c:	b538      	push	{r3, r4, r5, lr}
  USBD_CUSTOM_HID_HandleTypeDef     *hhid = (USBD_CUSTOM_HID_HandleTypeDef *)pdev->pClassData;
 8005f7e:	f8d0 52b8 	ldr.w	r5, [r0, #696]	@ 0x2b8
  if (pdev->dev_state == USBD_STATE_CONFIGURED)
 8005f82:	f890 329c 	ldrb.w	r3, [r0, #668]	@ 0x29c
 8005f86:	2b03      	cmp	r3, #3
 8005f88:	d002      	beq.n	8005f90 <USBD_CUSTOM_HID_SendReport+0x14>
  return USBD_OK;
 8005f8a:	2400      	movs	r4, #0
}
 8005f8c:	4620      	mov	r0, r4
 8005f8e:	bd38      	pop	{r3, r4, r5, pc}
    if (hhid->state == CUSTOM_HID_IDLE)
 8005f90:	f895 4024 	ldrb.w	r4, [r5, #36]	@ 0x24
 8005f94:	b10c      	cbz	r4, 8005f9a <USBD_CUSTOM_HID_SendReport+0x1e>
      return USBD_BUSY;
 8005f96:	2401      	movs	r4, #1
 8005f98:	e7f8      	b.n	8005f8c <USBD_CUSTOM_HID_SendReport+0x10>
      hhid->state = CUSTOM_HID_BUSY;
 8005f9a:	2301      	movs	r3, #1
 8005f9c:	f885 3024 	strb.w	r3, [r5, #36]	@ 0x24
      USBD_LL_Transmit(pdev, CUSTOM_HID_EPIN_ADDR, report, len);
 8005fa0:	4613      	mov	r3, r2
 8005fa2:	460a      	mov	r2, r1
 8005fa4:	2181      	movs	r1, #129	@ 0x81
 8005fa6:	f000 fee4 	bl	8006d72 <USBD_LL_Transmit>
 8005faa:	e7ef      	b.n	8005f8c <USBD_CUSTOM_HID_SendReport+0x10>

08005fac <USBD_CUSTOM_HID_RegisterInterface>:
uint8_t  USBD_CUSTOM_HID_RegisterInterface(USBD_HandleTypeDef   *pdev,
                                           USBD_CUSTOM_HID_ItfTypeDef *fops)
{
  uint8_t  ret = USBD_FAIL;

  if (fops != NULL)
 8005fac:	b119      	cbz	r1, 8005fb6 <USBD_CUSTOM_HID_RegisterInterface+0xa>
  {
    pdev->pUserData = fops;
 8005fae:	f8c0 12bc 	str.w	r1, [r0, #700]	@ 0x2bc
    ret = USBD_OK;
 8005fb2:	2000      	movs	r0, #0
 8005fb4:	4770      	bx	lr
  uint8_t  ret = USBD_FAIL;
 8005fb6:	2002      	movs	r0, #2
  }

  return ret;
}
 8005fb8:	4770      	bx	lr

08005fba <USBD_Init>:
*/
USBD_StatusTypeDef USBD_Init(USBD_HandleTypeDef *pdev,
                             USBD_DescriptorsTypeDef *pdesc, uint8_t id)
{
  /* Check whether the USB Host handle is valid */
  if (pdev == NULL)
 8005fba:	b198      	cbz	r0, 8005fe4 <USBD_Init+0x2a>
{
 8005fbc:	b508      	push	{r3, lr}
 8005fbe:	4603      	mov	r3, r0
#endif
    return USBD_FAIL;
  }

  /* Unlink previous class*/
  if (pdev->pClass != NULL)
 8005fc0:	f8d0 02b4 	ldr.w	r0, [r0, #692]	@ 0x2b4
 8005fc4:	b110      	cbz	r0, 8005fcc <USBD_Init+0x12>
  {
    pdev->pClass = NULL;
 8005fc6:	2000      	movs	r0, #0
 8005fc8:	f8c3 02b4 	str.w	r0, [r3, #692]	@ 0x2b4
  }

  /* Assign USBD Descriptors */
  if (pdesc != NULL)
 8005fcc:	b109      	cbz	r1, 8005fd2 <USBD_Init+0x18>
  {
    pdev->pDesc = pdesc;
 8005fce:	f8c3 12b0 	str.w	r1, [r3, #688]	@ 0x2b0
  }

  /* Set Device initial State */
  pdev->dev_state = USBD_STATE_DEFAULT;
 8005fd2:	2101      	movs	r1, #1
 8005fd4:	f883 129c 	strb.w	r1, [r3, #668]	@ 0x29c
  pdev->id = id;
 8005fd8:	701a      	strb	r2, [r3, #0]
  /* Initialize low level driver */
  USBD_LL_Init(pdev);
 8005fda:	4618      	mov	r0, r3
 8005fdc:	f000 fe45 	bl	8006c6a <USBD_LL_Init>

  return USBD_OK;
 8005fe0:	2000      	movs	r0, #0
}
 8005fe2:	bd08      	pop	{r3, pc}
    return USBD_FAIL;
 8005fe4:	2002      	movs	r0, #2
}
 8005fe6:	4770      	bx	lr

08005fe8 <USBD_RegisterClass>:
  * @retval USBD Status
  */
USBD_StatusTypeDef  USBD_RegisterClass(USBD_HandleTypeDef *pdev, USBD_ClassTypeDef *pclass)
{
  USBD_StatusTypeDef status = USBD_OK;
  if (pclass != NULL)
 8005fe8:	b119      	cbz	r1, 8005ff2 <USBD_RegisterClass+0xa>
  {
    /* link the class to the USB Device handle */
    pdev->pClass = pclass;
 8005fea:	f8c0 12b4 	str.w	r1, [r0, #692]	@ 0x2b4
    status = USBD_OK;
 8005fee:	2000      	movs	r0, #0
 8005ff0:	4770      	bx	lr
  else
  {
#if (USBD_DEBUG_LEVEL > 1U)
    USBD_ErrLog("Invalid Class handle");
#endif
    status = USBD_FAIL;
 8005ff2:	2002      	movs	r0, #2
  }

  return status;
}
 8005ff4:	4770      	bx	lr

08005ff6 <USBD_Start>:
  *         Start the USB Device Core.
  * @param  pdev: Device Handle
  * @retval USBD Status
  */
USBD_StatusTypeDef  USBD_Start(USBD_HandleTypeDef *pdev)
{
 8005ff6:	b508      	push	{r3, lr}
  /* Start the low level driver  */
  USBD_LL_Start(pdev);
 8005ff8:	f000 fe72 	bl	8006ce0 <USBD_LL_Start>

  return USBD_OK;
}
 8005ffc:	2000      	movs	r0, #0
 8005ffe:	bd08      	pop	{r3, pc}

08006000 <USBD_SetClassConfig>:
* @param  cfgidx: configuration index
* @retval status
*/

USBD_StatusTypeDef USBD_SetClassConfig(USBD_HandleTypeDef  *pdev, uint8_t cfgidx)
{
 8006000:	b508      	push	{r3, lr}
  USBD_StatusTypeDef ret = USBD_FAIL;

  if (pdev->pClass != NULL)
 8006002:	f8d0 32b4 	ldr.w	r3, [r0, #692]	@ 0x2b4
 8006006:	b12b      	cbz	r3, 8006014 <USBD_SetClassConfig+0x14>
  {
    /* Set configuration  and Start the Class*/
    if (pdev->pClass->Init(pdev, cfgidx) == 0U)
 8006008:	681b      	ldr	r3, [r3, #0]
 800600a:	4798      	blx	r3
 800600c:	b900      	cbnz	r0, 8006010 <USBD_SetClassConfig+0x10>
      ret = USBD_OK;
    }
  }

  return ret;
}
 800600e:	bd08      	pop	{r3, pc}
  USBD_StatusTypeDef ret = USBD_FAIL;
 8006010:	2002      	movs	r0, #2
 8006012:	e7fc      	b.n	800600e <USBD_SetClassConfig+0xe>
 8006014:	2002      	movs	r0, #2
 8006016:	e7fa      	b.n	800600e <USBD_SetClassConfig+0xe>

08006018 <USBD_ClrClassConfig>:
* @param  pdev: device instance
* @param  cfgidx: configuration index
* @retval status: USBD_StatusTypeDef
*/
USBD_StatusTypeDef USBD_ClrClassConfig(USBD_HandleTypeDef  *pdev, uint8_t cfgidx)
{
 8006018:	b508      	push	{r3, lr}
  /* Clear configuration  and De-initialize the Class process*/
  pdev->pClass->DeInit(pdev, cfgidx);
 800601a:	f8d0 32b4 	ldr.w	r3, [r0, #692]	@ 0x2b4
 800601e:	685b      	ldr	r3, [r3, #4]
 8006020:	4798      	blx	r3

  return USBD_OK;
}
 8006022:	2000      	movs	r0, #0
 8006024:	bd08      	pop	{r3, pc}

08006026 <USBD_LL_SetupStage>:
*         Handle the setup stage
* @param  pdev: device instance
* @retval status
*/
USBD_StatusTypeDef USBD_LL_SetupStage(USBD_HandleTypeDef *pdev, uint8_t *psetup)
{
 8006026:	b538      	push	{r3, r4, r5, lr}
 8006028:	4604      	mov	r4, r0
  USBD_ParseSetupRequest(&pdev->request, psetup);
 800602a:	f500 752a 	add.w	r5, r0, #680	@ 0x2a8
 800602e:	4628      	mov	r0, r5
 8006030:	f000 f935 	bl	800629e <USBD_ParseSetupRequest>

  pdev->ep0_state = USBD_EP0_SETUP;
 8006034:	2301      	movs	r3, #1
 8006036:	f8c4 3294 	str.w	r3, [r4, #660]	@ 0x294

  pdev->ep0_data_len = pdev->request.wLength;
 800603a:	f8b4 32ae 	ldrh.w	r3, [r4, #686]	@ 0x2ae
 800603e:	f8c4 3298 	str.w	r3, [r4, #664]	@ 0x298

  switch (pdev->request.bmRequest & 0x1FU)
 8006042:	f894 12a8 	ldrb.w	r1, [r4, #680]	@ 0x2a8
 8006046:	f001 031f 	and.w	r3, r1, #31
 800604a:	2b01      	cmp	r3, #1
 800604c:	d008      	beq.n	8006060 <USBD_LL_SetupStage+0x3a>
 800604e:	2b02      	cmp	r3, #2
 8006050:	d00b      	beq.n	800606a <USBD_LL_SetupStage+0x44>
 8006052:	b97b      	cbnz	r3, 8006074 <USBD_LL_SetupStage+0x4e>
  {
    case USB_REQ_RECIPIENT_DEVICE:
      USBD_StdDevReq(pdev, &pdev->request);
 8006054:	4629      	mov	r1, r5
 8006056:	4620      	mov	r0, r4
 8006058:	f000 fad5 	bl	8006606 <USBD_StdDevReq>
      USBD_LL_StallEP(pdev, (pdev->request.bmRequest & 0x80U));
      break;
  }

  return USBD_OK;
}
 800605c:	2000      	movs	r0, #0
 800605e:	bd38      	pop	{r3, r4, r5, pc}
      USBD_StdItfReq(pdev, &pdev->request);
 8006060:	4629      	mov	r1, r5
 8006062:	4620      	mov	r0, r4
 8006064:	f000 fb03 	bl	800666e <USBD_StdItfReq>
      break;
 8006068:	e7f8      	b.n	800605c <USBD_LL_SetupStage+0x36>
      USBD_StdEPReq(pdev, &pdev->request);
 800606a:	4629      	mov	r1, r5
 800606c:	4620      	mov	r0, r4
 800606e:	f000 fb2e 	bl	80066ce <USBD_StdEPReq>
      break;
 8006072:	e7f3      	b.n	800605c <USBD_LL_SetupStage+0x36>
      USBD_LL_StallEP(pdev, (pdev->request.bmRequest & 0x80U));
 8006074:	f001 0180 	and.w	r1, r1, #128	@ 0x80
 8006078:	4620      	mov	r0, r4
 800607a:	f000 fe4c 	bl	8006d16 <USBD_LL_StallEP>
      break;
 800607e:	e7ed      	b.n	800605c <USBD_LL_SetupStage+0x36>

08006080 <USBD_LL_DataOutStage>:
* @param  epnum: endpoint index
* @retval status
*/
USBD_StatusTypeDef USBD_LL_DataOutStage(USBD_HandleTypeDef *pdev,
                                        uint8_t epnum, uint8_t *pdata)
{
 8006080:	b538      	push	{r3, r4, r5, lr}
 8006082:	4604      	mov	r4, r0
  USBD_EndpointTypeDef *pep;

  if (epnum == 0U)
 8006084:	460d      	mov	r5, r1
 8006086:	bb91      	cbnz	r1, 80060ee <USBD_LL_DataOutStage+0x6e>
 8006088:	4613      	mov	r3, r2
  {
    pep = &pdev->ep_out[0];

    if (pdev->ep0_state == USBD_EP0_DATA_OUT)
 800608a:	f8d0 2294 	ldr.w	r2, [r0, #660]	@ 0x294
 800608e:	2a03      	cmp	r2, #3
 8006090:	d003      	beq.n	800609a <USBD_LL_DataOutStage+0x1a>
        USBD_CtlSendStatus(pdev);
      }
    }
    else
    {
      if (pdev->ep0_state == USBD_EP0_STATUS_OUT)
 8006092:	2a05      	cmp	r2, #5
 8006094:	d024      	beq.n	80060e0 <USBD_LL_DataOutStage+0x60>
  {
    /* should never be in this condition */
    return USBD_FAIL;
  }

  return USBD_OK;
 8006096:	4608      	mov	r0, r1
 8006098:	e033      	b.n	8006102 <USBD_LL_DataOutStage+0x82>
      if (pep->rem_length > pep->maxpacket)
 800609a:	f8d0 1160 	ldr.w	r1, [r0, #352]	@ 0x160
 800609e:	f8d0 2164 	ldr.w	r2, [r0, #356]	@ 0x164
 80060a2:	4291      	cmp	r1, r2
 80060a4:	d90d      	bls.n	80060c2 <USBD_LL_DataOutStage+0x42>
        pep->rem_length -= pep->maxpacket;
 80060a6:	1a89      	subs	r1, r1, r2
 80060a8:	f8c0 1160 	str.w	r1, [r0, #352]	@ 0x160
        USBD_CtlContinueRx(pdev, pdata,
 80060ac:	428a      	cmp	r2, r1
 80060ae:	d906      	bls.n	80060be <USBD_LL_DataOutStage+0x3e>
 80060b0:	b28a      	uxth	r2, r1
 80060b2:	4619      	mov	r1, r3
 80060b4:	4620      	mov	r0, r4
 80060b6:	f000 fc3c 	bl	8006932 <USBD_CtlContinueRx>
  return USBD_OK;
 80060ba:	4628      	mov	r0, r5
 80060bc:	e021      	b.n	8006102 <USBD_LL_DataOutStage+0x82>
        USBD_CtlContinueRx(pdev, pdata,
 80060be:	b292      	uxth	r2, r2
 80060c0:	e7f7      	b.n	80060b2 <USBD_LL_DataOutStage+0x32>
        if ((pdev->pClass->EP0_RxReady != NULL) &&
 80060c2:	f8d0 32b4 	ldr.w	r3, [r0, #692]	@ 0x2b4
 80060c6:	691b      	ldr	r3, [r3, #16]
 80060c8:	b11b      	cbz	r3, 80060d2 <USBD_LL_DataOutStage+0x52>
            (pdev->dev_state == USBD_STATE_CONFIGURED))
 80060ca:	f890 229c 	ldrb.w	r2, [r0, #668]	@ 0x29c
        if ((pdev->pClass->EP0_RxReady != NULL) &&
 80060ce:	2a03      	cmp	r2, #3
 80060d0:	d004      	beq.n	80060dc <USBD_LL_DataOutStage+0x5c>
        USBD_CtlSendStatus(pdev);
 80060d2:	4620      	mov	r0, r4
 80060d4:	f000 fc35 	bl	8006942 <USBD_CtlSendStatus>
  return USBD_OK;
 80060d8:	4628      	mov	r0, r5
 80060da:	e012      	b.n	8006102 <USBD_LL_DataOutStage+0x82>
          pdev->pClass->EP0_RxReady(pdev);
 80060dc:	4798      	blx	r3
 80060de:	e7f8      	b.n	80060d2 <USBD_LL_DataOutStage+0x52>
        pdev->ep0_state = USBD_EP0_IDLE;
 80060e0:	2100      	movs	r1, #0
 80060e2:	f8c0 1294 	str.w	r1, [r0, #660]	@ 0x294
        USBD_LL_StallEP(pdev, 0U);
 80060e6:	f000 fe16 	bl	8006d16 <USBD_LL_StallEP>
  return USBD_OK;
 80060ea:	4628      	mov	r0, r5
 80060ec:	e009      	b.n	8006102 <USBD_LL_DataOutStage+0x82>
  else if ((pdev->pClass->DataOut != NULL) &&
 80060ee:	f8d0 32b4 	ldr.w	r3, [r0, #692]	@ 0x2b4
 80060f2:	699b      	ldr	r3, [r3, #24]
 80060f4:	b133      	cbz	r3, 8006104 <USBD_LL_DataOutStage+0x84>
           (pdev->dev_state == USBD_STATE_CONFIGURED))
 80060f6:	f890 229c 	ldrb.w	r2, [r0, #668]	@ 0x29c
  else if ((pdev->pClass->DataOut != NULL) &&
 80060fa:	2a03      	cmp	r2, #3
 80060fc:	d104      	bne.n	8006108 <USBD_LL_DataOutStage+0x88>
    pdev->pClass->DataOut(pdev, epnum);
 80060fe:	4798      	blx	r3
  return USBD_OK;
 8006100:	2000      	movs	r0, #0
}
 8006102:	bd38      	pop	{r3, r4, r5, pc}
    return USBD_FAIL;
 8006104:	2002      	movs	r0, #2
 8006106:	e7fc      	b.n	8006102 <USBD_LL_DataOutStage+0x82>
 8006108:	2002      	movs	r0, #2
 800610a:	e7fa      	b.n	8006102 <USBD_LL_DataOutStage+0x82>

0800610c <USBD_LL_DataInStage>:
* @param  epnum: endpoint index
* @retval status
*/
USBD_StatusTypeDef USBD_LL_DataInStage(USBD_HandleTypeDef *pdev,
                                       uint8_t epnum, uint8_t *pdata)
{
 800610c:	b538      	push	{r3, r4, r5, lr}
 800610e:	4604      	mov	r4, r0
  USBD_EndpointTypeDef *pep;

  if (epnum == 0U)
 8006110:	460d      	mov	r5, r1
 8006112:	2900      	cmp	r1, #0
 8006114:	d153      	bne.n	80061be <USBD_LL_DataInStage+0xb2>
 8006116:	4613      	mov	r3, r2
  {
    pep = &pdev->ep_in[0];

    if (pdev->ep0_state == USBD_EP0_DATA_IN)
 8006118:	f8d0 2294 	ldr.w	r2, [r0, #660]	@ 0x294
 800611c:	2a02      	cmp	r2, #2
 800611e:	d00c      	beq.n	800613a <USBD_LL_DataInStage+0x2e>
        }
      }
    }
    else
    {
      if ((pdev->ep0_state == USBD_EP0_STATUS_IN) ||
 8006120:	2a04      	cmp	r2, #4
 8006122:	d000      	beq.n	8006126 <USBD_LL_DataInStage+0x1a>
 8006124:	b91a      	cbnz	r2, 800612e <USBD_LL_DataInStage+0x22>
          (pdev->ep0_state == USBD_EP0_IDLE))
      {
        USBD_LL_StallEP(pdev, 0x80U);
 8006126:	2180      	movs	r1, #128	@ 0x80
 8006128:	4620      	mov	r0, r4
 800612a:	f000 fdf4 	bl	8006d16 <USBD_LL_StallEP>
      }
    }

    if (pdev->dev_test_mode == 1U)
 800612e:	f894 32a0 	ldrb.w	r3, [r4, #672]	@ 0x2a0
 8006132:	2b01      	cmp	r3, #1
 8006134:	d03e      	beq.n	80061b4 <USBD_LL_DataInStage+0xa8>
  {
    /* should never be in this condition */
    return USBD_FAIL;
  }

  return USBD_OK;
 8006136:	4628      	mov	r0, r5
}
 8006138:	bd38      	pop	{r3, r4, r5, pc}
      if (pep->rem_length > pep->maxpacket)
 800613a:	6a02      	ldr	r2, [r0, #32]
 800613c:	6a41      	ldr	r1, [r0, #36]	@ 0x24
 800613e:	428a      	cmp	r2, r1
 8006140:	d81b      	bhi.n	800617a <USBD_LL_DataInStage+0x6e>
        if ((pep->total_length % pep->maxpacket == 0U) &&
 8006142:	69c2      	ldr	r2, [r0, #28]
 8006144:	fbb2 f3f1 	udiv	r3, r2, r1
 8006148:	fb01 2313 	mls	r3, r1, r3, r2
 800614c:	b92b      	cbnz	r3, 800615a <USBD_LL_DataInStage+0x4e>
 800614e:	4291      	cmp	r1, r2
 8006150:	d803      	bhi.n	800615a <USBD_LL_DataInStage+0x4e>
            (pep->total_length < pdev->ep0_data_len))
 8006152:	f8d0 3298 	ldr.w	r3, [r0, #664]	@ 0x298
            (pep->total_length >= pep->maxpacket) &&
 8006156:	429a      	cmp	r2, r3
 8006158:	d31c      	bcc.n	8006194 <USBD_LL_DataInStage+0x88>
          if ((pdev->pClass->EP0_TxSent != NULL) &&
 800615a:	f8d4 32b4 	ldr.w	r3, [r4, #692]	@ 0x2b4
 800615e:	68db      	ldr	r3, [r3, #12]
 8006160:	b11b      	cbz	r3, 800616a <USBD_LL_DataInStage+0x5e>
              (pdev->dev_state == USBD_STATE_CONFIGURED))
 8006162:	f894 229c 	ldrb.w	r2, [r4, #668]	@ 0x29c
          if ((pdev->pClass->EP0_TxSent != NULL) &&
 8006166:	2a03      	cmp	r2, #3
 8006168:	d021      	beq.n	80061ae <USBD_LL_DataInStage+0xa2>
          USBD_LL_StallEP(pdev, 0x80U);
 800616a:	2180      	movs	r1, #128	@ 0x80
 800616c:	4620      	mov	r0, r4
 800616e:	f000 fdd2 	bl	8006d16 <USBD_LL_StallEP>
          USBD_CtlReceiveStatus(pdev);
 8006172:	4620      	mov	r0, r4
 8006174:	f000 fbf0 	bl	8006958 <USBD_CtlReceiveStatus>
 8006178:	e7d9      	b.n	800612e <USBD_LL_DataInStage+0x22>
        pep->rem_length -= pep->maxpacket;
 800617a:	1a52      	subs	r2, r2, r1
 800617c:	6202      	str	r2, [r0, #32]
        USBD_CtlContinueSendData(pdev, pdata, (uint16_t)pep->rem_length);
 800617e:	b292      	uxth	r2, r2
 8006180:	4619      	mov	r1, r3
 8006182:	f000 fbbf 	bl	8006904 <USBD_CtlContinueSendData>
        USBD_LL_PrepareReceive(pdev, 0U, NULL, 0U);
 8006186:	2300      	movs	r3, #0
 8006188:	461a      	mov	r2, r3
 800618a:	4619      	mov	r1, r3
 800618c:	4620      	mov	r0, r4
 800618e:	f000 fdf8 	bl	8006d82 <USBD_LL_PrepareReceive>
 8006192:	e7cc      	b.n	800612e <USBD_LL_DataInStage+0x22>
          USBD_CtlContinueSendData(pdev, NULL, 0U);
 8006194:	2200      	movs	r2, #0
 8006196:	4611      	mov	r1, r2
 8006198:	f000 fbb4 	bl	8006904 <USBD_CtlContinueSendData>
          pdev->ep0_data_len = 0U;
 800619c:	2100      	movs	r1, #0
 800619e:	f8c4 1298 	str.w	r1, [r4, #664]	@ 0x298
          USBD_LL_PrepareReceive(pdev, 0U, NULL, 0U);
 80061a2:	460b      	mov	r3, r1
 80061a4:	460a      	mov	r2, r1
 80061a6:	4620      	mov	r0, r4
 80061a8:	f000 fdeb 	bl	8006d82 <USBD_LL_PrepareReceive>
 80061ac:	e7bf      	b.n	800612e <USBD_LL_DataInStage+0x22>
            pdev->pClass->EP0_TxSent(pdev);
 80061ae:	4620      	mov	r0, r4
 80061b0:	4798      	blx	r3
 80061b2:	e7da      	b.n	800616a <USBD_LL_DataInStage+0x5e>
      pdev->dev_test_mode = 0U;
 80061b4:	2300      	movs	r3, #0
 80061b6:	f884 32a0 	strb.w	r3, [r4, #672]	@ 0x2a0
  return USBD_OK;
 80061ba:	4628      	mov	r0, r5
 80061bc:	e7bc      	b.n	8006138 <USBD_LL_DataInStage+0x2c>
  else if ((pdev->pClass->DataIn != NULL) &&
 80061be:	f8d0 32b4 	ldr.w	r3, [r0, #692]	@ 0x2b4
 80061c2:	695b      	ldr	r3, [r3, #20]
 80061c4:	b133      	cbz	r3, 80061d4 <USBD_LL_DataInStage+0xc8>
           (pdev->dev_state == USBD_STATE_CONFIGURED))
 80061c6:	f890 229c 	ldrb.w	r2, [r0, #668]	@ 0x29c
  else if ((pdev->pClass->DataIn != NULL) &&
 80061ca:	2a03      	cmp	r2, #3
 80061cc:	d104      	bne.n	80061d8 <USBD_LL_DataInStage+0xcc>
    pdev->pClass->DataIn(pdev, epnum);
 80061ce:	4798      	blx	r3
  return USBD_OK;
 80061d0:	2000      	movs	r0, #0
    pdev->pClass->DataIn(pdev, epnum);
 80061d2:	e7b1      	b.n	8006138 <USBD_LL_DataInStage+0x2c>
    return USBD_FAIL;
 80061d4:	2002      	movs	r0, #2
 80061d6:	e7af      	b.n	8006138 <USBD_LL_DataInStage+0x2c>
 80061d8:	2002      	movs	r0, #2
 80061da:	e7ad      	b.n	8006138 <USBD_LL_DataInStage+0x2c>

080061dc <USBD_LL_Reset>:
* @param  pdev: device instance
* @retval status
*/

USBD_StatusTypeDef USBD_LL_Reset(USBD_HandleTypeDef *pdev)
{
 80061dc:	b570      	push	{r4, r5, r6, lr}
 80061de:	4604      	mov	r4, r0
  /* Open EP0 OUT */
  USBD_LL_OpenEP(pdev, 0x00U, USBD_EP_TYPE_CTRL, USB_MAX_EP0_SIZE);
 80061e0:	2340      	movs	r3, #64	@ 0x40
 80061e2:	2200      	movs	r2, #0
 80061e4:	4611      	mov	r1, r2
 80061e6:	f000 fd83 	bl	8006cf0 <USBD_LL_OpenEP>
  pdev->ep_out[0x00U & 0xFU].is_used = 1U;
 80061ea:	2501      	movs	r5, #1
 80061ec:	f8c4 5158 	str.w	r5, [r4, #344]	@ 0x158

  pdev->ep_out[0].maxpacket = USB_MAX_EP0_SIZE;
 80061f0:	2640      	movs	r6, #64	@ 0x40
 80061f2:	f8c4 6164 	str.w	r6, [r4, #356]	@ 0x164

  /* Open EP0 IN */
  USBD_LL_OpenEP(pdev, 0x80U, USBD_EP_TYPE_CTRL, USB_MAX_EP0_SIZE);
 80061f6:	4633      	mov	r3, r6
 80061f8:	2200      	movs	r2, #0
 80061fa:	2180      	movs	r1, #128	@ 0x80
 80061fc:	4620      	mov	r0, r4
 80061fe:	f000 fd77 	bl	8006cf0 <USBD_LL_OpenEP>
  pdev->ep_in[0x80U & 0xFU].is_used = 1U;
 8006202:	61a5      	str	r5, [r4, #24]

  pdev->ep_in[0].maxpacket = USB_MAX_EP0_SIZE;
 8006204:	6266      	str	r6, [r4, #36]	@ 0x24

  /* Upon Reset call user call back */
  pdev->dev_state = USBD_STATE_DEFAULT;
 8006206:	f884 529c 	strb.w	r5, [r4, #668]	@ 0x29c
  pdev->ep0_state = USBD_EP0_IDLE;
 800620a:	2300      	movs	r3, #0
 800620c:	f8c4 3294 	str.w	r3, [r4, #660]	@ 0x294
  pdev->dev_config = 0U;
 8006210:	6063      	str	r3, [r4, #4]
  pdev->dev_remote_wakeup = 0U;
 8006212:	f8c4 32a4 	str.w	r3, [r4, #676]	@ 0x2a4

  if (pdev->pClassData)
 8006216:	f8d4 32b8 	ldr.w	r3, [r4, #696]	@ 0x2b8
 800621a:	b12b      	cbz	r3, 8006228 <USBD_LL_Reset+0x4c>
  {
    pdev->pClass->DeInit(pdev, (uint8_t)pdev->dev_config);
 800621c:	f8d4 32b4 	ldr.w	r3, [r4, #692]	@ 0x2b4
 8006220:	685b      	ldr	r3, [r3, #4]
 8006222:	2100      	movs	r1, #0
 8006224:	4620      	mov	r0, r4
 8006226:	4798      	blx	r3
  }

  return USBD_OK;
}
 8006228:	2000      	movs	r0, #0
 800622a:	bd70      	pop	{r4, r5, r6, pc}

0800622c <USBD_LL_SetSpeed>:
* @retval status
*/
USBD_StatusTypeDef USBD_LL_SetSpeed(USBD_HandleTypeDef *pdev,
                                    USBD_SpeedTypeDef speed)
{
  pdev->dev_speed = speed;
 800622c:	7401      	strb	r1, [r0, #16]

  return USBD_OK;
}
 800622e:	2000      	movs	r0, #0
 8006230:	4770      	bx	lr

08006232 <USBD_LL_Suspend>:
* @retval status
*/

USBD_StatusTypeDef USBD_LL_Suspend(USBD_HandleTypeDef *pdev)
{
  pdev->dev_old_state =  pdev->dev_state;
 8006232:	f890 329c 	ldrb.w	r3, [r0, #668]	@ 0x29c
 8006236:	f880 329d 	strb.w	r3, [r0, #669]	@ 0x29d
  pdev->dev_state  = USBD_STATE_SUSPENDED;
 800623a:	2304      	movs	r3, #4
 800623c:	f880 329c 	strb.w	r3, [r0, #668]	@ 0x29c

  return USBD_OK;
}
 8006240:	2000      	movs	r0, #0
 8006242:	4770      	bx	lr

08006244 <USBD_LL_Resume>:
* @retval status
*/

USBD_StatusTypeDef USBD_LL_Resume(USBD_HandleTypeDef *pdev)
{
  if (pdev->dev_state == USBD_STATE_SUSPENDED)
 8006244:	f890 329c 	ldrb.w	r3, [r0, #668]	@ 0x29c
 8006248:	2b04      	cmp	r3, #4
 800624a:	d001      	beq.n	8006250 <USBD_LL_Resume+0xc>
  {
    pdev->dev_state = pdev->dev_old_state;
  }

  return USBD_OK;
}
 800624c:	2000      	movs	r0, #0
 800624e:	4770      	bx	lr
    pdev->dev_state = pdev->dev_old_state;
 8006250:	f890 329d 	ldrb.w	r3, [r0, #669]	@ 0x29d
 8006254:	f880 329c 	strb.w	r3, [r0, #668]	@ 0x29c
 8006258:	e7f8      	b.n	800624c <USBD_LL_Resume+0x8>

0800625a <USBD_LL_SOF>:
* @param  pdev: device instance
* @retval status
*/

USBD_StatusTypeDef USBD_LL_SOF(USBD_HandleTypeDef *pdev)
{
 800625a:	b508      	push	{r3, lr}
  if (pdev->dev_state == USBD_STATE_CONFIGURED)
 800625c:	f890 329c 	ldrb.w	r3, [r0, #668]	@ 0x29c
 8006260:	2b03      	cmp	r3, #3
 8006262:	d001      	beq.n	8006268 <USBD_LL_SOF+0xe>
      pdev->pClass->SOF(pdev);
    }
  }

  return USBD_OK;
}
 8006264:	2000      	movs	r0, #0
 8006266:	bd08      	pop	{r3, pc}
    if (pdev->pClass->SOF != NULL)
 8006268:	f8d0 32b4 	ldr.w	r3, [r0, #692]	@ 0x2b4
 800626c:	69db      	ldr	r3, [r3, #28]
 800626e:	2b00      	cmp	r3, #0
 8006270:	d0f8      	beq.n	8006264 <USBD_LL_SOF+0xa>
      pdev->pClass->SOF(pdev);
 8006272:	4798      	blx	r3
 8006274:	e7f6      	b.n	8006264 <USBD_LL_SOF+0xa>

08006276 <USBD_GetLen>:
  *         return the string length
   * @param  buf : pointer to the ascii string buffer
  * @retval string length
  */
static uint8_t USBD_GetLen(uint8_t *buf)
{
 8006276:	4603      	mov	r3, r0
  uint8_t  len = 0U;
 8006278:	2000      	movs	r0, #0

  while (*buf != '\0')
 800627a:	e002      	b.n	8006282 <USBD_GetLen+0xc>
  {
    len++;
 800627c:	3001      	adds	r0, #1
 800627e:	b2c0      	uxtb	r0, r0
    buf++;
 8006280:	3301      	adds	r3, #1
  while (*buf != '\0')
 8006282:	781a      	ldrb	r2, [r3, #0]
 8006284:	2a00      	cmp	r2, #0
 8006286:	d1f9      	bne.n	800627c <USBD_GetLen+0x6>
  }

  return len;
}
 8006288:	4770      	bx	lr

0800628a <USBD_SetFeature>:
{
 800628a:	b508      	push	{r3, lr}
  if (req->wValue == USB_FEATURE_REMOTE_WAKEUP)
 800628c:	884b      	ldrh	r3, [r1, #2]
 800628e:	2b01      	cmp	r3, #1
 8006290:	d000      	beq.n	8006294 <USBD_SetFeature+0xa>
}
 8006292:	bd08      	pop	{r3, pc}
    pdev->dev_remote_wakeup = 1U;
 8006294:	f8c0 32a4 	str.w	r3, [r0, #676]	@ 0x2a4
    USBD_CtlSendStatus(pdev);
 8006298:	f000 fb53 	bl	8006942 <USBD_CtlSendStatus>
}
 800629c:	e7f9      	b.n	8006292 <USBD_SetFeature+0x8>

0800629e <USBD_ParseSetupRequest>:
  req->bmRequest = *(uint8_t *)(pdata);
 800629e:	780b      	ldrb	r3, [r1, #0]
 80062a0:	7003      	strb	r3, [r0, #0]
  req->bRequest = *(uint8_t *)(pdata + 1U);
 80062a2:	784b      	ldrb	r3, [r1, #1]
 80062a4:	7043      	strb	r3, [r0, #1]
  req->wValue = SWAPBYTE(pdata + 2U);
 80062a6:	788b      	ldrb	r3, [r1, #2]
 80062a8:	78ca      	ldrb	r2, [r1, #3]
 80062aa:	eb03 2302 	add.w	r3, r3, r2, lsl #8
 80062ae:	8043      	strh	r3, [r0, #2]
  req->wIndex = SWAPBYTE(pdata + 4U);
 80062b0:	790b      	ldrb	r3, [r1, #4]
 80062b2:	794a      	ldrb	r2, [r1, #5]
 80062b4:	eb03 2302 	add.w	r3, r3, r2, lsl #8
 80062b8:	8083      	strh	r3, [r0, #4]
  req->wLength = SWAPBYTE(pdata + 6U);
 80062ba:	798b      	ldrb	r3, [r1, #6]
 80062bc:	79ca      	ldrb	r2, [r1, #7]
 80062be:	eb03 2302 	add.w	r3, r3, r2, lsl #8
 80062c2:	80c3      	strh	r3, [r0, #6]
}
 80062c4:	4770      	bx	lr

080062c6 <USBD_CtlError>:
{
 80062c6:	b510      	push	{r4, lr}
 80062c8:	4604      	mov	r4, r0
  USBD_LL_StallEP(pdev, 0x80U);
 80062ca:	2180      	movs	r1, #128	@ 0x80
 80062cc:	f000 fd23 	bl	8006d16 <USBD_LL_StallEP>
  USBD_LL_StallEP(pdev, 0U);
 80062d0:	2100      	movs	r1, #0
 80062d2:	4620      	mov	r0, r4
 80062d4:	f000 fd1f 	bl	8006d16 <USBD_LL_StallEP>
}
 80062d8:	bd10      	pop	{r4, pc}

080062da <USBD_GetDescriptor>:
{
 80062da:	b530      	push	{r4, r5, lr}
 80062dc:	b083      	sub	sp, #12
 80062de:	4605      	mov	r5, r0
 80062e0:	460c      	mov	r4, r1
  uint16_t len = 0U;
 80062e2:	2300      	movs	r3, #0
 80062e4:	f8ad 3006 	strh.w	r3, [sp, #6]
  switch (req->wValue >> 8)
 80062e8:	884a      	ldrh	r2, [r1, #2]
 80062ea:	0a13      	lsrs	r3, r2, #8
 80062ec:	3b01      	subs	r3, #1
 80062ee:	2b06      	cmp	r3, #6
 80062f0:	f200 80a4 	bhi.w	800643c <USBD_GetDescriptor+0x162>
 80062f4:	e8df f003 	tbb	[pc, r3]
 80062f8:	a22c1804 	.word	0xa22c1804
 80062fc:	86a2      	.short	0x86a2
 80062fe:	93          	.byte	0x93
 80062ff:	00          	.byte	0x00
      pbuf = pdev->pDesc->GetDeviceDescriptor(pdev->dev_speed, &len);
 8006300:	f8d0 32b0 	ldr.w	r3, [r0, #688]	@ 0x2b0
 8006304:	681b      	ldr	r3, [r3, #0]
 8006306:	f10d 0106 	add.w	r1, sp, #6
 800630a:	7c00      	ldrb	r0, [r0, #16]
 800630c:	4798      	blx	r3
    if ((len != 0U) && (req->wLength != 0U))
 800630e:	f8bd 2006 	ldrh.w	r2, [sp, #6]
 8006312:	b11a      	cbz	r2, 800631c <USBD_GetDescriptor+0x42>
 8006314:	88e3      	ldrh	r3, [r4, #6]
 8006316:	2b00      	cmp	r3, #0
 8006318:	f040 8094 	bne.w	8006444 <USBD_GetDescriptor+0x16a>
    if (req->wLength == 0U)
 800631c:	88e3      	ldrh	r3, [r4, #6]
 800631e:	2b00      	cmp	r3, #0
 8006320:	f000 809a 	beq.w	8006458 <USBD_GetDescriptor+0x17e>
}
 8006324:	b003      	add	sp, #12
 8006326:	bd30      	pop	{r4, r5, pc}
      if (pdev->dev_speed == USBD_SPEED_HIGH)
 8006328:	7c03      	ldrb	r3, [r0, #16]
 800632a:	b943      	cbnz	r3, 800633e <USBD_GetDescriptor+0x64>
        pbuf = pdev->pClass->GetHSConfigDescriptor(&len);
 800632c:	f8d0 32b4 	ldr.w	r3, [r0, #692]	@ 0x2b4
 8006330:	6a9b      	ldr	r3, [r3, #40]	@ 0x28
 8006332:	f10d 0006 	add.w	r0, sp, #6
 8006336:	4798      	blx	r3
        pbuf[1] = USB_DESC_TYPE_CONFIGURATION;
 8006338:	2302      	movs	r3, #2
 800633a:	7043      	strb	r3, [r0, #1]
  if (err != 0U)
 800633c:	e7e7      	b.n	800630e <USBD_GetDescriptor+0x34>
        pbuf = pdev->pClass->GetFSConfigDescriptor(&len);
 800633e:	f8d0 32b4 	ldr.w	r3, [r0, #692]	@ 0x2b4
 8006342:	6adb      	ldr	r3, [r3, #44]	@ 0x2c
 8006344:	f10d 0006 	add.w	r0, sp, #6
 8006348:	4798      	blx	r3
        pbuf[1] = USB_DESC_TYPE_CONFIGURATION;
 800634a:	2302      	movs	r3, #2
 800634c:	7043      	strb	r3, [r0, #1]
  if (err != 0U)
 800634e:	e7de      	b.n	800630e <USBD_GetDescriptor+0x34>
      switch ((uint8_t)(req->wValue))
 8006350:	b2d2      	uxtb	r2, r2
 8006352:	2a05      	cmp	r2, #5
 8006354:	d852      	bhi.n	80063fc <USBD_GetDescriptor+0x122>
 8006356:	e8df f002 	tbb	[pc, r2]
 800635a:	1003      	.short	0x1003
 800635c:	44372a1d 	.word	0x44372a1d
          if (pdev->pDesc->GetLangIDStrDescriptor != NULL)
 8006360:	f8d0 32b0 	ldr.w	r3, [r0, #688]	@ 0x2b0
 8006364:	685b      	ldr	r3, [r3, #4]
 8006366:	b123      	cbz	r3, 8006372 <USBD_GetDescriptor+0x98>
            pbuf = pdev->pDesc->GetLangIDStrDescriptor(pdev->dev_speed, &len);
 8006368:	f10d 0106 	add.w	r1, sp, #6
 800636c:	7c00      	ldrb	r0, [r0, #16]
 800636e:	4798      	blx	r3
  if (err != 0U)
 8006370:	e7cd      	b.n	800630e <USBD_GetDescriptor+0x34>
            USBD_CtlError(pdev, req);
 8006372:	4621      	mov	r1, r4
 8006374:	f7ff ffa7 	bl	80062c6 <USBD_CtlError>
  if (err != 0U)
 8006378:	e7d4      	b.n	8006324 <USBD_GetDescriptor+0x4a>
          if (pdev->pDesc->GetManufacturerStrDescriptor != NULL)
 800637a:	f8d0 32b0 	ldr.w	r3, [r0, #688]	@ 0x2b0
 800637e:	689b      	ldr	r3, [r3, #8]
 8006380:	b123      	cbz	r3, 800638c <USBD_GetDescriptor+0xb2>
            pbuf = pdev->pDesc->GetManufacturerStrDescriptor(pdev->dev_speed, &len);
 8006382:	f10d 0106 	add.w	r1, sp, #6
 8006386:	7c00      	ldrb	r0, [r0, #16]
 8006388:	4798      	blx	r3
  if (err != 0U)
 800638a:	e7c0      	b.n	800630e <USBD_GetDescriptor+0x34>
            USBD_CtlError(pdev, req);
 800638c:	4621      	mov	r1, r4
 800638e:	f7ff ff9a 	bl	80062c6 <USBD_CtlError>
  if (err != 0U)
 8006392:	e7c7      	b.n	8006324 <USBD_GetDescriptor+0x4a>
          if (pdev->pDesc->GetProductStrDescriptor != NULL)
 8006394:	f8d0 32b0 	ldr.w	r3, [r0, #688]	@ 0x2b0
 8006398:	68db      	ldr	r3, [r3, #12]
 800639a:	b123      	cbz	r3, 80063a6 <USBD_GetDescriptor+0xcc>
            pbuf = pdev->pDesc->GetProductStrDescriptor(pdev->dev_speed, &len);
 800639c:	f10d 0106 	add.w	r1, sp, #6
 80063a0:	7c00      	ldrb	r0, [r0, #16]
 80063a2:	4798      	blx	r3
  if (err != 0U)
 80063a4:	e7b3      	b.n	800630e <USBD_GetDescriptor+0x34>
            USBD_CtlError(pdev, req);
 80063a6:	4621      	mov	r1, r4
 80063a8:	f7ff ff8d 	bl	80062c6 <USBD_CtlError>
  if (err != 0U)
 80063ac:	e7ba      	b.n	8006324 <USBD_GetDescriptor+0x4a>
          if (pdev->pDesc->GetSerialStrDescriptor != NULL)
 80063ae:	f8d0 32b0 	ldr.w	r3, [r0, #688]	@ 0x2b0
 80063b2:	691b      	ldr	r3, [r3, #16]
 80063b4:	b123      	cbz	r3, 80063c0 <USBD_GetDescriptor+0xe6>
            pbuf = pdev->pDesc->GetSerialStrDescriptor(pdev->dev_speed, &len);
 80063b6:	f10d 0106 	add.w	r1, sp, #6
 80063ba:	7c00      	ldrb	r0, [r0, #16]
 80063bc:	4798      	blx	r3
  if (err != 0U)
 80063be:	e7a6      	b.n	800630e <USBD_GetDescriptor+0x34>
            USBD_CtlError(pdev, req);
 80063c0:	4621      	mov	r1, r4
 80063c2:	f7ff ff80 	bl	80062c6 <USBD_CtlError>
  if (err != 0U)
 80063c6:	e7ad      	b.n	8006324 <USBD_GetDescriptor+0x4a>
          if (pdev->pDesc->GetConfigurationStrDescriptor != NULL)
 80063c8:	f8d0 32b0 	ldr.w	r3, [r0, #688]	@ 0x2b0
 80063cc:	695b      	ldr	r3, [r3, #20]
 80063ce:	b123      	cbz	r3, 80063da <USBD_GetDescriptor+0x100>
            pbuf = pdev->pDesc->GetConfigurationStrDescriptor(pdev->dev_speed, &len);
 80063d0:	f10d 0106 	add.w	r1, sp, #6
 80063d4:	7c00      	ldrb	r0, [r0, #16]
 80063d6:	4798      	blx	r3
  if (err != 0U)
 80063d8:	e799      	b.n	800630e <USBD_GetDescriptor+0x34>
            USBD_CtlError(pdev, req);
 80063da:	4621      	mov	r1, r4
 80063dc:	f7ff ff73 	bl	80062c6 <USBD_CtlError>
  if (err != 0U)
 80063e0:	e7a0      	b.n	8006324 <USBD_GetDescriptor+0x4a>
          if (pdev->pDesc->GetInterfaceStrDescriptor != NULL)
 80063e2:	f8d0 32b0 	ldr.w	r3, [r0, #688]	@ 0x2b0
 80063e6:	699b      	ldr	r3, [r3, #24]
 80063e8:	b123      	cbz	r3, 80063f4 <USBD_GetDescriptor+0x11a>
            pbuf = pdev->pDesc->GetInterfaceStrDescriptor(pdev->dev_speed, &len);
 80063ea:	f10d 0106 	add.w	r1, sp, #6
 80063ee:	7c00      	ldrb	r0, [r0, #16]
 80063f0:	4798      	blx	r3
  if (err != 0U)
 80063f2:	e78c      	b.n	800630e <USBD_GetDescriptor+0x34>
            USBD_CtlError(pdev, req);
 80063f4:	4621      	mov	r1, r4
 80063f6:	f7ff ff66 	bl	80062c6 <USBD_CtlError>
  if (err != 0U)
 80063fa:	e793      	b.n	8006324 <USBD_GetDescriptor+0x4a>
          USBD_CtlError(pdev, req);
 80063fc:	4621      	mov	r1, r4
 80063fe:	f7ff ff62 	bl	80062c6 <USBD_CtlError>
  if (err != 0U)
 8006402:	e78f      	b.n	8006324 <USBD_GetDescriptor+0x4a>
      if (pdev->dev_speed == USBD_SPEED_HIGH)
 8006404:	7c03      	ldrb	r3, [r0, #16]
 8006406:	b933      	cbnz	r3, 8006416 <USBD_GetDescriptor+0x13c>
        pbuf = pdev->pClass->GetDeviceQualifierDescriptor(&len);
 8006408:	f8d0 32b4 	ldr.w	r3, [r0, #692]	@ 0x2b4
 800640c:	6b5b      	ldr	r3, [r3, #52]	@ 0x34
 800640e:	f10d 0006 	add.w	r0, sp, #6
 8006412:	4798      	blx	r3
  if (err != 0U)
 8006414:	e77b      	b.n	800630e <USBD_GetDescriptor+0x34>
        USBD_CtlError(pdev, req);
 8006416:	4621      	mov	r1, r4
 8006418:	f7ff ff55 	bl	80062c6 <USBD_CtlError>
  if (err != 0U)
 800641c:	e782      	b.n	8006324 <USBD_GetDescriptor+0x4a>
      if (pdev->dev_speed == USBD_SPEED_HIGH)
 800641e:	7c03      	ldrb	r3, [r0, #16]
 8006420:	b943      	cbnz	r3, 8006434 <USBD_GetDescriptor+0x15a>
        pbuf = pdev->pClass->GetOtherSpeedConfigDescriptor(&len);
 8006422:	f8d0 32b4 	ldr.w	r3, [r0, #692]	@ 0x2b4
 8006426:	6b1b      	ldr	r3, [r3, #48]	@ 0x30
 8006428:	f10d 0006 	add.w	r0, sp, #6
 800642c:	4798      	blx	r3
        pbuf[1] = USB_DESC_TYPE_OTHER_SPEED_CONFIGURATION;
 800642e:	2307      	movs	r3, #7
 8006430:	7043      	strb	r3, [r0, #1]
  if (err != 0U)
 8006432:	e76c      	b.n	800630e <USBD_GetDescriptor+0x34>
        USBD_CtlError(pdev, req);
 8006434:	4621      	mov	r1, r4
 8006436:	f7ff ff46 	bl	80062c6 <USBD_CtlError>
  if (err != 0U)
 800643a:	e773      	b.n	8006324 <USBD_GetDescriptor+0x4a>
      USBD_CtlError(pdev, req);
 800643c:	4621      	mov	r1, r4
 800643e:	f7ff ff42 	bl	80062c6 <USBD_CtlError>
    return;
 8006442:	e76f      	b.n	8006324 <USBD_GetDescriptor+0x4a>
      len = MIN(len, req->wLength);
 8006444:	429a      	cmp	r2, r3
 8006446:	bf28      	it	cs
 8006448:	461a      	movcs	r2, r3
 800644a:	f8ad 2006 	strh.w	r2, [sp, #6]
      (void)USBD_CtlSendData(pdev, pbuf, len);
 800644e:	4601      	mov	r1, r0
 8006450:	4628      	mov	r0, r5
 8006452:	f000 fa4a 	bl	80068ea <USBD_CtlSendData>
 8006456:	e761      	b.n	800631c <USBD_GetDescriptor+0x42>
      (void)USBD_CtlSendStatus(pdev);
 8006458:	4628      	mov	r0, r5
 800645a:	f000 fa72 	bl	8006942 <USBD_CtlSendStatus>
 800645e:	e761      	b.n	8006324 <USBD_GetDescriptor+0x4a>

08006460 <USBD_SetAddress>:
{
 8006460:	b538      	push	{r3, r4, r5, lr}
 8006462:	4604      	mov	r4, r0
  if ((req->wIndex == 0U) && (req->wLength == 0U) && (req->wValue < 128U))
 8006464:	888b      	ldrh	r3, [r1, #4]
 8006466:	b9f3      	cbnz	r3, 80064a6 <USBD_SetAddress+0x46>
 8006468:	88cb      	ldrh	r3, [r1, #6]
 800646a:	b9e3      	cbnz	r3, 80064a6 <USBD_SetAddress+0x46>
 800646c:	884b      	ldrh	r3, [r1, #2]
 800646e:	2b7f      	cmp	r3, #127	@ 0x7f
 8006470:	d819      	bhi.n	80064a6 <USBD_SetAddress+0x46>
    dev_addr = (uint8_t)(req->wValue) & 0x7FU;
 8006472:	f003 057f 	and.w	r5, r3, #127	@ 0x7f
    if (pdev->dev_state == USBD_STATE_CONFIGURED)
 8006476:	f890 329c 	ldrb.w	r3, [r0, #668]	@ 0x29c
 800647a:	2b03      	cmp	r3, #3
 800647c:	d00c      	beq.n	8006498 <USBD_SetAddress+0x38>
      pdev->dev_address = dev_addr;
 800647e:	f880 529e 	strb.w	r5, [r0, #670]	@ 0x29e
      USBD_LL_SetUSBAddress(pdev, dev_addr);
 8006482:	4629      	mov	r1, r5
 8006484:	f000 fc6d 	bl	8006d62 <USBD_LL_SetUSBAddress>
      USBD_CtlSendStatus(pdev);
 8006488:	4620      	mov	r0, r4
 800648a:	f000 fa5a 	bl	8006942 <USBD_CtlSendStatus>
      if (dev_addr != 0U)
 800648e:	b135      	cbz	r5, 800649e <USBD_SetAddress+0x3e>
        pdev->dev_state = USBD_STATE_ADDRESSED;
 8006490:	2302      	movs	r3, #2
 8006492:	f884 329c 	strb.w	r3, [r4, #668]	@ 0x29c
 8006496:	e009      	b.n	80064ac <USBD_SetAddress+0x4c>
      USBD_CtlError(pdev, req);
 8006498:	f7ff ff15 	bl	80062c6 <USBD_CtlError>
 800649c:	e006      	b.n	80064ac <USBD_SetAddress+0x4c>
        pdev->dev_state = USBD_STATE_DEFAULT;
 800649e:	2301      	movs	r3, #1
 80064a0:	f884 329c 	strb.w	r3, [r4, #668]	@ 0x29c
 80064a4:	e002      	b.n	80064ac <USBD_SetAddress+0x4c>
    USBD_CtlError(pdev, req);
 80064a6:	4620      	mov	r0, r4
 80064a8:	f7ff ff0d 	bl	80062c6 <USBD_CtlError>
}
 80064ac:	bd38      	pop	{r3, r4, r5, pc}

080064ae <USBD_SetConfig>:
{
 80064ae:	b538      	push	{r3, r4, r5, lr}
 80064b0:	4604      	mov	r4, r0
 80064b2:	460d      	mov	r5, r1
  cfgidx = (uint8_t)(req->wValue);
 80064b4:	7889      	ldrb	r1, [r1, #2]
 80064b6:	f241 335c 	movw	r3, #4956	@ 0x135c
 80064ba:	f2c2 0300 	movt	r3, #8192	@ 0x2000
 80064be:	7019      	strb	r1, [r3, #0]
  if (cfgidx > USBD_MAX_NUM_CONFIGURATION)
 80064c0:	2901      	cmp	r1, #1
 80064c2:	d811      	bhi.n	80064e8 <USBD_SetConfig+0x3a>
    switch (pdev->dev_state)
 80064c4:	f890 329c 	ldrb.w	r3, [r0, #668]	@ 0x29c
 80064c8:	2b02      	cmp	r3, #2
 80064ca:	d011      	beq.n	80064f0 <USBD_SetConfig+0x42>
 80064cc:	2b03      	cmp	r3, #3
 80064ce:	d024      	beq.n	800651a <USBD_SetConfig+0x6c>
        USBD_CtlError(pdev, req);
 80064d0:	4629      	mov	r1, r5
 80064d2:	f7ff fef8 	bl	80062c6 <USBD_CtlError>
        USBD_ClrClassConfig(pdev, cfgidx);
 80064d6:	f241 335c 	movw	r3, #4956	@ 0x135c
 80064da:	f2c2 0300 	movt	r3, #8192	@ 0x2000
 80064de:	7819      	ldrb	r1, [r3, #0]
 80064e0:	4620      	mov	r0, r4
 80064e2:	f7ff fd99 	bl	8006018 <USBD_ClrClassConfig>
        break;
 80064e6:	e002      	b.n	80064ee <USBD_SetConfig+0x40>
    USBD_CtlError(pdev, req);
 80064e8:	4629      	mov	r1, r5
 80064ea:	f7ff feec 	bl	80062c6 <USBD_CtlError>
}
 80064ee:	bd38      	pop	{r3, r4, r5, pc}
        if (cfgidx)
 80064f0:	b181      	cbz	r1, 8006514 <USBD_SetConfig+0x66>
          pdev->dev_config = cfgidx;
 80064f2:	6041      	str	r1, [r0, #4]
          pdev->dev_state = USBD_STATE_CONFIGURED;
 80064f4:	2303      	movs	r3, #3
 80064f6:	f880 329c 	strb.w	r3, [r0, #668]	@ 0x29c
          if (USBD_SetClassConfig(pdev, cfgidx) == USBD_FAIL)
 80064fa:	f7ff fd81 	bl	8006000 <USBD_SetClassConfig>
 80064fe:	2802      	cmp	r0, #2
 8006500:	d003      	beq.n	800650a <USBD_SetConfig+0x5c>
          USBD_CtlSendStatus(pdev);
 8006502:	4620      	mov	r0, r4
 8006504:	f000 fa1d 	bl	8006942 <USBD_CtlSendStatus>
 8006508:	e7f1      	b.n	80064ee <USBD_SetConfig+0x40>
            USBD_CtlError(pdev, req);
 800650a:	4629      	mov	r1, r5
 800650c:	4620      	mov	r0, r4
 800650e:	f7ff feda 	bl	80062c6 <USBD_CtlError>
            return;
 8006512:	e7ec      	b.n	80064ee <USBD_SetConfig+0x40>
          USBD_CtlSendStatus(pdev);
 8006514:	f000 fa15 	bl	8006942 <USBD_CtlSendStatus>
 8006518:	e7e9      	b.n	80064ee <USBD_SetConfig+0x40>
        if (cfgidx == 0U)
 800651a:	b1a1      	cbz	r1, 8006546 <USBD_SetConfig+0x98>
        else if (cfgidx != pdev->dev_config)
 800651c:	6843      	ldr	r3, [r0, #4]
 800651e:	4299      	cmp	r1, r3
 8006520:	d020      	beq.n	8006564 <USBD_SetConfig+0xb6>
          USBD_ClrClassConfig(pdev, (uint8_t)pdev->dev_config);
 8006522:	b2d9      	uxtb	r1, r3
 8006524:	f7ff fd78 	bl	8006018 <USBD_ClrClassConfig>
          pdev->dev_config = cfgidx;
 8006528:	f241 335c 	movw	r3, #4956	@ 0x135c
 800652c:	f2c2 0300 	movt	r3, #8192	@ 0x2000
 8006530:	7819      	ldrb	r1, [r3, #0]
 8006532:	6061      	str	r1, [r4, #4]
          if (USBD_SetClassConfig(pdev, cfgidx) == USBD_FAIL)
 8006534:	4620      	mov	r0, r4
 8006536:	f7ff fd63 	bl	8006000 <USBD_SetClassConfig>
 800653a:	2802      	cmp	r0, #2
 800653c:	d00d      	beq.n	800655a <USBD_SetConfig+0xac>
          USBD_CtlSendStatus(pdev);
 800653e:	4620      	mov	r0, r4
 8006540:	f000 f9ff 	bl	8006942 <USBD_CtlSendStatus>
 8006544:	e7d3      	b.n	80064ee <USBD_SetConfig+0x40>
          pdev->dev_state = USBD_STATE_ADDRESSED;
 8006546:	2302      	movs	r3, #2
 8006548:	f880 329c 	strb.w	r3, [r0, #668]	@ 0x29c
          pdev->dev_config = cfgidx;
 800654c:	6041      	str	r1, [r0, #4]
          USBD_ClrClassConfig(pdev, cfgidx);
 800654e:	f7ff fd63 	bl	8006018 <USBD_ClrClassConfig>
          USBD_CtlSendStatus(pdev);
 8006552:	4620      	mov	r0, r4
 8006554:	f000 f9f5 	bl	8006942 <USBD_CtlSendStatus>
 8006558:	e7c9      	b.n	80064ee <USBD_SetConfig+0x40>
            USBD_CtlError(pdev, req);
 800655a:	4629      	mov	r1, r5
 800655c:	4620      	mov	r0, r4
 800655e:	f7ff feb2 	bl	80062c6 <USBD_CtlError>
            return;
 8006562:	e7c4      	b.n	80064ee <USBD_SetConfig+0x40>
          USBD_CtlSendStatus(pdev);
 8006564:	f000 f9ed 	bl	8006942 <USBD_CtlSendStatus>
 8006568:	e7c1      	b.n	80064ee <USBD_SetConfig+0x40>

0800656a <USBD_GetConfig>:
{
 800656a:	b508      	push	{r3, lr}
  if (req->wLength != 1U)
 800656c:	88cb      	ldrh	r3, [r1, #6]
 800656e:	2b01      	cmp	r3, #1
 8006570:	d10a      	bne.n	8006588 <USBD_GetConfig+0x1e>
    switch (pdev->dev_state)
 8006572:	f890 329c 	ldrb.w	r3, [r0, #668]	@ 0x29c
 8006576:	2b02      	cmp	r3, #2
 8006578:	d909      	bls.n	800658e <USBD_GetConfig+0x24>
 800657a:	2b03      	cmp	r3, #3
 800657c:	d111      	bne.n	80065a2 <USBD_GetConfig+0x38>
        USBD_CtlSendData(pdev, (uint8_t *)(void *)&pdev->dev_config, 1U);
 800657e:	2201      	movs	r2, #1
 8006580:	1d01      	adds	r1, r0, #4
 8006582:	f000 f9b2 	bl	80068ea <USBD_CtlSendData>
        break;
 8006586:	e001      	b.n	800658c <USBD_GetConfig+0x22>
    USBD_CtlError(pdev, req);
 8006588:	f7ff fe9d 	bl	80062c6 <USBD_CtlError>
}
 800658c:	bd08      	pop	{r3, pc}
    switch (pdev->dev_state)
 800658e:	b25b      	sxtb	r3, r3
 8006590:	b13b      	cbz	r3, 80065a2 <USBD_GetConfig+0x38>
        pdev->dev_default_config = 0U;
 8006592:	4601      	mov	r1, r0
 8006594:	2300      	movs	r3, #0
 8006596:	f841 3f08 	str.w	r3, [r1, #8]!
        USBD_CtlSendData(pdev, (uint8_t *)(void *)&pdev->dev_default_config, 1U);
 800659a:	2201      	movs	r2, #1
 800659c:	f000 f9a5 	bl	80068ea <USBD_CtlSendData>
        break;
 80065a0:	e7f4      	b.n	800658c <USBD_GetConfig+0x22>
        USBD_CtlError(pdev, req);
 80065a2:	f7ff fe90 	bl	80062c6 <USBD_CtlError>
}
 80065a6:	e7f1      	b.n	800658c <USBD_GetConfig+0x22>

080065a8 <USBD_GetStatus>:
{
 80065a8:	b508      	push	{r3, lr}
  switch (pdev->dev_state)
 80065aa:	f890 329c 	ldrb.w	r3, [r0, #668]	@ 0x29c
 80065ae:	3b01      	subs	r3, #1
 80065b0:	2b02      	cmp	r3, #2
 80065b2:	d812      	bhi.n	80065da <USBD_GetStatus+0x32>
      if (req->wLength != 0x2U)
 80065b4:	88cb      	ldrh	r3, [r1, #6]
 80065b6:	2b02      	cmp	r3, #2
 80065b8:	d10c      	bne.n	80065d4 <USBD_GetStatus+0x2c>
      pdev->dev_config_status = 0U;
 80065ba:	2300      	movs	r3, #0
 80065bc:	60c3      	str	r3, [r0, #12]
      if (pdev->dev_remote_wakeup)
 80065be:	f8d0 32a4 	ldr.w	r3, [r0, #676]	@ 0x2a4
 80065c2:	b10b      	cbz	r3, 80065c8 <USBD_GetStatus+0x20>
        pdev->dev_config_status |= USB_CONFIG_REMOTE_WAKEUP;
 80065c4:	2302      	movs	r3, #2
 80065c6:	60c3      	str	r3, [r0, #12]
      USBD_CtlSendData(pdev, (uint8_t *)(void *)&pdev->dev_config_status, 2U);
 80065c8:	2202      	movs	r2, #2
 80065ca:	f100 010c 	add.w	r1, r0, #12
 80065ce:	f000 f98c 	bl	80068ea <USBD_CtlSendData>
}
 80065d2:	bd08      	pop	{r3, pc}
        USBD_CtlError(pdev, req);
 80065d4:	f7ff fe77 	bl	80062c6 <USBD_CtlError>
        break;
 80065d8:	e7fb      	b.n	80065d2 <USBD_GetStatus+0x2a>
      USBD_CtlError(pdev, req);
 80065da:	f7ff fe74 	bl	80062c6 <USBD_CtlError>
}
 80065de:	e7f8      	b.n	80065d2 <USBD_GetStatus+0x2a>

080065e0 <USBD_ClrFeature>:
{
 80065e0:	b508      	push	{r3, lr}
  switch (pdev->dev_state)
 80065e2:	f890 329c 	ldrb.w	r3, [r0, #668]	@ 0x29c
 80065e6:	3b01      	subs	r3, #1
 80065e8:	2b02      	cmp	r3, #2
 80065ea:	d809      	bhi.n	8006600 <USBD_ClrFeature+0x20>
      if (req->wValue == USB_FEATURE_REMOTE_WAKEUP)
 80065ec:	884b      	ldrh	r3, [r1, #2]
 80065ee:	2b01      	cmp	r3, #1
 80065f0:	d000      	beq.n	80065f4 <USBD_ClrFeature+0x14>
}
 80065f2:	bd08      	pop	{r3, pc}
        pdev->dev_remote_wakeup = 0U;
 80065f4:	2300      	movs	r3, #0
 80065f6:	f8c0 32a4 	str.w	r3, [r0, #676]	@ 0x2a4
        USBD_CtlSendStatus(pdev);
 80065fa:	f000 f9a2 	bl	8006942 <USBD_CtlSendStatus>
 80065fe:	e7f8      	b.n	80065f2 <USBD_ClrFeature+0x12>
      USBD_CtlError(pdev, req);
 8006600:	f7ff fe61 	bl	80062c6 <USBD_CtlError>
}
 8006604:	e7f5      	b.n	80065f2 <USBD_ClrFeature+0x12>

08006606 <USBD_StdDevReq>:
{
 8006606:	b508      	push	{r3, lr}
  switch (req->bmRequest & USB_REQ_TYPE_MASK)
 8006608:	780b      	ldrb	r3, [r1, #0]
 800660a:	f003 0360 	and.w	r3, r3, #96	@ 0x60
 800660e:	2b20      	cmp	r3, #32
 8006610:	d005      	beq.n	800661e <USBD_StdDevReq+0x18>
 8006612:	2b40      	cmp	r3, #64	@ 0x40
 8006614:	d003      	beq.n	800661e <USBD_StdDevReq+0x18>
 8006616:	b143      	cbz	r3, 800662a <USBD_StdDevReq+0x24>
      USBD_CtlError(pdev, req);
 8006618:	f7ff fe55 	bl	80062c6 <USBD_CtlError>
      break;
 800661c:	e003      	b.n	8006626 <USBD_StdDevReq+0x20>
      pdev->pClass->Setup(pdev, req);
 800661e:	f8d0 32b4 	ldr.w	r3, [r0, #692]	@ 0x2b4
 8006622:	689b      	ldr	r3, [r3, #8]
 8006624:	4798      	blx	r3
}
 8006626:	2000      	movs	r0, #0
 8006628:	bd08      	pop	{r3, pc}
      switch (req->bRequest)
 800662a:	784b      	ldrb	r3, [r1, #1]
 800662c:	2b09      	cmp	r3, #9
 800662e:	d81b      	bhi.n	8006668 <USBD_StdDevReq+0x62>
 8006630:	e8df f003 	tbb	[pc, r3]
 8006634:	141a1711 	.word	0x141a1711
 8006638:	1a05081a 	.word	0x1a05081a
 800663c:	0b0e      	.short	0x0b0e
          USBD_GetDescriptor(pdev, req);
 800663e:	f7ff fe4c 	bl	80062da <USBD_GetDescriptor>
          break;
 8006642:	e7f0      	b.n	8006626 <USBD_StdDevReq+0x20>
          USBD_SetAddress(pdev, req);
 8006644:	f7ff ff0c 	bl	8006460 <USBD_SetAddress>
          break;
 8006648:	e7ed      	b.n	8006626 <USBD_StdDevReq+0x20>
          USBD_SetConfig(pdev, req);
 800664a:	f7ff ff30 	bl	80064ae <USBD_SetConfig>
          break;
 800664e:	e7ea      	b.n	8006626 <USBD_StdDevReq+0x20>
          USBD_GetConfig(pdev, req);
 8006650:	f7ff ff8b 	bl	800656a <USBD_GetConfig>
          break;
 8006654:	e7e7      	b.n	8006626 <USBD_StdDevReq+0x20>
          USBD_GetStatus(pdev, req);
 8006656:	f7ff ffa7 	bl	80065a8 <USBD_GetStatus>
          break;
 800665a:	e7e4      	b.n	8006626 <USBD_StdDevReq+0x20>
          USBD_SetFeature(pdev, req);
 800665c:	f7ff fe15 	bl	800628a <USBD_SetFeature>
          break;
 8006660:	e7e1      	b.n	8006626 <USBD_StdDevReq+0x20>
          USBD_ClrFeature(pdev, req);
 8006662:	f7ff ffbd 	bl	80065e0 <USBD_ClrFeature>
          break;
 8006666:	e7de      	b.n	8006626 <USBD_StdDevReq+0x20>
          USBD_CtlError(pdev, req);
 8006668:	f7ff fe2d 	bl	80062c6 <USBD_CtlError>
          break;
 800666c:	e7db      	b.n	8006626 <USBD_StdDevReq+0x20>

0800666e <USBD_StdItfReq>:
{
 800666e:	b538      	push	{r3, r4, r5, lr}
 8006670:	4605      	mov	r5, r0
 8006672:	460c      	mov	r4, r1
  switch (req->bmRequest & USB_REQ_TYPE_MASK)
 8006674:	780b      	ldrb	r3, [r1, #0]
 8006676:	f003 0360 	and.w	r3, r3, #96	@ 0x60
 800667a:	2b20      	cmp	r3, #32
 800667c:	d006      	beq.n	800668c <USBD_StdItfReq+0x1e>
 800667e:	2b40      	cmp	r3, #64	@ 0x40
 8006680:	d004      	beq.n	800668c <USBD_StdItfReq+0x1e>
 8006682:	b11b      	cbz	r3, 800668c <USBD_StdItfReq+0x1e>
      USBD_CtlError(pdev, req);
 8006684:	f7ff fe1f 	bl	80062c6 <USBD_CtlError>
}
 8006688:	2000      	movs	r0, #0
 800668a:	bd38      	pop	{r3, r4, r5, pc}
      switch (pdev->dev_state)
 800668c:	f895 329c 	ldrb.w	r3, [r5, #668]	@ 0x29c
 8006690:	3b01      	subs	r3, #1
 8006692:	2b02      	cmp	r3, #2
 8006694:	d816      	bhi.n	80066c4 <USBD_StdItfReq+0x56>
          if (LOBYTE(req->wIndex) <= USBD_MAX_NUM_INTERFACES)
 8006696:	7923      	ldrb	r3, [r4, #4]
 8006698:	2b02      	cmp	r3, #2
 800669a:	d80e      	bhi.n	80066ba <USBD_StdItfReq+0x4c>
            ret = (USBD_StatusTypeDef)pdev->pClass->Setup(pdev, req);
 800669c:	f8d5 32b4 	ldr.w	r3, [r5, #692]	@ 0x2b4
 80066a0:	689b      	ldr	r3, [r3, #8]
 80066a2:	4621      	mov	r1, r4
 80066a4:	4628      	mov	r0, r5
 80066a6:	4798      	blx	r3
            if ((req->wLength == 0U) && (ret == USBD_OK))
 80066a8:	88e3      	ldrh	r3, [r4, #6]
 80066aa:	2b00      	cmp	r3, #0
 80066ac:	d1ec      	bne.n	8006688 <USBD_StdItfReq+0x1a>
 80066ae:	2800      	cmp	r0, #0
 80066b0:	d1ea      	bne.n	8006688 <USBD_StdItfReq+0x1a>
              USBD_CtlSendStatus(pdev);
 80066b2:	4628      	mov	r0, r5
 80066b4:	f000 f945 	bl	8006942 <USBD_CtlSendStatus>
 80066b8:	e7e6      	b.n	8006688 <USBD_StdItfReq+0x1a>
            USBD_CtlError(pdev, req);
 80066ba:	4621      	mov	r1, r4
 80066bc:	4628      	mov	r0, r5
 80066be:	f7ff fe02 	bl	80062c6 <USBD_CtlError>
 80066c2:	e7e1      	b.n	8006688 <USBD_StdItfReq+0x1a>
          USBD_CtlError(pdev, req);
 80066c4:	4621      	mov	r1, r4
 80066c6:	4628      	mov	r0, r5
 80066c8:	f7ff fdfd 	bl	80062c6 <USBD_CtlError>
          break;
 80066cc:	e7dc      	b.n	8006688 <USBD_StdItfReq+0x1a>

080066ce <USBD_StdEPReq>:
{
 80066ce:	b570      	push	{r4, r5, r6, lr}
 80066d0:	4605      	mov	r5, r0
  ep_addr  = LOBYTE(req->wIndex);
 80066d2:	888b      	ldrh	r3, [r1, #4]
  switch (req->bmRequest & USB_REQ_TYPE_MASK)
 80066d4:	780c      	ldrb	r4, [r1, #0]
 80066d6:	f004 0460 	and.w	r4, r4, #96	@ 0x60
 80066da:	2c20      	cmp	r4, #32
 80066dc:	d007      	beq.n	80066ee <USBD_StdEPReq+0x20>
 80066de:	b2da      	uxtb	r2, r3
 80066e0:	2c40      	cmp	r4, #64	@ 0x40
 80066e2:	d004      	beq.n	80066ee <USBD_StdEPReq+0x20>
 80066e4:	b15c      	cbz	r4, 80066fe <USBD_StdEPReq+0x30>
      USBD_CtlError(pdev, req);
 80066e6:	f7ff fdee 	bl	80062c6 <USBD_CtlError>
  return ret;
 80066ea:	2400      	movs	r4, #0
      break;
 80066ec:	e005      	b.n	80066fa <USBD_StdEPReq+0x2c>
      pdev->pClass->Setup(pdev, req);
 80066ee:	f8d5 32b4 	ldr.w	r3, [r5, #692]	@ 0x2b4
 80066f2:	689b      	ldr	r3, [r3, #8]
 80066f4:	4628      	mov	r0, r5
 80066f6:	4798      	blx	r3
  return ret;
 80066f8:	2400      	movs	r4, #0
}
 80066fa:	4620      	mov	r0, r4
 80066fc:	bd70      	pop	{r4, r5, r6, pc}
      if ((req->bmRequest & 0x60U) == 0x20U)
 80066fe:	2c20      	cmp	r4, #32
 8006700:	d009      	beq.n	8006716 <USBD_StdEPReq+0x48>
      switch (req->bRequest)
 8006702:	784e      	ldrb	r6, [r1, #1]
 8006704:	2e01      	cmp	r6, #1
 8006706:	d033      	beq.n	8006770 <USBD_StdEPReq+0xa2>
 8006708:	2e03      	cmp	r6, #3
 800670a:	d00a      	beq.n	8006722 <USBD_StdEPReq+0x54>
 800670c:	2e00      	cmp	r6, #0
 800670e:	d055      	beq.n	80067bc <USBD_StdEPReq+0xee>
          USBD_CtlError(pdev, req);
 8006710:	f7ff fdd9 	bl	80062c6 <USBD_CtlError>
          break;
 8006714:	e7f1      	b.n	80066fa <USBD_StdEPReq+0x2c>
        ret = (USBD_StatusTypeDef)pdev->pClass->Setup(pdev, req);
 8006716:	f8d0 32b4 	ldr.w	r3, [r0, #692]	@ 0x2b4
 800671a:	689b      	ldr	r3, [r3, #8]
 800671c:	4798      	blx	r3
 800671e:	4604      	mov	r4, r0
        return ret;
 8006720:	e7eb      	b.n	80066fa <USBD_StdEPReq+0x2c>
          switch (pdev->dev_state)
 8006722:	f890 329c 	ldrb.w	r3, [r0, #668]	@ 0x29c
 8006726:	2b02      	cmp	r3, #2
 8006728:	d004      	beq.n	8006734 <USBD_StdEPReq+0x66>
 800672a:	2b03      	cmp	r3, #3
 800672c:	d011      	beq.n	8006752 <USBD_StdEPReq+0x84>
              USBD_CtlError(pdev, req);
 800672e:	f7ff fdca 	bl	80062c6 <USBD_CtlError>
              break;
 8006732:	e7e2      	b.n	80066fa <USBD_StdEPReq+0x2c>
              if ((ep_addr != 0x00U) && (ep_addr != 0x80U))
 8006734:	b10a      	cbz	r2, 800673a <USBD_StdEPReq+0x6c>
 8006736:	2a80      	cmp	r2, #128	@ 0x80
 8006738:	d103      	bne.n	8006742 <USBD_StdEPReq+0x74>
                USBD_CtlError(pdev, req);
 800673a:	4628      	mov	r0, r5
 800673c:	f7ff fdc3 	bl	80062c6 <USBD_CtlError>
 8006740:	e7db      	b.n	80066fa <USBD_StdEPReq+0x2c>
                USBD_LL_StallEP(pdev, ep_addr);
 8006742:	4611      	mov	r1, r2
 8006744:	f000 fae7 	bl	8006d16 <USBD_LL_StallEP>
                USBD_LL_StallEP(pdev, 0x80U);
 8006748:	2180      	movs	r1, #128	@ 0x80
 800674a:	4628      	mov	r0, r5
 800674c:	f000 fae3 	bl	8006d16 <USBD_LL_StallEP>
 8006750:	e7d3      	b.n	80066fa <USBD_StdEPReq+0x2c>
              if (req->wValue == USB_FEATURE_EP_HALT)
 8006752:	884b      	ldrh	r3, [r1, #2]
 8006754:	b923      	cbnz	r3, 8006760 <USBD_StdEPReq+0x92>
                if ((ep_addr != 0x00U) &&
 8006756:	b11a      	cbz	r2, 8006760 <USBD_StdEPReq+0x92>
 8006758:	2a80      	cmp	r2, #128	@ 0x80
 800675a:	d001      	beq.n	8006760 <USBD_StdEPReq+0x92>
                    (ep_addr != 0x80U) && (req->wLength == 0x00U))
 800675c:	88cb      	ldrh	r3, [r1, #6]
 800675e:	b11b      	cbz	r3, 8006768 <USBD_StdEPReq+0x9a>
              USBD_CtlSendStatus(pdev);
 8006760:	4628      	mov	r0, r5
 8006762:	f000 f8ee 	bl	8006942 <USBD_CtlSendStatus>
              break;
 8006766:	e7c8      	b.n	80066fa <USBD_StdEPReq+0x2c>
                  USBD_LL_StallEP(pdev, ep_addr);
 8006768:	4611      	mov	r1, r2
 800676a:	f000 fad4 	bl	8006d16 <USBD_LL_StallEP>
 800676e:	e7f7      	b.n	8006760 <USBD_StdEPReq+0x92>
          switch (pdev->dev_state)
 8006770:	f890 329c 	ldrb.w	r3, [r0, #668]	@ 0x29c
 8006774:	2b02      	cmp	r3, #2
 8006776:	d004      	beq.n	8006782 <USBD_StdEPReq+0xb4>
 8006778:	2b03      	cmp	r3, #3
 800677a:	d011      	beq.n	80067a0 <USBD_StdEPReq+0xd2>
              USBD_CtlError(pdev, req);
 800677c:	f7ff fda3 	bl	80062c6 <USBD_CtlError>
              break;
 8006780:	e7bb      	b.n	80066fa <USBD_StdEPReq+0x2c>
              if ((ep_addr != 0x00U) && (ep_addr != 0x80U))
 8006782:	b10a      	cbz	r2, 8006788 <USBD_StdEPReq+0xba>
 8006784:	2a80      	cmp	r2, #128	@ 0x80
 8006786:	d103      	bne.n	8006790 <USBD_StdEPReq+0xc2>
                USBD_CtlError(pdev, req);
 8006788:	4628      	mov	r0, r5
 800678a:	f7ff fd9c 	bl	80062c6 <USBD_CtlError>
 800678e:	e7b4      	b.n	80066fa <USBD_StdEPReq+0x2c>
                USBD_LL_StallEP(pdev, ep_addr);
 8006790:	4611      	mov	r1, r2
 8006792:	f000 fac0 	bl	8006d16 <USBD_LL_StallEP>
                USBD_LL_StallEP(pdev, 0x80U);
 8006796:	2180      	movs	r1, #128	@ 0x80
 8006798:	4628      	mov	r0, r5
 800679a:	f000 fabc 	bl	8006d16 <USBD_LL_StallEP>
 800679e:	e7ac      	b.n	80066fa <USBD_StdEPReq+0x2c>
              if (req->wValue == USB_FEATURE_EP_HALT)
 80067a0:	884b      	ldrh	r3, [r1, #2]
 80067a2:	2b00      	cmp	r3, #0
 80067a4:	d1a9      	bne.n	80066fa <USBD_StdEPReq+0x2c>
                if ((ep_addr & 0x7FU) != 0x00U)
 80067a6:	f012 0f7f 	tst.w	r2, #127	@ 0x7f
 80067aa:	d103      	bne.n	80067b4 <USBD_StdEPReq+0xe6>
                USBD_CtlSendStatus(pdev);
 80067ac:	4628      	mov	r0, r5
 80067ae:	f000 f8c8 	bl	8006942 <USBD_CtlSendStatus>
 80067b2:	e7a2      	b.n	80066fa <USBD_StdEPReq+0x2c>
                  USBD_LL_ClearStallEP(pdev, ep_addr);
 80067b4:	4611      	mov	r1, r2
 80067b6:	f000 fab6 	bl	8006d26 <USBD_LL_ClearStallEP>
 80067ba:	e7f7      	b.n	80067ac <USBD_StdEPReq+0xde>
          switch (pdev->dev_state)
 80067bc:	f890 029c 	ldrb.w	r0, [r0, #668]	@ 0x29c
 80067c0:	2802      	cmp	r0, #2
 80067c2:	d006      	beq.n	80067d2 <USBD_StdEPReq+0x104>
 80067c4:	2803      	cmp	r0, #3
 80067c6:	d029      	beq.n	800681c <USBD_StdEPReq+0x14e>
              USBD_CtlError(pdev, req);
 80067c8:	4628      	mov	r0, r5
 80067ca:	f7ff fd7c 	bl	80062c6 <USBD_CtlError>
  return ret;
 80067ce:	4634      	mov	r4, r6
              break;
 80067d0:	e793      	b.n	80066fa <USBD_StdEPReq+0x2c>
              if ((ep_addr != 0x00U) && (ep_addr != 0x80U))
 80067d2:	b10a      	cbz	r2, 80067d8 <USBD_StdEPReq+0x10a>
 80067d4:	2a80      	cmp	r2, #128	@ 0x80
 80067d6:	d113      	bne.n	8006800 <USBD_StdEPReq+0x132>
              pep = ((ep_addr & 0x80U) == 0x80U) ? &pdev->ep_in[ep_addr & 0x7FU] : \
 80067d8:	f013 0f80 	tst.w	r3, #128	@ 0x80
 80067dc:	d115      	bne.n	800680a <USBD_StdEPReq+0x13c>
                    &pdev->ep_out[ep_addr & 0x7FU];
 80067de:	f002 027f 	and.w	r2, r2, #127	@ 0x7f
              pep = ((ep_addr & 0x80U) == 0x80U) ? &pdev->ep_in[ep_addr & 0x7FU] : \
 80067e2:	eb02 0282 	add.w	r2, r2, r2, lsl #2
 80067e6:	0091      	lsls	r1, r2, #2
 80067e8:	f501 71a8 	add.w	r1, r1, #336	@ 0x150
 80067ec:	4429      	add	r1, r5
 80067ee:	3104      	adds	r1, #4
              pep->status = 0x0000U;
 80067f0:	2300      	movs	r3, #0
 80067f2:	600b      	str	r3, [r1, #0]
              USBD_CtlSendData(pdev, (uint8_t *)(void *)&pep->status, 2U);
 80067f4:	2202      	movs	r2, #2
 80067f6:	4628      	mov	r0, r5
 80067f8:	f000 f877 	bl	80068ea <USBD_CtlSendData>
  return ret;
 80067fc:	4634      	mov	r4, r6
              break;
 80067fe:	e77c      	b.n	80066fa <USBD_StdEPReq+0x2c>
                USBD_CtlError(pdev, req);
 8006800:	4628      	mov	r0, r5
 8006802:	f7ff fd60 	bl	80062c6 <USBD_CtlError>
  return ret;
 8006806:	4634      	mov	r4, r6
                break;
 8006808:	e777      	b.n	80066fa <USBD_StdEPReq+0x2c>
              pep = ((ep_addr & 0x80U) == 0x80U) ? &pdev->ep_in[ep_addr & 0x7FU] : \
 800680a:	f002 027f 	and.w	r2, r2, #127	@ 0x7f
 800680e:	eb02 0282 	add.w	r2, r2, r2, lsl #2
 8006812:	0091      	lsls	r1, r2, #2
 8006814:	3110      	adds	r1, #16
 8006816:	4429      	add	r1, r5
 8006818:	3104      	adds	r1, #4
 800681a:	e7e9      	b.n	80067f0 <USBD_StdEPReq+0x122>
              if ((ep_addr & 0x80U) == 0x80U)
 800681c:	b25b      	sxtb	r3, r3
 800681e:	2b00      	cmp	r3, #0
 8006820:	db1f      	blt.n	8006862 <USBD_StdEPReq+0x194>
                if (pdev->ep_out[ep_addr & 0xFU].is_used == 0U)
 8006822:	f002 000f 	and.w	r0, r2, #15
 8006826:	eb00 0080 	add.w	r0, r0, r0, lsl #2
 800682a:	eb05 0080 	add.w	r0, r5, r0, lsl #2
 800682e:	f8d0 0158 	ldr.w	r0, [r0, #344]	@ 0x158
 8006832:	b320      	cbz	r0, 800687e <USBD_StdEPReq+0x1b0>
              pep = ((ep_addr & 0x80U) == 0x80U) ? &pdev->ep_in[ep_addr & 0x7FU] : \
 8006834:	2b00      	cmp	r3, #0
 8006836:	db27      	blt.n	8006888 <USBD_StdEPReq+0x1ba>
                    &pdev->ep_out[ep_addr & 0x7FU];
 8006838:	f002 037f 	and.w	r3, r2, #127	@ 0x7f
              pep = ((ep_addr & 0x80U) == 0x80U) ? &pdev->ep_in[ep_addr & 0x7FU] : \
 800683c:	eb03 0383 	add.w	r3, r3, r3, lsl #2
 8006840:	009c      	lsls	r4, r3, #2
 8006842:	f504 74a8 	add.w	r4, r4, #336	@ 0x150
 8006846:	442c      	add	r4, r5
 8006848:	3404      	adds	r4, #4
              if ((ep_addr == 0x00U) || (ep_addr == 0x80U))
 800684a:	b10a      	cbz	r2, 8006850 <USBD_StdEPReq+0x182>
 800684c:	2a80      	cmp	r2, #128	@ 0x80
 800684e:	d124      	bne.n	800689a <USBD_StdEPReq+0x1cc>
                pep->status = 0x0000U;
 8006850:	2300      	movs	r3, #0
 8006852:	6023      	str	r3, [r4, #0]
              USBD_CtlSendData(pdev, (uint8_t *)(void *)&pep->status, 2U);
 8006854:	2202      	movs	r2, #2
 8006856:	4621      	mov	r1, r4
 8006858:	4628      	mov	r0, r5
 800685a:	f000 f846 	bl	80068ea <USBD_CtlSendData>
  return ret;
 800685e:	4634      	mov	r4, r6
              break;
 8006860:	e74b      	b.n	80066fa <USBD_StdEPReq+0x2c>
                if (pdev->ep_in[ep_addr & 0xFU].is_used == 0U)
 8006862:	f002 000f 	and.w	r0, r2, #15
 8006866:	eb00 0080 	add.w	r0, r0, r0, lsl #2
 800686a:	eb05 0080 	add.w	r0, r5, r0, lsl #2
 800686e:	6980      	ldr	r0, [r0, #24]
 8006870:	2800      	cmp	r0, #0
 8006872:	d1df      	bne.n	8006834 <USBD_StdEPReq+0x166>
                  USBD_CtlError(pdev, req);
 8006874:	4628      	mov	r0, r5
 8006876:	f7ff fd26 	bl	80062c6 <USBD_CtlError>
  return ret;
 800687a:	4634      	mov	r4, r6
                  break;
 800687c:	e73d      	b.n	80066fa <USBD_StdEPReq+0x2c>
                  USBD_CtlError(pdev, req);
 800687e:	4628      	mov	r0, r5
 8006880:	f7ff fd21 	bl	80062c6 <USBD_CtlError>
  return ret;
 8006884:	4634      	mov	r4, r6
                  break;
 8006886:	e738      	b.n	80066fa <USBD_StdEPReq+0x2c>
              pep = ((ep_addr & 0x80U) == 0x80U) ? &pdev->ep_in[ep_addr & 0x7FU] : \
 8006888:	f002 037f 	and.w	r3, r2, #127	@ 0x7f
 800688c:	eb03 0383 	add.w	r3, r3, r3, lsl #2
 8006890:	009c      	lsls	r4, r3, #2
 8006892:	3410      	adds	r4, #16
 8006894:	442c      	add	r4, r5
 8006896:	3404      	adds	r4, #4
 8006898:	e7d7      	b.n	800684a <USBD_StdEPReq+0x17c>
              else if (USBD_LL_IsStallEP(pdev, ep_addr))
 800689a:	4611      	mov	r1, r2
 800689c:	4628      	mov	r0, r5
 800689e:	f000 fa4a 	bl	8006d36 <USBD_LL_IsStallEP>
 80068a2:	b110      	cbz	r0, 80068aa <USBD_StdEPReq+0x1dc>
                pep->status = 0x0001U;
 80068a4:	2301      	movs	r3, #1
 80068a6:	6023      	str	r3, [r4, #0]
 80068a8:	e7d4      	b.n	8006854 <USBD_StdEPReq+0x186>
                pep->status = 0x0000U;
 80068aa:	2300      	movs	r3, #0
 80068ac:	6023      	str	r3, [r4, #0]
 80068ae:	e7d1      	b.n	8006854 <USBD_StdEPReq+0x186>

080068b0 <USBD_GetString>:
  if (desc != NULL)
 80068b0:	b1d0      	cbz	r0, 80068e8 <USBD_GetString+0x38>
{
 80068b2:	b570      	push	{r4, r5, r6, lr}
 80068b4:	460d      	mov	r5, r1
 80068b6:	4616      	mov	r6, r2
 80068b8:	4604      	mov	r4, r0
    *len = (uint16_t)USBD_GetLen(desc) * 2U + 2U;
 80068ba:	f7ff fcdc 	bl	8006276 <USBD_GetLen>
 80068be:	1c43      	adds	r3, r0, #1
 80068c0:	005b      	lsls	r3, r3, #1
 80068c2:	b29b      	uxth	r3, r3
 80068c4:	8033      	strh	r3, [r6, #0]
    unicode[idx++] = *(uint8_t *)(void *)len;
 80068c6:	702b      	strb	r3, [r5, #0]
    unicode[idx++] = USB_DESC_TYPE_STRING;
 80068c8:	2303      	movs	r3, #3
 80068ca:	706b      	strb	r3, [r5, #1]
 80068cc:	2302      	movs	r3, #2
    while (*desc != '\0')
 80068ce:	e007      	b.n	80068e0 <USBD_GetString+0x30>
      unicode[idx++] = *desc++;
 80068d0:	3401      	adds	r4, #1
 80068d2:	1c5a      	adds	r2, r3, #1
 80068d4:	b2d2      	uxtb	r2, r2
 80068d6:	54e8      	strb	r0, [r5, r3]
      unicode[idx++] =  0U;
 80068d8:	3302      	adds	r3, #2
 80068da:	b2db      	uxtb	r3, r3
 80068dc:	2100      	movs	r1, #0
 80068de:	54a9      	strb	r1, [r5, r2]
    while (*desc != '\0')
 80068e0:	7820      	ldrb	r0, [r4, #0]
 80068e2:	2800      	cmp	r0, #0
 80068e4:	d1f4      	bne.n	80068d0 <USBD_GetString+0x20>
}
 80068e6:	bd70      	pop	{r4, r5, r6, pc}
 80068e8:	4770      	bx	lr

080068ea <USBD_CtlSendData>:
* @param  len: length of data to be sent
* @retval status
*/
USBD_StatusTypeDef USBD_CtlSendData(USBD_HandleTypeDef *pdev,
                                    uint8_t *pbuf, uint16_t len)
{
 80068ea:	b508      	push	{r3, lr}
 80068ec:	4613      	mov	r3, r2
  /* Set EP0 State */
  pdev->ep0_state = USBD_EP0_DATA_IN;
 80068ee:	2202      	movs	r2, #2
 80068f0:	f8c0 2294 	str.w	r2, [r0, #660]	@ 0x294
  pdev->ep_in[0].total_length = len;
 80068f4:	61c3      	str	r3, [r0, #28]
  pdev->ep_in[0].rem_length   = len;
 80068f6:	6203      	str	r3, [r0, #32]

  /* Start the transfer */
  USBD_LL_Transmit(pdev, 0x00U, pbuf, len);
 80068f8:	460a      	mov	r2, r1
 80068fa:	2100      	movs	r1, #0
 80068fc:	f000 fa39 	bl	8006d72 <USBD_LL_Transmit>

  return USBD_OK;
}
 8006900:	2000      	movs	r0, #0
 8006902:	bd08      	pop	{r3, pc}

08006904 <USBD_CtlContinueSendData>:
* @param  len: length of data to be sent
* @retval status
*/
USBD_StatusTypeDef USBD_CtlContinueSendData(USBD_HandleTypeDef *pdev,
                                            uint8_t *pbuf, uint16_t len)
{
 8006904:	b508      	push	{r3, lr}
 8006906:	4613      	mov	r3, r2
  /* Start the next transfer */
  USBD_LL_Transmit(pdev, 0x00U, pbuf, len);
 8006908:	460a      	mov	r2, r1
 800690a:	2100      	movs	r1, #0
 800690c:	f000 fa31 	bl	8006d72 <USBD_LL_Transmit>

  return USBD_OK;
}
 8006910:	2000      	movs	r0, #0
 8006912:	bd08      	pop	{r3, pc}

08006914 <USBD_CtlPrepareRx>:
* @param  len: length of data to be received
* @retval status
*/
USBD_StatusTypeDef USBD_CtlPrepareRx(USBD_HandleTypeDef *pdev,
                                     uint8_t *pbuf, uint16_t len)
{
 8006914:	b508      	push	{r3, lr}
 8006916:	4613      	mov	r3, r2
  /* Set EP0 State */
  pdev->ep0_state = USBD_EP0_DATA_OUT;
 8006918:	2203      	movs	r2, #3
 800691a:	f8c0 2294 	str.w	r2, [r0, #660]	@ 0x294
  pdev->ep_out[0].total_length = len;
 800691e:	f8c0 315c 	str.w	r3, [r0, #348]	@ 0x15c
  pdev->ep_out[0].rem_length   = len;
 8006922:	f8c0 3160 	str.w	r3, [r0, #352]	@ 0x160

  /* Start the transfer */
  USBD_LL_PrepareReceive(pdev, 0U, pbuf, len);
 8006926:	460a      	mov	r2, r1
 8006928:	2100      	movs	r1, #0
 800692a:	f000 fa2a 	bl	8006d82 <USBD_LL_PrepareReceive>

  return USBD_OK;
}
 800692e:	2000      	movs	r0, #0
 8006930:	bd08      	pop	{r3, pc}

08006932 <USBD_CtlContinueRx>:
* @param  len: length of data to be received
* @retval status
*/
USBD_StatusTypeDef USBD_CtlContinueRx(USBD_HandleTypeDef *pdev,
                                      uint8_t *pbuf, uint16_t len)
{
 8006932:	b508      	push	{r3, lr}
 8006934:	4613      	mov	r3, r2
  USBD_LL_PrepareReceive(pdev, 0U, pbuf, len);
 8006936:	460a      	mov	r2, r1
 8006938:	2100      	movs	r1, #0
 800693a:	f000 fa22 	bl	8006d82 <USBD_LL_PrepareReceive>

  return USBD_OK;
}
 800693e:	2000      	movs	r0, #0
 8006940:	bd08      	pop	{r3, pc}

08006942 <USBD_CtlSendStatus>:
*         send zero lzngth packet on the ctl pipe
* @param  pdev: device instance
* @retval status
*/
USBD_StatusTypeDef USBD_CtlSendStatus(USBD_HandleTypeDef *pdev)
{
 8006942:	b508      	push	{r3, lr}
  /* Set EP0 State */
  pdev->ep0_state = USBD_EP0_STATUS_IN;
 8006944:	2304      	movs	r3, #4
 8006946:	f8c0 3294 	str.w	r3, [r0, #660]	@ 0x294

  /* Start the transfer */
  USBD_LL_Transmit(pdev, 0x00U, NULL, 0U);
 800694a:	2300      	movs	r3, #0
 800694c:	461a      	mov	r2, r3
 800694e:	4619      	mov	r1, r3
 8006950:	f000 fa0f 	bl	8006d72 <USBD_LL_Transmit>

  return USBD_OK;
}
 8006954:	2000      	movs	r0, #0
 8006956:	bd08      	pop	{r3, pc}

08006958 <USBD_CtlReceiveStatus>:
*         receive zero lzngth packet on the ctl pipe
* @param  pdev: device instance
* @retval status
*/
USBD_StatusTypeDef USBD_CtlReceiveStatus(USBD_HandleTypeDef *pdev)
{
 8006958:	b508      	push	{r3, lr}
  /* Set EP0 State */
  pdev->ep0_state = USBD_EP0_STATUS_OUT;
 800695a:	2305      	movs	r3, #5
 800695c:	f8c0 3294 	str.w	r3, [r0, #660]	@ 0x294

  /* Start the transfer */
  USBD_LL_PrepareReceive(pdev, 0U, NULL, 0U);
 8006960:	2300      	movs	r3, #0
 8006962:	461a      	mov	r2, r3
 8006964:	4619      	mov	r1, r3
 8006966:	f000 fa0c 	bl	8006d82 <USBD_LL_PrepareReceive>

  return USBD_OK;
}
 800696a:	2000      	movs	r0, #0
 800696c:	bd08      	pop	{r3, pc}

0800696e <MX_USB_DEVICE_Init>:
/**
  * Init USB device Library, add supported class and start the library
  * @retval None
  */
void MX_USB_DEVICE_Init(void)
{
 800696e:	b508      	push	{r3, lr}
  /* USER CODE BEGIN USB_DEVICE_Init_PreTreatment */
	USBD_CustomHID_fops_FS.pReport = HID_report_desc;
 8006970:	f240 03e4 	movw	r3, #228	@ 0xe4
 8006974:	f2c2 0300 	movt	r3, #8192	@ 0x2000
 8006978:	f240 6248 	movw	r2, #1608	@ 0x648
 800697c:	f2c2 0200 	movt	r2, #8192	@ 0x2000
 8006980:	601a      	str	r2, [r3, #0]
  /* USER CODE END USB_DEVICE_Init_PreTreatment */

  /* Init Device Library, add supported class and start the library. */
  if (USBD_Init(&hUsbDeviceFS, &FS_Desc, DEVICE_FS) != USBD_OK)
 8006982:	2200      	movs	r2, #0
 8006984:	f240 612c 	movw	r1, #1580	@ 0x62c
 8006988:	f2c2 0100 	movt	r1, #8192	@ 0x2000
 800698c:	f241 3060 	movw	r0, #4960	@ 0x1360
 8006990:	f2c2 0000 	movt	r0, #8192	@ 0x2000
 8006994:	f7ff fb11 	bl	8005fba <USBD_Init>
 8006998:	b9e8      	cbnz	r0, 80069d6 <MX_USB_DEVICE_Init+0x68>
  {
    Error_Handler();
  }
  if (USBD_RegisterClass(&hUsbDeviceFS, &USBD_CUSTOM_HID) != USBD_OK)
 800699a:	f240 01ac 	movw	r1, #172	@ 0xac
 800699e:	f2c2 0100 	movt	r1, #8192	@ 0x2000
 80069a2:	f241 3060 	movw	r0, #4960	@ 0x1360
 80069a6:	f2c2 0000 	movt	r0, #8192	@ 0x2000
 80069aa:	f7ff fb1d 	bl	8005fe8 <USBD_RegisterClass>
 80069ae:	b9a8      	cbnz	r0, 80069dc <MX_USB_DEVICE_Init+0x6e>
  {
    Error_Handler();
  }
  if (USBD_CUSTOM_HID_RegisterInterface(&hUsbDeviceFS, &USBD_CustomHID_fops_FS) != USBD_OK)
 80069b0:	f240 01e4 	movw	r1, #228	@ 0xe4
 80069b4:	f2c2 0100 	movt	r1, #8192	@ 0x2000
 80069b8:	f241 3060 	movw	r0, #4960	@ 0x1360
 80069bc:	f2c2 0000 	movt	r0, #8192	@ 0x2000
 80069c0:	f7ff faf4 	bl	8005fac <USBD_CUSTOM_HID_RegisterInterface>
 80069c4:	b968      	cbnz	r0, 80069e2 <MX_USB_DEVICE_Init+0x74>
  {
    Error_Handler();
  }
  if (USBD_Start(&hUsbDeviceFS) != USBD_OK)
 80069c6:	f241 3060 	movw	r0, #4960	@ 0x1360
 80069ca:	f2c2 0000 	movt	r0, #8192	@ 0x2000
 80069ce:	f7ff fb12 	bl	8005ff6 <USBD_Start>
 80069d2:	b948      	cbnz	r0, 80069e8 <MX_USB_DEVICE_Init+0x7a>
  }

  /* USER CODE BEGIN USB_DEVICE_Init_PostTreatment */

  /* USER CODE END USB_DEVICE_Init_PostTreatment */
}
 80069d4:	bd08      	pop	{r3, pc}
    Error_Handler();
 80069d6:	f7f9 ff98 	bl	800090a <Error_Handler>
 80069da:	e7de      	b.n	800699a <MX_USB_DEVICE_Init+0x2c>
    Error_Handler();
 80069dc:	f7f9 ff95 	bl	800090a <Error_Handler>
 80069e0:	e7e6      	b.n	80069b0 <MX_USB_DEVICE_Init+0x42>
    Error_Handler();
 80069e2:	f7f9 ff92 	bl	800090a <Error_Handler>
 80069e6:	e7ee      	b.n	80069c6 <MX_USB_DEVICE_Init+0x58>
    Error_Handler();
 80069e8:	f7f9 ff8f 	bl	800090a <Error_Handler>
}
 80069ec:	e7f2      	b.n	80069d4 <MX_USB_DEVICE_Init+0x66>

080069ee <CUSTOM_HID_Init_FS>:
static int8_t CUSTOM_HID_Init_FS(void)
{
  /* USER CODE BEGIN 4 */
	return (USBD_OK);
  /* USER CODE END 4 */
}
 80069ee:	2000      	movs	r0, #0
 80069f0:	4770      	bx	lr

080069f2 <CUSTOM_HID_DeInit_FS>:
static int8_t CUSTOM_HID_DeInit_FS(void)
{
  /* USER CODE BEGIN 5 */
	return (USBD_OK);
  /* USER CODE END 5 */
}
 80069f2:	2000      	movs	r0, #0
 80069f4:	4770      	bx	lr

080069f6 <CUSTOM_HID_OutEvent_FS>:
static int8_t CUSTOM_HID_OutEvent_FS(uint8_t event_idx, uint8_t state)
{
  /* USER CODE BEGIN 6 */
	return (USBD_OK);
  /* USER CODE END 6 */
}
 80069f6:	2000      	movs	r0, #0
 80069f8:	4770      	bx	lr

080069fa <USBD_FS_DeviceDescriptor>:
  * @retval Pointer to descriptor buffer
  */
uint8_t * USBD_FS_DeviceDescriptor(USBD_SpeedTypeDef speed, uint16_t *length)
{
  UNUSED(speed);
  *length = sizeof(USBD_FS_DeviceDesc);
 80069fa:	2312      	movs	r3, #18
 80069fc:	800b      	strh	r3, [r1, #0]
  return USBD_FS_DeviceDesc;
}
 80069fe:	f240 6018 	movw	r0, #1560	@ 0x618
 8006a02:	f2c2 0000 	movt	r0, #8192	@ 0x2000
 8006a06:	4770      	bx	lr

08006a08 <USBD_FS_LangIDStrDescriptor>:
  * @retval Pointer to descriptor buffer
  */
uint8_t * USBD_FS_LangIDStrDescriptor(USBD_SpeedTypeDef speed, uint16_t *length)
{
  UNUSED(speed);
  *length = sizeof(USBD_LangIDDesc);
 8006a08:	2304      	movs	r3, #4
 8006a0a:	800b      	strh	r3, [r1, #0]
  return USBD_LangIDDesc;
}
 8006a0c:	f240 6014 	movw	r0, #1556	@ 0x614
 8006a10:	f2c2 0000 	movt	r0, #8192	@ 0x2000
 8006a14:	4770      	bx	lr

08006a16 <IntToUnicode>:
  */
static void IntToUnicode(uint32_t value, uint8_t * pbuf, uint8_t len)
{
  uint8_t idx = 0;

  for (idx = 0; idx < len; idx++)
 8006a16:	2300      	movs	r3, #0
 8006a18:	4293      	cmp	r3, r2
 8006a1a:	d21e      	bcs.n	8006a5a <IntToUnicode+0x44>
{
 8006a1c:	b500      	push	{lr}
 8006a1e:	e010      	b.n	8006a42 <IntToUnicode+0x2c>
    {
      pbuf[2 * idx] = (value >> 28) + '0';
    }
    else
    {
      pbuf[2 * idx] = (value >> 28) + 'A' - 10;
 8006a20:	f10c 0c37 	add.w	ip, ip, #55	@ 0x37
 8006a24:	f801 c013 	strb.w	ip, [r1, r3, lsl #1]
    }

    value = value << 4;
 8006a28:	0100      	lsls	r0, r0, #4

    pbuf[2 * idx + 1] = 0;
 8006a2a:	ea4f 0c43 	mov.w	ip, r3, lsl #1
 8006a2e:	f10c 0c01 	add.w	ip, ip, #1
 8006a32:	f04f 0e00 	mov.w	lr, #0
 8006a36:	f801 e00c 	strb.w	lr, [r1, ip]
  for (idx = 0; idx < len; idx++)
 8006a3a:	3301      	adds	r3, #1
 8006a3c:	b2db      	uxtb	r3, r3
 8006a3e:	4293      	cmp	r3, r2
 8006a40:	d209      	bcs.n	8006a56 <IntToUnicode+0x40>
    if (((value >> 28)) < 0xA)
 8006a42:	ea4f 7c10 	mov.w	ip, r0, lsr #28
 8006a46:	f1b0 4f20 	cmp.w	r0, #2684354560	@ 0xa0000000
 8006a4a:	d2e9      	bcs.n	8006a20 <IntToUnicode+0xa>
      pbuf[2 * idx] = (value >> 28) + '0';
 8006a4c:	f10c 0c30 	add.w	ip, ip, #48	@ 0x30
 8006a50:	f801 c013 	strb.w	ip, [r1, r3, lsl #1]
 8006a54:	e7e8      	b.n	8006a28 <IntToUnicode+0x12>
  }
}
 8006a56:	f85d fb04 	ldr.w	pc, [sp], #4
 8006a5a:	4770      	bx	lr

08006a5c <Get_SerialNum>:
{
 8006a5c:	b538      	push	{r3, r4, r5, lr}
  deviceserial0 = *(uint32_t *) DEVICE_ID1;
 8006a5e:	f44f 4370 	mov.w	r3, #61440	@ 0xf000
 8006a62:	f6c1 73ff 	movt	r3, #8191	@ 0x1fff
 8006a66:	f8d3 07e8 	ldr.w	r0, [r3, #2024]	@ 0x7e8
  deviceserial1 = *(uint32_t *) DEVICE_ID2;
 8006a6a:	f8d3 47ec 	ldr.w	r4, [r3, #2028]	@ 0x7ec
  deviceserial2 = *(uint32_t *) DEVICE_ID3;
 8006a6e:	f8d3 37f0 	ldr.w	r3, [r3, #2032]	@ 0x7f0
  if (deviceserial0 != 0)
 8006a72:	18c0      	adds	r0, r0, r3
 8006a74:	d100      	bne.n	8006a78 <Get_SerialNum+0x1c>
}
 8006a76:	bd38      	pop	{r3, r4, r5, pc}
    IntToUnicode(deviceserial0, &USBD_StringSerial[2], 8);
 8006a78:	f240 55fa 	movw	r5, #1530	@ 0x5fa
 8006a7c:	f2c2 0500 	movt	r5, #8192	@ 0x2000
 8006a80:	2208      	movs	r2, #8
 8006a82:	4629      	mov	r1, r5
 8006a84:	f7ff ffc7 	bl	8006a16 <IntToUnicode>
    IntToUnicode(deviceserial1, &USBD_StringSerial[18], 4);
 8006a88:	2204      	movs	r2, #4
 8006a8a:	f105 0110 	add.w	r1, r5, #16
 8006a8e:	4620      	mov	r0, r4
 8006a90:	f7ff ffc1 	bl	8006a16 <IntToUnicode>
}
 8006a94:	e7ef      	b.n	8006a76 <Get_SerialNum+0x1a>

08006a96 <USBD_FS_SerialStrDescriptor>:
{
 8006a96:	b508      	push	{r3, lr}
  *length = USB_SIZ_STRING_SERIAL;
 8006a98:	231a      	movs	r3, #26
 8006a9a:	800b      	strh	r3, [r1, #0]
  Get_SerialNum();
 8006a9c:	f7ff ffde 	bl	8006a5c <Get_SerialNum>
}
 8006aa0:	f240 50f8 	movw	r0, #1528	@ 0x5f8
 8006aa4:	f2c2 0000 	movt	r0, #8192	@ 0x2000
 8006aa8:	bd08      	pop	{r3, pc}

08006aaa <USBD_FS_ProductStrDescriptor>:
{
 8006aaa:	b508      	push	{r3, lr}
 8006aac:	460a      	mov	r2, r1
  if(speed == 0)
 8006aae:	b970      	cbnz	r0, 8006ace <USBD_FS_ProductStrDescriptor+0x24>
    USBD_GetString((uint8_t *)USBD_PRODUCT_STRING_FS, USBD_StrDesc, length);
 8006ab0:	f241 6124 	movw	r1, #5668	@ 0x1624
 8006ab4:	f2c2 0100 	movt	r1, #8192	@ 0x2000
 8006ab8:	f648 10b0 	movw	r0, #35248	@ 0x89b0
 8006abc:	f6c0 0000 	movt	r0, #2048	@ 0x800
 8006ac0:	f7ff fef6 	bl	80068b0 <USBD_GetString>
}
 8006ac4:	f241 6024 	movw	r0, #5668	@ 0x1624
 8006ac8:	f2c2 0000 	movt	r0, #8192	@ 0x2000
 8006acc:	bd08      	pop	{r3, pc}
    USBD_GetString((uint8_t *)USBD_PRODUCT_STRING_FS, USBD_StrDesc, length);
 8006ace:	f241 6124 	movw	r1, #5668	@ 0x1624
 8006ad2:	f2c2 0100 	movt	r1, #8192	@ 0x2000
 8006ad6:	f648 10b0 	movw	r0, #35248	@ 0x89b0
 8006ada:	f6c0 0000 	movt	r0, #2048	@ 0x800
 8006ade:	f7ff fee7 	bl	80068b0 <USBD_GetString>
 8006ae2:	e7ef      	b.n	8006ac4 <USBD_FS_ProductStrDescriptor+0x1a>

08006ae4 <USBD_FS_ManufacturerStrDescriptor>:
{
 8006ae4:	b510      	push	{r4, lr}
 8006ae6:	460a      	mov	r2, r1
  USBD_GetString((uint8_t *)USBD_MANUFACTURER_STRING, USBD_StrDesc, length);
 8006ae8:	f241 6424 	movw	r4, #5668	@ 0x1624
 8006aec:	f2c2 0400 	movt	r4, #8192	@ 0x2000
 8006af0:	4621      	mov	r1, r4
 8006af2:	f648 10d0 	movw	r0, #35280	@ 0x89d0
 8006af6:	f6c0 0000 	movt	r0, #2048	@ 0x800
 8006afa:	f7ff fed9 	bl	80068b0 <USBD_GetString>
}
 8006afe:	4620      	mov	r0, r4
 8006b00:	bd10      	pop	{r4, pc}

08006b02 <USBD_FS_ConfigStrDescriptor>:
{
 8006b02:	b508      	push	{r3, lr}
 8006b04:	460a      	mov	r2, r1
  if(speed == USBD_SPEED_HIGH)
 8006b06:	b970      	cbnz	r0, 8006b26 <USBD_FS_ConfigStrDescriptor+0x24>
    USBD_GetString((uint8_t *)USBD_CONFIGURATION_STRING_FS, USBD_StrDesc, length);
 8006b08:	f241 6124 	movw	r1, #5668	@ 0x1624
 8006b0c:	f2c2 0100 	movt	r1, #8192	@ 0x2000
 8006b10:	f648 10e4 	movw	r0, #35300	@ 0x89e4
 8006b14:	f6c0 0000 	movt	r0, #2048	@ 0x800
 8006b18:	f7ff feca 	bl	80068b0 <USBD_GetString>
}
 8006b1c:	f241 6024 	movw	r0, #5668	@ 0x1624
 8006b20:	f2c2 0000 	movt	r0, #8192	@ 0x2000
 8006b24:	bd08      	pop	{r3, pc}
    USBD_GetString((uint8_t *)USBD_CONFIGURATION_STRING_FS, USBD_StrDesc, length);
 8006b26:	f241 6124 	movw	r1, #5668	@ 0x1624
 8006b2a:	f2c2 0100 	movt	r1, #8192	@ 0x2000
 8006b2e:	f648 10e4 	movw	r0, #35300	@ 0x89e4
 8006b32:	f6c0 0000 	movt	r0, #2048	@ 0x800
 8006b36:	f7ff febb 	bl	80068b0 <USBD_GetString>
 8006b3a:	e7ef      	b.n	8006b1c <USBD_FS_ConfigStrDescriptor+0x1a>

08006b3c <USBD_FS_InterfaceStrDescriptor>:
{
 8006b3c:	b508      	push	{r3, lr}
 8006b3e:	460a      	mov	r2, r1
  if(speed == 0)
 8006b40:	b970      	cbnz	r0, 8006b60 <USBD_FS_InterfaceStrDescriptor+0x24>
    USBD_GetString((uint8_t *)USBD_INTERFACE_STRING_FS, USBD_StrDesc, length);
 8006b42:	f241 6124 	movw	r1, #5668	@ 0x1624
 8006b46:	f2c2 0100 	movt	r1, #8192	@ 0x2000
 8006b4a:	f648 10f8 	movw	r0, #35320	@ 0x89f8
 8006b4e:	f6c0 0000 	movt	r0, #2048	@ 0x800
 8006b52:	f7ff fead 	bl	80068b0 <USBD_GetString>
}
 8006b56:	f241 6024 	movw	r0, #5668	@ 0x1624
 8006b5a:	f2c2 0000 	movt	r0, #8192	@ 0x2000
 8006b5e:	bd08      	pop	{r3, pc}
    USBD_GetString((uint8_t *)USBD_INTERFACE_STRING_FS, USBD_StrDesc, length);
 8006b60:	f241 6124 	movw	r1, #5668	@ 0x1624
 8006b64:	f2c2 0100 	movt	r1, #8192	@ 0x2000
 8006b68:	f648 10f8 	movw	r0, #35320	@ 0x89f8
 8006b6c:	f6c0 0000 	movt	r0, #2048	@ 0x800
 8006b70:	f7ff fe9e 	bl	80068b0 <USBD_GetString>
 8006b74:	e7ef      	b.n	8006b56 <USBD_FS_InterfaceStrDescriptor+0x1a>

08006b76 <USBD_Get_USB_Status>:
  */
USBD_StatusTypeDef USBD_Get_USB_Status(HAL_StatusTypeDef hal_status)
{
  USBD_StatusTypeDef usb_status = USBD_OK;

  switch (hal_status)
 8006b76:	2802      	cmp	r0, #2
 8006b78:	d805      	bhi.n	8006b86 <USBD_Get_USB_Status+0x10>
 8006b7a:	e8df f000 	tbb	[pc, r0]
 8006b7e:	0405      	.short	0x0405
 8006b80:	02          	.byte	0x02
 8006b81:	00          	.byte	0x00
    break;
    case HAL_ERROR :
      usb_status = USBD_FAIL;
    break;
    case HAL_BUSY :
      usb_status = USBD_BUSY;
 8006b82:	2001      	movs	r0, #1
    break;
 8006b84:	4770      	bx	lr
      usb_status = USBD_FAIL;
 8006b86:	2002      	movs	r0, #2
    default :
      usb_status = USBD_FAIL;
    break;
  }
  return usb_status;
}
 8006b88:	4770      	bx	lr

08006b8a <HAL_PCD_MspInit>:
  if(pcdHandle->Instance==USB)
 8006b8a:	6802      	ldr	r2, [r0, #0]
 8006b8c:	f44f 43b8 	mov.w	r3, #23552	@ 0x5c00
 8006b90:	f2c4 0300 	movt	r3, #16384	@ 0x4000
 8006b94:	429a      	cmp	r2, r3
 8006b96:	d000      	beq.n	8006b9a <HAL_PCD_MspInit+0x10>
 8006b98:	4770      	bx	lr
{
 8006b9a:	b500      	push	{lr}
 8006b9c:	b083      	sub	sp, #12
    __HAL_RCC_USB_CLK_ENABLE();
 8006b9e:	f44f 5380 	mov.w	r3, #4096	@ 0x1000
 8006ba2:	f2c4 0302 	movt	r3, #16386	@ 0x4002
 8006ba6:	69da      	ldr	r2, [r3, #28]
 8006ba8:	f442 0200 	orr.w	r2, r2, #8388608	@ 0x800000
 8006bac:	61da      	str	r2, [r3, #28]
 8006bae:	69db      	ldr	r3, [r3, #28]
 8006bb0:	f403 0300 	and.w	r3, r3, #8388608	@ 0x800000
 8006bb4:	9301      	str	r3, [sp, #4]
 8006bb6:	9b01      	ldr	r3, [sp, #4]
    HAL_NVIC_SetPriority(USB_LP_CAN1_RX0_IRQn, 0, 0);
 8006bb8:	2200      	movs	r2, #0
 8006bba:	4611      	mov	r1, r2
 8006bbc:	2014      	movs	r0, #20
 8006bbe:	f7fa fd21 	bl	8001604 <HAL_NVIC_SetPriority>
    HAL_NVIC_EnableIRQ(USB_LP_CAN1_RX0_IRQn);
 8006bc2:	2014      	movs	r0, #20
 8006bc4:	f7fa fd2e 	bl	8001624 <HAL_NVIC_EnableIRQ>
}
 8006bc8:	b003      	add	sp, #12
 8006bca:	f85d fb04 	ldr.w	pc, [sp], #4

08006bce <HAL_PCD_SetupStageCallback>:
{
 8006bce:	b508      	push	{r3, lr}
  USBD_LL_SetupStage((USBD_HandleTypeDef*)hpcd->pData, (uint8_t *)hpcd->Setup);
 8006bd0:	f500 7126 	add.w	r1, r0, #664	@ 0x298
 8006bd4:	f8d0 02d4 	ldr.w	r0, [r0, #724]	@ 0x2d4
 8006bd8:	f7ff fa25 	bl	8006026 <USBD_LL_SetupStage>
}
 8006bdc:	bd08      	pop	{r3, pc}

08006bde <HAL_PCD_DataOutStageCallback>:
{
 8006bde:	b508      	push	{r3, lr}
  USBD_LL_DataOutStage((USBD_HandleTypeDef*)hpcd->pData, epnum, hpcd->OUT_ep[epnum].xfer_buff);
 8006be0:	eb01 0381 	add.w	r3, r1, r1, lsl #2
 8006be4:	eb00 03c3 	add.w	r3, r0, r3, lsl #3
 8006be8:	f8d3 2164 	ldr.w	r2, [r3, #356]	@ 0x164
 8006bec:	f8d0 02d4 	ldr.w	r0, [r0, #724]	@ 0x2d4
 8006bf0:	f7ff fa46 	bl	8006080 <USBD_LL_DataOutStage>
}
 8006bf4:	bd08      	pop	{r3, pc}

08006bf6 <HAL_PCD_DataInStageCallback>:
{
 8006bf6:	b508      	push	{r3, lr}
  USBD_LL_DataInStage((USBD_HandleTypeDef*)hpcd->pData, epnum, hpcd->IN_ep[epnum].xfer_buff);
 8006bf8:	eb01 0381 	add.w	r3, r1, r1, lsl #2
 8006bfc:	eb00 03c3 	add.w	r3, r0, r3, lsl #3
 8006c00:	6a5a      	ldr	r2, [r3, #36]	@ 0x24
 8006c02:	f8d0 02d4 	ldr.w	r0, [r0, #724]	@ 0x2d4
 8006c06:	f7ff fa81 	bl	800610c <USBD_LL_DataInStage>
}
 8006c0a:	bd08      	pop	{r3, pc}

08006c0c <HAL_PCD_SOFCallback>:
{
 8006c0c:	b508      	push	{r3, lr}
  USBD_LL_SOF((USBD_HandleTypeDef*)hpcd->pData);
 8006c0e:	f8d0 02d4 	ldr.w	r0, [r0, #724]	@ 0x2d4
 8006c12:	f7ff fb22 	bl	800625a <USBD_LL_SOF>
}
 8006c16:	bd08      	pop	{r3, pc}

08006c18 <HAL_PCD_ResetCallback>:
{
 8006c18:	b510      	push	{r4, lr}
 8006c1a:	4604      	mov	r4, r0
  if ( hpcd->Init.speed != PCD_SPEED_FULL)
 8006c1c:	7983      	ldrb	r3, [r0, #6]
 8006c1e:	2b02      	cmp	r3, #2
 8006c20:	d109      	bne.n	8006c36 <HAL_PCD_ResetCallback+0x1e>
  USBD_LL_SetSpeed((USBD_HandleTypeDef*)hpcd->pData, speed);
 8006c22:	2101      	movs	r1, #1
 8006c24:	f8d4 02d4 	ldr.w	r0, [r4, #724]	@ 0x2d4
 8006c28:	f7ff fb00 	bl	800622c <USBD_LL_SetSpeed>
  USBD_LL_Reset((USBD_HandleTypeDef*)hpcd->pData);
 8006c2c:	f8d4 02d4 	ldr.w	r0, [r4, #724]	@ 0x2d4
 8006c30:	f7ff fad4 	bl	80061dc <USBD_LL_Reset>
}
 8006c34:	bd10      	pop	{r4, pc}
    Error_Handler();
 8006c36:	f7f9 fe68 	bl	800090a <Error_Handler>
 8006c3a:	e7f2      	b.n	8006c22 <HAL_PCD_ResetCallback+0xa>

08006c3c <HAL_PCD_SuspendCallback>:
{
 8006c3c:	b510      	push	{r4, lr}
 8006c3e:	4604      	mov	r4, r0
  USBD_LL_Suspend((USBD_HandleTypeDef*)hpcd->pData);
 8006c40:	f8d0 02d4 	ldr.w	r0, [r0, #724]	@ 0x2d4
 8006c44:	f7ff faf5 	bl	8006232 <USBD_LL_Suspend>
  if (hpcd->Init.low_power_enable)
 8006c48:	7aa3      	ldrb	r3, [r4, #10]
 8006c4a:	b13b      	cbz	r3, 8006c5c <HAL_PCD_SuspendCallback+0x20>
    SCB->SCR |= (uint32_t)((uint32_t)(SCB_SCR_SLEEPDEEP_Msk | SCB_SCR_SLEEPONEXIT_Msk));
 8006c4c:	f44f 436d 	mov.w	r3, #60672	@ 0xed00
 8006c50:	f2ce 0300 	movt	r3, #57344	@ 0xe000
 8006c54:	691a      	ldr	r2, [r3, #16]
 8006c56:	f042 0206 	orr.w	r2, r2, #6
 8006c5a:	611a      	str	r2, [r3, #16]
}
 8006c5c:	bd10      	pop	{r4, pc}

08006c5e <HAL_PCD_ResumeCallback>:
{
 8006c5e:	b508      	push	{r3, lr}
  USBD_LL_Resume((USBD_HandleTypeDef*)hpcd->pData);
 8006c60:	f8d0 02d4 	ldr.w	r0, [r0, #724]	@ 0x2d4
 8006c64:	f7ff faee 	bl	8006244 <USBD_LL_Resume>
}
 8006c68:	bd08      	pop	{r3, pc}

08006c6a <USBD_LL_Init>:
{
 8006c6a:	b510      	push	{r4, lr}
 8006c6c:	4604      	mov	r4, r0
  hpcd_USB_FS.pData = pdev;
 8006c6e:	f641 0050 	movw	r0, #6224	@ 0x1850
 8006c72:	f2c2 0000 	movt	r0, #8192	@ 0x2000
 8006c76:	f8c0 42d4 	str.w	r4, [r0, #724]	@ 0x2d4
  pdev->pData = &hpcd_USB_FS;
 8006c7a:	f8c4 02c0 	str.w	r0, [r4, #704]	@ 0x2c0
  hpcd_USB_FS.Instance = USB;
 8006c7e:	f44f 43b8 	mov.w	r3, #23552	@ 0x5c00
 8006c82:	f2c4 0300 	movt	r3, #16384	@ 0x4000
 8006c86:	6003      	str	r3, [r0, #0]
  hpcd_USB_FS.Init.dev_endpoints = 8;
 8006c88:	2308      	movs	r3, #8
 8006c8a:	7103      	strb	r3, [r0, #4]
  hpcd_USB_FS.Init.speed = PCD_SPEED_FULL;
 8006c8c:	2302      	movs	r3, #2
 8006c8e:	7183      	strb	r3, [r0, #6]
  hpcd_USB_FS.Init.low_power_enable = DISABLE;
 8006c90:	2300      	movs	r3, #0
 8006c92:	7283      	strb	r3, [r0, #10]
  hpcd_USB_FS.Init.lpm_enable = DISABLE;
 8006c94:	72c3      	strb	r3, [r0, #11]
  hpcd_USB_FS.Init.battery_charging_enable = DISABLE;
 8006c96:	7303      	strb	r3, [r0, #12]
  if (HAL_PCD_Init(&hpcd_USB_FS) != HAL_OK)
 8006c98:	f7fb f82e 	bl	8001cf8 <HAL_PCD_Init>
 8006c9c:	b9e8      	cbnz	r0, 8006cda <USBD_LL_Init+0x70>
  HAL_PCDEx_PMAConfig((PCD_HandleTypeDef*)pdev->pData , 0x00 , PCD_SNG_BUF, 0x18);
 8006c9e:	2318      	movs	r3, #24
 8006ca0:	2200      	movs	r2, #0
 8006ca2:	4611      	mov	r1, r2
 8006ca4:	f8d4 02c0 	ldr.w	r0, [r4, #704]	@ 0x2c0
 8006ca8:	f7fb ff94 	bl	8002bd4 <HAL_PCDEx_PMAConfig>
  HAL_PCDEx_PMAConfig((PCD_HandleTypeDef*)pdev->pData , 0x80 , PCD_SNG_BUF, 0x58);
 8006cac:	2358      	movs	r3, #88	@ 0x58
 8006cae:	2200      	movs	r2, #0
 8006cb0:	2180      	movs	r1, #128	@ 0x80
 8006cb2:	f8d4 02c0 	ldr.w	r0, [r4, #704]	@ 0x2c0
 8006cb6:	f7fb ff8d 	bl	8002bd4 <HAL_PCDEx_PMAConfig>
  HAL_PCDEx_PMAConfig((PCD_HandleTypeDef*)pdev->pData , CUSTOM_HID_EPIN_ADDR , PCD_SNG_BUF, 0x98);
 8006cba:	2398      	movs	r3, #152	@ 0x98
 8006cbc:	2200      	movs	r2, #0
 8006cbe:	2181      	movs	r1, #129	@ 0x81
 8006cc0:	f8d4 02c0 	ldr.w	r0, [r4, #704]	@ 0x2c0
 8006cc4:	f7fb ff86 	bl	8002bd4 <HAL_PCDEx_PMAConfig>
  HAL_PCDEx_PMAConfig((PCD_HandleTypeDef*)pdev->pData , CUSTOM_HID_EPOUT_ADDR , PCD_SNG_BUF, 0xD8);
 8006cc8:	23d8      	movs	r3, #216	@ 0xd8
 8006cca:	2200      	movs	r2, #0
 8006ccc:	2101      	movs	r1, #1
 8006cce:	f8d4 02c0 	ldr.w	r0, [r4, #704]	@ 0x2c0
 8006cd2:	f7fb ff7f 	bl	8002bd4 <HAL_PCDEx_PMAConfig>
}
 8006cd6:	2000      	movs	r0, #0
 8006cd8:	bd10      	pop	{r4, pc}
    Error_Handler( );
 8006cda:	f7f9 fe16 	bl	800090a <Error_Handler>
 8006cde:	e7de      	b.n	8006c9e <USBD_LL_Init+0x34>

08006ce0 <USBD_LL_Start>:
{
 8006ce0:	b508      	push	{r3, lr}
  hal_status = HAL_PCD_Start(pdev->pData);
 8006ce2:	f8d0 02c0 	ldr.w	r0, [r0, #704]	@ 0x2c0
 8006ce6:	f7fb f87b 	bl	8001de0 <HAL_PCD_Start>
  usb_status =  USBD_Get_USB_Status(hal_status);
 8006cea:	f7ff ff44 	bl	8006b76 <USBD_Get_USB_Status>
}
 8006cee:	bd08      	pop	{r3, pc}

08006cf0 <USBD_LL_OpenEP>:
{
 8006cf0:	b508      	push	{r3, lr}
 8006cf2:	4694      	mov	ip, r2
 8006cf4:	461a      	mov	r2, r3
  hal_status = HAL_PCD_EP_Open(pdev->pData, ep_addr, ep_mps, ep_type);
 8006cf6:	4663      	mov	r3, ip
 8006cf8:	f8d0 02c0 	ldr.w	r0, [r0, #704]	@ 0x2c0
 8006cfc:	f7fb fe30 	bl	8002960 <HAL_PCD_EP_Open>
  usb_status =  USBD_Get_USB_Status(hal_status);
 8006d00:	f7ff ff39 	bl	8006b76 <USBD_Get_USB_Status>
}
 8006d04:	bd08      	pop	{r3, pc}

08006d06 <USBD_LL_CloseEP>:
{
 8006d06:	b508      	push	{r3, lr}
  hal_status = HAL_PCD_EP_Close(pdev->pData, ep_addr);
 8006d08:	f8d0 02c0 	ldr.w	r0, [r0, #704]	@ 0x2c0
 8006d0c:	f7fb fe6a 	bl	80029e4 <HAL_PCD_EP_Close>
  usb_status =  USBD_Get_USB_Status(hal_status);
 8006d10:	f7ff ff31 	bl	8006b76 <USBD_Get_USB_Status>
}
 8006d14:	bd08      	pop	{r3, pc}

08006d16 <USBD_LL_StallEP>:
{
 8006d16:	b508      	push	{r3, lr}
  hal_status = HAL_PCD_EP_SetStall(pdev->pData, ep_addr);
 8006d18:	f8d0 02c0 	ldr.w	r0, [r0, #704]	@ 0x2c0
 8006d1c:	f7fb fedb 	bl	8002ad6 <HAL_PCD_EP_SetStall>
  usb_status =  USBD_Get_USB_Status(hal_status);
 8006d20:	f7ff ff29 	bl	8006b76 <USBD_Get_USB_Status>
}
 8006d24:	bd08      	pop	{r3, pc}

08006d26 <USBD_LL_ClearStallEP>:
{
 8006d26:	b508      	push	{r3, lr}
  hal_status = HAL_PCD_EP_ClrStall(pdev->pData, ep_addr);
 8006d28:	f8d0 02c0 	ldr.w	r0, [r0, #704]	@ 0x2c0
 8006d2c:	f7fb ff13 	bl	8002b56 <HAL_PCD_EP_ClrStall>
  usb_status =  USBD_Get_USB_Status(hal_status);
 8006d30:	f7ff ff21 	bl	8006b76 <USBD_Get_USB_Status>
}
 8006d34:	bd08      	pop	{r3, pc}

08006d36 <USBD_LL_IsStallEP>:
  PCD_HandleTypeDef *hpcd = (PCD_HandleTypeDef*) pdev->pData;
 8006d36:	f8d0 32c0 	ldr.w	r3, [r0, #704]	@ 0x2c0
  if((ep_addr & 0x80) == 0x80)
 8006d3a:	f011 0f80 	tst.w	r1, #128	@ 0x80
 8006d3e:	d108      	bne.n	8006d52 <USBD_LL_IsStallEP+0x1c>
    return hpcd->OUT_ep[ep_addr & 0x7F].is_stall;
 8006d40:	f001 017f 	and.w	r1, r1, #127	@ 0x7f
 8006d44:	eb01 0181 	add.w	r1, r1, r1, lsl #2
 8006d48:	eb03 03c1 	add.w	r3, r3, r1, lsl #3
 8006d4c:	f893 0152 	ldrb.w	r0, [r3, #338]	@ 0x152
}
 8006d50:	4770      	bx	lr
    return hpcd->IN_ep[ep_addr & 0x7F].is_stall;
 8006d52:	f001 017f 	and.w	r1, r1, #127	@ 0x7f
 8006d56:	eb01 0181 	add.w	r1, r1, r1, lsl #2
 8006d5a:	eb03 03c1 	add.w	r3, r3, r1, lsl #3
 8006d5e:	7c98      	ldrb	r0, [r3, #18]
 8006d60:	4770      	bx	lr

08006d62 <USBD_LL_SetUSBAddress>:
{
 8006d62:	b508      	push	{r3, lr}
  hal_status = HAL_PCD_SetAddress(pdev->pData, dev_addr);
 8006d64:	f8d0 02c0 	ldr.w	r0, [r0, #704]	@ 0x2c0
 8006d68:	f7fb fd0f 	bl	800278a <HAL_PCD_SetAddress>
  usb_status =  USBD_Get_USB_Status(hal_status);
 8006d6c:	f7ff ff03 	bl	8006b76 <USBD_Get_USB_Status>
}
 8006d70:	bd08      	pop	{r3, pc}

08006d72 <USBD_LL_Transmit>:
{
 8006d72:	b508      	push	{r3, lr}
  hal_status = HAL_PCD_EP_Transmit(pdev->pData, ep_addr, pbuf, size);
 8006d74:	f8d0 02c0 	ldr.w	r0, [r0, #704]	@ 0x2c0
 8006d78:	f7fb fe87 	bl	8002a8a <HAL_PCD_EP_Transmit>
  usb_status =  USBD_Get_USB_Status(hal_status);
 8006d7c:	f7ff fefb 	bl	8006b76 <USBD_Get_USB_Status>
}
 8006d80:	bd08      	pop	{r3, pc}

08006d82 <USBD_LL_PrepareReceive>:
{
 8006d82:	b508      	push	{r3, lr}
  hal_status = HAL_PCD_EP_Receive(pdev->pData, ep_addr, pbuf, size);
 8006d84:	f8d0 02c0 	ldr.w	r0, [r0, #704]	@ 0x2c0
 8006d88:	f7fb fe62 	bl	8002a50 <HAL_PCD_EP_Receive>
  usb_status =  USBD_Get_USB_Status(hal_status);
 8006d8c:	f7ff fef3 	bl	8006b76 <USBD_Get_USB_Status>
}
 8006d90:	bd08      	pop	{r3, pc}

08006d92 <USBD_static_malloc>:
}
 8006d92:	f641 0024 	movw	r0, #6180	@ 0x1824
 8006d96:	f2c2 0000 	movt	r0, #8192	@ 0x2000
 8006d9a:	4770      	bx	lr

08006d9c <USBD_static_free>:
}
 8006d9c:	4770      	bx	lr

08006d9e <HAL_PCDEx_SetConnectionState>:
}
 8006d9e:	4770      	bx	lr

08006da0 <hat_switch_from_msb>:
	USBD_CUSTOM_HID_SendReport(&hUsbDeviceFS, tx,
	USBD_CUSTOMHID_INREPORT_BUF_SIZE);
	wheel.hUsbHid->report_state = USB_REPORT_NOT_READY;
}

static uint8_t hat_switch_from_msb(uint8_t byte) {
 8006da0:	b430      	push	{r4, r5}
	/* Extract individual direction bits (boolean 0 / 1) */
	uint8_t down = (byte & 0x10u) ? 1u : 0u; // bit 4
 8006da2:	f3c0 1400 	ubfx	r4, r0, #4, #1
	uint8_t left = (byte & 0x20u) ? 1u : 0u; // bit 5
 8006da6:	f3c0 1540 	ubfx	r5, r0, #5, #1
	uint8_t up = (byte & 0x40u) ? 1u : 0u; // bit 6
 8006daa:	f3c0 1180 	ubfx	r1, r0, #6, #1
	uint8_t right = (byte & 0x80u) ? 1u : 0u; // bit 7

	// Convert to signed axis values 1 / 0 / +1
	int8_t dpadX = (int8_t) right - (int8_t) left; // +1 = Right, 1 = Left
 8006dae:	ebc5 12d0 	rsb	r2, r5, r0, lsr #7
	int8_t dpadY = (int8_t) down - (int8_t) up; // +1 = Down,  1 = Up
 8006db2:	1a63      	subs	r3, r4, r1

	// If both opposite directions are pressed, cancel the axis
	if ((right && left))
 8006db4:	09c0      	lsrs	r0, r0, #7
 8006db6:	d001      	beq.n	8006dbc <hat_switch_from_msb+0x1c>
 8006db8:	b105      	cbz	r5, 8006dbc <hat_switch_from_msb+0x1c>
		dpadX = 0;
 8006dba:	2200      	movs	r2, #0
	if ((up && down))
 8006dbc:	b109      	cbz	r1, 8006dc2 <hat_switch_from_msb+0x22>
 8006dbe:	b104      	cbz	r4, 8006dc2 <hat_switch_from_msb+0x22>
		dpadY = 0;
 8006dc0:	2300      	movs	r3, #0
	static const uint8_t hat_table[3][3] = {
	/**/{ 7, 0, 1 },/**/
	/**/{ 6, 8, 2 },/**/
	/**/{ 5, 4, 3 }/**/
	};
	return hat_table[dpadY + 1][dpadX + 1];
 8006dc2:	3301      	adds	r3, #1
 8006dc4:	1c51      	adds	r1, r2, #1
 8006dc6:	f648 2210 	movw	r2, #35344	@ 0x8a10
 8006dca:	f6c0 0200 	movt	r2, #2048	@ 0x800
 8006dce:	eb03 0343 	add.w	r3, r3, r3, lsl #1
 8006dd2:	441a      	add	r2, r3
}
 8006dd4:	5c50      	ldrb	r0, [r2, r1]
 8006dd6:	bc30      	pop	{r4, r5}
 8006dd8:	4770      	bx	lr

08006dda <app_usb_hid_SOF_CB>:
/* 		CALLBACKS 		*/
// Replaces the dynamically called SOF function of the USB interface
// Is called when a Start Of Frame packet is recieved (1KHz)
// Used to check how many milliseconds the deferred processing wasn't active, for error checking
static uint8_t app_usb_hid_SOF_CB(USBD_HandleTypeDef *pdev) {
	if (wheel.hUsbHid->processing_state == USB_IS_PROCESSING) {
 8006dda:	f641 3354 	movw	r3, #6996	@ 0x1b54
 8006dde:	f2c2 0300 	movt	r3, #8192	@ 0x2000
 8006de2:	699b      	ldr	r3, [r3, #24]
 8006de4:	7fda      	ldrb	r2, [r3, #31]
 8006de6:	2a01      	cmp	r2, #1
 8006de8:	d017      	beq.n	8006e1a <app_usb_hid_SOF_CB+0x40>
		wheel.hUsbHid->processing_state = USB_NOT_PROCESSING;
		wheel.hUsbHid->unsent_reports = 0;
		return USBD_OK;
	} else {
		wheel.hUsbHid->unsent_reports++;
 8006dea:	f893 2020 	ldrb.w	r2, [r3, #32]
 8006dee:	3201      	adds	r2, #1
 8006df0:	b2d2      	uxtb	r2, r2
 8006df2:	f883 2020 	strb.w	r2, [r3, #32]
		if (wheel.hUsbHid->unsent_reports
 8006df6:	2a18      	cmp	r2, #24
 8006df8:	d913      	bls.n	8006e22 <app_usb_hid_SOF_CB+0x48>
				>= DEFERRED_PROCESSING_UNSENT_REPORT_THRESHOLD) {
			wheel.hUsbHid->error_count++;
 8006dfa:	8c5a      	ldrh	r2, [r3, #34]	@ 0x22
 8006dfc:	3201      	adds	r2, #1
 8006dfe:	845a      	strh	r2, [r3, #34]	@ 0x22
			__HAL_GPIO_EXTI_GENERATE_SWIT(wheel.hSwit.usb_process_data_pin);
 8006e00:	f44f 6380 	mov.w	r3, #1024	@ 0x400
 8006e04:	f2c4 0301 	movt	r3, #16385	@ 0x4001
 8006e08:	691a      	ldr	r2, [r3, #16]
 8006e0a:	f641 3154 	movw	r1, #6996	@ 0x1b54
 8006e0e:	f2c2 0100 	movt	r1, #8192	@ 0x2000
 8006e12:	8a49      	ldrh	r1, [r1, #18]
 8006e14:	430a      	orrs	r2, r1
 8006e16:	611a      	str	r2, [r3, #16]
		}
		return USBD_OK;
 8006e18:	e003      	b.n	8006e22 <app_usb_hid_SOF_CB+0x48>
		wheel.hUsbHid->processing_state = USB_NOT_PROCESSING;
 8006e1a:	2200      	movs	r2, #0
 8006e1c:	77da      	strb	r2, [r3, #31]
		wheel.hUsbHid->unsent_reports = 0;
 8006e1e:	f883 2020 	strb.w	r2, [r3, #32]
	}
}
 8006e22:	2000      	movs	r0, #0
 8006e24:	4770      	bx	lr

08006e26 <app_usb_hid_DataInStage_CB>:
// Replaces the dynamically called DataIn function of the USB interface
// Is called when the EP finishes successful a Tx transfer
// Creates a software interrupt on the EXTI line for deferred usb processing
static uint8_t app_usb_hid_DataInStage_CB(USBD_HandleTypeDef *pdev,
		uint8_t epnum) {
	((USBD_CUSTOM_HID_HandleTypeDef*) pdev->pClassData)->state =
 8006e26:	f8d0 32b8 	ldr.w	r3, [r0, #696]	@ 0x2b8
 8006e2a:	2000      	movs	r0, #0
 8006e2c:	f883 0024 	strb.w	r0, [r3, #36]	@ 0x24
			CUSTOM_HID_IDLE; // Enable the next report to be sent
	__HAL_GPIO_EXTI_GENERATE_SWIT(wheel.hSwit.usb_process_data_pin); // Create a software interrupt for deferred processing
 8006e30:	f44f 6380 	mov.w	r3, #1024	@ 0x400
 8006e34:	f2c4 0301 	movt	r3, #16385	@ 0x4001
 8006e38:	691a      	ldr	r2, [r3, #16]
 8006e3a:	f641 3154 	movw	r1, #6996	@ 0x1b54
 8006e3e:	f2c2 0100 	movt	r1, #8192	@ 0x2000
 8006e42:	8a49      	ldrh	r1, [r1, #18]
 8006e44:	430a      	orrs	r2, r1
 8006e46:	611a      	str	r2, [r3, #16]
	return USBD_OK;
}
 8006e48:	4770      	bx	lr

08006e4a <app_usb_hid_DataOutStage_CB>:

static uint8_t app_usb_hid_DataOutStage_CB(USBD_HandleTypeDef *pdev,
		uint8_t epnum) {
 8006e4a:	b508      	push	{r3, lr}
	USBD_CUSTOM_HID_HandleTypeDef *hhid =
			(USBD_CUSTOM_HID_HandleTypeDef*) pdev->pClassData;
//	memcpy(wheel.hUsbHid->rx_buffer, hhid->Report_buf, USBD_CUSTOMHID_OUTREPORT_BUF_SIZE);
//	FfbOnUsbData(wheel.hUsbHid->rx_buffer, USBD_CUSTOMHID_OUTREPORT_BUF_SIZE);
	USBD_LL_PrepareReceive(pdev, CUSTOM_HID_EPOUT_ADDR, hhid->Report_buf,
 8006e4c:	2314      	movs	r3, #20
 8006e4e:	f8d0 22b8 	ldr.w	r2, [r0, #696]	@ 0x2b8
 8006e52:	2101      	movs	r1, #1
 8006e54:	f7ff ff95 	bl	8006d82 <USBD_LL_PrepareReceive>
	USBD_CUSTOMHID_OUTREPORT_BUF_SIZE);
	return USBD_OK;
}
 8006e58:	2000      	movs	r0, #0
 8006e5a:	bd08      	pop	{r3, pc}

08006e5c <app_usb_hid_init>:
	if (hUsbHid == 0) {
 8006e5c:	b130      	cbz	r0, 8006e6c <app_usb_hid_init+0x10>
	hUsbHid->usb_device = &hUsbDeviceFS;
 8006e5e:	f241 3360 	movw	r3, #4960	@ 0x1360
 8006e62:	f2c2 0300 	movt	r3, #8192	@ 0x2000
 8006e66:	6243      	str	r3, [r0, #36]	@ 0x24
	return WHEEL_OK;
 8006e68:	2000      	movs	r0, #0
 8006e6a:	4770      	bx	lr
		return WHEEL_ERROR;
 8006e6c:	2001      	movs	r0, #1
}
 8006e6e:	4770      	bx	lr

08006e70 <app_usb_hid_start>:
	wheel.hUsbHid->usb_device->pClass->SOF = app_usb_hid_SOF_CB;
 8006e70:	f641 3354 	movw	r3, #6996	@ 0x1b54
 8006e74:	f2c2 0300 	movt	r3, #8192	@ 0x2000
 8006e78:	6999      	ldr	r1, [r3, #24]
 8006e7a:	6a4a      	ldr	r2, [r1, #36]	@ 0x24
 8006e7c:	f8d2 02b4 	ldr.w	r0, [r2, #692]	@ 0x2b4
 8006e80:	f646 52db 	movw	r2, #28123	@ 0x6ddb
 8006e84:	f6c0 0200 	movt	r2, #2048	@ 0x800
 8006e88:	61c2      	str	r2, [r0, #28]
	wheel.hUsbHid->usb_device->pClass->DataIn = app_usb_hid_DataInStage_CB;
 8006e8a:	6a4a      	ldr	r2, [r1, #36]	@ 0x24
 8006e8c:	f8d2 12b4 	ldr.w	r1, [r2, #692]	@ 0x2b4
 8006e90:	f646 6227 	movw	r2, #28199	@ 0x6e27
 8006e94:	f6c0 0200 	movt	r2, #2048	@ 0x800
 8006e98:	614a      	str	r2, [r1, #20]
	wheel.hUsbHid->usb_device->pClass->DataOut = app_usb_hid_DataOutStage_CB;
 8006e9a:	699b      	ldr	r3, [r3, #24]
 8006e9c:	6a5b      	ldr	r3, [r3, #36]	@ 0x24
 8006e9e:	f8d3 22b4 	ldr.w	r2, [r3, #692]	@ 0x2b4
 8006ea2:	f646 634b 	movw	r3, #28235	@ 0x6e4b
 8006ea6:	f6c0 0300 	movt	r3, #2048	@ 0x800
 8006eaa:	6193      	str	r3, [r2, #24]
}
 8006eac:	2000      	movs	r0, #0
 8006eae:	4770      	bx	lr

08006eb0 <app_usb_hid_deferred_processing>:
void app_usb_hid_deferred_processing() {
 8006eb0:	b508      	push	{r3, lr}
	wheel.hUsbHid->processing_state = USB_IS_PROCESSING;
 8006eb2:	f641 3354 	movw	r3, #6996	@ 0x1b54
 8006eb6:	f2c2 0300 	movt	r3, #8192	@ 0x2000
 8006eba:	699b      	ldr	r3, [r3, #24]
 8006ebc:	2201      	movs	r2, #1
 8006ebe:	77da      	strb	r2, [r3, #31]
	if (wheel_get_all_component_states() == WHEEL_ERROR) {
 8006ec0:	f000 fb9f 	bl	8007602 <wheel_get_all_component_states>
 8006ec4:	2801      	cmp	r0, #1
 8006ec6:	d00f      	beq.n	8006ee8 <app_usb_hid_deferred_processing+0x38>
	wheel.hUsbHid->report_state = USB_REPORT_IS_READY;
 8006ec8:	f641 3354 	movw	r3, #6996	@ 0x1b54
 8006ecc:	f2c2 0300 	movt	r3, #8192	@ 0x2000
 8006ed0:	699a      	ldr	r2, [r3, #24]
 8006ed2:	2101      	movs	r1, #1
 8006ed4:	7791      	strb	r1, [r2, #30]
	__HAL_GPIO_EXTI_GENERATE_SWIT(wheel.hSwit.usb_send_report_swit_pin);
 8006ed6:	f44f 6280 	mov.w	r2, #1024	@ 0x400
 8006eda:	f2c4 0201 	movt	r2, #16385	@ 0x4001
 8006ede:	6911      	ldr	r1, [r2, #16]
 8006ee0:	8a1b      	ldrh	r3, [r3, #16]
 8006ee2:	430b      	orrs	r3, r1
 8006ee4:	6113      	str	r3, [r2, #16]
}
 8006ee6:	bd08      	pop	{r3, pc}
		Error_Handler();
 8006ee8:	f7f9 fd0f 	bl	800090a <Error_Handler>
 8006eec:	e7ec      	b.n	8006ec8 <app_usb_hid_deferred_processing+0x18>

08006eee <app_usb_hid_send_report>:
void app_usb_hid_send_report() {
 8006eee:	b570      	push	{r4, r5, r6, lr}
	if (wheel.hUsbHid->report_state == USB_REPORT_NOT_READY) {
 8006ef0:	f641 3354 	movw	r3, #6996	@ 0x1b54
 8006ef4:	f2c2 0300 	movt	r3, #8192	@ 0x2000
 8006ef8:	699c      	ldr	r4, [r3, #24]
 8006efa:	7fa3      	ldrb	r3, [r4, #30]
 8006efc:	b903      	cbnz	r3, 8006f00 <app_usb_hid_send_report+0x12>
}
 8006efe:	bd70      	pop	{r4, r5, r6, pc}
	tx[0] = HID_JOYSTICK_REPORT_ID;
 8006f00:	230f      	movs	r3, #15
 8006f02:	7023      	strb	r3, [r4, #0]
	tx[1] = 0;
 8006f04:	2600      	movs	r6, #0
 8006f06:	7066      	strb	r6, [r4, #1]
	tx[1] |= 0x0F & hat_switch_from_msb((uint8_t)wheel.hButtons->buttons_state);
 8006f08:	f641 3554 	movw	r5, #6996	@ 0x1b54
 8006f0c:	f2c2 0500 	movt	r5, #8192	@ 0x2000
 8006f10:	682b      	ldr	r3, [r5, #0]
 8006f12:	f893 0354 	ldrb.w	r0, [r3, #852]	@ 0x354
 8006f16:	f7ff ff43 	bl	8006da0 <hat_switch_from_msb>
 8006f1a:	f000 000f 	and.w	r0, r0, #15
 8006f1e:	7060      	strb	r0, [r4, #1]
	tx[1] |= 0xF0 & (wheel.hButtons->buttons_state << 4);
 8006f20:	682b      	ldr	r3, [r5, #0]
 8006f22:	f8d3 3354 	ldr.w	r3, [r3, #852]	@ 0x354
 8006f26:	011b      	lsls	r3, r3, #4
 8006f28:	b2db      	uxtb	r3, r3
 8006f2a:	4303      	orrs	r3, r0
 8006f2c:	7063      	strb	r3, [r4, #1]
	tx[2] = wheel.hButtons->buttons_state >> 8;
 8006f2e:	682b      	ldr	r3, [r5, #0]
 8006f30:	f8d3 3354 	ldr.w	r3, [r3, #852]	@ 0x354
 8006f34:	0a1b      	lsrs	r3, r3, #8
 8006f36:	70a3      	strb	r3, [r4, #2]
	tx[3] = wheel.hButtons->buttons_state >> 16;
 8006f38:	682b      	ldr	r3, [r5, #0]
 8006f3a:	f8b3 3356 	ldrh.w	r3, [r3, #854]	@ 0x356
 8006f3e:	70e3      	strb	r3, [r4, #3]
	tx[4] = 1U << wheel.hShifter->speed;
 8006f40:	68eb      	ldr	r3, [r5, #12]
 8006f42:	7e1a      	ldrb	r2, [r3, #24]
 8006f44:	2301      	movs	r3, #1
 8006f46:	4093      	lsls	r3, r2
 8006f48:	7123      	strb	r3, [r4, #4]
	tx[5] = wheel.hSensor->virtual_axis;
 8006f4a:	686b      	ldr	r3, [r5, #4]
 8006f4c:	f9b3 3010 	ldrsh.w	r3, [r3, #16]
 8006f50:	7163      	strb	r3, [r4, #5]
	tx[6] = wheel.hSensor->virtual_axis >> 8;
 8006f52:	686b      	ldr	r3, [r5, #4]
 8006f54:	f993 3011 	ldrsb.w	r3, [r3, #17]
 8006f58:	71a3      	strb	r3, [r4, #6]
	tx[7] = wheel.hPedals->clutch;
 8006f5a:	68ab      	ldr	r3, [r5, #8]
 8006f5c:	7b1b      	ldrb	r3, [r3, #12]
 8006f5e:	71e3      	strb	r3, [r4, #7]
	tx[8] = wheel.hPedals->brake;
 8006f60:	68ab      	ldr	r3, [r5, #8]
 8006f62:	7b5b      	ldrb	r3, [r3, #13]
 8006f64:	7223      	strb	r3, [r4, #8]
	tx[9] = wheel.hPedals->throtle;
 8006f66:	68ab      	ldr	r3, [r5, #8]
 8006f68:	7b9b      	ldrb	r3, [r3, #14]
 8006f6a:	7263      	strb	r3, [r4, #9]
	USBD_CUSTOM_HID_SendReport(&hUsbDeviceFS, tx,
 8006f6c:	220a      	movs	r2, #10
 8006f6e:	4621      	mov	r1, r4
 8006f70:	f241 3060 	movw	r0, #4960	@ 0x1360
 8006f74:	f2c2 0000 	movt	r0, #8192	@ 0x2000
 8006f78:	f7ff f800 	bl	8005f7c <USBD_CUSTOM_HID_SendReport>
	wheel.hUsbHid->report_state = USB_REPORT_NOT_READY;
 8006f7c:	69ab      	ldr	r3, [r5, #24]
 8006f7e:	779e      	strb	r6, [r3, #30]
 8006f80:	e7bd      	b.n	8006efe <app_usb_hid_send_report+0x10>

08006f82 <USB_HID_PID_CTL_PARSER>:

#include "ffb.h"
#include "app_usb_pid.h"
#include "app_usb_hid.h"

uint8_t USB_HID_PID_CTL_PARSER(USBD_SetupReqTypedef *req) {
 8006f82:	b538      	push	{r3, r4, r5, lr}
	uint8_t ret = 0;
	switch (req->bRequest) {
 8006f84:	7844      	ldrb	r4, [r0, #1]
 8006f86:	2c01      	cmp	r4, #1
 8006f88:	d004      	beq.n	8006f94 <USB_HID_PID_CTL_PARSER+0x12>
 8006f8a:	2c09      	cmp	r4, #9
 8006f8c:	d01e      	beq.n	8006fcc <USB_HID_PID_CTL_PARSER+0x4a>
 8006f8e:	2400      	movs	r4, #0
			break;
		}
		break;
	}
	return ret;
}
 8006f90:	4620      	mov	r0, r4
 8006f92:	bd38      	pop	{r3, r4, r5, pc}
		switch (HIBYTE(req->wValue)) {
 8006f94:	8843      	ldrh	r3, [r0, #2]
 8006f96:	0a1d      	lsrs	r5, r3, #8
 8006f98:	2d01      	cmp	r5, #1
 8006f9a:	d00e      	beq.n	8006fba <USB_HID_PID_CTL_PARSER+0x38>
 8006f9c:	2d03      	cmp	r5, #3
 8006f9e:	d125      	bne.n	8006fec <USB_HID_PID_CTL_PARSER+0x6a>
			switch (LOBYTE(req->wValue)) {
 8006fa0:	b2db      	uxtb	r3, r3
 8006fa2:	2b06      	cmp	r3, #6
 8006fa4:	d003      	beq.n	8006fae <USB_HID_PID_CTL_PARSER+0x2c>
 8006fa6:	2b07      	cmp	r3, #7
 8006fa8:	d004      	beq.n	8006fb4 <USB_HID_PID_CTL_PARSER+0x32>
 8006faa:	2400      	movs	r4, #0
 8006fac:	e7f0      	b.n	8006f90 <USB_HID_PID_CTL_PARSER+0xe>
				FfbOnPIDBlockLoad();
 8006fae:	f7fe f85c 	bl	800506a <FfbOnPIDBlockLoad>
				break;
 8006fb2:	e7ed      	b.n	8006f90 <USB_HID_PID_CTL_PARSER+0xe>
				FfbOnPIDPool();
 8006fb4:	f7fe f845 	bl	8005042 <FfbOnPIDPool>
				break;
 8006fb8:	e7ea      	b.n	8006f90 <USB_HID_PID_CTL_PARSER+0xe>
			switch (LOBYTE(req->wValue)) {
 8006fba:	b2db      	uxtb	r3, r3
 8006fbc:	2b02      	cmp	r3, #2
 8006fbe:	d001      	beq.n	8006fc4 <USB_HID_PID_CTL_PARSER+0x42>
	uint8_t ret = 0;
 8006fc0:	2400      	movs	r4, #0
 8006fc2:	e7e5      	b.n	8006f90 <USB_HID_PID_CTL_PARSER+0xe>
				FfbOnPIDStatus();
 8006fc4:	f7fe f856 	bl	8005074 <FfbOnPIDStatus>
				ret = 1;
 8006fc8:	462c      	mov	r4, r5
				break;
 8006fca:	e7e1      	b.n	8006f90 <USB_HID_PID_CTL_PARSER+0xe>
		switch (HIBYTE(req->wValue)) {
 8006fcc:	8843      	ldrh	r3, [r0, #2]
 8006fce:	0a1a      	lsrs	r2, r3, #8
 8006fd0:	2a03      	cmp	r2, #3
 8006fd2:	d001      	beq.n	8006fd8 <USB_HID_PID_CTL_PARSER+0x56>
	uint8_t ret = 0;
 8006fd4:	2400      	movs	r4, #0
 8006fd6:	e7db      	b.n	8006f90 <USB_HID_PID_CTL_PARSER+0xe>
			switch (LOBYTE(req->wValue)) {
 8006fd8:	b2db      	uxtb	r3, r3
 8006fda:	2b05      	cmp	r3, #5
 8006fdc:	d001      	beq.n	8006fe2 <USB_HID_PID_CTL_PARSER+0x60>
	uint8_t ret = 0;
 8006fde:	2400      	movs	r4, #0
 8006fe0:	e7d6      	b.n	8006f90 <USB_HID_PID_CTL_PARSER+0xe>
				FfbOnCreateNewEffect(NULL);
 8006fe2:	2000      	movs	r0, #0
 8006fe4:	f7fd fffc 	bl	8004fe0 <FfbOnCreateNewEffect>
				ret = 1;
 8006fe8:	2401      	movs	r4, #1
				break;
 8006fea:	e7d1      	b.n	8006f90 <USB_HID_PID_CTL_PARSER+0xe>
		switch (HIBYTE(req->wValue)) {
 8006fec:	2400      	movs	r4, #0
 8006fee:	e7cf      	b.n	8006f90 <USB_HID_PID_CTL_PARSER+0xe>

08006ff0 <Analog_INIT>:

Pedals_HandleTypeDef hPedals = { Pedals_INIT, Pedals_DeINIT, Pedals_GetState };

static Wheel_Status Analog_INIT(Analog_HandleTypeDef *analog,
		Analog_ConfigHandleTypeDef *config) {
	if (config->hadc == 0) {
 8006ff0:	680b      	ldr	r3, [r1, #0]
 8006ff2:	b113      	cbz	r3, 8006ffa <Analog_INIT+0xa>
		return WHEEL_ERROR;
	}
	analog->hadc = config->hadc;
 8006ff4:	6243      	str	r3, [r0, #36]	@ 0x24
	return WHEEL_OK;
 8006ff6:	2000      	movs	r0, #0
 8006ff8:	4770      	bx	lr
		return WHEEL_ERROR;
 8006ffa:	2001      	movs	r0, #1
}
 8006ffc:	4770      	bx	lr

08006ffe <Pedals_INIT>:
	return WHEEL_OK;
}

static Wheel_Status Pedals_INIT(Pedals_HandleTypeDef *pedals,
		Pedals_ConfigHandleTypeDef *config) {
	if (config->hw_analog == 0) {
 8006ffe:	680b      	ldr	r3, [r1, #0]
 8007000:	b113      	cbz	r3, 8007008 <Pedals_INIT+0xa>
		return WHEEL_ERROR;
	}
	pedals->hw_analog = config->hw_analog;
 8007002:	6103      	str	r3, [r0, #16]
	return WHEEL_OK;
 8007004:	2000      	movs	r0, #0
 8007006:	4770      	bx	lr
		return WHEEL_ERROR;
 8007008:	2001      	movs	r0, #1
}
 800700a:	4770      	bx	lr

0800700c <Pedals_GetState>:
	pedals->hw_analog = 0;
	return WHEEL_OK;
}

static Wheel_Status Pedals_GetState(Pedals_HandleTypeDef *pedals) {
	pedals->clutch = 0xFF - (pedals->hw_analog->axis[PEDALS_IDX] >> 8);
 800700c:	6903      	ldr	r3, [r0, #16]
 800700e:	691a      	ldr	r2, [r3, #16]
 8007010:	ea6f 2212 	mvn.w	r2, r2, lsr #8
 8007014:	7302      	strb	r2, [r0, #12]
	pedals->brake = 0xFF - (pedals->hw_analog->axis[PEDALS_IDX+1] >> 8);
 8007016:	695a      	ldr	r2, [r3, #20]
 8007018:	ea6f 2212 	mvn.w	r2, r2, lsr #8
 800701c:	7342      	strb	r2, [r0, #13]
	pedals->throtle = 0xFF - (pedals->hw_analog->axis[PEDALS_IDX+2] >> 8);
 800701e:	699b      	ldr	r3, [r3, #24]
 8007020:	ea6f 2313 	mvn.w	r3, r3, lsr #8
 8007024:	7383      	strb	r3, [r0, #14]
	return WHEEL_OK;
}
 8007026:	2000      	movs	r0, #0
 8007028:	4770      	bx	lr

0800702a <Analog_Stop>:
static Wheel_Status Analog_Stop(Analog_HandleTypeDef *analog) {
 800702a:	b508      	push	{r3, lr}
	HAL_ADC_Stop_DMA(analog->hadc);
 800702c:	6a40      	ldr	r0, [r0, #36]	@ 0x24
 800702e:	f7fa fa72 	bl	8001516 <HAL_ADC_Stop_DMA>
}
 8007032:	2000      	movs	r0, #0
 8007034:	bd08      	pop	{r3, pc}

08007036 <Analog_DeINIT>:
static Wheel_Status Analog_DeINIT(Analog_HandleTypeDef *analog) {
 8007036:	b510      	push	{r4, lr}
 8007038:	4604      	mov	r4, r0
	if (HAL_ADC_Stop_DMA(analog->hadc) == HAL_ERROR) {
 800703a:	6a40      	ldr	r0, [r0, #36]	@ 0x24
 800703c:	f7fa fa6b 	bl	8001516 <HAL_ADC_Stop_DMA>
 8007040:	2801      	cmp	r0, #1
 8007042:	d00b      	beq.n	800705c <Analog_DeINIT+0x26>
	for (uint8_t i = 0; i < ANALOG_INPUT_NUM; i++) {
 8007044:	2300      	movs	r3, #0
 8007046:	e005      	b.n	8007054 <Analog_DeINIT+0x1e>
		analog->axis[i] = 0;
 8007048:	1d1a      	adds	r2, r3, #4
 800704a:	2100      	movs	r1, #0
 800704c:	f844 1022 	str.w	r1, [r4, r2, lsl #2]
	for (uint8_t i = 0; i < ANALOG_INPUT_NUM; i++) {
 8007050:	3301      	adds	r3, #1
 8007052:	b2db      	uxtb	r3, r3
 8007054:	2b04      	cmp	r3, #4
 8007056:	d9f7      	bls.n	8007048 <Analog_DeINIT+0x12>
	analog->hadc = 0;
 8007058:	2000      	movs	r0, #0
 800705a:	6260      	str	r0, [r4, #36]	@ 0x24
}
 800705c:	bd10      	pop	{r4, pc}

0800705e <Analog_Start_CONTINIOUS_SCAN_DMA>:
		Analog_HandleTypeDef *analog) {
 800705e:	b508      	push	{r3, lr}
	HAL_ADC_Start_DMA(analog->hadc, analog->axis, ANALOG_INPUT_NUM);
 8007060:	2205      	movs	r2, #5
 8007062:	f100 0110 	add.w	r1, r0, #16
 8007066:	6a40      	ldr	r0, [r0, #36]	@ 0x24
 8007068:	f7fa f8f9 	bl	800125e <HAL_ADC_Start_DMA>
}
 800706c:	2000      	movs	r0, #0
 800706e:	bd08      	pop	{r3, pc}

08007070 <Pedals_DeINIT>:
static Wheel_Status Pedals_DeINIT(Pedals_HandleTypeDef *pedals) {
 8007070:	b510      	push	{r4, lr}
 8007072:	4604      	mov	r4, r0
	if (pedals->hw_analog->DeINIT(pedals->hw_analog) == WHEEL_ERROR) {
 8007074:	6900      	ldr	r0, [r0, #16]
 8007076:	6843      	ldr	r3, [r0, #4]
 8007078:	4798      	blx	r3
 800707a:	2801      	cmp	r0, #1
 800707c:	d002      	beq.n	8007084 <Pedals_DeINIT+0x14>
	pedals->hw_analog = 0;
 800707e:	2000      	movs	r0, #0
 8007080:	6120      	str	r0, [r4, #16]
}
 8007082:	bd10      	pop	{r4, pc}
		Error_Handler();
 8007084:	f7f9 fc41 	bl	800090a <Error_Handler>
 8007088:	e7f9      	b.n	800707e <Pedals_DeINIT+0xe>

0800708a <DigitalInput_INIT>:
DigitalInput_HandleTypeDef hG29Buttons = {DigitalInput_INIT, DigitalInput_DeINIT,
		DigitalInput_ReadState};

static Wheel_Status DigitalInput_INIT(DigitalInput_HandleTypeDef *buttons,
		DigitalInput_ConfigHandleTypeDef *config) {
	if (config->buttons_port == 0 || config->clk_pin == 0 || config->in_pin == 0
 800708a:	688b      	ldr	r3, [r1, #8]
 800708c:	b173      	cbz	r3, 80070ac <DigitalInput_INIT+0x22>
 800708e:	880a      	ldrh	r2, [r1, #0]
 8007090:	b172      	cbz	r2, 80070b0 <DigitalInput_INIT+0x26>
 8007092:	888a      	ldrh	r2, [r1, #4]
 8007094:	b172      	cbz	r2, 80070b4 <DigitalInput_INIT+0x2a>
			|| config->lock_pin == 0) {
 8007096:	884a      	ldrh	r2, [r1, #2]
 8007098:	b172      	cbz	r2, 80070b8 <DigitalInput_INIT+0x2e>
		return WHEEL_ERROR;
	}
	buttons->buttons_port = config->buttons_port;
 800709a:	6143      	str	r3, [r0, #20]
	buttons->clk_pin = config->clk_pin;
 800709c:	880b      	ldrh	r3, [r1, #0]
 800709e:	8183      	strh	r3, [r0, #12]
	buttons->in_pin = config->in_pin;
 80070a0:	888b      	ldrh	r3, [r1, #4]
 80070a2:	8203      	strh	r3, [r0, #16]
	buttons->lock_pin = config->lock_pin;
 80070a4:	884b      	ldrh	r3, [r1, #2]
 80070a6:	81c3      	strh	r3, [r0, #14]
	return WHEEL_OK;
 80070a8:	2000      	movs	r0, #0
 80070aa:	4770      	bx	lr
		return WHEEL_ERROR;
 80070ac:	2001      	movs	r0, #1
 80070ae:	4770      	bx	lr
 80070b0:	2001      	movs	r0, #1
 80070b2:	4770      	bx	lr
 80070b4:	2001      	movs	r0, #1
 80070b6:	4770      	bx	lr
 80070b8:	2001      	movs	r0, #1
}
 80070ba:	4770      	bx	lr

080070bc <DigitalInput_DeINIT>:

static Wheel_Status DigitalInput_DeINIT(DigitalInput_HandleTypeDef *buttons) {
	buttons->buttons_port = 0;
 80070bc:	2300      	movs	r3, #0
 80070be:	6143      	str	r3, [r0, #20]
	buttons->clk_pin = 0;
 80070c0:	8183      	strh	r3, [r0, #12]
	buttons->in_pin = 0;
 80070c2:	8203      	strh	r3, [r0, #16]
	buttons->lock_pin = 0;
 80070c4:	81c3      	strh	r3, [r0, #14]
	return WHEEL_ERROR;
}
 80070c6:	2001      	movs	r0, #1
 80070c8:	4770      	bx	lr

080070ca <DigitalInput_ReadState>:

static Wheel_Status DigitalInput_ReadState(DigitalInput_HandleTypeDef *buttons) {
 80070ca:	b538      	push	{r3, r4, r5, lr}
 80070cc:	4604      	mov	r4, r0
	buttons->buttons_state = 0;
 80070ce:	2500      	movs	r5, #0
 80070d0:	6185      	str	r5, [r0, #24]
	HAL_GPIO_WritePin(buttons->buttons_port, buttons->clk_pin, 0); //clock low
 80070d2:	462a      	mov	r2, r5
 80070d4:	8981      	ldrh	r1, [r0, #12]
 80070d6:	6940      	ldr	r0, [r0, #20]
 80070d8:	f7fa fd69 	bl	8001bae <HAL_GPIO_WritePin>
	HAL_GPIO_WritePin(buttons->buttons_port, buttons->lock_pin, 1); //lock buttons
 80070dc:	2201      	movs	r2, #1
 80070de:	89e1      	ldrh	r1, [r4, #14]
 80070e0:	6960      	ldr	r0, [r4, #20]
 80070e2:	f7fa fd64 	bl	8001bae <HAL_GPIO_WritePin>
	for (uint8_t i = 0; i < BUTTONS_NUM; i++) {
 80070e6:	e006      	b.n	80070f6 <DigitalInput_ReadState+0x2c>
		HAL_GPIO_WritePin(buttons->buttons_port, buttons->clk_pin, 0); //clock low
		if (HAL_GPIO_ReadPin(buttons->buttons_port, buttons->in_pin)) { // read
			SET_BIT(buttons->buttons_state, (1U << i));
		}
		HAL_GPIO_WritePin(buttons->buttons_port, buttons->clk_pin, 1); //clock high
 80070e8:	2201      	movs	r2, #1
 80070ea:	89a1      	ldrh	r1, [r4, #12]
 80070ec:	6960      	ldr	r0, [r4, #20]
 80070ee:	f7fa fd5e 	bl	8001bae <HAL_GPIO_WritePin>
	for (uint8_t i = 0; i < BUTTONS_NUM; i++) {
 80070f2:	3501      	adds	r5, #1
 80070f4:	b2ed      	uxtb	r5, r5
 80070f6:	2d17      	cmp	r5, #23
 80070f8:	d810      	bhi.n	800711c <DigitalInput_ReadState+0x52>
		HAL_GPIO_WritePin(buttons->buttons_port, buttons->clk_pin, 0); //clock low
 80070fa:	2200      	movs	r2, #0
 80070fc:	89a1      	ldrh	r1, [r4, #12]
 80070fe:	6960      	ldr	r0, [r4, #20]
 8007100:	f7fa fd55 	bl	8001bae <HAL_GPIO_WritePin>
		if (HAL_GPIO_ReadPin(buttons->buttons_port, buttons->in_pin)) { // read
 8007104:	8a21      	ldrh	r1, [r4, #16]
 8007106:	6960      	ldr	r0, [r4, #20]
 8007108:	f7fa fd4a 	bl	8001ba0 <HAL_GPIO_ReadPin>
 800710c:	2800      	cmp	r0, #0
 800710e:	d0eb      	beq.n	80070e8 <DigitalInput_ReadState+0x1e>
			SET_BIT(buttons->buttons_state, (1U << i));
 8007110:	69a3      	ldr	r3, [r4, #24]
 8007112:	2201      	movs	r2, #1
 8007114:	40aa      	lsls	r2, r5
 8007116:	4313      	orrs	r3, r2
 8007118:	61a3      	str	r3, [r4, #24]
 800711a:	e7e5      	b.n	80070e8 <DigitalInput_ReadState+0x1e>
	}
	HAL_GPIO_WritePin(buttons->buttons_port, buttons->lock_pin, 0); //unlock buttons
 800711c:	2200      	movs	r2, #0
 800711e:	89e1      	ldrh	r1, [r4, #14]
 8007120:	6960      	ldr	r0, [r4, #20]
 8007122:	f7fa fd44 	bl	8001bae <HAL_GPIO_WritePin>
	return WHEEL_OK;
}
 8007126:	2000      	movs	r0, #0
 8007128:	bd38      	pop	{r3, r4, r5, pc}

0800712a <MLX90363_INIT>:
static void reset_roll_counter(Magnetometer_HandleTypeDef *sensor);
static uint8_t getData(Magnetometer_HandleTypeDef *sensor);

static Wheel_Status MLX90363_INIT(Magnetometer_HandleTypeDef *sensor,
		Magnetometer_ConfigHandleTypeDef *config) {
	if (config->SS_pin == 0 || config->SS_port == 0 || config->hspi == 0
 800712a:	880b      	ldrh	r3, [r1, #0]
 800712c:	b173      	cbz	r3, 800714c <MLX90363_INIT+0x22>
 800712e:	684a      	ldr	r2, [r1, #4]
 8007130:	b172      	cbz	r2, 8007150 <MLX90363_INIT+0x26>
 8007132:	688a      	ldr	r2, [r1, #8]
 8007134:	b172      	cbz	r2, 8007154 <MLX90363_INIT+0x2a>
			|| config->htim == 0) {
 8007136:	68ca      	ldr	r2, [r1, #12]
 8007138:	b172      	cbz	r2, 8007158 <MLX90363_INIT+0x2e>
		return WHEEL_ERROR;
	}
	sensor->SS_pin = config->SS_pin;
 800713a:	8603      	strh	r3, [r0, #48]	@ 0x30
	sensor->SS_port = config->SS_port;
 800713c:	684b      	ldr	r3, [r1, #4]
 800713e:	6343      	str	r3, [r0, #52]	@ 0x34
	sensor->hspi = config->hspi;
 8007140:	688b      	ldr	r3, [r1, #8]
 8007142:	6383      	str	r3, [r0, #56]	@ 0x38
	sensor->htim = config->htim;
 8007144:	68cb      	ldr	r3, [r1, #12]
 8007146:	63c3      	str	r3, [r0, #60]	@ 0x3c
	return WHEEL_OK;
 8007148:	2000      	movs	r0, #0
 800714a:	4770      	bx	lr
		return WHEEL_ERROR;
 800714c:	2001      	movs	r0, #1
 800714e:	4770      	bx	lr
 8007150:	2001      	movs	r0, #1
 8007152:	4770      	bx	lr
 8007154:	2001      	movs	r0, #1
 8007156:	4770      	bx	lr
 8007158:	2001      	movs	r0, #1
}
 800715a:	4770      	bx	lr

0800715c <calculate_crc>:

static uint8_t calculate_crc(uint8_t *message) {
	// calculates the CRC using the 7 bytes of the buffer
	uint8_t crc = message[7];
	crc = 0xFF;
	crc = cba_256_TAB[message[0] ^ crc];
 800715c:	7802      	ldrb	r2, [r0, #0]
 800715e:	43d2      	mvns	r2, r2
 8007160:	b2d2      	uxtb	r2, r2
 8007162:	f648 231c 	movw	r3, #35356	@ 0x8a1c
 8007166:	f6c0 0300 	movt	r3, #2048	@ 0x800
 800716a:	5c99      	ldrb	r1, [r3, r2]
	crc = cba_256_TAB[message[1] ^ crc];
 800716c:	7842      	ldrb	r2, [r0, #1]
 800716e:	404a      	eors	r2, r1
 8007170:	5c99      	ldrb	r1, [r3, r2]
	crc = cba_256_TAB[message[2] ^ crc];
 8007172:	7882      	ldrb	r2, [r0, #2]
 8007174:	404a      	eors	r2, r1
 8007176:	5c99      	ldrb	r1, [r3, r2]
	crc = cba_256_TAB[message[3] ^ crc];
 8007178:	78c2      	ldrb	r2, [r0, #3]
 800717a:	404a      	eors	r2, r1
 800717c:	5c99      	ldrb	r1, [r3, r2]
	crc = cba_256_TAB[message[4] ^ crc];
 800717e:	7902      	ldrb	r2, [r0, #4]
 8007180:	404a      	eors	r2, r1
 8007182:	5c99      	ldrb	r1, [r3, r2]
	crc = cba_256_TAB[message[5] ^ crc];
 8007184:	7942      	ldrb	r2, [r0, #5]
 8007186:	404a      	eors	r2, r1
 8007188:	5c99      	ldrb	r1, [r3, r2]
	crc = cba_256_TAB[message[6] ^ crc];
 800718a:	7982      	ldrb	r2, [r0, #6]
 800718c:	404a      	eors	r2, r1
 800718e:	5c98      	ldrb	r0, [r3, r2]
	crc = ~crc;
 8007190:	43c0      	mvns	r0, r0
	return crc;
}
 8007192:	b2c0      	uxtb	r0, r0
 8007194:	4770      	bx	lr

08007196 <set_Tx_GET1>:

static void set_Tx_GET1(Magnetometer_HandleTypeDef *sensor, uint8_t reset) {
 8007196:	b510      	push	{r4, lr}
 8007198:	4604      	mov	r4, r0
	sensor->SPI_Tx_buffer[0] = NULL_DATA;
 800719a:	2300      	movs	r3, #0
 800719c:	f880 3020 	strb.w	r3, [r0, #32]
	sensor->SPI_Tx_buffer[1] = reset;
 80071a0:	f880 1021 	strb.w	r1, [r0, #33]	@ 0x21
	sensor->SPI_Tx_buffer[2] = GET_TIME_OUT;
 80071a4:	22ff      	movs	r2, #255	@ 0xff
 80071a6:	f880 2022 	strb.w	r2, [r0, #34]	@ 0x22
	sensor->SPI_Tx_buffer[3] = GET_TIME_OUT;
 80071aa:	f880 2023 	strb.w	r2, [r0, #35]	@ 0x23
	sensor->SPI_Tx_buffer[4] = NULL_DATA;
 80071ae:	f880 3024 	strb.w	r3, [r0, #36]	@ 0x24
	sensor->SPI_Tx_buffer[5] = NULL_DATA;
 80071b2:	f880 3025 	strb.w	r3, [r0, #37]	@ 0x25
	sensor->SPI_Tx_buffer[6] = GET1_OPCODE;
 80071b6:	2313      	movs	r3, #19
 80071b8:	f880 3026 	strb.w	r3, [r0, #38]	@ 0x26
	sensor->SPI_Tx_buffer[7] = calculate_crc(sensor->SPI_Tx_buffer);
 80071bc:	3020      	adds	r0, #32
 80071be:	f7ff ffcd 	bl	800715c <calculate_crc>
 80071c2:	f884 0027 	strb.w	r0, [r4, #39]	@ 0x27
}
 80071c6:	bd10      	pop	{r4, pc}

080071c8 <set_Tx_NOP>:

static void set_Tx_NOP(Magnetometer_HandleTypeDef *sensor) {
 80071c8:	b510      	push	{r4, lr}
 80071ca:	4604      	mov	r4, r0
	sensor->SPI_Tx_buffer[0] = NULL_DATA;
 80071cc:	2300      	movs	r3, #0
 80071ce:	f880 3020 	strb.w	r3, [r0, #32]
	sensor->SPI_Tx_buffer[1] = NULL_DATA;
 80071d2:	f880 3021 	strb.w	r3, [r0, #33]	@ 0x21
	sensor->SPI_Tx_buffer[2] = NOP_KEY;
 80071d6:	22aa      	movs	r2, #170	@ 0xaa
 80071d8:	f880 2022 	strb.w	r2, [r0, #34]	@ 0x22
	sensor->SPI_Tx_buffer[3] = NOP_KEY;
 80071dc:	f880 2023 	strb.w	r2, [r0, #35]	@ 0x23
	sensor->SPI_Tx_buffer[4] = NULL_DATA;
 80071e0:	f880 3024 	strb.w	r3, [r0, #36]	@ 0x24
	sensor->SPI_Tx_buffer[5] = NULL_DATA;
 80071e4:	f880 3025 	strb.w	r3, [r0, #37]	@ 0x25
	sensor->SPI_Tx_buffer[6] = NOP_OPCODE;
 80071e8:	23d0      	movs	r3, #208	@ 0xd0
 80071ea:	f880 3026 	strb.w	r3, [r0, #38]	@ 0x26
	sensor->SPI_Tx_buffer[7] = calculate_crc(sensor->SPI_Tx_buffer);
 80071ee:	3020      	adds	r0, #32
 80071f0:	f7ff ffb4 	bl	800715c <calculate_crc>
 80071f4:	f884 0027 	strb.w	r0, [r4, #39]	@ 0x27
}
 80071f8:	bd10      	pop	{r4, pc}

080071fa <getData>:
	HAL_Delay(1);
	set_Tx_NOP(sensor);
	transmit_blocking(sensor);
}

static uint8_t getData(Magnetometer_HandleTypeDef *sensor) {
 80071fa:	b570      	push	{r4, r5, r6, lr}
 80071fc:	4604      	mov	r4, r0
	uint8_t *RxBuffer = sensor->SPI_Rx_buffer;
	/* 		ERROR CHECKING 		*/
	// Check if the transfer is done to avoid race conditions
	if (!sensor->transfer_is_done) {
 80071fe:	f890 302a 	ldrb.w	r3, [r0, #42]	@ 0x2a
 8007202:	2b00      	cmp	r3, #0
 8007204:	d047      	beq.n	8007296 <getData+0x9c>
 8007206:	3018      	adds	r0, #24
		return -1;
	}

	// Check the marker if Alpha (0), otherwise ignore
	if ((RxBuffer[6] >> 6) != 0) {
 8007208:	7fa3      	ldrb	r3, [r4, #30]
 800720a:	099a      	lsrs	r2, r3, #6
 800720c:	d12e      	bne.n	800726c <getData+0x72>
		sensor->err_packets_cnt++;
		return -1; // Not Alpha result
	}

	// Check if bits 2,3,5 if they are 0x00
	if (RxBuffer[2] != 0x00 || RxBuffer[3] != 0x00 || RxBuffer[5] != 0x00) {
 800720e:	7ea2      	ldrb	r2, [r4, #26]
 8007210:	bb8a      	cbnz	r2, 8007276 <getData+0x7c>
 8007212:	7ee2      	ldrb	r2, [r4, #27]
 8007214:	bb7a      	cbnz	r2, 8007276 <getData+0x7c>
 8007216:	7f65      	ldrb	r5, [r4, #29]
 8007218:	bb6d      	cbnz	r5, 8007276 <getData+0x7c>
		sensor->err_packets_cnt++;
		return -1; // Probably wrong data
	}

	// Virtual Gain at 0?
	if (RxBuffer[4] == 0x00) {
 800721a:	7f22      	ldrb	r2, [r4, #28]
 800721c:	b38a      	cbz	r2, 8007282 <getData+0x88>
		sensor->err_packets_cnt++;
		return -1; // Probably wrong data
	}

	// Extract the rolling counter
	uint8_t rollcnt = RxBuffer[6] & 0x3F;
 800721e:	f003 023f 	and.w	r2, r3, #63	@ 0x3f
	// calculate the difference between the internal sensor's roll counter and the roll counter
	uint8_t last_rollcnt = sensor->roll_cnt;
 8007222:	f894 302f 	ldrb.w	r3, [r4, #47]	@ 0x2f
	uint8_t diff = (rollcnt - last_rollcnt + 64) % 64;
 8007226:	1ad3      	subs	r3, r2, r3
 8007228:	3340      	adds	r3, #64	@ 0x40
 800722a:	4259      	negs	r1, r3
 800722c:	f003 033f 	and.w	r3, r3, #63	@ 0x3f
 8007230:	f001 013f 	and.w	r1, r1, #63	@ 0x3f
 8007234:	bf58      	it	pl
 8007236:	424b      	negpl	r3, r1
 8007238:	b2db      	uxtb	r3, r3
	if (diff > 1) {
 800723a:	2b01      	cmp	r3, #1
 800723c:	d903      	bls.n	8007246 <getData+0x4c>
		sensor->err_packets_cnt += diff - 1; // We expect diff=1 usually (no lost packets)
 800723e:	8da1      	ldrh	r1, [r4, #44]	@ 0x2c
 8007240:	440b      	add	r3, r1
 8007242:	3b01      	subs	r3, #1
 8007244:	85a3      	strh	r3, [r4, #44]	@ 0x2c
	}
	sensor->roll_cnt = rollcnt;
 8007246:	f884 202f 	strb.w	r2, [r4, #47]	@ 0x2f

	// Check the checksum of the message
	if (RxBuffer[7] != calculate_crc(RxBuffer)) {
 800724a:	7fe6      	ldrb	r6, [r4, #31]
 800724c:	f7ff ff86 	bl	800715c <calculate_crc>
 8007250:	4286      	cmp	r6, r0
 8007252:	d11b      	bne.n	800728c <getData+0x92>
		return -1; // CRC not valid
	}

	/* 		EXTRACTING THE DATA 		*/
	// Extract and convert the angle to degrees
	sensor->alpha = (((RxBuffer[1] & 0x3F) << 8) + RxBuffer[0])<<2;
 8007254:	7e62      	ldrb	r2, [r4, #25]
 8007256:	0213      	lsls	r3, r2, #8
 8007258:	f403 537c 	and.w	r3, r3, #16128	@ 0x3f00
 800725c:	7e21      	ldrb	r1, [r4, #24]
 800725e:	440b      	add	r3, r1
 8007260:	009b      	lsls	r3, r3, #2
 8007262:	8523      	strh	r3, [r4, #40]	@ 0x28
	// Extract the error bits
	sensor->diagnostic_bits = RxBuffer[1] >> 6;
 8007264:	0992      	lsrs	r2, r2, #6
 8007266:	f884 202e 	strb.w	r2, [r4, #46]	@ 0x2e
	return 0;
 800726a:	e008      	b.n	800727e <getData+0x84>
		sensor->err_packets_cnt++;
 800726c:	8da3      	ldrh	r3, [r4, #44]	@ 0x2c
 800726e:	3301      	adds	r3, #1
 8007270:	85a3      	strh	r3, [r4, #44]	@ 0x2c
		return -1; // Not Alpha result
 8007272:	25ff      	movs	r5, #255	@ 0xff
 8007274:	e003      	b.n	800727e <getData+0x84>
		sensor->err_packets_cnt++;
 8007276:	8da3      	ldrh	r3, [r4, #44]	@ 0x2c
 8007278:	3301      	adds	r3, #1
 800727a:	85a3      	strh	r3, [r4, #44]	@ 0x2c
		return -1; // Probably wrong data
 800727c:	25ff      	movs	r5, #255	@ 0xff
}
 800727e:	4628      	mov	r0, r5
 8007280:	bd70      	pop	{r4, r5, r6, pc}
		sensor->err_packets_cnt++;
 8007282:	8da3      	ldrh	r3, [r4, #44]	@ 0x2c
 8007284:	3301      	adds	r3, #1
 8007286:	85a3      	strh	r3, [r4, #44]	@ 0x2c
		return -1; // Probably wrong data
 8007288:	25ff      	movs	r5, #255	@ 0xff
 800728a:	e7f8      	b.n	800727e <getData+0x84>
		sensor->err_packets_cnt++;
 800728c:	8da3      	ldrh	r3, [r4, #44]	@ 0x2c
 800728e:	3301      	adds	r3, #1
 8007290:	85a3      	strh	r3, [r4, #44]	@ 0x2c
		return -1; // CRC not valid
 8007292:	25ff      	movs	r5, #255	@ 0xff
 8007294:	e7f3      	b.n	800727e <getData+0x84>
		return -1;
 8007296:	25ff      	movs	r5, #255	@ 0xff
 8007298:	e7f1      	b.n	800727e <getData+0x84>

0800729a <MLX90363_TxRxDone_CB>:
static Wheel_Status MLX90363_TxRxDone_CB(Magnetometer_HandleTypeDef *sensor) {
 800729a:	b510      	push	{r4, lr}
 800729c:	4604      	mov	r4, r0
	HAL_GPIO_WritePin(sensor->SS_port, sensor->SS_pin, 1);
 800729e:	2201      	movs	r2, #1
 80072a0:	8e01      	ldrh	r1, [r0, #48]	@ 0x30
 80072a2:	6b40      	ldr	r0, [r0, #52]	@ 0x34
 80072a4:	f7fa fc83 	bl	8001bae <HAL_GPIO_WritePin>
	sensor->transfer_is_done = 1;
 80072a8:	2301      	movs	r3, #1
 80072aa:	f884 302a 	strb.w	r3, [r4, #42]	@ 0x2a
	getData(sensor);
 80072ae:	4620      	mov	r0, r4
 80072b0:	f7ff ffa3 	bl	80071fa <getData>
}
 80072b4:	2000      	movs	r0, #0
 80072b6:	bd10      	pop	{r4, pc}

080072b8 <MLX90363_TransmitRecieve_DMA>:
		Magnetometer_HandleTypeDef *sensor) {
 80072b8:	b538      	push	{r3, r4, r5, lr}
	if (sensor->hspi == 0) {
 80072ba:	6b83      	ldr	r3, [r0, #56]	@ 0x38
 80072bc:	b1ab      	cbz	r3, 80072ea <MLX90363_TransmitRecieve_DMA+0x32>
 80072be:	4604      	mov	r4, r0
	set_Tx_GET1(sensor, 0);
 80072c0:	2100      	movs	r1, #0
 80072c2:	f7ff ff68 	bl	8007196 <set_Tx_GET1>
	sensor->transfer_is_done = 0;
 80072c6:	2500      	movs	r5, #0
 80072c8:	f884 502a 	strb.w	r5, [r4, #42]	@ 0x2a
	HAL_GPIO_WritePin(sensor->SS_port, sensor->SS_pin, 0);
 80072cc:	462a      	mov	r2, r5
 80072ce:	8e21      	ldrh	r1, [r4, #48]	@ 0x30
 80072d0:	6b60      	ldr	r0, [r4, #52]	@ 0x34
 80072d2:	f7fa fc6c 	bl	8001bae <HAL_GPIO_WritePin>
	HAL_SPI_TransmitReceive_DMA(sensor->hspi, sensor->SPI_Tx_buffer,
 80072d6:	2308      	movs	r3, #8
 80072d8:	f104 0218 	add.w	r2, r4, #24
 80072dc:	f104 0120 	add.w	r1, r4, #32
 80072e0:	6ba0      	ldr	r0, [r4, #56]	@ 0x38
 80072e2:	f7fc fae5 	bl	80038b0 <HAL_SPI_TransmitReceive_DMA>
	return WHEEL_OK;
 80072e6:	4628      	mov	r0, r5
}
 80072e8:	bd38      	pop	{r3, r4, r5, pc}
		return WHEEL_ERROR;
 80072ea:	2001      	movs	r0, #1
 80072ec:	e7fc      	b.n	80072e8 <MLX90363_TransmitRecieve_DMA+0x30>

080072ee <MLX90363_Stop>:
static Wheel_Status MLX90363_Stop(Magnetometer_HandleTypeDef *sensor) {
 80072ee:	b508      	push	{r3, lr}
	HAL_TIM_Base_Stop_IT(sensor->htim);
 80072f0:	6bc0      	ldr	r0, [r0, #60]	@ 0x3c
 80072f2:	f7fc fc7a 	bl	8003bea <HAL_TIM_Base_Stop_IT>
}
 80072f6:	2000      	movs	r0, #0
 80072f8:	bd08      	pop	{r3, pc}

080072fa <MLX90363_DeINIT>:
static Wheel_Status MLX90363_DeINIT(Magnetometer_HandleTypeDef *sensor) {
 80072fa:	b510      	push	{r4, lr}
 80072fc:	4604      	mov	r4, r0
	if (MLX90363_Stop(sensor) == WHEEL_ERROR) {
 80072fe:	f7ff fff6 	bl	80072ee <MLX90363_Stop>
 8007302:	2801      	cmp	r0, #1
 8007304:	d004      	beq.n	8007310 <MLX90363_DeINIT+0x16>
	sensor->SS_pin = 0;
 8007306:	2000      	movs	r0, #0
 8007308:	8620      	strh	r0, [r4, #48]	@ 0x30
	sensor->SS_port = 0;
 800730a:	6360      	str	r0, [r4, #52]	@ 0x34
	sensor->hspi = 0;
 800730c:	63a0      	str	r0, [r4, #56]	@ 0x38
	sensor->htim = 0;
 800730e:	63e0      	str	r0, [r4, #60]	@ 0x3c
}
 8007310:	bd10      	pop	{r4, pc}

08007312 <transmit_blocking>:
static void transmit_blocking(Magnetometer_HandleTypeDef *sensor) {
 8007312:	b510      	push	{r4, lr}
 8007314:	4604      	mov	r4, r0
	HAL_GPIO_WritePin(sensor->SS_port, sensor->SS_pin, 0);
 8007316:	2200      	movs	r2, #0
 8007318:	8e01      	ldrh	r1, [r0, #48]	@ 0x30
 800731a:	6b40      	ldr	r0, [r0, #52]	@ 0x34
 800731c:	f7fa fc47 	bl	8001bae <HAL_GPIO_WritePin>
	HAL_SPI_Transmit(sensor->hspi, sensor->SPI_Tx_buffer, 8,
 8007320:	f04f 33ff 	mov.w	r3, #4294967295
 8007324:	2208      	movs	r2, #8
 8007326:	f104 0120 	add.w	r1, r4, #32
 800732a:	6ba0      	ldr	r0, [r4, #56]	@ 0x38
 800732c:	f7fc f9de 	bl	80036ec <HAL_SPI_Transmit>
	HAL_GPIO_WritePin(sensor->SS_port, sensor->SS_pin, 1);
 8007330:	2201      	movs	r2, #1
 8007332:	8e21      	ldrh	r1, [r4, #48]	@ 0x30
 8007334:	6b60      	ldr	r0, [r4, #52]	@ 0x34
 8007336:	f7fa fc3a 	bl	8001bae <HAL_GPIO_WritePin>
}
 800733a:	bd10      	pop	{r4, pc}

0800733c <reset_roll_counter>:
static void reset_roll_counter(Magnetometer_HandleTypeDef *sensor) {
 800733c:	b510      	push	{r4, lr}
 800733e:	4604      	mov	r4, r0
	set_Tx_GET1(sensor, 1);
 8007340:	2101      	movs	r1, #1
 8007342:	f7ff ff28 	bl	8007196 <set_Tx_GET1>
	transmit_blocking(sensor);
 8007346:	4620      	mov	r0, r4
 8007348:	f7ff ffe3 	bl	8007312 <transmit_blocking>
	HAL_Delay(1);
 800734c:	2001      	movs	r0, #1
 800734e:	f7f9 fe4c 	bl	8000fea <HAL_Delay>
	set_Tx_NOP(sensor);
 8007352:	4620      	mov	r0, r4
 8007354:	f7ff ff38 	bl	80071c8 <set_Tx_NOP>
	transmit_blocking(sensor);
 8007358:	4620      	mov	r0, r4
 800735a:	f7ff ffda 	bl	8007312 <transmit_blocking>
}
 800735e:	bd10      	pop	{r4, pc}

08007360 <MLX90363_Start_TIM>:
static Wheel_Status MLX90363_Start_TIM(Magnetometer_HandleTypeDef *sensor) {
 8007360:	b538      	push	{r3, r4, r5, lr}
	if (sensor->htim == 0) {
 8007362:	6bc3      	ldr	r3, [r0, #60]	@ 0x3c
 8007364:	b163      	cbz	r3, 8007380 <MLX90363_Start_TIM+0x20>
 8007366:	4604      	mov	r4, r0
	if (sensor->hspi == 0) {
 8007368:	6b83      	ldr	r3, [r0, #56]	@ 0x38
 800736a:	b15b      	cbz	r3, 8007384 <MLX90363_Start_TIM+0x24>
	reset_roll_counter(sensor);
 800736c:	f7ff ffe6 	bl	800733c <reset_roll_counter>
	sensor->roll_cnt = 0;
 8007370:	2500      	movs	r5, #0
 8007372:	f884 502f 	strb.w	r5, [r4, #47]	@ 0x2f
	HAL_TIM_Base_Start_IT(sensor->htim);
 8007376:	6be0      	ldr	r0, [r4, #60]	@ 0x3c
 8007378:	f7fc fbff 	bl	8003b7a <HAL_TIM_Base_Start_IT>
	return WHEEL_OK;
 800737c:	4628      	mov	r0, r5
}
 800737e:	bd38      	pop	{r3, r4, r5, pc}
		return WHEEL_ERROR;
 8007380:	2001      	movs	r0, #1
 8007382:	e7fc      	b.n	800737e <MLX90363_Start_TIM+0x1e>
		return WHEEL_ERROR;
 8007384:	2001      	movs	r0, #1
 8007386:	e7fa      	b.n	800737e <MLX90363_Start_TIM+0x1e>

08007388 <init_analog>:
	if (hSensor.INIT(&hSensor, &config2) == WHEEL_ERROR) {
		Error_Handler();
	}
}

static void init_analog() {
 8007388:	b530      	push	{r4, r5, lr}
 800738a:	b087      	sub	sp, #28
	Analog_ConfigHandleTypeDef config1 = { 0 };
 800738c:	2500      	movs	r5, #0
 800738e:	9505      	str	r5, [sp, #20]
	config1.hadc = &hadc1;
 8007390:	f241 1374 	movw	r3, #4468	@ 0x1174
 8007394:	f2c2 0300 	movt	r3, #8192	@ 0x2000
 8007398:	9305      	str	r3, [sp, #20]
	hAnalog.INIT(&hAnalog, &config1);
 800739a:	f640 3460 	movw	r4, #2912	@ 0xb60
 800739e:	f2c2 0400 	movt	r4, #8192	@ 0x2000
 80073a2:	6823      	ldr	r3, [r4, #0]
 80073a4:	a905      	add	r1, sp, #20
 80073a6:	4620      	mov	r0, r4
 80073a8:	4798      	blx	r3

	Pedals_ConfigHandleTypeDef config2 = { 0 };
 80073aa:	9504      	str	r5, [sp, #16]
	config2.hw_analog = &hAnalog;
 80073ac:	9404      	str	r4, [sp, #16]
	hPedals.INIT(&hPedals, &config2);
 80073ae:	f640 304c 	movw	r0, #2892	@ 0xb4c
 80073b2:	f2c2 0000 	movt	r0, #8192	@ 0x2000
 80073b6:	6803      	ldr	r3, [r0, #0]
 80073b8:	a904      	add	r1, sp, #16
 80073ba:	4798      	blx	r3

	Shifter_ConfigHandleTypeDef config3 = { 0 };
 80073bc:	9501      	str	r5, [sp, #4]
 80073be:	9502      	str	r5, [sp, #8]
 80073c0:	9503      	str	r5, [sp, #12]
	config3.hw_analog = &hAnalog;
 80073c2:	9401      	str	r4, [sp, #4]
	config3.modifier_port = SHIFTER_MODIFIER_GPIO_Port;
 80073c4:	f44f 6340 	mov.w	r3, #3072	@ 0xc00
 80073c8:	f2c4 0301 	movt	r3, #16385	@ 0x4001
 80073cc:	9303      	str	r3, [sp, #12]
	config3.modifier_pin = SHIFTER_MODIFIER_Pin;
 80073ce:	f44f 7300 	mov.w	r3, #512	@ 0x200
 80073d2:	f8ad 3008 	strh.w	r3, [sp, #8]
	hShifter.INIT(&hShifter, &config3);
 80073d6:	f640 7080 	movw	r0, #3968	@ 0xf80
 80073da:	f2c2 0000 	movt	r0, #8192	@ 0x2000
 80073de:	6803      	ldr	r3, [r0, #0]
 80073e0:	a901      	add	r1, sp, #4
 80073e2:	4798      	blx	r3
}
 80073e4:	b007      	add	sp, #28
 80073e6:	bd30      	pop	{r4, r5, pc}

080073e8 <configure_software_exti>:

static void configure_software_exti() {
	wheel.hSwit.usb_send_report_swit_pin = SWIT_0_Pin;
 80073e8:	f641 3354 	movw	r3, #6996	@ 0x1b54
 80073ec:	f2c2 0300 	movt	r3, #8192	@ 0x2000
 80073f0:	2201      	movs	r2, #1
 80073f2:	821a      	strh	r2, [r3, #16]
	wheel.hSwit.usb_process_data_pin = SWIT_1_Pin;
 80073f4:	2202      	movs	r2, #2
 80073f6:	825a      	strh	r2, [r3, #18]
	for (uint8_t i = 0; i < 3; i++) {
 80073f8:	2100      	movs	r1, #0
 80073fa:	e015      	b.n	8007428 <configure_software_exti+0x40>
		CLEAR_BIT(EXTI->RTSR, (0x1UL << i));  // Clear rising edge
 80073fc:	f44f 6380 	mov.w	r3, #1024	@ 0x400
 8007400:	f2c4 0301 	movt	r3, #16385	@ 0x4001
 8007404:	6898      	ldr	r0, [r3, #8]
 8007406:	2201      	movs	r2, #1
 8007408:	408a      	lsls	r2, r1
 800740a:	ea20 0002 	bic.w	r0, r0, r2
 800740e:	6098      	str	r0, [r3, #8]
		CLEAR_BIT(EXTI->FTSR, (0x1UL << i));  // Clear falling edge
 8007410:	68d8      	ldr	r0, [r3, #12]
 8007412:	ea20 0002 	bic.w	r0, r0, r2
 8007416:	60d8      	str	r0, [r3, #12]
		SET_BIT(EXTI->IMR, (0x1UL << i));  // Already enabled by CubeMX
 8007418:	6818      	ldr	r0, [r3, #0]
 800741a:	4310      	orrs	r0, r2
 800741c:	6018      	str	r0, [r3, #0]
		SET_BIT(EXTI->PR, (0x1UL << i));  // Clear any pending interrupts
 800741e:	6958      	ldr	r0, [r3, #20]
 8007420:	4302      	orrs	r2, r0
 8007422:	615a      	str	r2, [r3, #20]
	for (uint8_t i = 0; i < 3; i++) {
 8007424:	3101      	adds	r1, #1
 8007426:	b2c9      	uxtb	r1, r1
 8007428:	2902      	cmp	r1, #2
 800742a:	d9e7      	bls.n	80073fc <configure_software_exti+0x14>
	}
}
 800742c:	4770      	bx	lr

0800742e <init_wheel_handle>:

static void init_wheel_handle() {
	wheel.hButtons = &hButtons;
 800742e:	f641 3354 	movw	r3, #6996	@ 0x1b54
 8007432:	f2c2 0300 	movt	r3, #8192	@ 0x2000
 8007436:	f640 32e4 	movw	r2, #3044	@ 0xbe4
 800743a:	f2c2 0200 	movt	r2, #8192	@ 0x2000
 800743e:	601a      	str	r2, [r3, #0]
	wheel.hSensor = &hSensor;
 8007440:	f640 724c 	movw	r2, #3916	@ 0xf4c
 8007444:	f2c2 0200 	movt	r2, #8192	@ 0x2000
 8007448:	605a      	str	r2, [r3, #4]
	wheel.hPedals = &hPedals;
 800744a:	f640 324c 	movw	r2, #2892	@ 0xb4c
 800744e:	f2c2 0200 	movt	r2, #8192	@ 0x2000
 8007452:	609a      	str	r2, [r3, #8]
	wheel.hShifter = &hShifter;
 8007454:	f640 7280 	movw	r2, #3968	@ 0xf80
 8007458:	f2c2 0200 	movt	r2, #8192	@ 0x2000
 800745c:	60da      	str	r2, [r3, #12]
	wheel.hUsbHid = &hUsbHid;
 800745e:	f641 322c 	movw	r2, #6956	@ 0x1b2c
 8007462:	f2c2 0200 	movt	r2, #8192	@ 0x2000
 8007466:	619a      	str	r2, [r3, #24]
}
 8007468:	4770      	bx	lr

0800746a <init_buttons>:
static void init_buttons() {
 800746a:	b500      	push	{lr}
 800746c:	b087      	sub	sp, #28
	DigitalInput_ConfigHandleTypeDef config1 = { 0 };
 800746e:	2300      	movs	r3, #0
 8007470:	9303      	str	r3, [sp, #12]
 8007472:	9304      	str	r3, [sp, #16]
 8007474:	9305      	str	r3, [sp, #20]
	config1.buttons_port = GPIOC;
 8007476:	f44f 5380 	mov.w	r3, #4096	@ 0x1000
 800747a:	f2c4 0301 	movt	r3, #16385	@ 0x4001
 800747e:	9305      	str	r3, [sp, #20]
	config1.clk_pin = BUTTON_CLK_Pin;
 8007480:	f44f 5300 	mov.w	r3, #8192	@ 0x2000
 8007484:	f8ad 300c 	strh.w	r3, [sp, #12]
	config1.lock_pin = BUTTON_LOCK_Pin;
 8007488:	f44f 4380 	mov.w	r3, #16384	@ 0x4000
 800748c:	f8ad 300e 	strh.w	r3, [sp, #14]
	config1.in_pin = BUTTON_IN_Pin;
 8007490:	f44f 4300 	mov.w	r3, #32768	@ 0x8000
 8007494:	f8ad 3010 	strh.w	r3, [sp, #16]
	if (hG29Buttons.INIT(&hG29Buttons, &config1) == WHEEL_ERROR) {
 8007498:	f640 3088 	movw	r0, #2952	@ 0xb88
 800749c:	f2c2 0000 	movt	r0, #8192	@ 0x2000
 80074a0:	6803      	ldr	r3, [r0, #0]
 80074a2:	a903      	add	r1, sp, #12
 80074a4:	4798      	blx	r3
 80074a6:	2801      	cmp	r0, #1
 80074a8:	d018      	beq.n	80074dc <init_buttons+0x72>
	Buttons_ConfigHandleTypeDef config2 = { 0 };
 80074aa:	2300      	movs	r3, #0
 80074ac:	9301      	str	r3, [sp, #4]
 80074ae:	9302      	str	r3, [sp, #8]
	config2.htim = &htim3;
 80074b0:	f241 0308 	movw	r3, #4104	@ 0x1008
 80074b4:	f2c2 0300 	movt	r3, #8192	@ 0x2000
 80074b8:	9301      	str	r3, [sp, #4]
	config2.hw_buttons = &hG29Buttons;
 80074ba:	f640 3388 	movw	r3, #2952	@ 0xb88
 80074be:	f2c2 0300 	movt	r3, #8192	@ 0x2000
 80074c2:	9302      	str	r3, [sp, #8]
	if (hButtons.INIT(&hButtons, &config2) == WHEEL_ERROR) {
 80074c4:	f640 30e4 	movw	r0, #3044	@ 0xbe4
 80074c8:	f2c2 0000 	movt	r0, #8192	@ 0x2000
 80074cc:	6803      	ldr	r3, [r0, #0]
 80074ce:	a901      	add	r1, sp, #4
 80074d0:	4798      	blx	r3
 80074d2:	2801      	cmp	r0, #1
 80074d4:	d005      	beq.n	80074e2 <init_buttons+0x78>
}
 80074d6:	b007      	add	sp, #28
 80074d8:	f85d fb04 	ldr.w	pc, [sp], #4
		Error_Handler();
 80074dc:	f7f9 fa15 	bl	800090a <Error_Handler>
 80074e0:	e7e3      	b.n	80074aa <init_buttons+0x40>
		Error_Handler();
 80074e2:	f7f9 fa12 	bl	800090a <Error_Handler>
}
 80074e6:	e7f6      	b.n	80074d6 <init_buttons+0x6c>

080074e8 <init_sensor>:
static void init_sensor() {
 80074e8:	b500      	push	{lr}
 80074ea:	b087      	sub	sp, #28
	Magnetometer_ConfigHandleTypeDef config1 = { 0 };
 80074ec:	2300      	movs	r3, #0
 80074ee:	9302      	str	r3, [sp, #8]
 80074f0:	9303      	str	r3, [sp, #12]
 80074f2:	9304      	str	r3, [sp, #16]
 80074f4:	9305      	str	r3, [sp, #20]
	config1.hspi = &hspi2;
 80074f6:	f241 03d8 	movw	r3, #4312	@ 0x10d8
 80074fa:	f2c2 0300 	movt	r3, #8192	@ 0x2000
 80074fe:	9304      	str	r3, [sp, #16]
	config1.htim = &htim4;
 8007500:	f640 73c0 	movw	r3, #4032	@ 0xfc0
 8007504:	f2c2 0300 	movt	r3, #8192	@ 0x2000
 8007508:	9305      	str	r3, [sp, #20]
	config1.SS_port = SPI2_SS_GPIO_Port;
 800750a:	f44f 6340 	mov.w	r3, #3072	@ 0xc00
 800750e:	f2c4 0301 	movt	r3, #16385	@ 0x4001
 8007512:	9303      	str	r3, [sp, #12]
	config1.SS_pin = SPI2_SS_Pin;
 8007514:	f44f 5380 	mov.w	r3, #4096	@ 0x1000
 8007518:	f8ad 3008 	strh.w	r3, [sp, #8]
	if (hmlx90363.INIT(&hmlx90363, &config1) == WHEEL_ERROR) {
 800751c:	f640 30a4 	movw	r0, #2980	@ 0xba4
 8007520:	f2c2 0000 	movt	r0, #8192	@ 0x2000
 8007524:	6803      	ldr	r3, [r0, #0]
 8007526:	a902      	add	r1, sp, #8
 8007528:	4798      	blx	r3
 800752a:	2801      	cmp	r0, #1
 800752c:	d012      	beq.n	8007554 <init_sensor+0x6c>
	Sensor_ConfigHandleTypeDef config2 = { 0 };
 800752e:	2300      	movs	r3, #0
 8007530:	9301      	str	r3, [sp, #4]
	config2.hw_magnetometer = &hmlx90363;
 8007532:	f640 33a4 	movw	r3, #2980	@ 0xba4
 8007536:	f2c2 0300 	movt	r3, #8192	@ 0x2000
 800753a:	9301      	str	r3, [sp, #4]
	if (hSensor.INIT(&hSensor, &config2) == WHEEL_ERROR) {
 800753c:	f640 704c 	movw	r0, #3916	@ 0xf4c
 8007540:	f2c2 0000 	movt	r0, #8192	@ 0x2000
 8007544:	6803      	ldr	r3, [r0, #0]
 8007546:	a901      	add	r1, sp, #4
 8007548:	4798      	blx	r3
 800754a:	2801      	cmp	r0, #1
 800754c:	d005      	beq.n	800755a <init_sensor+0x72>
}
 800754e:	b007      	add	sp, #28
 8007550:	f85d fb04 	ldr.w	pc, [sp], #4
		Error_Handler();
 8007554:	f7f9 f9d9 	bl	800090a <Error_Handler>
 8007558:	e7e9      	b.n	800752e <init_sensor+0x46>
		Error_Handler();
 800755a:	f7f9 f9d6 	bl	800090a <Error_Handler>
}
 800755e:	e7f6      	b.n	800754e <init_sensor+0x66>

08007560 <wheel_startup>:
void wheel_startup() {
 8007560:	b508      	push	{r3, lr}
	init_analog();
 8007562:	f7ff ff11 	bl	8007388 <init_analog>
	init_buttons();
 8007566:	f7ff ff80 	bl	800746a <init_buttons>
	init_sensor();
 800756a:	f7ff ffbd 	bl	80074e8 <init_sensor>
	configure_software_exti();
 800756e:	f7ff ff3b 	bl	80073e8 <configure_software_exti>
	app_usb_hid_init(&hUsbHid);
 8007572:	f641 302c 	movw	r0, #6956	@ 0x1b2c
 8007576:	f2c2 0000 	movt	r0, #8192	@ 0x2000
 800757a:	f7ff fc6f 	bl	8006e5c <app_usb_hid_init>
	init_wheel_handle();
 800757e:	f7ff ff56 	bl	800742e <init_wheel_handle>
	wheel.hPedals->hw_analog->Start_CONTINIOUS_SCAN_DMA(
 8007582:	f641 3454 	movw	r4, #6996	@ 0x1b54
 8007586:	f2c2 0400 	movt	r4, #8192	@ 0x2000
 800758a:	68a3      	ldr	r3, [r4, #8]
 800758c:	6918      	ldr	r0, [r3, #16]
 800758e:	6883      	ldr	r3, [r0, #8]
 8007590:	4798      	blx	r3
	wheel.hButtons->Start_TIM(wheel.hButtons);
 8007592:	6820      	ldr	r0, [r4, #0]
 8007594:	6883      	ldr	r3, [r0, #8]
 8007596:	4798      	blx	r3
	wheel.hSensor->hw_magnetometer->Start_TIM(wheel.hSensor->hw_magnetometer);
 8007598:	6863      	ldr	r3, [r4, #4]
 800759a:	6b18      	ldr	r0, [r3, #48]	@ 0x30
 800759c:	6883      	ldr	r3, [r0, #8]
 800759e:	4798      	blx	r3
	app_usb_hid_start();
 80075a0:	f7ff fc66 	bl	8006e70 <app_usb_hid_start>
	wheel.hSensor->min = 1;
 80075a4:	6863      	ldr	r3, [r4, #4]
 80075a6:	2201      	movs	r2, #1
 80075a8:	621a      	str	r2, [r3, #32]
	wheel.hSensor->max = 1;
 80075aa:	625a      	str	r2, [r3, #36]	@ 0x24
 80075ac:	e01e      	b.n	80075ec <wheel_startup+0x8c>
		if (wheel.hSensor->steering_pos > wheel.hSensor->max) {
 80075ae:	6a62      	ldr	r2, [r4, #36]	@ 0x24
 80075b0:	4293      	cmp	r3, r2
 80075b2:	dd00      	ble.n	80075b6 <wheel_startup+0x56>
			wheel.hSensor->max = wheel.hSensor->steering_pos;
 80075b4:	6263      	str	r3, [r4, #36]	@ 0x24
				/ (wheel.hSensor->distance / 2);
 80075b6:	8d60      	ldrh	r0, [r4, #42]	@ 0x2a
 80075b8:	0840      	lsrs	r0, r0, #1
 80075ba:	f7f8 fe81 	bl	80002c0 <__aeabi_i2f>
 80075be:	4601      	mov	r1, r0
 80075c0:	f44f 407e 	mov.w	r0, #65024	@ 0xfe00
 80075c4:	f2c4 60ff 	movt	r0, #18175	@ 0x46ff
 80075c8:	f7f8 ff82 	bl	80004d0 <__aeabi_fdiv>
		wheel.hSensor->axis_scale = (float) (0xFFFF / 2)
 80075cc:	62e0      	str	r0, [r4, #44]	@ 0x2c
		HAL_Delay(10);
 80075ce:	200a      	movs	r0, #10
 80075d0:	f7f9 fd0b 	bl	8000fea <HAL_Delay>
		FfbGetFeedbackValue(&wheel.hSensor->virtual_axis,&test_pos);
 80075d4:	f641 3354 	movw	r3, #6996	@ 0x1b54
 80075d8:	f2c2 0300 	movt	r3, #8192	@ 0x2000
 80075dc:	6858      	ldr	r0, [r3, #4]
 80075de:	f641 3128 	movw	r1, #6952	@ 0x1b28
 80075e2:	f2c2 0100 	movt	r1, #8192	@ 0x2000
 80075e6:	3010      	adds	r0, #16
 80075e8:	f7fd fd4a 	bl	8005080 <FfbGetFeedbackValue>
		if (wheel.hSensor->steering_pos < wheel.hSensor->min) {
 80075ec:	f641 3354 	movw	r3, #6996	@ 0x1b54
 80075f0:	f2c2 0300 	movt	r3, #8192	@ 0x2000
 80075f4:	685c      	ldr	r4, [r3, #4]
 80075f6:	69a3      	ldr	r3, [r4, #24]
 80075f8:	6a22      	ldr	r2, [r4, #32]
 80075fa:	4293      	cmp	r3, r2
 80075fc:	dad7      	bge.n	80075ae <wheel_startup+0x4e>
			wheel.hSensor->min = wheel.hSensor->steering_pos;
 80075fe:	6223      	str	r3, [r4, #32]
 8007600:	e7d5      	b.n	80075ae <wheel_startup+0x4e>

08007602 <wheel_get_all_component_states>:

/* 		APPLICATION SPECIFIC FUNCTIONS 		*/
Wheel_Status wheel_get_all_component_states() {
	if (wheel.hPedals->hw_analog->hadc == 0) {
 8007602:	f641 3354 	movw	r3, #6996	@ 0x1b54
 8007606:	f2c2 0300 	movt	r3, #8192	@ 0x2000
 800760a:	689b      	ldr	r3, [r3, #8]
 800760c:	691b      	ldr	r3, [r3, #16]
 800760e:	6a5b      	ldr	r3, [r3, #36]	@ 0x24
 8007610:	b32b      	cbz	r3, 800765e <wheel_get_all_component_states+0x5c>
		return WHEEL_ERROR;
	}
	if (wheel.hButtons->hw_buttons->buttons_port == 0
 8007612:	f641 3354 	movw	r3, #6996	@ 0x1b54
 8007616:	f2c2 0300 	movt	r3, #8192	@ 0x2000
 800761a:	6818      	ldr	r0, [r3, #0]
 800761c:	f8d0 3364 	ldr.w	r3, [r0, #868]	@ 0x364
 8007620:	695b      	ldr	r3, [r3, #20]
 8007622:	b1f3      	cbz	r3, 8007662 <wheel_get_all_component_states+0x60>
			|| wheel.hButtons->htim == 0) {
 8007624:	f8d0 3360 	ldr.w	r3, [r0, #864]	@ 0x360
 8007628:	b1eb      	cbz	r3, 8007666 <wheel_get_all_component_states+0x64>
		return WHEEL_ERROR;
	}
	if (wheel.hSensor->hw_magnetometer->hspi == 0) {
 800762a:	f641 3354 	movw	r3, #6996	@ 0x1b54
 800762e:	f2c2 0300 	movt	r3, #8192	@ 0x2000
 8007632:	685b      	ldr	r3, [r3, #4]
 8007634:	6b1b      	ldr	r3, [r3, #48]	@ 0x30
 8007636:	6b9b      	ldr	r3, [r3, #56]	@ 0x38
 8007638:	b1bb      	cbz	r3, 800766a <wheel_get_all_component_states+0x68>
Wheel_Status wheel_get_all_component_states() {
 800763a:	b510      	push	{r4, lr}
		return WHEEL_ERROR;
	}
	wheel.hButtons->GetState(wheel.hButtons);
 800763c:	6943      	ldr	r3, [r0, #20]
 800763e:	4798      	blx	r3
	wheel.hPedals->GetState(wheel.hPedals);
 8007640:	f641 3454 	movw	r4, #6996	@ 0x1b54
 8007644:	f2c2 0400 	movt	r4, #8192	@ 0x2000
 8007648:	68a0      	ldr	r0, [r4, #8]
 800764a:	6883      	ldr	r3, [r0, #8]
 800764c:	4798      	blx	r3
	wheel.hSensor->GetAxis(wheel.hSensor);
 800764e:	6860      	ldr	r0, [r4, #4]
 8007650:	68c3      	ldr	r3, [r0, #12]
 8007652:	4798      	blx	r3
	wheel.hShifter->GetSpeed(wheel.hShifter);
 8007654:	68e0      	ldr	r0, [r4, #12]
 8007656:	6883      	ldr	r3, [r0, #8]
 8007658:	4798      	blx	r3
	return WHEEL_OK;
 800765a:	2000      	movs	r0, #0
}
 800765c:	bd10      	pop	{r4, pc}
		return WHEEL_ERROR;
 800765e:	2001      	movs	r0, #1
 8007660:	4770      	bx	lr
		return WHEEL_ERROR;
 8007662:	2001      	movs	r0, #1
 8007664:	4770      	bx	lr
 8007666:	2001      	movs	r0, #1
 8007668:	4770      	bx	lr
		return WHEEL_ERROR;
 800766a:	2001      	movs	r0, #1
}
 800766c:	4770      	bx	lr

0800766e <HAL_GPIO_EXTI_Callback>:

/*		HARDWARE CALLBACK FUNCTIONS		 	*/
// The custom software interrupt implementation using the EXTI line callbacks
void HAL_GPIO_EXTI_Callback(uint16_t GPIO_Pin) {
 800766e:	b510      	push	{r4, lr}
 8007670:	4604      	mov	r4, r0
	if (GPIO_Pin == wheel.hSwit.usb_send_report_swit_pin) {
 8007672:	f641 3354 	movw	r3, #6996	@ 0x1b54
 8007676:	f2c2 0300 	movt	r3, #8192	@ 0x2000
 800767a:	8a1b      	ldrh	r3, [r3, #16]
 800767c:	4283      	cmp	r3, r0
 800767e:	d007      	beq.n	8007690 <HAL_GPIO_EXTI_Callback+0x22>
		app_usb_hid_send_report();
	}
	if (GPIO_Pin == wheel.hSwit.usb_process_data_pin) {
 8007680:	f641 3354 	movw	r3, #6996	@ 0x1b54
 8007684:	f2c2 0300 	movt	r3, #8192	@ 0x2000
 8007688:	8a5b      	ldrh	r3, [r3, #18]
 800768a:	42a3      	cmp	r3, r4
 800768c:	d003      	beq.n	8007696 <HAL_GPIO_EXTI_Callback+0x28>
		app_usb_hid_deferred_processing();
	}
}
 800768e:	bd10      	pop	{r4, pc}
		app_usb_hid_send_report();
 8007690:	f7ff fc2d 	bl	8006eee <app_usb_hid_send_report>
 8007694:	e7f4      	b.n	8007680 <HAL_GPIO_EXTI_Callback+0x12>
		app_usb_hid_deferred_processing();
 8007696:	f7ff fc0b 	bl	8006eb0 <app_usb_hid_deferred_processing>
}
 800769a:	e7f8      	b.n	800768e <HAL_GPIO_EXTI_Callback+0x20>

0800769c <HAL_ADC_ConvCpltCallback>:

void HAL_ADC_ConvCpltCallback(ADC_HandleTypeDef *hadc) {
	UNUSED(hadc);
}
 800769c:	4770      	bx	lr

0800769e <HAL_SPI_TxRxCpltCallback>:

// Called at the end of a transfer to process the raw data received by the sensor
void HAL_SPI_TxRxCpltCallback(SPI_HandleTypeDef *hspi) {
 800769e:	b508      	push	{r3, lr}
	if (wheel.hSensor->hw_magnetometer->hspi->Instance == hspi->Instance) {
 80076a0:	f641 3354 	movw	r3, #6996	@ 0x1b54
 80076a4:	f2c2 0300 	movt	r3, #8192	@ 0x2000
 80076a8:	685b      	ldr	r3, [r3, #4]
 80076aa:	6b1b      	ldr	r3, [r3, #48]	@ 0x30
 80076ac:	6b9a      	ldr	r2, [r3, #56]	@ 0x38
 80076ae:	6811      	ldr	r1, [r2, #0]
 80076b0:	6802      	ldr	r2, [r0, #0]
 80076b2:	4291      	cmp	r1, r2
 80076b4:	d000      	beq.n	80076b8 <HAL_SPI_TxRxCpltCallback+0x1a>
		wheel.hSensor->hw_magnetometer->TxRxDone_CB(
				wheel.hSensor->hw_magnetometer);
		wheel.hSensor->Update(wheel.hSensor);
	}
}
 80076b6:	bd08      	pop	{r3, pc}
		wheel.hSensor->hw_magnetometer->TxRxDone_CB(
 80076b8:	695a      	ldr	r2, [r3, #20]
 80076ba:	4618      	mov	r0, r3
 80076bc:	4790      	blx	r2
		wheel.hSensor->Update(wheel.hSensor);
 80076be:	f641 3354 	movw	r3, #6996	@ 0x1b54
 80076c2:	f2c2 0300 	movt	r3, #8192	@ 0x2000
 80076c6:	6858      	ldr	r0, [r3, #4]
 80076c8:	6883      	ldr	r3, [r0, #8]
 80076ca:	4798      	blx	r3
}
 80076cc:	e7f3      	b.n	80076b6 <HAL_SPI_TxRxCpltCallback+0x18>

080076ce <HAL_TIM_PeriodElapsedCallback>:

// 1. Used to start, periodically, the transmission with the sensor
// 2. Used to periodically read the buttons state
void HAL_TIM_PeriodElapsedCallback(TIM_HandleTypeDef *htim) {
 80076ce:	b510      	push	{r4, lr}
 80076d0:	4604      	mov	r4, r0
	if (wheel.hSensor->hw_magnetometer->htim->Instance == htim->Instance) {
 80076d2:	f641 3354 	movw	r3, #6996	@ 0x1b54
 80076d6:	f2c2 0300 	movt	r3, #8192	@ 0x2000
 80076da:	685b      	ldr	r3, [r3, #4]
 80076dc:	6b18      	ldr	r0, [r3, #48]	@ 0x30
 80076de:	6bc3      	ldr	r3, [r0, #60]	@ 0x3c
 80076e0:	681a      	ldr	r2, [r3, #0]
 80076e2:	6823      	ldr	r3, [r4, #0]
 80076e4:	429a      	cmp	r2, r3
 80076e6:	d00b      	beq.n	8007700 <HAL_TIM_PeriodElapsedCallback+0x32>
		wheel.hSensor->hw_magnetometer->TransmitRecieve_DMA(
				wheel.hSensor->hw_magnetometer);
	}
	if (wheel.hButtons->htim->Instance == htim->Instance) {
 80076e8:	f641 3354 	movw	r3, #6996	@ 0x1b54
 80076ec:	f2c2 0300 	movt	r3, #8192	@ 0x2000
 80076f0:	681b      	ldr	r3, [r3, #0]
 80076f2:	f8d3 2360 	ldr.w	r2, [r3, #864]	@ 0x360
 80076f6:	6811      	ldr	r1, [r2, #0]
 80076f8:	6822      	ldr	r2, [r4, #0]
 80076fa:	4291      	cmp	r1, r2
 80076fc:	d003      	beq.n	8007706 <HAL_TIM_PeriodElapsedCallback+0x38>
		wheel.hButtons->hw_buttons->ReadState(wheel.hButtons->hw_buttons);
		wheel.hButtons->Update(wheel.hButtons);
	}
}
 80076fe:	bd10      	pop	{r4, pc}
		wheel.hSensor->hw_magnetometer->TransmitRecieve_DMA(
 8007700:	6903      	ldr	r3, [r0, #16]
 8007702:	4798      	blx	r3
 8007704:	e7f0      	b.n	80076e8 <HAL_TIM_PeriodElapsedCallback+0x1a>
		wheel.hButtons->hw_buttons->ReadState(wheel.hButtons->hw_buttons);
 8007706:	f8d3 0364 	ldr.w	r0, [r3, #868]	@ 0x364
 800770a:	6883      	ldr	r3, [r0, #8]
 800770c:	4798      	blx	r3
		wheel.hButtons->Update(wheel.hButtons);
 800770e:	f641 3354 	movw	r3, #6996	@ 0x1b54
 8007712:	f2c2 0300 	movt	r3, #8192	@ 0x2000
 8007716:	6818      	ldr	r0, [r3, #0]
 8007718:	6903      	ldr	r3, [r0, #16]
 800771a:	4798      	blx	r3
}
 800771c:	e7ef      	b.n	80076fe <HAL_TIM_PeriodElapsedCallback+0x30>

0800771e <Buttons_INIT>:
Buttons_HandleTypeDef hButtons = { Buttons_INIT, Buttons_DeINIT,
		Buttons_Start_TIM, Buttons_Stop, Buttons_Update, Buttons_GetState };

static Wheel_Status Buttons_INIT(Buttons_HandleTypeDef *buttons,
		Buttons_ConfigHandleTypeDef *config) {
	if (config->htim == 0 || config->hw_buttons == 0) {
 800771e:	680b      	ldr	r3, [r1, #0]
 8007720:	b143      	cbz	r3, 8007734 <Buttons_INIT+0x16>
 8007722:	684a      	ldr	r2, [r1, #4]
 8007724:	b142      	cbz	r2, 8007738 <Buttons_INIT+0x1a>
		return WHEEL_ERROR;
	}
	buttons->htim = config->htim;
 8007726:	f8c0 3360 	str.w	r3, [r0, #864]	@ 0x360
	buttons->hw_buttons = config->hw_buttons;
 800772a:	684b      	ldr	r3, [r1, #4]
 800772c:	f8c0 3364 	str.w	r3, [r0, #868]	@ 0x364
	return WHEEL_OK;
 8007730:	2000      	movs	r0, #0
 8007732:	4770      	bx	lr
		return WHEEL_ERROR;
 8007734:	2001      	movs	r0, #1
 8007736:	4770      	bx	lr
 8007738:	2001      	movs	r0, #1
}
 800773a:	4770      	bx	lr

0800773c <Buttons_DeINIT>:
static Wheel_Status Buttons_DeINIT(Buttons_HandleTypeDef *buttons) {
 800773c:	b510      	push	{r4, lr}
 800773e:	4604      	mov	r4, r0
	if (buttons->hw_buttons->DeINIT(buttons->hw_buttons) == WHEEL_ERROR) {
 8007740:	f8d0 0364 	ldr.w	r0, [r0, #868]	@ 0x364
 8007744:	6843      	ldr	r3, [r0, #4]
 8007746:	4798      	blx	r3
 8007748:	2801      	cmp	r0, #1
 800774a:	d004      	beq.n	8007756 <Buttons_DeINIT+0x1a>
		return WHEEL_ERROR;
	}
	buttons->htim = 0;
 800774c:	2000      	movs	r0, #0
 800774e:	f8c4 0360 	str.w	r0, [r4, #864]	@ 0x360
	buttons->hw_buttons = 0;
 8007752:	f8c4 0364 	str.w	r0, [r4, #868]	@ 0x364
	return WHEEL_OK;
}
 8007756:	bd10      	pop	{r4, pc}

08007758 <get_debounced_state>:
	get_debounced_state(buttons);
	get_current_knob_state(buttons);
	return WHEEL_OK;
}

static void get_debounced_state(Buttons_HandleTypeDef *buttons) {
 8007758:	b510      	push	{r4, lr}
 800775a:	b08c      	sub	sp, #48	@ 0x30
 800775c:	4604      	mov	r4, r0
	uint16_t buttonSum[BUTTONS_NUM] = { 0 };
 800775e:	2230      	movs	r2, #48	@ 0x30
 8007760:	2100      	movs	r1, #0
 8007762:	4668      	mov	r0, sp
 8007764:	f000 fad7 	bl	8007d16 <memset>
	uint32_t *buffer = buttons->sample_buffer;
 8007768:	f104 0e18 	add.w	lr, r4, #24
	uint16_t head = buttons->sample_head;
 800776c:	f8b4 1338 	ldrh.w	r1, [r4, #824]	@ 0x338
	uint16_t sample_idx = head;

	for (uint16_t offset = 0; offset < MAX_SAMPLES; offset++) {
 8007770:	2200      	movs	r2, #0
 8007772:	e0ac      	b.n	80078ce <get_debounced_state+0x176>
		if (sample_idx == 0) {
			sample_idx = BUTTONS_BUFFER_SIZE - 1;
 8007774:	21c7      	movs	r1, #199	@ 0xc7
		} else {
			sample_idx--;
		}
		uint32_t sample = buffer[sample_idx];
 8007776:	f85e 3021 	ldr.w	r3, [lr, r1, lsl #2]
		buttonSum[0] += (sample >> 0) & 1;
 800777a:	f8bd 0000 	ldrh.w	r0, [sp]
 800777e:	f003 0c01 	and.w	ip, r3, #1
 8007782:	4460      	add	r0, ip
 8007784:	f8ad 0000 	strh.w	r0, [sp]
		buttonSum[1] += (sample >> 1) & 1;
 8007788:	f8bd 0002 	ldrh.w	r0, [sp, #2]
 800778c:	f3c3 0c40 	ubfx	ip, r3, #1, #1
 8007790:	4460      	add	r0, ip
 8007792:	f8ad 0002 	strh.w	r0, [sp, #2]
		buttonSum[2] += (sample >> 2) & 1;
 8007796:	f8bd 0004 	ldrh.w	r0, [sp, #4]
 800779a:	f3c3 0c80 	ubfx	ip, r3, #2, #1
 800779e:	4460      	add	r0, ip
 80077a0:	f8ad 0004 	strh.w	r0, [sp, #4]
		buttonSum[3] += (sample >> 3) & 1;
 80077a4:	f8bd 0006 	ldrh.w	r0, [sp, #6]
 80077a8:	f3c3 0cc0 	ubfx	ip, r3, #3, #1
 80077ac:	4460      	add	r0, ip
 80077ae:	f8ad 0006 	strh.w	r0, [sp, #6]
		buttonSum[4] += (sample >> 4) & 1;
 80077b2:	f8bd 0008 	ldrh.w	r0, [sp, #8]
 80077b6:	f3c3 1c00 	ubfx	ip, r3, #4, #1
 80077ba:	4460      	add	r0, ip
 80077bc:	f8ad 0008 	strh.w	r0, [sp, #8]
		buttonSum[5] += (sample >> 5) & 1;
 80077c0:	f8bd 000a 	ldrh.w	r0, [sp, #10]
 80077c4:	f3c3 1c40 	ubfx	ip, r3, #5, #1
 80077c8:	4460      	add	r0, ip
 80077ca:	f8ad 000a 	strh.w	r0, [sp, #10]
		buttonSum[6] += (sample >> 6) & 1;
 80077ce:	f8bd 000c 	ldrh.w	r0, [sp, #12]
 80077d2:	f3c3 1c80 	ubfx	ip, r3, #6, #1
 80077d6:	4460      	add	r0, ip
 80077d8:	f8ad 000c 	strh.w	r0, [sp, #12]
		buttonSum[7] += (sample >> 7) & 1;
 80077dc:	f8bd 000e 	ldrh.w	r0, [sp, #14]
 80077e0:	f3c3 1cc0 	ubfx	ip, r3, #7, #1
 80077e4:	4460      	add	r0, ip
 80077e6:	f8ad 000e 	strh.w	r0, [sp, #14]
		buttonSum[8] += (sample >> 8) & 1;
 80077ea:	f8bd 0010 	ldrh.w	r0, [sp, #16]
 80077ee:	f3c3 2c00 	ubfx	ip, r3, #8, #1
 80077f2:	4460      	add	r0, ip
 80077f4:	f8ad 0010 	strh.w	r0, [sp, #16]
		buttonSum[9] += (sample >> 9) & 1;
 80077f8:	f8bd 0012 	ldrh.w	r0, [sp, #18]
 80077fc:	f3c3 2c40 	ubfx	ip, r3, #9, #1
 8007800:	4460      	add	r0, ip
 8007802:	f8ad 0012 	strh.w	r0, [sp, #18]
		buttonSum[10] += (sample >> 10) & 1;
 8007806:	f8bd 0014 	ldrh.w	r0, [sp, #20]
 800780a:	f3c3 2c80 	ubfx	ip, r3, #10, #1
 800780e:	4460      	add	r0, ip
 8007810:	f8ad 0014 	strh.w	r0, [sp, #20]
		buttonSum[11] += (sample >> 11) & 1;
 8007814:	f8bd 0016 	ldrh.w	r0, [sp, #22]
 8007818:	f3c3 2cc0 	ubfx	ip, r3, #11, #1
 800781c:	4460      	add	r0, ip
 800781e:	f8ad 0016 	strh.w	r0, [sp, #22]
		buttonSum[12] += (sample >> 12) & 1;
 8007822:	f8bd 0018 	ldrh.w	r0, [sp, #24]
 8007826:	f3c3 3c00 	ubfx	ip, r3, #12, #1
 800782a:	4460      	add	r0, ip
 800782c:	f8ad 0018 	strh.w	r0, [sp, #24]
		buttonSum[13] += (sample >> 13) & 1;
 8007830:	f8bd 001a 	ldrh.w	r0, [sp, #26]
 8007834:	f3c3 3c40 	ubfx	ip, r3, #13, #1
 8007838:	4460      	add	r0, ip
 800783a:	f8ad 001a 	strh.w	r0, [sp, #26]
		buttonSum[14] += (sample >> 14) & 1;
 800783e:	f8bd 001c 	ldrh.w	r0, [sp, #28]
 8007842:	f3c3 3c80 	ubfx	ip, r3, #14, #1
 8007846:	4460      	add	r0, ip
 8007848:	f8ad 001c 	strh.w	r0, [sp, #28]
		buttonSum[15] += (sample >> 15) & 1;
 800784c:	f8bd 001e 	ldrh.w	r0, [sp, #30]
 8007850:	f3c3 3cc0 	ubfx	ip, r3, #15, #1
 8007854:	4460      	add	r0, ip
 8007856:	f8ad 001e 	strh.w	r0, [sp, #30]
		buttonSum[16] += (sample >> 16) & 1;
 800785a:	f8bd 0020 	ldrh.w	r0, [sp, #32]
 800785e:	f3c3 4c00 	ubfx	ip, r3, #16, #1
 8007862:	4460      	add	r0, ip
 8007864:	f8ad 0020 	strh.w	r0, [sp, #32]
		buttonSum[17] += (sample >> 17) & 1;
 8007868:	f8bd 0022 	ldrh.w	r0, [sp, #34]	@ 0x22
 800786c:	f3c3 4c40 	ubfx	ip, r3, #17, #1
 8007870:	4460      	add	r0, ip
 8007872:	f8ad 0022 	strh.w	r0, [sp, #34]	@ 0x22
		buttonSum[18] += (sample >> 18) & 1;
 8007876:	f8bd 0024 	ldrh.w	r0, [sp, #36]	@ 0x24
 800787a:	f3c3 4c80 	ubfx	ip, r3, #18, #1
 800787e:	4460      	add	r0, ip
 8007880:	f8ad 0024 	strh.w	r0, [sp, #36]	@ 0x24
		buttonSum[19] += (sample >> 19) & 1;
 8007884:	f8bd 0026 	ldrh.w	r0, [sp, #38]	@ 0x26
 8007888:	f3c3 4cc0 	ubfx	ip, r3, #19, #1
 800788c:	4460      	add	r0, ip
 800788e:	f8ad 0026 	strh.w	r0, [sp, #38]	@ 0x26
		buttonSum[20] += (sample >> 20) & 1;
 8007892:	f8bd 0028 	ldrh.w	r0, [sp, #40]	@ 0x28
 8007896:	f3c3 5c00 	ubfx	ip, r3, #20, #1
 800789a:	4460      	add	r0, ip
 800789c:	f8ad 0028 	strh.w	r0, [sp, #40]	@ 0x28
		buttonSum[21] += (sample >> 21) & 1;
 80078a0:	f8bd 002a 	ldrh.w	r0, [sp, #42]	@ 0x2a
 80078a4:	f3c3 5c40 	ubfx	ip, r3, #21, #1
 80078a8:	4460      	add	r0, ip
 80078aa:	f8ad 002a 	strh.w	r0, [sp, #42]	@ 0x2a
		buttonSum[22] += (sample >> 22) & 1;
 80078ae:	f8bd c02c 	ldrh.w	ip, [sp, #44]	@ 0x2c
 80078b2:	f3c3 5080 	ubfx	r0, r3, #22, #1
 80078b6:	4484      	add	ip, r0
 80078b8:	f8ad c02c 	strh.w	ip, [sp, #44]	@ 0x2c
		buttonSum[23] += (sample >> 23) & 1;
 80078bc:	f8bd c02e 	ldrh.w	ip, [sp, #46]	@ 0x2e
 80078c0:	f3c3 53c0 	ubfx	r3, r3, #23, #1
 80078c4:	4463      	add	r3, ip
 80078c6:	f8ad 302e 	strh.w	r3, [sp, #46]	@ 0x2e
	for (uint16_t offset = 0; offset < MAX_SAMPLES; offset++) {
 80078ca:	3201      	adds	r2, #1
 80078cc:	b292      	uxth	r2, r2
 80078ce:	2a40      	cmp	r2, #64	@ 0x40
 80078d0:	d805      	bhi.n	80078de <get_debounced_state+0x186>
		if (sample_idx == 0) {
 80078d2:	2900      	cmp	r1, #0
 80078d4:	f43f af4e 	beq.w	8007774 <get_debounced_state+0x1c>
			sample_idx--;
 80078d8:	3901      	subs	r1, #1
 80078da:	b289      	uxth	r1, r1
 80078dc:	e74b      	b.n	8007776 <get_debounced_state+0x1e>
	}

	uint32_t result = 0;
	for (uint8_t button = 0; button < BUTTONS_NUM; button++) {
 80078de:	2300      	movs	r3, #0
	uint32_t result = 0;
 80078e0:	4619      	mov	r1, r3
 80078e2:	e001      	b.n	80078e8 <get_debounced_state+0x190>
	for (uint8_t button = 0; button < BUTTONS_NUM; button++) {
 80078e4:	3301      	adds	r3, #1
 80078e6:	b2db      	uxtb	r3, r3
 80078e8:	2b17      	cmp	r3, #23
 80078ea:	d80a      	bhi.n	8007902 <get_debounced_state+0x1aa>
		if (buttonSum[button] > HALF_SAMPLES) {
 80078ec:	aa0c      	add	r2, sp, #48	@ 0x30
 80078ee:	eb02 0243 	add.w	r2, r2, r3, lsl #1
 80078f2:	f832 2c30 	ldrh.w	r2, [r2, #-48]
 80078f6:	2a20      	cmp	r2, #32
 80078f8:	d9f4      	bls.n	80078e4 <get_debounced_state+0x18c>
			result |= (1UL << button);
 80078fa:	2201      	movs	r2, #1
 80078fc:	409a      	lsls	r2, r3
 80078fe:	4311      	orrs	r1, r2
 8007900:	e7f0      	b.n	80078e4 <get_debounced_state+0x18c>
		}
	}
	buttons->buttons_state = result;
 8007902:	f8c4 1354 	str.w	r1, [r4, #852]	@ 0x354
}
 8007906:	b00c      	add	sp, #48	@ 0x30
 8007908:	bd10      	pop	{r4, pc}

0800790a <get_current_knob_state>:

static void get_current_knob_state(Buttons_HandleTypeDef *buttons) {
	CLEAR_BIT(buttons->buttons_state, RL_KNOB_BIT_MASK);
 800790a:	f8d0 3354 	ldr.w	r3, [r0, #852]	@ 0x354
 800790e:	f423 0340 	bic.w	r3, r3, #12582912	@ 0xc00000
 8007912:	f8c0 3354 	str.w	r3, [r0, #852]	@ 0x354
	if (GET_BIT(buttons->knob_flags, KNOB_LOCK_FLAG)) {
 8007916:	f890 1358 	ldrb.w	r1, [r0, #856]	@ 0x358
 800791a:	f990 2358 	ldrsb.w	r2, [r0, #856]	@ 0x358
 800791e:	2a00      	cmp	r2, #0
 8007920:	db00      	blt.n	8007924 <get_current_knob_state+0x1a>
			SET_BIT(buttons->buttons_state, R_KNOB_BIT_MASK);
		} else {
			SET_BIT(buttons->buttons_state, L_KNOB_BIT_MASK);
		}
	}
}
 8007922:	4770      	bx	lr
		if(GET_BIT(buttons->knob_flags, KNOB_DIRECTION_FLAG)){
 8007924:	f011 0f40 	tst.w	r1, #64	@ 0x40
 8007928:	d004      	beq.n	8007934 <get_current_knob_state+0x2a>
			SET_BIT(buttons->buttons_state, R_KNOB_BIT_MASK);
 800792a:	f443 0380 	orr.w	r3, r3, #4194304	@ 0x400000
 800792e:	f8c0 3354 	str.w	r3, [r0, #852]	@ 0x354
 8007932:	4770      	bx	lr
			SET_BIT(buttons->buttons_state, L_KNOB_BIT_MASK);
 8007934:	f443 0300 	orr.w	r3, r3, #8388608	@ 0x800000
 8007938:	f8c0 3354 	str.w	r3, [r0, #852]	@ 0x354
}
 800793c:	e7f1      	b.n	8007922 <get_current_knob_state+0x18>

0800793e <Buttons_GetState>:
static Wheel_Status Buttons_GetState(Buttons_HandleTypeDef *buttons) {
 800793e:	b510      	push	{r4, lr}
 8007940:	4604      	mov	r4, r0
	get_debounced_state(buttons);
 8007942:	f7ff ff09 	bl	8007758 <get_debounced_state>
	get_current_knob_state(buttons);
 8007946:	4620      	mov	r0, r4
 8007948:	f7ff ffdf 	bl	800790a <get_current_knob_state>
}
 800794c:	2000      	movs	r0, #0
 800794e:	bd10      	pop	{r4, pc}

08007950 <read_knob_button_state>:
const uint32_t right_sequence_backwards[ROTATION_SEQUENCE_SIZE] = { 0,
L_KNOB_BIT_MASK, RL_KNOB_BIT_MASK, R_KNOB_BIT_MASK, 0 };
const uint32_t left_sequence_backwards[ROTATION_SEQUENCE_SIZE] = { 0,
R_KNOB_BIT_MASK, RL_KNOB_BIT_MASK, L_KNOB_BIT_MASK, 0 };

static void read_knob_button_state(Buttons_HandleTypeDef *buttons) {
 8007950:	b570      	push	{r4, r5, r6, lr}
 8007952:	b082      	sub	sp, #8
	uint32_t *buffer = buttons->sample_buffer;
 8007954:	f100 0318 	add.w	r3, r0, #24
	uint32_t *sequence = buttons->knob_rotation_sequence_buffer;
 8007958:	f500 7e4f 	add.w	lr, r0, #828	@ 0x33c
	uint8_t knob_idx = buttons->knob_head;
 800795c:	f890 c350 	ldrb.w	ip, [r0, #848]	@ 0x350
	uint16_t sample_idx = buttons->sample_head;
 8007960:	f8b0 2338 	ldrh.w	r2, [r0, #824]	@ 0x338

	if (GET_BIT(buffer[sample_idx], RL_KNOB_BIT_MASK) != sequence[knob_idx]) {
 8007964:	f853 3022 	ldr.w	r3, [r3, r2, lsl #2]
 8007968:	f403 0340 	and.w	r3, r3, #12582912	@ 0xc00000
 800796c:	f85e 202c 	ldr.w	r2, [lr, ip, lsl #2]
 8007970:	4293      	cmp	r3, r2
 8007972:	d056      	beq.n	8007a22 <read_knob_button_state+0xd2>
 8007974:	4604      	mov	r4, r0
		knob_idx = (knob_idx + 1) % ROTATION_SEQUENCE_SIZE;
 8007976:	f10c 0c01 	add.w	ip, ip, #1
 800797a:	f64c 42cd 	movw	r2, #52429	@ 0xcccd
 800797e:	f6cc 42cc 	movt	r2, #52428	@ 0xcccc
 8007982:	fba2 120c 	umull	r1, r2, r2, ip
 8007986:	f402 71fe 	and.w	r1, r2, #508	@ 0x1fc
 800798a:	eb01 0292 	add.w	r2, r1, r2, lsr #2
 800798e:	ebac 0c02 	sub.w	ip, ip, r2
 8007992:	fa5f fc8c 	uxtb.w	ip, ip
		sequence[knob_idx] = GET_BIT(buffer[sample_idx], RL_KNOB_BIT_MASK);
 8007996:	f84e 302c 	str.w	r3, [lr, ip, lsl #2]
		buttons->knob_head = knob_idx;
 800799a:	f880 c350 	strb.w	ip, [r0, #848]	@ 0x350
	} else {
		return;
	}
	uint8_t found_sequence = 0;
	const uint32_t *sequences[] = { left_sequence_backwards,
 800799e:	f648 1384 	movw	r3, #35204	@ 0x8984
 80079a2:	f6c0 0300 	movt	r3, #2048	@ 0x800
 80079a6:	e893 0003 	ldmia.w	r3, {r0, r1}
 80079aa:	ab02      	add	r3, sp, #8
 80079ac:	e903 0003 	stmdb	r3, {r0, r1}
			right_sequence_backwards };
	uint8_t seq;

	for (seq = 0; seq < 2; seq++) {
 80079b0:	2500      	movs	r5, #0
	uint8_t found_sequence = 0;
 80079b2:	462e      	mov	r6, r5
	for (seq = 0; seq < 2; seq++) {
 80079b4:	e024      	b.n	8007a00 <read_knob_button_state+0xb0>
		uint8_t idx = knob_idx;
		for (uint8_t offset = 0; offset < ROTATION_SEQUENCE_SIZE; offset++) {
 80079b6:	3201      	adds	r2, #1
 80079b8:	b2d2      	uxtb	r2, r2
 80079ba:	2a04      	cmp	r2, #4
 80079bc:	d81d      	bhi.n	80079fa <read_knob_button_state+0xaa>
			// Walk backwards through circular buffer
			idx = (knob_idx + ROTATION_SEQUENCE_SIZE - offset)
 80079be:	ebac 0302 	sub.w	r3, ip, r2
 80079c2:	3305      	adds	r3, #5
					% ROTATION_SEQUENCE_SIZE;
 80079c4:	f64c 41cd 	movw	r1, #52429	@ 0xcccd
 80079c8:	f6cc 41cc 	movt	r1, #52428	@ 0xcccc
 80079cc:	fba1 0103 	umull	r0, r1, r1, r3
 80079d0:	f021 0003 	bic.w	r0, r1, #3
 80079d4:	eb00 0191 	add.w	r1, r0, r1, lsr #2
 80079d8:	1a5b      	subs	r3, r3, r1
			if (sequence[idx] != sequences[seq][offset]) {
 80079da:	b2db      	uxtb	r3, r3
 80079dc:	f85e 1023 	ldr.w	r1, [lr, r3, lsl #2]
 80079e0:	ab02      	add	r3, sp, #8
 80079e2:	eb03 0385 	add.w	r3, r3, r5, lsl #2
 80079e6:	f853 3c08 	ldr.w	r3, [r3, #-8]
 80079ea:	f853 3022 	ldr.w	r3, [r3, r2, lsl #2]
 80079ee:	4299      	cmp	r1, r3
 80079f0:	d103      	bne.n	80079fa <read_knob_button_state+0xaa>
				break;
			}
			if (offset == ROTATION_SEQUENCE_SIZE - 1)
 80079f2:	2a04      	cmp	r2, #4
 80079f4:	d1df      	bne.n	80079b6 <read_knob_button_state+0x66>
				found_sequence = 1;
 80079f6:	2601      	movs	r6, #1
 80079f8:	e7dd      	b.n	80079b6 <read_knob_button_state+0x66>
		}
		if (found_sequence) {
 80079fa:	b92e      	cbnz	r6, 8007a08 <read_knob_button_state+0xb8>
	for (seq = 0; seq < 2; seq++) {
 80079fc:	3501      	adds	r5, #1
 80079fe:	b2ed      	uxtb	r5, r5
 8007a00:	2d01      	cmp	r5, #1
 8007a02:	d801      	bhi.n	8007a08 <read_knob_button_state+0xb8>
		for (uint8_t offset = 0; offset < ROTATION_SEQUENCE_SIZE; offset++) {
 8007a04:	2200      	movs	r2, #0
 8007a06:	e7d8      	b.n	80079ba <read_knob_button_state+0x6a>
			break;
		}
	}
	if (found_sequence) {
 8007a08:	b15e      	cbz	r6, 8007a22 <read_knob_button_state+0xd2>
		SET_BIT(buttons->knob_flags, KNOB_LOCK_FLAG);
 8007a0a:	f894 3358 	ldrb.w	r3, [r4, #856]	@ 0x358
 8007a0e:	f063 027f 	orn	r2, r3, #127	@ 0x7f
 8007a12:	f884 2358 	strb.w	r2, [r4, #856]	@ 0x358
		if (seq == 1) {
 8007a16:	2d01      	cmp	r5, #1
 8007a18:	d005      	beq.n	8007a26 <read_knob_button_state+0xd6>
			SET_BIT(buttons->knob_flags, KNOB_DIRECTION_FLAG);
		}
		buttons->knob_lock_init_time_ms = HAL_GetTick();
 8007a1a:	f7f9 fae0 	bl	8000fde <HAL_GetTick>
 8007a1e:	f8c4 035c 	str.w	r0, [r4, #860]	@ 0x35c
	}
}
 8007a22:	b002      	add	sp, #8
 8007a24:	bd70      	pop	{r4, r5, r6, pc}
			SET_BIT(buttons->knob_flags, KNOB_DIRECTION_FLAG);
 8007a26:	f063 033f 	orn	r3, r3, #63	@ 0x3f
 8007a2a:	f884 3358 	strb.w	r3, [r4, #856]	@ 0x358
 8007a2e:	e7f4      	b.n	8007a1a <read_knob_button_state+0xca>

08007a30 <update_knob_button_state>:

static void update_knob_button_state(Buttons_HandleTypeDef *buttons) {
 8007a30:	b510      	push	{r4, lr}
 8007a32:	4604      	mov	r4, r0
	if (HAL_GetTick() - buttons->knob_lock_init_time_ms > KNOB_LOCK_TIME_MS) {
 8007a34:	f7f9 fad3 	bl	8000fde <HAL_GetTick>
 8007a38:	f8d4 335c 	ldr.w	r3, [r4, #860]	@ 0x35c
 8007a3c:	1ac0      	subs	r0, r0, r3
 8007a3e:	281e      	cmp	r0, #30
 8007a40:	d800      	bhi.n	8007a44 <update_knob_button_state+0x14>
		CLEAR_BIT(buttons->knob_flags, KNOB_LOCK_FLAG);
		CLEAR_BIT(buttons->knob_flags, KNOB_DIRECTION_FLAG);
		memset(buttons->knob_rotation_sequence_buffer, 0,
				sizeof(ROTATION_SEQUENCE_SIZE));
	}
}
 8007a42:	bd10      	pop	{r4, pc}
		CLEAR_BIT(buttons->knob_flags, KNOB_LOCK_FLAG);
 8007a44:	f894 3358 	ldrb.w	r3, [r4, #856]	@ 0x358
 8007a48:	f003 027f 	and.w	r2, r3, #127	@ 0x7f
 8007a4c:	f884 2358 	strb.w	r2, [r4, #856]	@ 0x358
		CLEAR_BIT(buttons->knob_flags, KNOB_DIRECTION_FLAG);
 8007a50:	f003 033f 	and.w	r3, r3, #63	@ 0x3f
 8007a54:	f884 3358 	strb.w	r3, [r4, #856]	@ 0x358
		memset(buttons->knob_rotation_sequence_buffer, 0,
 8007a58:	2300      	movs	r3, #0
 8007a5a:	f8c4 333c 	str.w	r3, [r4, #828]	@ 0x33c
}
 8007a5e:	e7f0      	b.n	8007a42 <update_knob_button_state+0x12>

08007a60 <Buttons_Update>:
static Wheel_Status Buttons_Update(Buttons_HandleTypeDef *buttons) {
 8007a60:	b508      	push	{r3, lr}
	buttons->sample_head = (buttons->sample_head + 1) % BUTTONS_BUFFER_SIZE;
 8007a62:	f8b0 2338 	ldrh.w	r2, [r0, #824]	@ 0x338
 8007a66:	3201      	adds	r2, #1
 8007a68:	f248 531f 	movw	r3, #34079	@ 0x851f
 8007a6c:	f2c5 13eb 	movt	r3, #20971	@ 0x51eb
 8007a70:	fba3 1302 	umull	r1, r3, r3, r2
 8007a74:	099b      	lsrs	r3, r3, #6
 8007a76:	21c8      	movs	r1, #200	@ 0xc8
 8007a78:	fb01 2313 	mls	r3, r1, r3, r2
 8007a7c:	f8a0 3338 	strh.w	r3, [r0, #824]	@ 0x338
			buttons->hw_buttons->buttons_state;
 8007a80:	f8d0 2364 	ldr.w	r2, [r0, #868]	@ 0x364
	buttons->sample_buffer[buttons->sample_head] =
 8007a84:	b29b      	uxth	r3, r3
			buttons->hw_buttons->buttons_state;
 8007a86:	6992      	ldr	r2, [r2, #24]
	buttons->sample_buffer[buttons->sample_head] =
 8007a88:	3306      	adds	r3, #6
 8007a8a:	f840 2023 	str.w	r2, [r0, r3, lsl #2]
	if (GET_BIT(buttons->knob_flags, KNOB_LOCK_FLAG)) {
 8007a8e:	f990 3358 	ldrsb.w	r3, [r0, #856]	@ 0x358
 8007a92:	2b00      	cmp	r3, #0
 8007a94:	db03      	blt.n	8007a9e <Buttons_Update+0x3e>
		read_knob_button_state(buttons);
 8007a96:	f7ff ff5b 	bl	8007950 <read_knob_button_state>
}
 8007a9a:	2000      	movs	r0, #0
 8007a9c:	bd08      	pop	{r3, pc}
		update_knob_button_state(buttons);
 8007a9e:	f7ff ffc7 	bl	8007a30 <update_knob_button_state>
		__NOP();
 8007aa2:	bf00      	nop
 8007aa4:	e7f9      	b.n	8007a9a <Buttons_Update+0x3a>

08007aa6 <Buttons_Stop>:
static Wheel_Status Buttons_Stop(Buttons_HandleTypeDef *buttons) {
 8007aa6:	b508      	push	{r3, lr}
	HAL_TIM_Base_Stop_IT(buttons->htim);
 8007aa8:	f8d0 0360 	ldr.w	r0, [r0, #864]	@ 0x360
 8007aac:	f7fc f89d 	bl	8003bea <HAL_TIM_Base_Stop_IT>
}
 8007ab0:	2000      	movs	r0, #0
 8007ab2:	bd08      	pop	{r3, pc}

08007ab4 <Buttons_Start_TIM>:
static Wheel_Status Buttons_Start_TIM(Buttons_HandleTypeDef *buttons) {
 8007ab4:	b508      	push	{r3, lr}
	HAL_TIM_Base_Start_IT(buttons->htim);
 8007ab6:	f8d0 0360 	ldr.w	r0, [r0, #864]	@ 0x360
 8007aba:	f7fc f85e 	bl	8003b7a <HAL_TIM_Base_Start_IT>
}
 8007abe:	2000      	movs	r0, #0
 8007ac0:	bd08      	pop	{r3, pc}

08007ac2 <Sensor_INIT>:
static inline void calculate_magnet_rotations(Sensor_HandleTypeDef *sensor);
static inline void get_steering_pos(Sensor_HandleTypeDef *sensor);

static Wheel_Status Sensor_INIT(Sensor_HandleTypeDef *sensor,
		Sensor_ConfigHandleTypeDef *config) {
	if (config->hw_magnetometer == 0) {
 8007ac2:	680b      	ldr	r3, [r1, #0]
 8007ac4:	b143      	cbz	r3, 8007ad8 <Sensor_INIT+0x16>
		return WHEEL_ERROR;
	}
	sensor->hw_magnetometer = config->hw_magnetometer;
 8007ac6:	6303      	str	r3, [r0, #48]	@ 0x30
	sensor->start_settling_cnt = 2;
 8007ac8:	2302      	movs	r3, #2
 8007aca:	f880 3028 	strb.w	r3, [r0, #40]	@ 0x28
	sensor->axis_scale = 1.0f;
 8007ace:	f04f 537e 	mov.w	r3, #1065353216	@ 0x3f800000
 8007ad2:	62c3      	str	r3, [r0, #44]	@ 0x2c
	return WHEEL_OK;
 8007ad4:	2000      	movs	r0, #0
 8007ad6:	4770      	bx	lr
		return WHEEL_ERROR;
 8007ad8:	2001      	movs	r0, #1
}
 8007ada:	4770      	bx	lr

08007adc <Sensor_DeINIT>:

static Wheel_Status Sensor_DeINIT(Sensor_HandleTypeDef *sensor) {
 8007adc:	b510      	push	{r4, lr}
 8007ade:	4604      	mov	r4, r0
	if (sensor->hw_magnetometer->DeINIT(sensor->hw_magnetometer)
 8007ae0:	6b00      	ldr	r0, [r0, #48]	@ 0x30
 8007ae2:	6843      	ldr	r3, [r0, #4]
 8007ae4:	4798      	blx	r3
 8007ae6:	2801      	cmp	r0, #1
 8007ae8:	d001      	beq.n	8007aee <Sensor_DeINIT+0x12>
			== WHEEL_ERROR) {
		return WHEEL_ERROR;
	}
	sensor->hw_magnetometer = 0;
 8007aea:	2000      	movs	r0, #0
 8007aec:	6320      	str	r0, [r4, #48]	@ 0x30
	return WHEEL_OK;
}
 8007aee:	bd10      	pop	{r4, pc}

08007af0 <calculate_magnet_rotations>:

// Calculate full revolutions by comparing current vs previous 16-bit capture,
// using half-range threshold (32767) for unwrap logic.

static inline void calculate_magnet_rotations(Sensor_HandleTypeDef *sensor) {
	uint16_t cur = sensor->current_sensor_capture;
 8007af0:	8ac3      	ldrh	r3, [r0, #22]
	uint16_t prev = sensor->previous_sensor_capture;
 8007af2:	8a82      	ldrh	r2, [r0, #20]

	int32_t diff = (int32_t) cur - (int32_t) prev;
 8007af4:	1a9b      	subs	r3, r3, r2

	if (diff > 32767) {
 8007af6:	f5b3 4f00 	cmp.w	r3, #32768	@ 0x8000
 8007afa:	db04      	blt.n	8007b06 <calculate_magnet_rotations+0x16>
		diff -= 65536;
		sensor->magnet_full_rotation_cnt--;
 8007afc:	f990 301c 	ldrsb.w	r3, [r0, #28]
 8007b00:	3b01      	subs	r3, #1
 8007b02:	7703      	strb	r3, [r0, #28]
 8007b04:	4770      	bx	lr
	} else if (diff < -32767) {
 8007b06:	f513 4f00 	cmn.w	r3, #32768	@ 0x8000
 8007b0a:	dc03      	bgt.n	8007b14 <calculate_magnet_rotations+0x24>
		diff += 65536;
		sensor->magnet_full_rotation_cnt++;
 8007b0c:	f990 301c 	ldrsb.w	r3, [r0, #28]
 8007b10:	3301      	adds	r3, #1
 8007b12:	7703      	strb	r3, [r0, #28]
	}
}
 8007b14:	4770      	bx	lr

08007b16 <Sensor_Update>:
static Wheel_Status Sensor_Update(Sensor_HandleTypeDef *sensor) {
 8007b16:	b508      	push	{r3, lr}
	sensor->previous_sensor_capture = sensor->current_sensor_capture;
 8007b18:	8ac3      	ldrh	r3, [r0, #22]
 8007b1a:	8283      	strh	r3, [r0, #20]
	sensor->current_sensor_capture = (int16_t) sensor->hw_magnetometer->alpha;
 8007b1c:	6b03      	ldr	r3, [r0, #48]	@ 0x30
 8007b1e:	8d1b      	ldrh	r3, [r3, #40]	@ 0x28
 8007b20:	82c3      	strh	r3, [r0, #22]
	if (sensor->start_settling_cnt == 0) {
 8007b22:	f890 3028 	ldrb.w	r3, [r0, #40]	@ 0x28
 8007b26:	b123      	cbz	r3, 8007b32 <Sensor_Update+0x1c>
		sensor->start_settling_cnt--;
 8007b28:	3b01      	subs	r3, #1
 8007b2a:	f880 3028 	strb.w	r3, [r0, #40]	@ 0x28
}
 8007b2e:	2000      	movs	r0, #0
 8007b30:	bd08      	pop	{r3, pc}
		calculate_magnet_rotations(sensor);
 8007b32:	f7ff ffdd 	bl	8007af0 <calculate_magnet_rotations>
 8007b36:	e7fa      	b.n	8007b2e <Sensor_Update+0x18>

08007b38 <get_steering_pos>:

static inline void get_steering_pos(Sensor_HandleTypeDef *sensor) {
 8007b38:	b570      	push	{r4, r5, r6, lr}
 8007b3a:	4604      	mov	r4, r0
	float fraction = (float) sensor->current_sensor_capture / 65535.0f;
 8007b3c:	8ac0      	ldrh	r0, [r0, #22]
 8007b3e:	f7f8 fbbb 	bl	80002b8 <__aeabi_ui2f>
 8007b42:	f44f 417f 	mov.w	r1, #65280	@ 0xff00
 8007b46:	f2c4 717f 	movt	r1, #18303	@ 0x477f
 8007b4a:	f7f8 fcc1 	bl	80004d0 <__aeabi_fdiv>
 8007b4e:	4606      	mov	r6, r0
	float pos = sensor->magnet_full_rotation_cnt * roll_to_axis_coef
 8007b50:	f994 001c 	ldrsb.w	r0, [r4, #28]
 8007b54:	f7f8 fbb4 	bl	80002c0 <__aeabi_i2f>
 8007b58:	f640 316d 	movw	r1, #2925	@ 0xb6d
 8007b5c:	f2c4 41c3 	movt	r1, #17603	@ 0x44c3
 8007b60:	f7f8 fc02 	bl	8000368 <__aeabi_fmul>
 8007b64:	4605      	mov	r5, r0
			+ fraction * roll_to_axis_coef;
 8007b66:	f640 316d 	movw	r1, #2925	@ 0xb6d
 8007b6a:	f2c4 41c3 	movt	r1, #17603	@ 0x44c3
 8007b6e:	4630      	mov	r0, r6
 8007b70:	f7f8 fbfa 	bl	8000368 <__aeabi_fmul>
 8007b74:	4601      	mov	r1, r0
	float pos = sensor->magnet_full_rotation_cnt * roll_to_axis_coef
 8007b76:	4628      	mov	r0, r5
 8007b78:	f7f8 faee 	bl	8000158 <__addsf3>
	sensor->steering_pos = (int32_t) pos;
 8007b7c:	f7f8 fdba 	bl	80006f4 <__aeabi_f2iz>
 8007b80:	61a0      	str	r0, [r4, #24]
}
 8007b82:	bd70      	pop	{r4, r5, r6, pc}

08007b84 <Sensor_GetAxis>:
static Wheel_Status Sensor_GetAxis(Sensor_HandleTypeDef *sensor) {
 8007b84:	b538      	push	{r3, r4, r5, lr}
 8007b86:	4604      	mov	r4, r0
	get_steering_pos(sensor);
 8007b88:	f7ff ffd6 	bl	8007b38 <get_steering_pos>
	uint16_t distance = sensor->max - sensor->min;
 8007b8c:	8ca2      	ldrh	r2, [r4, #36]	@ 0x24
 8007b8e:	8c21      	ldrh	r1, [r4, #32]
 8007b90:	1a52      	subs	r2, r2, r1
 8007b92:	b292      	uxth	r2, r2
	sensor->distance = distance;
 8007b94:	8562      	strh	r2, [r4, #42]	@ 0x2a
	uint16_t physical = sensor->steering_pos - sensor->min;
 8007b96:	8b23      	ldrh	r3, [r4, #24]
 8007b98:	1a5b      	subs	r3, r3, r1
 8007b9a:	b29b      	uxth	r3, r3
	sensor->physical_axis = physical;
 8007b9c:	8263      	strh	r3, [r4, #18]
	uint16_t half = distance / 2U;
 8007b9e:	0851      	lsrs	r1, r2, #1
	int16_t virtual_offset = (int16_t) physical - (int16_t) half;
 8007ba0:	eba3 0352 	sub.w	r3, r3, r2, lsr #1
 8007ba4:	b21b      	sxth	r3, r3
	if (virtual_offset > (int16_t) half) {
 8007ba6:	4608      	mov	r0, r1
 8007ba8:	ebb3 0f52 	cmp.w	r3, r2, lsr #1
 8007bac:	dc05      	bgt.n	8007bba <Sensor_GetAxis+0x36>
	if (virtual_offset < -(int16_t) half) {
 8007bae:	4248      	negs	r0, r1
 8007bb0:	4283      	cmp	r3, r0
 8007bb2:	da01      	bge.n	8007bb8 <Sensor_GetAxis+0x34>
		virtual_offset = -(int16_t) half;
 8007bb4:	b200      	sxth	r0, r0
 8007bb6:	e000      	b.n	8007bba <Sensor_GetAxis+0x36>
 8007bb8:	4618      	mov	r0, r3
	float scaled = virtual_offset * sensor->axis_scale;
 8007bba:	f7f8 fb81 	bl	80002c0 <__aeabi_i2f>
 8007bbe:	6ae1      	ldr	r1, [r4, #44]	@ 0x2c
 8007bc0:	f7f8 fbd2 	bl	8000368 <__aeabi_fmul>
 8007bc4:	4605      	mov	r5, r0
	if (scaled > INT16_MAX) {
 8007bc6:	f44f 417e 	mov.w	r1, #65024	@ 0xfe00
 8007bca:	f2c4 61ff 	movt	r1, #18175	@ 0x46ff
 8007bce:	f7f8 fd87 	bl	80006e0 <__aeabi_fcmpgt>
 8007bd2:	b940      	cbnz	r0, 8007be6 <Sensor_GetAxis+0x62>
	} else if (scaled < INT16_MIN) {
 8007bd4:	f04f 4147 	mov.w	r1, #3338665984	@ 0xc7000000
 8007bd8:	4628      	mov	r0, r5
 8007bda:	f7f8 fd63 	bl	80006a4 <__aeabi_fcmplt>
 8007bde:	b130      	cbz	r0, 8007bee <Sensor_GetAxis+0x6a>
		scaled = INT16_MIN;
 8007be0:	f04f 4547 	mov.w	r5, #3338665984	@ 0xc7000000
 8007be4:	e003      	b.n	8007bee <Sensor_GetAxis+0x6a>
		scaled = INT16_MAX;
 8007be6:	f44f 457e 	mov.w	r5, #65024	@ 0xfe00
 8007bea:	f2c4 65ff 	movt	r5, #18175	@ 0x46ff
	sensor->virtual_axis = (int16_t) scaled;
 8007bee:	4628      	mov	r0, r5
 8007bf0:	f7f8 fd80 	bl	80006f4 <__aeabi_f2iz>
 8007bf4:	8220      	strh	r0, [r4, #16]
}
 8007bf6:	2000      	movs	r0, #0
 8007bf8:	bd38      	pop	{r3, r4, r5, pc}

08007bfa <Shifter_INIT>:
Shifter_HandleTypeDef hShifter = { Shifter_INIT, Shifter_DeINIT,
		Shifter_getSpeed };

static Wheel_Status Shifter_INIT(Shifter_HandleTypeDef *shifter,
		Shifter_ConfigHandleTypeDef *config) {
	if (config->hw_analog == 0) {
 8007bfa:	680b      	ldr	r3, [r1, #0]
 8007bfc:	b18b      	cbz	r3, 8007c22 <Shifter_INIT+0x28>
		return WHEEL_ERROR;
	}
	shifter->hw_analog = config->hw_analog;
 8007bfe:	6203      	str	r3, [r0, #32]
	shifter->modifier_port = config->modifier_port;
 8007c00:	688b      	ldr	r3, [r1, #8]
 8007c02:	61c3      	str	r3, [r0, #28]
	shifter->modifier_pin = config->modifier_pin;
 8007c04:	888b      	ldrh	r3, [r1, #4]
 8007c06:	8343      	strh	r3, [r0, #26]
	shifter->min.x = 10000;
 8007c08:	f242 7310 	movw	r3, #10000	@ 0x2710
 8007c0c:	8183      	strh	r3, [r0, #12]
	shifter->min.y = 60000;
 8007c0e:	f64e 2360 	movw	r3, #60000	@ 0xea60
 8007c12:	81c3      	strh	r3, [r0, #14]
	shifter->max.x = 52000;
 8007c14:	f64c 3320 	movw	r3, #52000	@ 0xcb20
 8007c18:	8203      	strh	r3, [r0, #16]
	shifter->max.y = 0;
 8007c1a:	2300      	movs	r3, #0
 8007c1c:	8243      	strh	r3, [r0, #18]
	return WHEEL_OK;
 8007c1e:	4618      	mov	r0, r3
 8007c20:	4770      	bx	lr
		return WHEEL_ERROR;
 8007c22:	2001      	movs	r0, #1
}
 8007c24:	4770      	bx	lr

08007c26 <Shifter_getSpeed>:
	}
	shifter->hw_analog = 0;
	return WHEEL_OK;
}

static Wheel_Status Shifter_getSpeed(Shifter_HandleTypeDef *shifter) {
 8007c26:	b510      	push	{r4, lr}
 8007c28:	b082      	sub	sp, #8
 8007c2a:	4604      	mov	r4, r0
	shifter->current_pos.x = shifter->hw_analog->axis[SHIFTER_IDX];
 8007c2c:	6a02      	ldr	r2, [r0, #32]
 8007c2e:	8b93      	ldrh	r3, [r2, #28]
 8007c30:	8283      	strh	r3, [r0, #20]
	shifter->current_pos.y = shifter->hw_analog->axis[SHIFTER_IDX + 1];
 8007c32:	8c12      	ldrh	r2, [r2, #32]
 8007c34:	82c2      	strh	r2, [r0, #22]

	Point *min = &shifter->min;
	Point *max = &shifter->max;
	Point *current_pos = &shifter->current_pos;

	if (current_pos->x < min->x)
 8007c36:	f8b0 c00c 	ldrh.w	ip, [r0, #12]
 8007c3a:	4563      	cmp	r3, ip
 8007c3c:	d201      	bcs.n	8007c42 <Shifter_getSpeed+0x1c>
		current_pos->x = min->x;
 8007c3e:	f8a0 c014 	strh.w	ip, [r0, #20]
	if (current_pos->y > min->y)
 8007c42:	89e3      	ldrh	r3, [r4, #14]
 8007c44:	429a      	cmp	r2, r3
 8007c46:	d900      	bls.n	8007c4a <Shifter_getSpeed+0x24>
		current_pos->y = min->y;
 8007c48:	82e3      	strh	r3, [r4, #22]
	if (current_pos->x > max->x)
 8007c4a:	8aa1      	ldrh	r1, [r4, #20]
 8007c4c:	8a22      	ldrh	r2, [r4, #16]
 8007c4e:	4291      	cmp	r1, r2
 8007c50:	d900      	bls.n	8007c54 <Shifter_getSpeed+0x2e>
		current_pos->x = max->x;
 8007c52:	82a2      	strh	r2, [r4, #20]
	if (current_pos->y < max->y)
 8007c54:	8ae1      	ldrh	r1, [r4, #22]
 8007c56:	8a60      	ldrh	r0, [r4, #18]
 8007c58:	4281      	cmp	r1, r0
 8007c5a:	d200      	bcs.n	8007c5e <Shifter_getSpeed+0x38>
		current_pos->y = max->y;
 8007c5c:	82e0      	strh	r0, [r4, #22]

	uint16_t width = max->x - min->x;
 8007c5e:	eba2 020c 	sub.w	r2, r2, ip
 8007c62:	b292      	uxth	r2, r2
	uint16_t height = min->y - max->y;
 8007c64:	1a1b      	subs	r3, r3, r0
 8007c66:	b29b      	uxth	r3, r3

	if (width == 0)
 8007c68:	b902      	cbnz	r2, 8007c6c <Shifter_getSpeed+0x46>
		width = 1;
 8007c6a:	2201      	movs	r2, #1
	if (height == 0)
 8007c6c:	b903      	cbnz	r3, 8007c70 <Shifter_getSpeed+0x4a>
		height = 1;
 8007c6e:	2301      	movs	r3, #1

	uint16_t cell_w = width / 3;
 8007c70:	f64a 21ab 	movw	r1, #43691	@ 0xaaab
 8007c74:	f6ca 21aa 	movt	r1, #43690	@ 0xaaaa
 8007c78:	fba1 e102 	umull	lr, r1, r1, r2
 8007c7c:	f3c1 014f 	ubfx	r1, r1, #1, #16
	uint16_t cell_h = height / 4;
 8007c80:	ea4f 0e93 	mov.w	lr, r3, lsr #2
	if (cell_w == 0)
 8007c84:	2a02      	cmp	r2, #2
 8007c86:	d800      	bhi.n	8007c8a <Shifter_getSpeed+0x64>
		cell_w = 1;
 8007c88:	2101      	movs	r1, #1
	if (cell_h == 0)
 8007c8a:	2b03      	cmp	r3, #3
 8007c8c:	d801      	bhi.n	8007c92 <Shifter_getSpeed+0x6c>
		cell_h = 1;
 8007c8e:	f04f 0e01 	mov.w	lr, #1

	Point grid_location = { 0 };
 8007c92:	2300      	movs	r3, #0
 8007c94:	9301      	str	r3, [sp, #4]

	grid_location.x = (current_pos->x - min->x) / cell_w;
 8007c96:	8aa2      	ldrh	r2, [r4, #20]
 8007c98:	eba2 020c 	sub.w	r2, r2, ip
 8007c9c:	fb92 f2f1 	sdiv	r2, r2, r1
 8007ca0:	b292      	uxth	r2, r2
 8007ca2:	f8ad 2004 	strh.w	r2, [sp, #4]
	grid_location.y = (current_pos->y - max->y) / cell_h;
 8007ca6:	8ae3      	ldrh	r3, [r4, #22]
 8007ca8:	1a1b      	subs	r3, r3, r0
 8007caa:	fb93 f3fe 	sdiv	r3, r3, lr
 8007cae:	b29b      	uxth	r3, r3
 8007cb0:	f8ad 3006 	strh.w	r3, [sp, #6]

	if (grid_location.x > 2)
 8007cb4:	2a02      	cmp	r2, #2
 8007cb6:	d902      	bls.n	8007cbe <Shifter_getSpeed+0x98>
		grid_location.x = 2;
 8007cb8:	2202      	movs	r2, #2
 8007cba:	f8ad 2004 	strh.w	r2, [sp, #4]
	if (grid_location.y > 3)
 8007cbe:	2b03      	cmp	r3, #3
 8007cc0:	d902      	bls.n	8007cc8 <Shifter_getSpeed+0xa2>
		grid_location.y = 3;
 8007cc2:	2303      	movs	r3, #3
 8007cc4:	f8ad 3006 	strh.w	r3, [sp, #6]
	/**/{ 0, 0, 0, 0, 0 },/**/
	/**/{ 0, 0, 0, 0, 0 },/**/
	/**/{ 1, 3, 5, 0, 0 } /**/
	};

	if (HAL_GPIO_ReadPin(shifter->modifier_port, shifter->modifier_pin)) {
 8007cc8:	8b61      	ldrh	r1, [r4, #26]
 8007cca:	69e0      	ldr	r0, [r4, #28]
 8007ccc:	f7f9 ff68 	bl	8001ba0 <HAL_GPIO_ReadPin>
 8007cd0:	b120      	cbz	r0, 8007cdc <Shifter_getSpeed+0xb6>
		grid_location.x += 2;
 8007cd2:	f8bd 3004 	ldrh.w	r3, [sp, #4]
 8007cd6:	3302      	adds	r3, #2
 8007cd8:	f8ad 3004 	strh.w	r3, [sp, #4]
	}

	shifter->speed = speed_table[grid_location.y][grid_location.x];
 8007cdc:	f8bd 2006 	ldrh.w	r2, [sp, #6]
 8007ce0:	f8bd 1004 	ldrh.w	r1, [sp, #4]
 8007ce4:	f648 3344 	movw	r3, #35652	@ 0x8b44
 8007ce8:	f6c0 0300 	movt	r3, #2048	@ 0x800
 8007cec:	eb02 0282 	add.w	r2, r2, r2, lsl #2
 8007cf0:	4413      	add	r3, r2
 8007cf2:	5c5b      	ldrb	r3, [r3, r1]
 8007cf4:	7623      	strb	r3, [r4, #24]

	return WHEEL_OK;
}
 8007cf6:	2000      	movs	r0, #0
 8007cf8:	b002      	add	sp, #8
 8007cfa:	bd10      	pop	{r4, pc}

08007cfc <Shifter_DeINIT>:
static Wheel_Status Shifter_DeINIT(Shifter_HandleTypeDef *shifter) {
 8007cfc:	b510      	push	{r4, lr}
 8007cfe:	4604      	mov	r4, r0
	if (shifter->hw_analog->DeINIT(shifter->hw_analog) == WHEEL_ERROR) {
 8007d00:	6a00      	ldr	r0, [r0, #32]
 8007d02:	6843      	ldr	r3, [r0, #4]
 8007d04:	4798      	blx	r3
 8007d06:	2801      	cmp	r0, #1
 8007d08:	d002      	beq.n	8007d10 <Shifter_DeINIT+0x14>
	shifter->hw_analog = 0;
 8007d0a:	2000      	movs	r0, #0
 8007d0c:	6220      	str	r0, [r4, #32]
}
 8007d0e:	bd10      	pop	{r4, pc}
		Error_Handler();
 8007d10:	f7f8 fdfb 	bl	800090a <Error_Handler>
 8007d14:	e7f9      	b.n	8007d0a <Shifter_DeINIT+0xe>

08007d16 <memset>:
 8007d16:	4603      	mov	r3, r0
 8007d18:	4402      	add	r2, r0
 8007d1a:	4293      	cmp	r3, r2
 8007d1c:	d100      	bne.n	8007d20 <memset+0xa>
 8007d1e:	4770      	bx	lr
 8007d20:	f803 1b01 	strb.w	r1, [r3], #1
 8007d24:	e7f9      	b.n	8007d1a <memset+0x4>
	...

08007d28 <__libc_init_array>:
 8007d28:	b570      	push	{r4, r5, r6, lr}
 8007d2a:	2600      	movs	r6, #0
 8007d2c:	4d0c      	ldr	r5, [pc, #48]	@ (8007d60 <__libc_init_array+0x38>)
 8007d2e:	4c0d      	ldr	r4, [pc, #52]	@ (8007d64 <__libc_init_array+0x3c>)
 8007d30:	1b64      	subs	r4, r4, r5
 8007d32:	10a4      	asrs	r4, r4, #2
 8007d34:	42a6      	cmp	r6, r4
 8007d36:	d109      	bne.n	8007d4c <__libc_init_array+0x24>
 8007d38:	f000 fe18 	bl	800896c <_init>
 8007d3c:	2600      	movs	r6, #0
 8007d3e:	4d0a      	ldr	r5, [pc, #40]	@ (8007d68 <__libc_init_array+0x40>)
 8007d40:	4c0a      	ldr	r4, [pc, #40]	@ (8007d6c <__libc_init_array+0x44>)
 8007d42:	1b64      	subs	r4, r4, r5
 8007d44:	10a4      	asrs	r4, r4, #2
 8007d46:	42a6      	cmp	r6, r4
 8007d48:	d105      	bne.n	8007d56 <__libc_init_array+0x2e>
 8007d4a:	bd70      	pop	{r4, r5, r6, pc}
 8007d4c:	f855 3b04 	ldr.w	r3, [r5], #4
 8007d50:	4798      	blx	r3
 8007d52:	3601      	adds	r6, #1
 8007d54:	e7ee      	b.n	8007d34 <__libc_init_array+0xc>
 8007d56:	f855 3b04 	ldr.w	r3, [r5], #4
 8007d5a:	4798      	blx	r3
 8007d5c:	3601      	adds	r6, #1
 8007d5e:	e7f2      	b.n	8007d46 <__libc_init_array+0x1e>
 8007d60:	08008f28 	.word	0x08008f28
 8007d64:	08008f28 	.word	0x08008f28
 8007d68:	08008f28 	.word	0x08008f28
 8007d6c:	08008f2c 	.word	0x08008f2c

08007d70 <cosf>:
 8007d70:	b507      	push	{r0, r1, r2, lr}
 8007d72:	4a1a      	ldr	r2, [pc, #104]	@ (8007ddc <cosf+0x6c>)
 8007d74:	f020 4300 	bic.w	r3, r0, #2147483648	@ 0x80000000
 8007d78:	4293      	cmp	r3, r2
 8007d7a:	4601      	mov	r1, r0
 8007d7c:	d805      	bhi.n	8007d8a <cosf+0x1a>
 8007d7e:	2100      	movs	r1, #0
 8007d80:	b003      	add	sp, #12
 8007d82:	f85d eb04 	ldr.w	lr, [sp], #4
 8007d86:	f000 b865 	b.w	8007e54 <__kernel_cosf>
 8007d8a:	f1b3 4fff 	cmp.w	r3, #2139095040	@ 0x7f800000
 8007d8e:	d304      	bcc.n	8007d9a <cosf+0x2a>
 8007d90:	f7f8 f9e0 	bl	8000154 <__aeabi_fsub>
 8007d94:	b003      	add	sp, #12
 8007d96:	f85d fb04 	ldr.w	pc, [sp], #4
 8007d9a:	4669      	mov	r1, sp
 8007d9c:	f000 f950 	bl	8008040 <__ieee754_rem_pio2f>
 8007da0:	f000 0203 	and.w	r2, r0, #3
 8007da4:	2a01      	cmp	r2, #1
 8007da6:	d007      	beq.n	8007db8 <cosf+0x48>
 8007da8:	2a02      	cmp	r2, #2
 8007daa:	d00c      	beq.n	8007dc6 <cosf+0x56>
 8007dac:	b982      	cbnz	r2, 8007dd0 <cosf+0x60>
 8007dae:	9901      	ldr	r1, [sp, #4]
 8007db0:	9800      	ldr	r0, [sp, #0]
 8007db2:	f000 f84f 	bl	8007e54 <__kernel_cosf>
 8007db6:	e7ed      	b.n	8007d94 <cosf+0x24>
 8007db8:	9901      	ldr	r1, [sp, #4]
 8007dba:	9800      	ldr	r0, [sp, #0]
 8007dbc:	f000 f8ca 	bl	8007f54 <__kernel_sinf>
 8007dc0:	f100 4000 	add.w	r0, r0, #2147483648	@ 0x80000000
 8007dc4:	e7e6      	b.n	8007d94 <cosf+0x24>
 8007dc6:	9901      	ldr	r1, [sp, #4]
 8007dc8:	9800      	ldr	r0, [sp, #0]
 8007dca:	f000 f843 	bl	8007e54 <__kernel_cosf>
 8007dce:	e7f7      	b.n	8007dc0 <cosf+0x50>
 8007dd0:	2201      	movs	r2, #1
 8007dd2:	9901      	ldr	r1, [sp, #4]
 8007dd4:	9800      	ldr	r0, [sp, #0]
 8007dd6:	f000 f8bd 	bl	8007f54 <__kernel_sinf>
 8007dda:	e7db      	b.n	8007d94 <cosf+0x24>
 8007ddc:	3f490fd8 	.word	0x3f490fd8

08007de0 <sinf>:
 8007de0:	b507      	push	{r0, r1, r2, lr}
 8007de2:	4a1b      	ldr	r2, [pc, #108]	@ (8007e50 <sinf+0x70>)
 8007de4:	f020 4300 	bic.w	r3, r0, #2147483648	@ 0x80000000
 8007de8:	4293      	cmp	r3, r2
 8007dea:	4601      	mov	r1, r0
 8007dec:	d806      	bhi.n	8007dfc <sinf+0x1c>
 8007dee:	2200      	movs	r2, #0
 8007df0:	2100      	movs	r1, #0
 8007df2:	b003      	add	sp, #12
 8007df4:	f85d eb04 	ldr.w	lr, [sp], #4
 8007df8:	f000 b8ac 	b.w	8007f54 <__kernel_sinf>
 8007dfc:	f1b3 4fff 	cmp.w	r3, #2139095040	@ 0x7f800000
 8007e00:	d304      	bcc.n	8007e0c <sinf+0x2c>
 8007e02:	f7f8 f9a7 	bl	8000154 <__aeabi_fsub>
 8007e06:	b003      	add	sp, #12
 8007e08:	f85d fb04 	ldr.w	pc, [sp], #4
 8007e0c:	4669      	mov	r1, sp
 8007e0e:	f000 f917 	bl	8008040 <__ieee754_rem_pio2f>
 8007e12:	f000 0003 	and.w	r0, r0, #3
 8007e16:	2801      	cmp	r0, #1
 8007e18:	d008      	beq.n	8007e2c <sinf+0x4c>
 8007e1a:	2802      	cmp	r0, #2
 8007e1c:	d00b      	beq.n	8007e36 <sinf+0x56>
 8007e1e:	b990      	cbnz	r0, 8007e46 <sinf+0x66>
 8007e20:	2201      	movs	r2, #1
 8007e22:	9901      	ldr	r1, [sp, #4]
 8007e24:	9800      	ldr	r0, [sp, #0]
 8007e26:	f000 f895 	bl	8007f54 <__kernel_sinf>
 8007e2a:	e7ec      	b.n	8007e06 <sinf+0x26>
 8007e2c:	9901      	ldr	r1, [sp, #4]
 8007e2e:	9800      	ldr	r0, [sp, #0]
 8007e30:	f000 f810 	bl	8007e54 <__kernel_cosf>
 8007e34:	e7e7      	b.n	8007e06 <sinf+0x26>
 8007e36:	2201      	movs	r2, #1
 8007e38:	9901      	ldr	r1, [sp, #4]
 8007e3a:	9800      	ldr	r0, [sp, #0]
 8007e3c:	f000 f88a 	bl	8007f54 <__kernel_sinf>
 8007e40:	f100 4000 	add.w	r0, r0, #2147483648	@ 0x80000000
 8007e44:	e7df      	b.n	8007e06 <sinf+0x26>
 8007e46:	9901      	ldr	r1, [sp, #4]
 8007e48:	9800      	ldr	r0, [sp, #0]
 8007e4a:	f000 f803 	bl	8007e54 <__kernel_cosf>
 8007e4e:	e7f7      	b.n	8007e40 <sinf+0x60>
 8007e50:	3f490fd8 	.word	0x3f490fd8

08007e54 <__kernel_cosf>:
 8007e54:	e92d 41f0 	stmdb	sp!, {r4, r5, r6, r7, r8, lr}
 8007e58:	f020 4500 	bic.w	r5, r0, #2147483648	@ 0x80000000
 8007e5c:	f1b5 5f48 	cmp.w	r5, #838860800	@ 0x32000000
 8007e60:	4606      	mov	r6, r0
 8007e62:	4688      	mov	r8, r1
 8007e64:	d203      	bcs.n	8007e6e <__kernel_cosf+0x1a>
 8007e66:	f7f8 fc45 	bl	80006f4 <__aeabi_f2iz>
 8007e6a:	2800      	cmp	r0, #0
 8007e6c:	d05c      	beq.n	8007f28 <__kernel_cosf+0xd4>
 8007e6e:	4631      	mov	r1, r6
 8007e70:	4630      	mov	r0, r6
 8007e72:	f7f8 fa79 	bl	8000368 <__aeabi_fmul>
 8007e76:	f04f 517c 	mov.w	r1, #1056964608	@ 0x3f000000
 8007e7a:	4604      	mov	r4, r0
 8007e7c:	f7f8 fa74 	bl	8000368 <__aeabi_fmul>
 8007e80:	492b      	ldr	r1, [pc, #172]	@ (8007f30 <__kernel_cosf+0xdc>)
 8007e82:	4607      	mov	r7, r0
 8007e84:	4620      	mov	r0, r4
 8007e86:	f7f8 fa6f 	bl	8000368 <__aeabi_fmul>
 8007e8a:	492a      	ldr	r1, [pc, #168]	@ (8007f34 <__kernel_cosf+0xe0>)
 8007e8c:	f7f8 f964 	bl	8000158 <__addsf3>
 8007e90:	4621      	mov	r1, r4
 8007e92:	f7f8 fa69 	bl	8000368 <__aeabi_fmul>
 8007e96:	4928      	ldr	r1, [pc, #160]	@ (8007f38 <__kernel_cosf+0xe4>)
 8007e98:	f7f8 f95c 	bl	8000154 <__aeabi_fsub>
 8007e9c:	4621      	mov	r1, r4
 8007e9e:	f7f8 fa63 	bl	8000368 <__aeabi_fmul>
 8007ea2:	4926      	ldr	r1, [pc, #152]	@ (8007f3c <__kernel_cosf+0xe8>)
 8007ea4:	f7f8 f958 	bl	8000158 <__addsf3>
 8007ea8:	4621      	mov	r1, r4
 8007eaa:	f7f8 fa5d 	bl	8000368 <__aeabi_fmul>
 8007eae:	4924      	ldr	r1, [pc, #144]	@ (8007f40 <__kernel_cosf+0xec>)
 8007eb0:	f7f8 f950 	bl	8000154 <__aeabi_fsub>
 8007eb4:	4621      	mov	r1, r4
 8007eb6:	f7f8 fa57 	bl	8000368 <__aeabi_fmul>
 8007eba:	4922      	ldr	r1, [pc, #136]	@ (8007f44 <__kernel_cosf+0xf0>)
 8007ebc:	f7f8 f94c 	bl	8000158 <__addsf3>
 8007ec0:	4621      	mov	r1, r4
 8007ec2:	f7f8 fa51 	bl	8000368 <__aeabi_fmul>
 8007ec6:	4621      	mov	r1, r4
 8007ec8:	f7f8 fa4e 	bl	8000368 <__aeabi_fmul>
 8007ecc:	4641      	mov	r1, r8
 8007ece:	4604      	mov	r4, r0
 8007ed0:	4630      	mov	r0, r6
 8007ed2:	f7f8 fa49 	bl	8000368 <__aeabi_fmul>
 8007ed6:	4601      	mov	r1, r0
 8007ed8:	4620      	mov	r0, r4
 8007eda:	f7f8 f93b 	bl	8000154 <__aeabi_fsub>
 8007ede:	4b1a      	ldr	r3, [pc, #104]	@ (8007f48 <__kernel_cosf+0xf4>)
 8007ee0:	4604      	mov	r4, r0
 8007ee2:	429d      	cmp	r5, r3
 8007ee4:	d80a      	bhi.n	8007efc <__kernel_cosf+0xa8>
 8007ee6:	4601      	mov	r1, r0
 8007ee8:	4638      	mov	r0, r7
 8007eea:	f7f8 f933 	bl	8000154 <__aeabi_fsub>
 8007eee:	4601      	mov	r1, r0
 8007ef0:	f04f 507e 	mov.w	r0, #1065353216	@ 0x3f800000
 8007ef4:	f7f8 f92e 	bl	8000154 <__aeabi_fsub>
 8007ef8:	e8bd 81f0 	ldmia.w	sp!, {r4, r5, r6, r7, r8, pc}
 8007efc:	4b13      	ldr	r3, [pc, #76]	@ (8007f4c <__kernel_cosf+0xf8>)
 8007efe:	f04f 507e 	mov.w	r0, #1065353216	@ 0x3f800000
 8007f02:	429d      	cmp	r5, r3
 8007f04:	bf8c      	ite	hi
 8007f06:	4d12      	ldrhi	r5, [pc, #72]	@ (8007f50 <__kernel_cosf+0xfc>)
 8007f08:	f105 457f 	addls.w	r5, r5, #4278190080	@ 0xff000000
 8007f0c:	4629      	mov	r1, r5
 8007f0e:	f7f8 f921 	bl	8000154 <__aeabi_fsub>
 8007f12:	4629      	mov	r1, r5
 8007f14:	4606      	mov	r6, r0
 8007f16:	4638      	mov	r0, r7
 8007f18:	f7f8 f91c 	bl	8000154 <__aeabi_fsub>
 8007f1c:	4621      	mov	r1, r4
 8007f1e:	f7f8 f919 	bl	8000154 <__aeabi_fsub>
 8007f22:	4601      	mov	r1, r0
 8007f24:	4630      	mov	r0, r6
 8007f26:	e7e5      	b.n	8007ef4 <__kernel_cosf+0xa0>
 8007f28:	f04f 507e 	mov.w	r0, #1065353216	@ 0x3f800000
 8007f2c:	e7e4      	b.n	8007ef8 <__kernel_cosf+0xa4>
 8007f2e:	bf00      	nop
 8007f30:	ad47d74e 	.word	0xad47d74e
 8007f34:	310f74f6 	.word	0x310f74f6
 8007f38:	3493f27c 	.word	0x3493f27c
 8007f3c:	37d00d01 	.word	0x37d00d01
 8007f40:	3ab60b61 	.word	0x3ab60b61
 8007f44:	3d2aaaab 	.word	0x3d2aaaab
 8007f48:	3e999999 	.word	0x3e999999
 8007f4c:	3f480000 	.word	0x3f480000
 8007f50:	3e900000 	.word	0x3e900000

08007f54 <__kernel_sinf>:
 8007f54:	e92d 43f8 	stmdb	sp!, {r3, r4, r5, r6, r7, r8, r9, lr}
 8007f58:	f020 4300 	bic.w	r3, r0, #2147483648	@ 0x80000000
 8007f5c:	f1b3 5f48 	cmp.w	r3, #838860800	@ 0x32000000
 8007f60:	4604      	mov	r4, r0
 8007f62:	460f      	mov	r7, r1
 8007f64:	4691      	mov	r9, r2
 8007f66:	d203      	bcs.n	8007f70 <__kernel_sinf+0x1c>
 8007f68:	f7f8 fbc4 	bl	80006f4 <__aeabi_f2iz>
 8007f6c:	2800      	cmp	r0, #0
 8007f6e:	d035      	beq.n	8007fdc <__kernel_sinf+0x88>
 8007f70:	4621      	mov	r1, r4
 8007f72:	4620      	mov	r0, r4
 8007f74:	f7f8 f9f8 	bl	8000368 <__aeabi_fmul>
 8007f78:	4605      	mov	r5, r0
 8007f7a:	4601      	mov	r1, r0
 8007f7c:	4620      	mov	r0, r4
 8007f7e:	f7f8 f9f3 	bl	8000368 <__aeabi_fmul>
 8007f82:	4929      	ldr	r1, [pc, #164]	@ (8008028 <__kernel_sinf+0xd4>)
 8007f84:	4606      	mov	r6, r0
 8007f86:	4628      	mov	r0, r5
 8007f88:	f7f8 f9ee 	bl	8000368 <__aeabi_fmul>
 8007f8c:	4927      	ldr	r1, [pc, #156]	@ (800802c <__kernel_sinf+0xd8>)
 8007f8e:	f7f8 f8e1 	bl	8000154 <__aeabi_fsub>
 8007f92:	4629      	mov	r1, r5
 8007f94:	f7f8 f9e8 	bl	8000368 <__aeabi_fmul>
 8007f98:	4925      	ldr	r1, [pc, #148]	@ (8008030 <__kernel_sinf+0xdc>)
 8007f9a:	f7f8 f8dd 	bl	8000158 <__addsf3>
 8007f9e:	4629      	mov	r1, r5
 8007fa0:	f7f8 f9e2 	bl	8000368 <__aeabi_fmul>
 8007fa4:	4923      	ldr	r1, [pc, #140]	@ (8008034 <__kernel_sinf+0xe0>)
 8007fa6:	f7f8 f8d5 	bl	8000154 <__aeabi_fsub>
 8007faa:	4629      	mov	r1, r5
 8007fac:	f7f8 f9dc 	bl	8000368 <__aeabi_fmul>
 8007fb0:	4921      	ldr	r1, [pc, #132]	@ (8008038 <__kernel_sinf+0xe4>)
 8007fb2:	f7f8 f8d1 	bl	8000158 <__addsf3>
 8007fb6:	4680      	mov	r8, r0
 8007fb8:	f1b9 0f00 	cmp.w	r9, #0
 8007fbc:	d111      	bne.n	8007fe2 <__kernel_sinf+0x8e>
 8007fbe:	4601      	mov	r1, r0
 8007fc0:	4628      	mov	r0, r5
 8007fc2:	f7f8 f9d1 	bl	8000368 <__aeabi_fmul>
 8007fc6:	491d      	ldr	r1, [pc, #116]	@ (800803c <__kernel_sinf+0xe8>)
 8007fc8:	f7f8 f8c4 	bl	8000154 <__aeabi_fsub>
 8007fcc:	4631      	mov	r1, r6
 8007fce:	f7f8 f9cb 	bl	8000368 <__aeabi_fmul>
 8007fd2:	4601      	mov	r1, r0
 8007fd4:	4620      	mov	r0, r4
 8007fd6:	f7f8 f8bf 	bl	8000158 <__addsf3>
 8007fda:	4604      	mov	r4, r0
 8007fdc:	4620      	mov	r0, r4
 8007fde:	e8bd 83f8 	ldmia.w	sp!, {r3, r4, r5, r6, r7, r8, r9, pc}
 8007fe2:	f04f 517c 	mov.w	r1, #1056964608	@ 0x3f000000
 8007fe6:	4638      	mov	r0, r7
 8007fe8:	f7f8 f9be 	bl	8000368 <__aeabi_fmul>
 8007fec:	4641      	mov	r1, r8
 8007fee:	4681      	mov	r9, r0
 8007ff0:	4630      	mov	r0, r6
 8007ff2:	f7f8 f9b9 	bl	8000368 <__aeabi_fmul>
 8007ff6:	4601      	mov	r1, r0
 8007ff8:	4648      	mov	r0, r9
 8007ffa:	f7f8 f8ab 	bl	8000154 <__aeabi_fsub>
 8007ffe:	4629      	mov	r1, r5
 8008000:	f7f8 f9b2 	bl	8000368 <__aeabi_fmul>
 8008004:	4639      	mov	r1, r7
 8008006:	f7f8 f8a5 	bl	8000154 <__aeabi_fsub>
 800800a:	490c      	ldr	r1, [pc, #48]	@ (800803c <__kernel_sinf+0xe8>)
 800800c:	4605      	mov	r5, r0
 800800e:	4630      	mov	r0, r6
 8008010:	f7f8 f9aa 	bl	8000368 <__aeabi_fmul>
 8008014:	4601      	mov	r1, r0
 8008016:	4628      	mov	r0, r5
 8008018:	f7f8 f89e 	bl	8000158 <__addsf3>
 800801c:	4601      	mov	r1, r0
 800801e:	4620      	mov	r0, r4
 8008020:	f7f8 f898 	bl	8000154 <__aeabi_fsub>
 8008024:	e7d9      	b.n	8007fda <__kernel_sinf+0x86>
 8008026:	bf00      	nop
 8008028:	2f2ec9d3 	.word	0x2f2ec9d3
 800802c:	32d72f34 	.word	0x32d72f34
 8008030:	3638ef1b 	.word	0x3638ef1b
 8008034:	39500d01 	.word	0x39500d01
 8008038:	3c088889 	.word	0x3c088889
 800803c:	3e2aaaab 	.word	0x3e2aaaab

08008040 <__ieee754_rem_pio2f>:
 8008040:	e92d 4ff0 	stmdb	sp!, {r4, r5, r6, r7, r8, r9, sl, fp, lr}
 8008044:	4aa4      	ldr	r2, [pc, #656]	@ (80082d8 <__ieee754_rem_pio2f+0x298>)
 8008046:	f020 4800 	bic.w	r8, r0, #2147483648	@ 0x80000000
 800804a:	4590      	cmp	r8, r2
 800804c:	460c      	mov	r4, r1
 800804e:	4682      	mov	sl, r0
 8008050:	b087      	sub	sp, #28
 8008052:	d804      	bhi.n	800805e <__ieee754_rem_pio2f+0x1e>
 8008054:	2300      	movs	r3, #0
 8008056:	6008      	str	r0, [r1, #0]
 8008058:	604b      	str	r3, [r1, #4]
 800805a:	2500      	movs	r5, #0
 800805c:	e01d      	b.n	800809a <__ieee754_rem_pio2f+0x5a>
 800805e:	4a9f      	ldr	r2, [pc, #636]	@ (80082dc <__ieee754_rem_pio2f+0x29c>)
 8008060:	4590      	cmp	r8, r2
 8008062:	d84f      	bhi.n	8008104 <__ieee754_rem_pio2f+0xc4>
 8008064:	f020 4500 	bic.w	r5, r0, #2147483648	@ 0x80000000
 8008068:	2800      	cmp	r0, #0
 800806a:	499d      	ldr	r1, [pc, #628]	@ (80082e0 <__ieee754_rem_pio2f+0x2a0>)
 800806c:	4f9d      	ldr	r7, [pc, #628]	@ (80082e4 <__ieee754_rem_pio2f+0x2a4>)
 800806e:	f025 050f 	bic.w	r5, r5, #15
 8008072:	dd24      	ble.n	80080be <__ieee754_rem_pio2f+0x7e>
 8008074:	f7f8 f86e 	bl	8000154 <__aeabi_fsub>
 8008078:	42bd      	cmp	r5, r7
 800807a:	4606      	mov	r6, r0
 800807c:	d011      	beq.n	80080a2 <__ieee754_rem_pio2f+0x62>
 800807e:	499a      	ldr	r1, [pc, #616]	@ (80082e8 <__ieee754_rem_pio2f+0x2a8>)
 8008080:	f7f8 f868 	bl	8000154 <__aeabi_fsub>
 8008084:	4601      	mov	r1, r0
 8008086:	4605      	mov	r5, r0
 8008088:	4630      	mov	r0, r6
 800808a:	f7f8 f863 	bl	8000154 <__aeabi_fsub>
 800808e:	4996      	ldr	r1, [pc, #600]	@ (80082e8 <__ieee754_rem_pio2f+0x2a8>)
 8008090:	f7f8 f860 	bl	8000154 <__aeabi_fsub>
 8008094:	6025      	str	r5, [r4, #0]
 8008096:	2501      	movs	r5, #1
 8008098:	6060      	str	r0, [r4, #4]
 800809a:	4628      	mov	r0, r5
 800809c:	b007      	add	sp, #28
 800809e:	e8bd 8ff0 	ldmia.w	sp!, {r4, r5, r6, r7, r8, r9, sl, fp, pc}
 80080a2:	4992      	ldr	r1, [pc, #584]	@ (80082ec <__ieee754_rem_pio2f+0x2ac>)
 80080a4:	f7f8 f856 	bl	8000154 <__aeabi_fsub>
 80080a8:	4991      	ldr	r1, [pc, #580]	@ (80082f0 <__ieee754_rem_pio2f+0x2b0>)
 80080aa:	4606      	mov	r6, r0
 80080ac:	f7f8 f852 	bl	8000154 <__aeabi_fsub>
 80080b0:	4601      	mov	r1, r0
 80080b2:	4605      	mov	r5, r0
 80080b4:	4630      	mov	r0, r6
 80080b6:	f7f8 f84d 	bl	8000154 <__aeabi_fsub>
 80080ba:	498d      	ldr	r1, [pc, #564]	@ (80082f0 <__ieee754_rem_pio2f+0x2b0>)
 80080bc:	e7e8      	b.n	8008090 <__ieee754_rem_pio2f+0x50>
 80080be:	f7f8 f84b 	bl	8000158 <__addsf3>
 80080c2:	42bd      	cmp	r5, r7
 80080c4:	4606      	mov	r6, r0
 80080c6:	d00f      	beq.n	80080e8 <__ieee754_rem_pio2f+0xa8>
 80080c8:	4987      	ldr	r1, [pc, #540]	@ (80082e8 <__ieee754_rem_pio2f+0x2a8>)
 80080ca:	f7f8 f845 	bl	8000158 <__addsf3>
 80080ce:	4601      	mov	r1, r0
 80080d0:	4605      	mov	r5, r0
 80080d2:	4630      	mov	r0, r6
 80080d4:	f7f8 f83e 	bl	8000154 <__aeabi_fsub>
 80080d8:	4983      	ldr	r1, [pc, #524]	@ (80082e8 <__ieee754_rem_pio2f+0x2a8>)
 80080da:	f7f8 f83d 	bl	8000158 <__addsf3>
 80080de:	6025      	str	r5, [r4, #0]
 80080e0:	6060      	str	r0, [r4, #4]
 80080e2:	f04f 35ff 	mov.w	r5, #4294967295
 80080e6:	e7d8      	b.n	800809a <__ieee754_rem_pio2f+0x5a>
 80080e8:	4980      	ldr	r1, [pc, #512]	@ (80082ec <__ieee754_rem_pio2f+0x2ac>)
 80080ea:	f7f8 f835 	bl	8000158 <__addsf3>
 80080ee:	4980      	ldr	r1, [pc, #512]	@ (80082f0 <__ieee754_rem_pio2f+0x2b0>)
 80080f0:	4606      	mov	r6, r0
 80080f2:	f7f8 f831 	bl	8000158 <__addsf3>
 80080f6:	4601      	mov	r1, r0
 80080f8:	4605      	mov	r5, r0
 80080fa:	4630      	mov	r0, r6
 80080fc:	f7f8 f82a 	bl	8000154 <__aeabi_fsub>
 8008100:	497b      	ldr	r1, [pc, #492]	@ (80082f0 <__ieee754_rem_pio2f+0x2b0>)
 8008102:	e7ea      	b.n	80080da <__ieee754_rem_pio2f+0x9a>
 8008104:	4a7b      	ldr	r2, [pc, #492]	@ (80082f4 <__ieee754_rem_pio2f+0x2b4>)
 8008106:	4590      	cmp	r8, r2
 8008108:	f200 8095 	bhi.w	8008236 <__ieee754_rem_pio2f+0x1f6>
 800810c:	f000 f8fe 	bl	800830c <fabsf>
 8008110:	4979      	ldr	r1, [pc, #484]	@ (80082f8 <__ieee754_rem_pio2f+0x2b8>)
 8008112:	4606      	mov	r6, r0
 8008114:	f7f8 f928 	bl	8000368 <__aeabi_fmul>
 8008118:	f04f 517c 	mov.w	r1, #1056964608	@ 0x3f000000
 800811c:	f7f8 f81c 	bl	8000158 <__addsf3>
 8008120:	f7f8 fae8 	bl	80006f4 <__aeabi_f2iz>
 8008124:	4605      	mov	r5, r0
 8008126:	f7f8 f8cb 	bl	80002c0 <__aeabi_i2f>
 800812a:	496d      	ldr	r1, [pc, #436]	@ (80082e0 <__ieee754_rem_pio2f+0x2a0>)
 800812c:	4681      	mov	r9, r0
 800812e:	f7f8 f91b 	bl	8000368 <__aeabi_fmul>
 8008132:	4601      	mov	r1, r0
 8008134:	4630      	mov	r0, r6
 8008136:	f7f8 f80d 	bl	8000154 <__aeabi_fsub>
 800813a:	496b      	ldr	r1, [pc, #428]	@ (80082e8 <__ieee754_rem_pio2f+0x2a8>)
 800813c:	4607      	mov	r7, r0
 800813e:	4648      	mov	r0, r9
 8008140:	f7f8 f912 	bl	8000368 <__aeabi_fmul>
 8008144:	2d1f      	cmp	r5, #31
 8008146:	4606      	mov	r6, r0
 8008148:	dc0e      	bgt.n	8008168 <__ieee754_rem_pio2f+0x128>
 800814a:	4a6c      	ldr	r2, [pc, #432]	@ (80082fc <__ieee754_rem_pio2f+0x2bc>)
 800814c:	1e69      	subs	r1, r5, #1
 800814e:	f852 2021 	ldr.w	r2, [r2, r1, lsl #2]
 8008152:	f02a 4300 	bic.w	r3, sl, #2147483648	@ 0x80000000
 8008156:	f023 03ff 	bic.w	r3, r3, #255	@ 0xff
 800815a:	4293      	cmp	r3, r2
 800815c:	d004      	beq.n	8008168 <__ieee754_rem_pio2f+0x128>
 800815e:	4631      	mov	r1, r6
 8008160:	4638      	mov	r0, r7
 8008162:	f7f7 fff7 	bl	8000154 <__aeabi_fsub>
 8008166:	e00b      	b.n	8008180 <__ieee754_rem_pio2f+0x140>
 8008168:	4631      	mov	r1, r6
 800816a:	4638      	mov	r0, r7
 800816c:	f7f7 fff2 	bl	8000154 <__aeabi_fsub>
 8008170:	f3c0 53c7 	ubfx	r3, r0, #23, #8
 8008174:	ebc3 53d8 	rsb	r3, r3, r8, lsr #23
 8008178:	2b08      	cmp	r3, #8
 800817a:	ea4f 5be8 	mov.w	fp, r8, asr #23
 800817e:	dc01      	bgt.n	8008184 <__ieee754_rem_pio2f+0x144>
 8008180:	6020      	str	r0, [r4, #0]
 8008182:	e026      	b.n	80081d2 <__ieee754_rem_pio2f+0x192>
 8008184:	4959      	ldr	r1, [pc, #356]	@ (80082ec <__ieee754_rem_pio2f+0x2ac>)
 8008186:	4648      	mov	r0, r9
 8008188:	f7f8 f8ee 	bl	8000368 <__aeabi_fmul>
 800818c:	4606      	mov	r6, r0
 800818e:	4601      	mov	r1, r0
 8008190:	4638      	mov	r0, r7
 8008192:	f7f7 ffdf 	bl	8000154 <__aeabi_fsub>
 8008196:	4601      	mov	r1, r0
 8008198:	4680      	mov	r8, r0
 800819a:	4638      	mov	r0, r7
 800819c:	f7f7 ffda 	bl	8000154 <__aeabi_fsub>
 80081a0:	4631      	mov	r1, r6
 80081a2:	f7f7 ffd7 	bl	8000154 <__aeabi_fsub>
 80081a6:	4606      	mov	r6, r0
 80081a8:	4951      	ldr	r1, [pc, #324]	@ (80082f0 <__ieee754_rem_pio2f+0x2b0>)
 80081aa:	4648      	mov	r0, r9
 80081ac:	f7f8 f8dc 	bl	8000368 <__aeabi_fmul>
 80081b0:	4631      	mov	r1, r6
 80081b2:	f7f7 ffcf 	bl	8000154 <__aeabi_fsub>
 80081b6:	4601      	mov	r1, r0
 80081b8:	4606      	mov	r6, r0
 80081ba:	4640      	mov	r0, r8
 80081bc:	f7f7 ffca 	bl	8000154 <__aeabi_fsub>
 80081c0:	f3c0 53c7 	ubfx	r3, r0, #23, #8
 80081c4:	ebab 0b03 	sub.w	fp, fp, r3
 80081c8:	f1bb 0f19 	cmp.w	fp, #25
 80081cc:	dc18      	bgt.n	8008200 <__ieee754_rem_pio2f+0x1c0>
 80081ce:	4647      	mov	r7, r8
 80081d0:	6020      	str	r0, [r4, #0]
 80081d2:	f8d4 8000 	ldr.w	r8, [r4]
 80081d6:	4638      	mov	r0, r7
 80081d8:	4641      	mov	r1, r8
 80081da:	f7f7 ffbb 	bl	8000154 <__aeabi_fsub>
 80081de:	4631      	mov	r1, r6
 80081e0:	f7f7 ffb8 	bl	8000154 <__aeabi_fsub>
 80081e4:	f1ba 0f00 	cmp.w	sl, #0
 80081e8:	6060      	str	r0, [r4, #4]
 80081ea:	f6bf af56 	bge.w	800809a <__ieee754_rem_pio2f+0x5a>
 80081ee:	f108 4800 	add.w	r8, r8, #2147483648	@ 0x80000000
 80081f2:	f100 4000 	add.w	r0, r0, #2147483648	@ 0x80000000
 80081f6:	f8c4 8000 	str.w	r8, [r4]
 80081fa:	6060      	str	r0, [r4, #4]
 80081fc:	426d      	negs	r5, r5
 80081fe:	e74c      	b.n	800809a <__ieee754_rem_pio2f+0x5a>
 8008200:	493f      	ldr	r1, [pc, #252]	@ (8008300 <__ieee754_rem_pio2f+0x2c0>)
 8008202:	4648      	mov	r0, r9
 8008204:	f7f8 f8b0 	bl	8000368 <__aeabi_fmul>
 8008208:	4606      	mov	r6, r0
 800820a:	4601      	mov	r1, r0
 800820c:	4640      	mov	r0, r8
 800820e:	f7f7 ffa1 	bl	8000154 <__aeabi_fsub>
 8008212:	4601      	mov	r1, r0
 8008214:	4607      	mov	r7, r0
 8008216:	4640      	mov	r0, r8
 8008218:	f7f7 ff9c 	bl	8000154 <__aeabi_fsub>
 800821c:	4631      	mov	r1, r6
 800821e:	f7f7 ff99 	bl	8000154 <__aeabi_fsub>
 8008222:	4606      	mov	r6, r0
 8008224:	4937      	ldr	r1, [pc, #220]	@ (8008304 <__ieee754_rem_pio2f+0x2c4>)
 8008226:	4648      	mov	r0, r9
 8008228:	f7f8 f89e 	bl	8000368 <__aeabi_fmul>
 800822c:	4631      	mov	r1, r6
 800822e:	f7f7 ff91 	bl	8000154 <__aeabi_fsub>
 8008232:	4606      	mov	r6, r0
 8008234:	e793      	b.n	800815e <__ieee754_rem_pio2f+0x11e>
 8008236:	f1b8 4fff 	cmp.w	r8, #2139095040	@ 0x7f800000
 800823a:	d305      	bcc.n	8008248 <__ieee754_rem_pio2f+0x208>
 800823c:	4601      	mov	r1, r0
 800823e:	f7f7 ff89 	bl	8000154 <__aeabi_fsub>
 8008242:	6060      	str	r0, [r4, #4]
 8008244:	6020      	str	r0, [r4, #0]
 8008246:	e708      	b.n	800805a <__ieee754_rem_pio2f+0x1a>
 8008248:	ea4f 56e8 	mov.w	r6, r8, asr #23
 800824c:	3e86      	subs	r6, #134	@ 0x86
 800824e:	eba8 58c6 	sub.w	r8, r8, r6, lsl #23
 8008252:	4640      	mov	r0, r8
 8008254:	f7f8 fa4e 	bl	80006f4 <__aeabi_f2iz>
 8008258:	f7f8 f832 	bl	80002c0 <__aeabi_i2f>
 800825c:	4601      	mov	r1, r0
 800825e:	9003      	str	r0, [sp, #12]
 8008260:	4640      	mov	r0, r8
 8008262:	f7f7 ff77 	bl	8000154 <__aeabi_fsub>
 8008266:	f04f 4187 	mov.w	r1, #1132462080	@ 0x43800000
 800826a:	f7f8 f87d 	bl	8000368 <__aeabi_fmul>
 800826e:	4607      	mov	r7, r0
 8008270:	f7f8 fa40 	bl	80006f4 <__aeabi_f2iz>
 8008274:	f7f8 f824 	bl	80002c0 <__aeabi_i2f>
 8008278:	4601      	mov	r1, r0
 800827a:	9004      	str	r0, [sp, #16]
 800827c:	4605      	mov	r5, r0
 800827e:	4638      	mov	r0, r7
 8008280:	f7f7 ff68 	bl	8000154 <__aeabi_fsub>
 8008284:	f04f 4187 	mov.w	r1, #1132462080	@ 0x43800000
 8008288:	f7f8 f86e 	bl	8000368 <__aeabi_fmul>
 800828c:	2100      	movs	r1, #0
 800828e:	9005      	str	r0, [sp, #20]
 8008290:	f7f8 f9fe 	bl	8000690 <__aeabi_fcmpeq>
 8008294:	b1f0      	cbz	r0, 80082d4 <__ieee754_rem_pio2f+0x294>
 8008296:	2100      	movs	r1, #0
 8008298:	4628      	mov	r0, r5
 800829a:	f7f8 f9f9 	bl	8000690 <__aeabi_fcmpeq>
 800829e:	2800      	cmp	r0, #0
 80082a0:	bf14      	ite	ne
 80082a2:	2301      	movne	r3, #1
 80082a4:	2302      	moveq	r3, #2
 80082a6:	4a18      	ldr	r2, [pc, #96]	@ (8008308 <__ieee754_rem_pio2f+0x2c8>)
 80082a8:	4621      	mov	r1, r4
 80082aa:	9201      	str	r2, [sp, #4]
 80082ac:	2202      	movs	r2, #2
 80082ae:	a803      	add	r0, sp, #12
 80082b0:	9200      	str	r2, [sp, #0]
 80082b2:	4632      	mov	r2, r6
 80082b4:	f000 f82e 	bl	8008314 <__kernel_rem_pio2f>
 80082b8:	f1ba 0f00 	cmp.w	sl, #0
 80082bc:	4605      	mov	r5, r0
 80082be:	f6bf aeec 	bge.w	800809a <__ieee754_rem_pio2f+0x5a>
 80082c2:	6823      	ldr	r3, [r4, #0]
 80082c4:	f103 4300 	add.w	r3, r3, #2147483648	@ 0x80000000
 80082c8:	6023      	str	r3, [r4, #0]
 80082ca:	6863      	ldr	r3, [r4, #4]
 80082cc:	f103 4300 	add.w	r3, r3, #2147483648	@ 0x80000000
 80082d0:	6063      	str	r3, [r4, #4]
 80082d2:	e793      	b.n	80081fc <__ieee754_rem_pio2f+0x1bc>
 80082d4:	2303      	movs	r3, #3
 80082d6:	e7e6      	b.n	80082a6 <__ieee754_rem_pio2f+0x266>
 80082d8:	3f490fd8 	.word	0x3f490fd8
 80082dc:	4016cbe3 	.word	0x4016cbe3
 80082e0:	3fc90f80 	.word	0x3fc90f80
 80082e4:	3fc90fd0 	.word	0x3fc90fd0
 80082e8:	37354443 	.word	0x37354443
 80082ec:	37354400 	.word	0x37354400
 80082f0:	2e85a308 	.word	0x2e85a308
 80082f4:	43490f80 	.word	0x43490f80
 80082f8:	3f22f984 	.word	0x3f22f984
 80082fc:	08008b58 	.word	0x08008b58
 8008300:	2e85a300 	.word	0x2e85a300
 8008304:	248d3132 	.word	0x248d3132
 8008308:	08008bd8 	.word	0x08008bd8

0800830c <fabsf>:
 800830c:	f020 4000 	bic.w	r0, r0, #2147483648	@ 0x80000000
 8008310:	4770      	bx	lr
	...

08008314 <__kernel_rem_pio2f>:
 8008314:	e92d 4ff0 	stmdb	sp!, {r4, r5, r6, r7, r8, r9, sl, fp, lr}
 8008318:	b0db      	sub	sp, #364	@ 0x16c
 800831a:	9202      	str	r2, [sp, #8]
 800831c:	9304      	str	r3, [sp, #16]
 800831e:	9a64      	ldr	r2, [sp, #400]	@ 0x190
 8008320:	4bac      	ldr	r3, [pc, #688]	@ (80085d4 <__kernel_rem_pio2f+0x2c0>)
 8008322:	9005      	str	r0, [sp, #20]
 8008324:	f853 3022 	ldr.w	r3, [r3, r2, lsl #2]
 8008328:	9100      	str	r1, [sp, #0]
 800832a:	9301      	str	r3, [sp, #4]
 800832c:	9b04      	ldr	r3, [sp, #16]
 800832e:	3b01      	subs	r3, #1
 8008330:	9303      	str	r3, [sp, #12]
 8008332:	9b02      	ldr	r3, [sp, #8]
 8008334:	1d1a      	adds	r2, r3, #4
 8008336:	f2c0 8099 	blt.w	800846c <__kernel_rem_pio2f+0x158>
 800833a:	1edc      	subs	r4, r3, #3
 800833c:	bf48      	it	mi
 800833e:	1d1c      	addmi	r4, r3, #4
 8008340:	10e4      	asrs	r4, r4, #3
 8008342:	2500      	movs	r5, #0
 8008344:	f04f 0b00 	mov.w	fp, #0
 8008348:	1c67      	adds	r7, r4, #1
 800834a:	00fb      	lsls	r3, r7, #3
 800834c:	9306      	str	r3, [sp, #24]
 800834e:	9b02      	ldr	r3, [sp, #8]
 8008350:	9a03      	ldr	r2, [sp, #12]
 8008352:	eba3 07c7 	sub.w	r7, r3, r7, lsl #3
 8008356:	9b01      	ldr	r3, [sp, #4]
 8008358:	eba4 0802 	sub.w	r8, r4, r2
 800835c:	eb03 0902 	add.w	r9, r3, r2
 8008360:	9b65      	ldr	r3, [sp, #404]	@ 0x194
 8008362:	ae1e      	add	r6, sp, #120	@ 0x78
 8008364:	eb03 0a88 	add.w	sl, r3, r8, lsl #2
 8008368:	454d      	cmp	r5, r9
 800836a:	f340 8081 	ble.w	8008470 <__kernel_rem_pio2f+0x15c>
 800836e:	9a04      	ldr	r2, [sp, #16]
 8008370:	ab1e      	add	r3, sp, #120	@ 0x78
 8008372:	eb03 0582 	add.w	r5, r3, r2, lsl #2
 8008376:	f04f 0900 	mov.w	r9, #0
 800837a:	2300      	movs	r3, #0
 800837c:	f50d 7a8c 	add.w	sl, sp, #280	@ 0x118
 8008380:	9a01      	ldr	r2, [sp, #4]
 8008382:	4591      	cmp	r9, r2
 8008384:	f340 809a 	ble.w	80084bc <__kernel_rem_pio2f+0x1a8>
 8008388:	4613      	mov	r3, r2
 800838a:	aa0a      	add	r2, sp, #40	@ 0x28
 800838c:	eb02 0383 	add.w	r3, r2, r3, lsl #2
 8008390:	9308      	str	r3, [sp, #32]
 8008392:	9b65      	ldr	r3, [sp, #404]	@ 0x194
 8008394:	eb03 0384 	add.w	r3, r3, r4, lsl #2
 8008398:	9c01      	ldr	r4, [sp, #4]
 800839a:	9307      	str	r3, [sp, #28]
 800839c:	f10d 0828 	add.w	r8, sp, #40	@ 0x28
 80083a0:	4646      	mov	r6, r8
 80083a2:	4625      	mov	r5, r4
 80083a4:	f04f 4987 	mov.w	r9, #1132462080	@ 0x43800000
 80083a8:	ab5a      	add	r3, sp, #360	@ 0x168
 80083aa:	eb03 0384 	add.w	r3, r3, r4, lsl #2
 80083ae:	f853 bc50 	ldr.w	fp, [r3, #-80]
 80083b2:	f50d 7a8c 	add.w	sl, sp, #280	@ 0x118
 80083b6:	2d00      	cmp	r5, #0
 80083b8:	f300 8085 	bgt.w	80084c6 <__kernel_rem_pio2f+0x1b2>
 80083bc:	4639      	mov	r1, r7
 80083be:	4658      	mov	r0, fp
 80083c0:	f000 fa46 	bl	8008850 <scalbnf>
 80083c4:	f04f 5178 	mov.w	r1, #1040187392	@ 0x3e000000
 80083c8:	4605      	mov	r5, r0
 80083ca:	f7f7 ffcd 	bl	8000368 <__aeabi_fmul>
 80083ce:	f000 fa8b 	bl	80088e8 <floorf>
 80083d2:	f04f 4182 	mov.w	r1, #1090519040	@ 0x41000000
 80083d6:	f7f7 ffc7 	bl	8000368 <__aeabi_fmul>
 80083da:	4601      	mov	r1, r0
 80083dc:	4628      	mov	r0, r5
 80083de:	f7f7 feb9 	bl	8000154 <__aeabi_fsub>
 80083e2:	4605      	mov	r5, r0
 80083e4:	f7f8 f986 	bl	80006f4 <__aeabi_f2iz>
 80083e8:	4606      	mov	r6, r0
 80083ea:	f7f7 ff69 	bl	80002c0 <__aeabi_i2f>
 80083ee:	4601      	mov	r1, r0
 80083f0:	4628      	mov	r0, r5
 80083f2:	f7f7 feaf 	bl	8000154 <__aeabi_fsub>
 80083f6:	2f00      	cmp	r7, #0
 80083f8:	4681      	mov	r9, r0
 80083fa:	f340 8081 	ble.w	8008500 <__kernel_rem_pio2f+0x1ec>
 80083fe:	1e62      	subs	r2, r4, #1
 8008400:	ab0a      	add	r3, sp, #40	@ 0x28
 8008402:	f853 5022 	ldr.w	r5, [r3, r2, lsl #2]
 8008406:	f1c7 0108 	rsb	r1, r7, #8
 800840a:	fa45 f301 	asr.w	r3, r5, r1
 800840e:	441e      	add	r6, r3
 8008410:	408b      	lsls	r3, r1
 8008412:	1aed      	subs	r5, r5, r3
 8008414:	ab0a      	add	r3, sp, #40	@ 0x28
 8008416:	f843 5022 	str.w	r5, [r3, r2, lsl #2]
 800841a:	f1c7 0307 	rsb	r3, r7, #7
 800841e:	411d      	asrs	r5, r3
 8008420:	2d00      	cmp	r5, #0
 8008422:	dd7a      	ble.n	800851a <__kernel_rem_pio2f+0x206>
 8008424:	2200      	movs	r2, #0
 8008426:	4692      	mov	sl, r2
 8008428:	3601      	adds	r6, #1
 800842a:	4294      	cmp	r4, r2
 800842c:	f300 80aa 	bgt.w	8008584 <__kernel_rem_pio2f+0x270>
 8008430:	2f00      	cmp	r7, #0
 8008432:	dd05      	ble.n	8008440 <__kernel_rem_pio2f+0x12c>
 8008434:	2f01      	cmp	r7, #1
 8008436:	f000 80b6 	beq.w	80085a6 <__kernel_rem_pio2f+0x292>
 800843a:	2f02      	cmp	r7, #2
 800843c:	f000 80bd 	beq.w	80085ba <__kernel_rem_pio2f+0x2a6>
 8008440:	2d02      	cmp	r5, #2
 8008442:	d16a      	bne.n	800851a <__kernel_rem_pio2f+0x206>
 8008444:	4649      	mov	r1, r9
 8008446:	f04f 507e 	mov.w	r0, #1065353216	@ 0x3f800000
 800844a:	f7f7 fe83 	bl	8000154 <__aeabi_fsub>
 800844e:	4681      	mov	r9, r0
 8008450:	f1ba 0f00 	cmp.w	sl, #0
 8008454:	d061      	beq.n	800851a <__kernel_rem_pio2f+0x206>
 8008456:	4639      	mov	r1, r7
 8008458:	f04f 507e 	mov.w	r0, #1065353216	@ 0x3f800000
 800845c:	f000 f9f8 	bl	8008850 <scalbnf>
 8008460:	4601      	mov	r1, r0
 8008462:	4648      	mov	r0, r9
 8008464:	f7f7 fe76 	bl	8000154 <__aeabi_fsub>
 8008468:	4681      	mov	r9, r0
 800846a:	e056      	b.n	800851a <__kernel_rem_pio2f+0x206>
 800846c:	2400      	movs	r4, #0
 800846e:	e768      	b.n	8008342 <__kernel_rem_pio2f+0x2e>
 8008470:	eb18 0f05 	cmn.w	r8, r5
 8008474:	d407      	bmi.n	8008486 <__kernel_rem_pio2f+0x172>
 8008476:	f85a 0025 	ldr.w	r0, [sl, r5, lsl #2]
 800847a:	f7f7 ff21 	bl	80002c0 <__aeabi_i2f>
 800847e:	f846 0b04 	str.w	r0, [r6], #4
 8008482:	3501      	adds	r5, #1
 8008484:	e770      	b.n	8008368 <__kernel_rem_pio2f+0x54>
 8008486:	4658      	mov	r0, fp
 8008488:	e7f9      	b.n	800847e <__kernel_rem_pio2f+0x16a>
 800848a:	9307      	str	r3, [sp, #28]
 800848c:	9b05      	ldr	r3, [sp, #20]
 800848e:	f85b 1d04 	ldr.w	r1, [fp, #-4]!
 8008492:	f853 0028 	ldr.w	r0, [r3, r8, lsl #2]
 8008496:	f7f7 ff67 	bl	8000368 <__aeabi_fmul>
 800849a:	4601      	mov	r1, r0
 800849c:	4630      	mov	r0, r6
 800849e:	f7f7 fe5b 	bl	8000158 <__addsf3>
 80084a2:	4606      	mov	r6, r0
 80084a4:	9b07      	ldr	r3, [sp, #28]
 80084a6:	f108 0801 	add.w	r8, r8, #1
 80084aa:	9a03      	ldr	r2, [sp, #12]
 80084ac:	4590      	cmp	r8, r2
 80084ae:	ddec      	ble.n	800848a <__kernel_rem_pio2f+0x176>
 80084b0:	f84a 6b04 	str.w	r6, [sl], #4
 80084b4:	f109 0901 	add.w	r9, r9, #1
 80084b8:	3504      	adds	r5, #4
 80084ba:	e761      	b.n	8008380 <__kernel_rem_pio2f+0x6c>
 80084bc:	46ab      	mov	fp, r5
 80084be:	461e      	mov	r6, r3
 80084c0:	f04f 0800 	mov.w	r8, #0
 80084c4:	e7f1      	b.n	80084aa <__kernel_rem_pio2f+0x196>
 80084c6:	f04f 516e 	mov.w	r1, #998244352	@ 0x3b800000
 80084ca:	4658      	mov	r0, fp
 80084cc:	f7f7 ff4c 	bl	8000368 <__aeabi_fmul>
 80084d0:	f7f8 f910 	bl	80006f4 <__aeabi_f2iz>
 80084d4:	f7f7 fef4 	bl	80002c0 <__aeabi_i2f>
 80084d8:	4649      	mov	r1, r9
 80084da:	9009      	str	r0, [sp, #36]	@ 0x24
 80084dc:	f7f7 ff44 	bl	8000368 <__aeabi_fmul>
 80084e0:	4601      	mov	r1, r0
 80084e2:	4658      	mov	r0, fp
 80084e4:	f7f7 fe36 	bl	8000154 <__aeabi_fsub>
 80084e8:	f7f8 f904 	bl	80006f4 <__aeabi_f2iz>
 80084ec:	3d01      	subs	r5, #1
 80084ee:	f846 0b04 	str.w	r0, [r6], #4
 80084f2:	f85a 1025 	ldr.w	r1, [sl, r5, lsl #2]
 80084f6:	9809      	ldr	r0, [sp, #36]	@ 0x24
 80084f8:	f7f7 fe2e 	bl	8000158 <__addsf3>
 80084fc:	4683      	mov	fp, r0
 80084fe:	e75a      	b.n	80083b6 <__kernel_rem_pio2f+0xa2>
 8008500:	d105      	bne.n	800850e <__kernel_rem_pio2f+0x1fa>
 8008502:	1e63      	subs	r3, r4, #1
 8008504:	aa0a      	add	r2, sp, #40	@ 0x28
 8008506:	f852 5023 	ldr.w	r5, [r2, r3, lsl #2]
 800850a:	11ed      	asrs	r5, r5, #7
 800850c:	e788      	b.n	8008420 <__kernel_rem_pio2f+0x10c>
 800850e:	f04f 517c 	mov.w	r1, #1056964608	@ 0x3f000000
 8008512:	f7f8 f8db 	bl	80006cc <__aeabi_fcmpge>
 8008516:	4605      	mov	r5, r0
 8008518:	bb90      	cbnz	r0, 8008580 <__kernel_rem_pio2f+0x26c>
 800851a:	2100      	movs	r1, #0
 800851c:	4648      	mov	r0, r9
 800851e:	f7f8 f8b7 	bl	8000690 <__aeabi_fcmpeq>
 8008522:	2800      	cmp	r0, #0
 8008524:	f000 8090 	beq.w	8008648 <__kernel_rem_pio2f+0x334>
 8008528:	2200      	movs	r2, #0
 800852a:	1e63      	subs	r3, r4, #1
 800852c:	9901      	ldr	r1, [sp, #4]
 800852e:	428b      	cmp	r3, r1
 8008530:	da4a      	bge.n	80085c8 <__kernel_rem_pio2f+0x2b4>
 8008532:	2a00      	cmp	r2, #0
 8008534:	d076      	beq.n	8008624 <__kernel_rem_pio2f+0x310>
 8008536:	3c01      	subs	r4, #1
 8008538:	ab0a      	add	r3, sp, #40	@ 0x28
 800853a:	f853 3024 	ldr.w	r3, [r3, r4, lsl #2]
 800853e:	3f08      	subs	r7, #8
 8008540:	2b00      	cmp	r3, #0
 8008542:	d0f8      	beq.n	8008536 <__kernel_rem_pio2f+0x222>
 8008544:	4639      	mov	r1, r7
 8008546:	f04f 507e 	mov.w	r0, #1065353216	@ 0x3f800000
 800854a:	f000 f981 	bl	8008850 <scalbnf>
 800854e:	46a2      	mov	sl, r4
 8008550:	4607      	mov	r7, r0
 8008552:	f04f 596e 	mov.w	r9, #998244352	@ 0x3b800000
 8008556:	f50d 788c 	add.w	r8, sp, #280	@ 0x118
 800855a:	f1ba 0f00 	cmp.w	sl, #0
 800855e:	f280 80a1 	bge.w	80086a4 <__kernel_rem_pio2f+0x390>
 8008562:	4627      	mov	r7, r4
 8008564:	2200      	movs	r2, #0
 8008566:	2f00      	cmp	r7, #0
 8008568:	f2c0 80cb 	blt.w	8008702 <__kernel_rem_pio2f+0x3ee>
 800856c:	a946      	add	r1, sp, #280	@ 0x118
 800856e:	4690      	mov	r8, r2
 8008570:	f04f 0a00 	mov.w	sl, #0
 8008574:	4b18      	ldr	r3, [pc, #96]	@ (80085d8 <__kernel_rem_pio2f+0x2c4>)
 8008576:	eb01 0b87 	add.w	fp, r1, r7, lsl #2
 800857a:	eba4 0907 	sub.w	r9, r4, r7
 800857e:	e0b4      	b.n	80086ea <__kernel_rem_pio2f+0x3d6>
 8008580:	2502      	movs	r5, #2
 8008582:	e74f      	b.n	8008424 <__kernel_rem_pio2f+0x110>
 8008584:	f858 3b04 	ldr.w	r3, [r8], #4
 8008588:	f1ba 0f00 	cmp.w	sl, #0
 800858c:	d108      	bne.n	80085a0 <__kernel_rem_pio2f+0x28c>
 800858e:	b123      	cbz	r3, 800859a <__kernel_rem_pio2f+0x286>
 8008590:	f5c3 7380 	rsb	r3, r3, #256	@ 0x100
 8008594:	f848 3c04 	str.w	r3, [r8, #-4]
 8008598:	2301      	movs	r3, #1
 800859a:	469a      	mov	sl, r3
 800859c:	3201      	adds	r2, #1
 800859e:	e744      	b.n	800842a <__kernel_rem_pio2f+0x116>
 80085a0:	f1c3 03ff 	rsb	r3, r3, #255	@ 0xff
 80085a4:	e7f6      	b.n	8008594 <__kernel_rem_pio2f+0x280>
 80085a6:	1e62      	subs	r2, r4, #1
 80085a8:	ab0a      	add	r3, sp, #40	@ 0x28
 80085aa:	f853 3022 	ldr.w	r3, [r3, r2, lsl #2]
 80085ae:	f003 037f 	and.w	r3, r3, #127	@ 0x7f
 80085b2:	a90a      	add	r1, sp, #40	@ 0x28
 80085b4:	f841 3022 	str.w	r3, [r1, r2, lsl #2]
 80085b8:	e742      	b.n	8008440 <__kernel_rem_pio2f+0x12c>
 80085ba:	1e62      	subs	r2, r4, #1
 80085bc:	ab0a      	add	r3, sp, #40	@ 0x28
 80085be:	f853 3022 	ldr.w	r3, [r3, r2, lsl #2]
 80085c2:	f003 033f 	and.w	r3, r3, #63	@ 0x3f
 80085c6:	e7f4      	b.n	80085b2 <__kernel_rem_pio2f+0x29e>
 80085c8:	a90a      	add	r1, sp, #40	@ 0x28
 80085ca:	f851 1023 	ldr.w	r1, [r1, r3, lsl #2]
 80085ce:	3b01      	subs	r3, #1
 80085d0:	430a      	orrs	r2, r1
 80085d2:	e7ab      	b.n	800852c <__kernel_rem_pio2f+0x218>
 80085d4:	08008f1c 	.word	0x08008f1c
 80085d8:	08008ef0 	.word	0x08008ef0
 80085dc:	3301      	adds	r3, #1
 80085de:	f852 1d04 	ldr.w	r1, [r2, #-4]!
 80085e2:	2900      	cmp	r1, #0
 80085e4:	d0fa      	beq.n	80085dc <__kernel_rem_pio2f+0x2c8>
 80085e6:	9a04      	ldr	r2, [sp, #16]
 80085e8:	a91e      	add	r1, sp, #120	@ 0x78
 80085ea:	18a2      	adds	r2, r4, r2
 80085ec:	1c66      	adds	r6, r4, #1
 80085ee:	eb01 0582 	add.w	r5, r1, r2, lsl #2
 80085f2:	441c      	add	r4, r3
 80085f4:	f50d 798c 	add.w	r9, sp, #280	@ 0x118
 80085f8:	42b4      	cmp	r4, r6
 80085fa:	f6ff aecf 	blt.w	800839c <__kernel_rem_pio2f+0x88>
 80085fe:	9b07      	ldr	r3, [sp, #28]
 8008600:	46ab      	mov	fp, r5
 8008602:	f853 0026 	ldr.w	r0, [r3, r6, lsl #2]
 8008606:	f7f7 fe5b 	bl	80002c0 <__aeabi_i2f>
 800860a:	f04f 0a00 	mov.w	sl, #0
 800860e:	f04f 0800 	mov.w	r8, #0
 8008612:	6028      	str	r0, [r5, #0]
 8008614:	9b03      	ldr	r3, [sp, #12]
 8008616:	459a      	cmp	sl, r3
 8008618:	dd07      	ble.n	800862a <__kernel_rem_pio2f+0x316>
 800861a:	f849 8026 	str.w	r8, [r9, r6, lsl #2]
 800861e:	3504      	adds	r5, #4
 8008620:	3601      	adds	r6, #1
 8008622:	e7e9      	b.n	80085f8 <__kernel_rem_pio2f+0x2e4>
 8008624:	2301      	movs	r3, #1
 8008626:	9a08      	ldr	r2, [sp, #32]
 8008628:	e7d9      	b.n	80085de <__kernel_rem_pio2f+0x2ca>
 800862a:	9b05      	ldr	r3, [sp, #20]
 800862c:	f85b 0904 	ldr.w	r0, [fp], #-4
 8008630:	f853 102a 	ldr.w	r1, [r3, sl, lsl #2]
 8008634:	f7f7 fe98 	bl	8000368 <__aeabi_fmul>
 8008638:	4601      	mov	r1, r0
 800863a:	4640      	mov	r0, r8
 800863c:	f7f7 fd8c 	bl	8000158 <__addsf3>
 8008640:	f10a 0a01 	add.w	sl, sl, #1
 8008644:	4680      	mov	r8, r0
 8008646:	e7e5      	b.n	8008614 <__kernel_rem_pio2f+0x300>
 8008648:	9b06      	ldr	r3, [sp, #24]
 800864a:	9a02      	ldr	r2, [sp, #8]
 800864c:	4648      	mov	r0, r9
 800864e:	1a99      	subs	r1, r3, r2
 8008650:	f000 f8fe 	bl	8008850 <scalbnf>
 8008654:	f04f 4187 	mov.w	r1, #1132462080	@ 0x43800000
 8008658:	4680      	mov	r8, r0
 800865a:	f7f8 f837 	bl	80006cc <__aeabi_fcmpge>
 800865e:	b1f8      	cbz	r0, 80086a0 <__kernel_rem_pio2f+0x38c>
 8008660:	f04f 516e 	mov.w	r1, #998244352	@ 0x3b800000
 8008664:	4640      	mov	r0, r8
 8008666:	f7f7 fe7f 	bl	8000368 <__aeabi_fmul>
 800866a:	f7f8 f843 	bl	80006f4 <__aeabi_f2iz>
 800866e:	f7f7 fe27 	bl	80002c0 <__aeabi_i2f>
 8008672:	f04f 4187 	mov.w	r1, #1132462080	@ 0x43800000
 8008676:	4681      	mov	r9, r0
 8008678:	f7f7 fe76 	bl	8000368 <__aeabi_fmul>
 800867c:	4601      	mov	r1, r0
 800867e:	4640      	mov	r0, r8
 8008680:	f7f7 fd68 	bl	8000154 <__aeabi_fsub>
 8008684:	f7f8 f836 	bl	80006f4 <__aeabi_f2iz>
 8008688:	ab0a      	add	r3, sp, #40	@ 0x28
 800868a:	f843 0024 	str.w	r0, [r3, r4, lsl #2]
 800868e:	4648      	mov	r0, r9
 8008690:	3401      	adds	r4, #1
 8008692:	3708      	adds	r7, #8
 8008694:	f7f8 f82e 	bl	80006f4 <__aeabi_f2iz>
 8008698:	ab0a      	add	r3, sp, #40	@ 0x28
 800869a:	f843 0024 	str.w	r0, [r3, r4, lsl #2]
 800869e:	e751      	b.n	8008544 <__kernel_rem_pio2f+0x230>
 80086a0:	4640      	mov	r0, r8
 80086a2:	e7f7      	b.n	8008694 <__kernel_rem_pio2f+0x380>
 80086a4:	ab0a      	add	r3, sp, #40	@ 0x28
 80086a6:	f853 002a 	ldr.w	r0, [r3, sl, lsl #2]
 80086aa:	f7f7 fe09 	bl	80002c0 <__aeabi_i2f>
 80086ae:	4639      	mov	r1, r7
 80086b0:	f7f7 fe5a 	bl	8000368 <__aeabi_fmul>
 80086b4:	4649      	mov	r1, r9
 80086b6:	f848 002a 	str.w	r0, [r8, sl, lsl #2]
 80086ba:	4638      	mov	r0, r7
 80086bc:	f7f7 fe54 	bl	8000368 <__aeabi_fmul>
 80086c0:	f10a 3aff 	add.w	sl, sl, #4294967295
 80086c4:	4607      	mov	r7, r0
 80086c6:	e748      	b.n	800855a <__kernel_rem_pio2f+0x246>
 80086c8:	f853 0b04 	ldr.w	r0, [r3], #4
 80086cc:	f85b 1b04 	ldr.w	r1, [fp], #4
 80086d0:	9203      	str	r2, [sp, #12]
 80086d2:	9302      	str	r3, [sp, #8]
 80086d4:	f7f7 fe48 	bl	8000368 <__aeabi_fmul>
 80086d8:	4601      	mov	r1, r0
 80086da:	4640      	mov	r0, r8
 80086dc:	f7f7 fd3c 	bl	8000158 <__addsf3>
 80086e0:	e9dd 3202 	ldrd	r3, r2, [sp, #8]
 80086e4:	4680      	mov	r8, r0
 80086e6:	f10a 0a01 	add.w	sl, sl, #1
 80086ea:	9901      	ldr	r1, [sp, #4]
 80086ec:	458a      	cmp	sl, r1
 80086ee:	dc01      	bgt.n	80086f4 <__kernel_rem_pio2f+0x3e0>
 80086f0:	45ca      	cmp	sl, r9
 80086f2:	dde9      	ble.n	80086c8 <__kernel_rem_pio2f+0x3b4>
 80086f4:	ab5a      	add	r3, sp, #360	@ 0x168
 80086f6:	eb03 0989 	add.w	r9, r3, r9, lsl #2
 80086fa:	f849 8ca0 	str.w	r8, [r9, #-160]
 80086fe:	3f01      	subs	r7, #1
 8008700:	e731      	b.n	8008566 <__kernel_rem_pio2f+0x252>
 8008702:	9b64      	ldr	r3, [sp, #400]	@ 0x190
 8008704:	2b02      	cmp	r3, #2
 8008706:	dc07      	bgt.n	8008718 <__kernel_rem_pio2f+0x404>
 8008708:	2b00      	cmp	r3, #0
 800870a:	dc4e      	bgt.n	80087aa <__kernel_rem_pio2f+0x496>
 800870c:	d02e      	beq.n	800876c <__kernel_rem_pio2f+0x458>
 800870e:	f006 0007 	and.w	r0, r6, #7
 8008712:	b05b      	add	sp, #364	@ 0x16c
 8008714:	e8bd 8ff0 	ldmia.w	sp!, {r4, r5, r6, r7, r8, r9, sl, fp, pc}
 8008718:	9b64      	ldr	r3, [sp, #400]	@ 0x190
 800871a:	2b03      	cmp	r3, #3
 800871c:	d1f7      	bne.n	800870e <__kernel_rem_pio2f+0x3fa>
 800871e:	f10d 0bc8 	add.w	fp, sp, #200	@ 0xc8
 8008722:	eb0b 0784 	add.w	r7, fp, r4, lsl #2
 8008726:	46b8      	mov	r8, r7
 8008728:	46a2      	mov	sl, r4
 800872a:	f1ba 0f00 	cmp.w	sl, #0
 800872e:	dc49      	bgt.n	80087c4 <__kernel_rem_pio2f+0x4b0>
 8008730:	46a1      	mov	r9, r4
 8008732:	f1b9 0f01 	cmp.w	r9, #1
 8008736:	dc60      	bgt.n	80087fa <__kernel_rem_pio2f+0x4e6>
 8008738:	2000      	movs	r0, #0
 800873a:	2c01      	cmp	r4, #1
 800873c:	dc76      	bgt.n	800882c <__kernel_rem_pio2f+0x518>
 800873e:	9a32      	ldr	r2, [sp, #200]	@ 0xc8
 8008740:	9b33      	ldr	r3, [sp, #204]	@ 0xcc
 8008742:	2d00      	cmp	r5, #0
 8008744:	d178      	bne.n	8008838 <__kernel_rem_pio2f+0x524>
 8008746:	9900      	ldr	r1, [sp, #0]
 8008748:	600a      	str	r2, [r1, #0]
 800874a:	460a      	mov	r2, r1
 800874c:	604b      	str	r3, [r1, #4]
 800874e:	6090      	str	r0, [r2, #8]
 8008750:	e7dd      	b.n	800870e <__kernel_rem_pio2f+0x3fa>
 8008752:	f857 1024 	ldr.w	r1, [r7, r4, lsl #2]
 8008756:	f7f7 fcff 	bl	8000158 <__addsf3>
 800875a:	3c01      	subs	r4, #1
 800875c:	2c00      	cmp	r4, #0
 800875e:	daf8      	bge.n	8008752 <__kernel_rem_pio2f+0x43e>
 8008760:	b10d      	cbz	r5, 8008766 <__kernel_rem_pio2f+0x452>
 8008762:	f100 4000 	add.w	r0, r0, #2147483648	@ 0x80000000
 8008766:	9b00      	ldr	r3, [sp, #0]
 8008768:	6018      	str	r0, [r3, #0]
 800876a:	e7d0      	b.n	800870e <__kernel_rem_pio2f+0x3fa>
 800876c:	2000      	movs	r0, #0
 800876e:	af32      	add	r7, sp, #200	@ 0xc8
 8008770:	e7f4      	b.n	800875c <__kernel_rem_pio2f+0x448>
 8008772:	f857 1028 	ldr.w	r1, [r7, r8, lsl #2]
 8008776:	f7f7 fcef 	bl	8000158 <__addsf3>
 800877a:	f108 38ff 	add.w	r8, r8, #4294967295
 800877e:	f1b8 0f00 	cmp.w	r8, #0
 8008782:	daf6      	bge.n	8008772 <__kernel_rem_pio2f+0x45e>
 8008784:	b1ad      	cbz	r5, 80087b2 <__kernel_rem_pio2f+0x49e>
 8008786:	f100 4300 	add.w	r3, r0, #2147483648	@ 0x80000000
 800878a:	9a00      	ldr	r2, [sp, #0]
 800878c:	4601      	mov	r1, r0
 800878e:	6013      	str	r3, [r2, #0]
 8008790:	9832      	ldr	r0, [sp, #200]	@ 0xc8
 8008792:	f7f7 fcdf 	bl	8000154 <__aeabi_fsub>
 8008796:	f04f 0801 	mov.w	r8, #1
 800879a:	4544      	cmp	r4, r8
 800879c:	da0b      	bge.n	80087b6 <__kernel_rem_pio2f+0x4a2>
 800879e:	b10d      	cbz	r5, 80087a4 <__kernel_rem_pio2f+0x490>
 80087a0:	f100 4000 	add.w	r0, r0, #2147483648	@ 0x80000000
 80087a4:	9b00      	ldr	r3, [sp, #0]
 80087a6:	6058      	str	r0, [r3, #4]
 80087a8:	e7b1      	b.n	800870e <__kernel_rem_pio2f+0x3fa>
 80087aa:	46a0      	mov	r8, r4
 80087ac:	2000      	movs	r0, #0
 80087ae:	af32      	add	r7, sp, #200	@ 0xc8
 80087b0:	e7e5      	b.n	800877e <__kernel_rem_pio2f+0x46a>
 80087b2:	4603      	mov	r3, r0
 80087b4:	e7e9      	b.n	800878a <__kernel_rem_pio2f+0x476>
 80087b6:	f857 1f04 	ldr.w	r1, [r7, #4]!
 80087ba:	f7f7 fccd 	bl	8000158 <__addsf3>
 80087be:	f108 0801 	add.w	r8, r8, #1
 80087c2:	e7ea      	b.n	800879a <__kernel_rem_pio2f+0x486>
 80087c4:	f8d8 3000 	ldr.w	r3, [r8]
 80087c8:	f858 2c04 	ldr.w	r2, [r8, #-4]
 80087cc:	4619      	mov	r1, r3
 80087ce:	4610      	mov	r0, r2
 80087d0:	9302      	str	r3, [sp, #8]
 80087d2:	9201      	str	r2, [sp, #4]
 80087d4:	f7f7 fcc0 	bl	8000158 <__addsf3>
 80087d8:	9a01      	ldr	r2, [sp, #4]
 80087da:	4601      	mov	r1, r0
 80087dc:	4681      	mov	r9, r0
 80087de:	4610      	mov	r0, r2
 80087e0:	f7f7 fcb8 	bl	8000154 <__aeabi_fsub>
 80087e4:	9b02      	ldr	r3, [sp, #8]
 80087e6:	f10a 3aff 	add.w	sl, sl, #4294967295
 80087ea:	4619      	mov	r1, r3
 80087ec:	f7f7 fcb4 	bl	8000158 <__addsf3>
 80087f0:	f848 0904 	str.w	r0, [r8], #-4
 80087f4:	f8c8 9000 	str.w	r9, [r8]
 80087f8:	e797      	b.n	800872a <__kernel_rem_pio2f+0x416>
 80087fa:	f857 3c04 	ldr.w	r3, [r7, #-4]
 80087fe:	f8d7 a000 	ldr.w	sl, [r7]
 8008802:	4618      	mov	r0, r3
 8008804:	4651      	mov	r1, sl
 8008806:	9301      	str	r3, [sp, #4]
 8008808:	f7f7 fca6 	bl	8000158 <__addsf3>
 800880c:	9b01      	ldr	r3, [sp, #4]
 800880e:	4601      	mov	r1, r0
 8008810:	4680      	mov	r8, r0
 8008812:	4618      	mov	r0, r3
 8008814:	f7f7 fc9e 	bl	8000154 <__aeabi_fsub>
 8008818:	4651      	mov	r1, sl
 800881a:	f7f7 fc9d 	bl	8000158 <__addsf3>
 800881e:	f847 0904 	str.w	r0, [r7], #-4
 8008822:	f109 39ff 	add.w	r9, r9, #4294967295
 8008826:	f8c7 8000 	str.w	r8, [r7]
 800882a:	e782      	b.n	8008732 <__kernel_rem_pio2f+0x41e>
 800882c:	f85b 1024 	ldr.w	r1, [fp, r4, lsl #2]
 8008830:	f7f7 fc92 	bl	8000158 <__addsf3>
 8008834:	3c01      	subs	r4, #1
 8008836:	e780      	b.n	800873a <__kernel_rem_pio2f+0x426>
 8008838:	9900      	ldr	r1, [sp, #0]
 800883a:	f102 4200 	add.w	r2, r2, #2147483648	@ 0x80000000
 800883e:	f103 4300 	add.w	r3, r3, #2147483648	@ 0x80000000
 8008842:	600a      	str	r2, [r1, #0]
 8008844:	604b      	str	r3, [r1, #4]
 8008846:	460a      	mov	r2, r1
 8008848:	f100 4000 	add.w	r0, r0, #2147483648	@ 0x80000000
 800884c:	e77f      	b.n	800874e <__kernel_rem_pio2f+0x43a>
 800884e:	bf00      	nop

08008850 <scalbnf>:
 8008850:	f030 4200 	bics.w	r2, r0, #2147483648	@ 0x80000000
 8008854:	b538      	push	{r3, r4, r5, lr}
 8008856:	4603      	mov	r3, r0
 8008858:	460d      	mov	r5, r1
 800885a:	4604      	mov	r4, r0
 800885c:	d02e      	beq.n	80088bc <scalbnf+0x6c>
 800885e:	f1b2 4fff 	cmp.w	r2, #2139095040	@ 0x7f800000
 8008862:	d304      	bcc.n	800886e <scalbnf+0x1e>
 8008864:	4601      	mov	r1, r0
 8008866:	f7f7 fc77 	bl	8000158 <__addsf3>
 800886a:	4603      	mov	r3, r0
 800886c:	e026      	b.n	80088bc <scalbnf+0x6c>
 800886e:	f010 4fff 	tst.w	r0, #2139095040	@ 0x7f800000
 8008872:	d118      	bne.n	80088a6 <scalbnf+0x56>
 8008874:	f04f 4198 	mov.w	r1, #1275068416	@ 0x4c000000
 8008878:	f7f7 fd76 	bl	8000368 <__aeabi_fmul>
 800887c:	4a17      	ldr	r2, [pc, #92]	@ (80088dc <scalbnf+0x8c>)
 800887e:	4603      	mov	r3, r0
 8008880:	4295      	cmp	r5, r2
 8008882:	db0c      	blt.n	800889e <scalbnf+0x4e>
 8008884:	4604      	mov	r4, r0
 8008886:	f3c0 52c7 	ubfx	r2, r0, #23, #8
 800888a:	3a19      	subs	r2, #25
 800888c:	f24c 3150 	movw	r1, #50000	@ 0xc350
 8008890:	428d      	cmp	r5, r1
 8008892:	dd0a      	ble.n	80088aa <scalbnf+0x5a>
 8008894:	4912      	ldr	r1, [pc, #72]	@ (80088e0 <scalbnf+0x90>)
 8008896:	4618      	mov	r0, r3
 8008898:	f361 001e 	bfi	r0, r1, #0, #31
 800889c:	e000      	b.n	80088a0 <scalbnf+0x50>
 800889e:	4911      	ldr	r1, [pc, #68]	@ (80088e4 <scalbnf+0x94>)
 80088a0:	f7f7 fd62 	bl	8000368 <__aeabi_fmul>
 80088a4:	e7e1      	b.n	800886a <scalbnf+0x1a>
 80088a6:	0dd2      	lsrs	r2, r2, #23
 80088a8:	e7f0      	b.n	800888c <scalbnf+0x3c>
 80088aa:	1951      	adds	r1, r2, r5
 80088ac:	29fe      	cmp	r1, #254	@ 0xfe
 80088ae:	dcf1      	bgt.n	8008894 <scalbnf+0x44>
 80088b0:	2900      	cmp	r1, #0
 80088b2:	dd05      	ble.n	80088c0 <scalbnf+0x70>
 80088b4:	f024 44ff 	bic.w	r4, r4, #2139095040	@ 0x7f800000
 80088b8:	ea44 53c1 	orr.w	r3, r4, r1, lsl #23
 80088bc:	4618      	mov	r0, r3
 80088be:	bd38      	pop	{r3, r4, r5, pc}
 80088c0:	f111 0f16 	cmn.w	r1, #22
 80088c4:	da01      	bge.n	80088ca <scalbnf+0x7a>
 80088c6:	4907      	ldr	r1, [pc, #28]	@ (80088e4 <scalbnf+0x94>)
 80088c8:	e7e5      	b.n	8008896 <scalbnf+0x46>
 80088ca:	f101 0019 	add.w	r0, r1, #25
 80088ce:	f024 44ff 	bic.w	r4, r4, #2139095040	@ 0x7f800000
 80088d2:	f04f 514c 	mov.w	r1, #855638016	@ 0x33000000
 80088d6:	ea44 50c0 	orr.w	r0, r4, r0, lsl #23
 80088da:	e7e1      	b.n	80088a0 <scalbnf+0x50>
 80088dc:	ffff3cb0 	.word	0xffff3cb0
 80088e0:	7149f2ca 	.word	0x7149f2ca
 80088e4:	0da24260 	.word	0x0da24260

080088e8 <floorf>:
 80088e8:	b570      	push	{r4, r5, r6, lr}
 80088ea:	f3c0 55c7 	ubfx	r5, r0, #23, #8
 80088ee:	3d7f      	subs	r5, #127	@ 0x7f
 80088f0:	2d16      	cmp	r5, #22
 80088f2:	4601      	mov	r1, r0
 80088f4:	4604      	mov	r4, r0
 80088f6:	f020 4600 	bic.w	r6, r0, #2147483648	@ 0x80000000
 80088fa:	dc26      	bgt.n	800894a <floorf+0x62>
 80088fc:	2d00      	cmp	r5, #0
 80088fe:	da0f      	bge.n	8008920 <floorf+0x38>
 8008900:	4917      	ldr	r1, [pc, #92]	@ (8008960 <floorf+0x78>)
 8008902:	f7f7 fc29 	bl	8000158 <__addsf3>
 8008906:	2100      	movs	r1, #0
 8008908:	f7f7 feea 	bl	80006e0 <__aeabi_fcmpgt>
 800890c:	b130      	cbz	r0, 800891c <floorf+0x34>
 800890e:	2c00      	cmp	r4, #0
 8008910:	da23      	bge.n	800895a <floorf+0x72>
 8008912:	2e00      	cmp	r6, #0
 8008914:	4c13      	ldr	r4, [pc, #76]	@ (8008964 <floorf+0x7c>)
 8008916:	bf08      	it	eq
 8008918:	f04f 4400 	moveq.w	r4, #2147483648	@ 0x80000000
 800891c:	4621      	mov	r1, r4
 800891e:	e01a      	b.n	8008956 <floorf+0x6e>
 8008920:	4e11      	ldr	r6, [pc, #68]	@ (8008968 <floorf+0x80>)
 8008922:	412e      	asrs	r6, r5
 8008924:	4230      	tst	r0, r6
 8008926:	d016      	beq.n	8008956 <floorf+0x6e>
 8008928:	490d      	ldr	r1, [pc, #52]	@ (8008960 <floorf+0x78>)
 800892a:	f7f7 fc15 	bl	8000158 <__addsf3>
 800892e:	2100      	movs	r1, #0
 8008930:	f7f7 fed6 	bl	80006e0 <__aeabi_fcmpgt>
 8008934:	2800      	cmp	r0, #0
 8008936:	d0f1      	beq.n	800891c <floorf+0x34>
 8008938:	2c00      	cmp	r4, #0
 800893a:	bfbe      	ittt	lt
 800893c:	f44f 0300 	movlt.w	r3, #8388608	@ 0x800000
 8008940:	412b      	asrlt	r3, r5
 8008942:	18e4      	addlt	r4, r4, r3
 8008944:	ea24 0406 	bic.w	r4, r4, r6
 8008948:	e7e8      	b.n	800891c <floorf+0x34>
 800894a:	f1b6 4fff 	cmp.w	r6, #2139095040	@ 0x7f800000
 800894e:	d302      	bcc.n	8008956 <floorf+0x6e>
 8008950:	f7f7 fc02 	bl	8000158 <__addsf3>
 8008954:	4601      	mov	r1, r0
 8008956:	4608      	mov	r0, r1
 8008958:	bd70      	pop	{r4, r5, r6, pc}
 800895a:	2400      	movs	r4, #0
 800895c:	e7de      	b.n	800891c <floorf+0x34>
 800895e:	bf00      	nop
 8008960:	7149f2ca 	.word	0x7149f2ca
 8008964:	bf800000 	.word	0xbf800000
 8008968:	007fffff 	.word	0x007fffff

0800896c <_init>:
 800896c:	b5f8      	push	{r3, r4, r5, r6, r7, lr}
 800896e:	bf00      	nop
 8008970:	bcf8      	pop	{r3, r4, r5, r6, r7}
 8008972:	bc08      	pop	{r3}
 8008974:	469e      	mov	lr, r3
 8008976:	4770      	bx	lr

08008978 <_fini>:
 8008978:	b5f8      	push	{r3, r4, r5, r6, r7, lr}
 800897a:	bf00      	nop
 800897c:	bcf8      	pop	{r3, r4, r5, r6, r7}
 800897e:	bc08      	pop	{r3}
 8008980:	469e      	mov	lr, r3
 8008982:	4770      	bx	lr
